///////////////////////////////////////////////////////////////////////////////
//
// IAR C/C++ Compiler V9.10.1.2146 for 8051               22/Jan/2018  09:10:46
// Copyright 2004-2014 IAR Systems AB.
// Standalone license - IAR Embedded Workbench for 8051
//
//    Core               =  plain
//    Code model         =  banked
//    Data model         =  large
//    Calling convention =  xdata reentrant
//    Constant location  =  data_rom
//    Dptr setup         =  1,16
//                          
//    Source file        =  
//        E:\GitHub\面板Z-Stack Home
//        1.2.2a.44539\Projects\zstack\HomeAutomation\Add\AddSceneSelector\add_sceneselector.c
//    Command line       =  
//        -f "E:\GitHub\面板Z-Stack Home
//        1.2.2a.44539\Projects\zstack\HomeAutomation\SceneSelector\CC2530DB\..\..\..\Tools\CC2530DB\f8wEndev.cfg"
//        (-DCPU32MHZ -DROOT=__near_func -DMAC_CFG_TX_DATA_MAX=3
//        -DMAC_CFG_TX_MAX=6 -DMAC_CFG_RX_MAX=3) -f "E:\GitHub\面板Z-Stack Home
//        1.2.2a.44539\Projects\zstack\HomeAutomation\SceneSelector\CC2530DB\..\..\..\Tools\CC2530DB\f8wConfig.cfg"
//        (-DZIGBEEPRO -DSECURE=1 -DZG_SECURE_DYNAMIC=0 -DREFLECTOR
//        -DDEFAULT_CHANLIST=0x07FFF800 -DZDAPP_CONFIG_PAN_ID=0xFFFF
//        -DNWK_START_DELAY=100 -DEXTENDED_JOINING_RANDOM_MASK=0x007F
//        -DBEACON_REQUEST_DELAY=100 -DBEACON_REQ_DELAY_MASK=0x00FF
//        -DLINK_STATUS_JITTER_MASK=0x007F -DROUTE_EXPIRY_TIME=30
//        -DAPSC_ACK_WAIT_DURATION_POLLED=3000 -DNWK_INDIRECT_MSG_TIMEOUT=7
//        -DMAX_RREQ_ENTRIES=8 -DAPSC_MAX_FRAME_RETRIES=3
//        -DNWK_MAX_DATA_RETRIES=2 -DMAX_POLL_FAILURE_RETRIES=2 -DMAX_BCAST=9
//        -DAPS_MAX_GROUPS=16 -DMAX_RTG_ENTRIES=40 -DNWK_MAX_BINDING_ENTRIES=4
//        -DMAX_BINDING_CLUSTER_IDS=4 "-DDEFAULT_KEY={0x01, 0x03, 0x05, 0x07,
//        0x09, 0x0B, 0x0D, 0x0F, 0x00, 0x02, 0x04, 0x06, 0x08, 0x0A, 0x0C,
//        0x0D}" -DMAC_MAX_FRAME_SIZE=116 -DZDNWKMGR_MIN_TRANSMISSIONS=20
//        "-DCONST=const __code" -DGENERIC=__generic -DRFD_RCVC_ALWAYS_ON=FALSE
//        -DPOLL_RATE=120000 -DQUEUED_POLL_RATE=100 -DRESPONSE_POLL_RATE=100
//        -DREJOIN_POLL_RATE=440 -DREJOIN_BACKOFF=900000 -DREJOIN_SCAN=120000)
//        -f "E:\GitHub\面板Z-Stack Home
//        1.2.2a.44539\Projects\zstack\HomeAutomation\SceneSelector\CC2530DB\..\..\..\Tools\CC2530DB\f8wZCL.cfg"
//        "E:\GitHub\面板Z-Stack Home
//        1.2.2a.44539\Projects\zstack\HomeAutomation\Add\AddSceneSelector\add_sceneselector.c"
//        -D SCENE_SELECTOR_TOUCHKEY -D xSCENE_SELECTOR -D ISR_KEYINTERRUPT -D
//        OSC32K_CRYSTAL_INSTALLED=FALSE -D xxHAL_PA_LNA -D SECURE=1 -D
//        TC_LINKKEY_JOIN -D NV_INIT -D NV_RESTORE -D POWER_SAVING -D
//        NWK_AUTO_POLL -D xHOLD_AUTO_START -D xZTOOL_P1 -D MT_TASK -D
//        MT_APP_FUNC -D MT_SYS_FUNC -D MT_ZDO_FUNC -D xLCD_SUPPORTED=DEBUG -D
//        MULTICAST_ENABLED=FALSE -D ZCL_READ -D ZCL_WRITE -D ZCL_REPORT -D
//        xZCL_EZMODE -D ZCL_BASIC -D ZCL_IDENTIFY -D ZCL_GROUPS -D ZCL_SCENES
//        -D ZCL_ON_OFF -D ZCL_LEVEL_CTRL -D ZCL_DIAGNOSTIC -D
//        FEATURE_SYSTEM_STATS -lC "E:\GitHub\面板Z-Stack Home
//        1.2.2a.44539\Projects\zstack\HomeAutomation\SceneSelector\CC2530DB\EndDeviceEB\List\"
//        -lA "E:\GitHub\面板Z-Stack Home
//        1.2.2a.44539\Projects\zstack\HomeAutomation\SceneSelector\CC2530DB\EndDeviceEB\List\"
//        --diag_suppress Pe001,Pa010 -o "E:\GitHub\面板Z-Stack Home
//        1.2.2a.44539\Projects\zstack\HomeAutomation\SceneSelector\CC2530DB\EndDeviceEB\Obj\"
//        -e --debug --core=plain --dptr=16,1 --data_model=large
//        --code_model=banked --calling_convention=xdata_reentrant
//        --place_constants=data_rom --nr_virtual_regs 16 -I
//        "E:\GitHub\面板Z-Stack Home
//        1.2.2a.44539\Projects\zstack\HomeAutomation\SceneSelector\CC2530DB\..\..\Add\AddSceneSelector\"
//        -I "E:\GitHub\面板Z-Stack Home
//        1.2.2a.44539\Projects\zstack\HomeAutomation\SceneSelector\CC2530DB\..\..\Add\AddCommon\"
//        -I "E:\GitHub\面板Z-Stack Home
//        1.2.2a.44539\Projects\zstack\HomeAutomation\SceneSelector\CC2530DB\..\..\Add\"
//        -I "E:\GitHub\面板Z-Stack Home
//        1.2.2a.44539\Projects\zstack\HomeAutomation\SceneSelector\CC2530DB\"
//        -I "E:\GitHub\面板Z-Stack Home
//        1.2.2a.44539\Projects\zstack\HomeAutomation\SceneSelector\CC2530DB\..\Source\"
//        -I "E:\GitHub\面板Z-Stack Home
//        1.2.2a.44539\Projects\zstack\HomeAutomation\SceneSelector\CC2530DB\..\..\Source\"
//        -I "E:\GitHub\面板Z-Stack Home
//        1.2.2a.44539\Projects\zstack\HomeAutomation\SceneSelector\CC2530DB\..\..\..\ZMain\TI2530DB\"
//        -I "E:\GitHub\面板Z-Stack Home
//        1.2.2a.44539\Projects\zstack\HomeAutomation\SceneSelector\CC2530DB\..\..\..\..\..\Components\hal\include\"
//        -I "E:\GitHub\面板Z-Stack Home
//        1.2.2a.44539\Projects\zstack\HomeAutomation\SceneSelector\CC2530DB\..\..\..\..\..\Components\hal\target\CC2530EB\"
//        -I "E:\GitHub\面板Z-Stack Home
//        1.2.2a.44539\Projects\zstack\HomeAutomation\SceneSelector\CC2530DB\..\..\..\..\..\Components\mac\include\"
//        -I "E:\GitHub\面板Z-Stack Home
//        1.2.2a.44539\Projects\zstack\HomeAutomation\SceneSelector\CC2530DB\..\..\..\..\..\Components\mac\high_level\"
//        -I "E:\GitHub\面板Z-Stack Home
//        1.2.2a.44539\Projects\zstack\HomeAutomation\SceneSelector\CC2530DB\..\..\..\..\..\Components\mac\low_level\srf04\"
//        -I "E:\GitHub\面板Z-Stack Home
//        1.2.2a.44539\Projects\zstack\HomeAutomation\SceneSelector\CC2530DB\..\..\..\..\..\Components\mac\low_level\srf04\single_chip\"
//        -I "E:\GitHub\面板Z-Stack Home
//        1.2.2a.44539\Projects\zstack\HomeAutomation\SceneSelector\CC2530DB\..\..\..\..\..\Components\mt\"
//        -I "E:\GitHub\面板Z-Stack Home
//        1.2.2a.44539\Projects\zstack\HomeAutomation\SceneSelector\CC2530DB\..\..\..\..\..\Components\osal\include\"
//        -I "E:\GitHub\面板Z-Stack Home
//        1.2.2a.44539\Projects\zstack\HomeAutomation\SceneSelector\CC2530DB\..\..\..\..\..\Components\services\saddr\"
//        -I "E:\GitHub\面板Z-Stack Home
//        1.2.2a.44539\Projects\zstack\HomeAutomation\SceneSelector\CC2530DB\..\..\..\..\..\Components\services\sdata\"
//        -I "E:\GitHub\面板Z-Stack Home
//        1.2.2a.44539\Projects\zstack\HomeAutomation\SceneSelector\CC2530DB\..\..\..\..\..\Components\stack\af\"
//        -I "E:\GitHub\面板Z-Stack Home
//        1.2.2a.44539\Projects\zstack\HomeAutomation\SceneSelector\CC2530DB\..\..\..\..\..\Components\stack\nwk\"
//        -I "E:\GitHub\面板Z-Stack Home
//        1.2.2a.44539\Projects\zstack\HomeAutomation\SceneSelector\CC2530DB\..\..\..\..\..\Components\stack\sapi\"
//        -I "E:\GitHub\面板Z-Stack Home
//        1.2.2a.44539\Projects\zstack\HomeAutomation\SceneSelector\CC2530DB\..\..\..\..\..\Components\stack\sec\"
//        -I "E:\GitHub\面板Z-Stack Home
//        1.2.2a.44539\Projects\zstack\HomeAutomation\SceneSelector\CC2530DB\..\..\..\..\..\Components\stack\sys\"
//        -I "E:\GitHub\面板Z-Stack Home
//        1.2.2a.44539\Projects\zstack\HomeAutomation\SceneSelector\CC2530DB\..\..\..\..\..\Components\stack\zcl\"
//        -I "E:\GitHub\面板Z-Stack Home
//        1.2.2a.44539\Projects\zstack\HomeAutomation\SceneSelector\CC2530DB\..\..\..\..\..\Components\stack\zdo\"
//        -I "E:\GitHub\面板Z-Stack Home
//        1.2.2a.44539\Projects\zstack\HomeAutomation\SceneSelector\CC2530DB\..\..\..\..\..\Components\zmac\"
//        -I "E:\GitHub\面板Z-Stack Home
//        1.2.2a.44539\Projects\zstack\HomeAutomation\SceneSelector\CC2530DB\..\..\..\..\..\Components\zmac\f8w\"
//        -Ohz --require_prototypes
//    List file          =  
//        E:\GitHub\面板Z-Stack Home
//        1.2.2a.44539\Projects\zstack\HomeAutomation\SceneSelector\CC2530DB\EndDeviceEB\List\add_sceneselector.s51
//
///////////////////////////////////////////////////////////////////////////////

        NAME add_sceneselector

        RTMODEL "__SystemLibrary", "CLib"
        RTMODEL "__calling_convention", "xdata_reentrant"
        RTMODEL "__code_model", "banked"
        RTMODEL "__core", "plain"
        RTMODEL "__data_model", "large"
        RTMODEL "__dptr_size", "16"
        RTMODEL "__extended_stack", "disabled"
        RTMODEL "__location_for_constants", "data"
        RTMODEL "__number_of_dptrs", "1"
        RTMODEL "__rt_version", "1"

        RSEG DOVERLAY:DATA:NOROOT(0)
        RSEG IOVERLAY:IDATA:NOROOT(0)
        RSEG ISTACK:IDATA:NOROOT(0)
        RSEG PSTACK:XDATA:NOROOT(0)
        RSEG XSTACK:XDATA:NOROOT(0)

        EXTERN ?V0
        EXTERN ?V1
        EXTERN ?BANKED_ENTER_XDATA
        EXTERN ?BANKED_LEAVE_XDATA
        EXTERN ?BDISPATCH
        EXTERN ?BRET
        EXTERN ?DEALLOC_XSTACK8
        EXTERN ?PUSH_XSTACK8_X_FOUR
        EXTERN ?PUSH_XSTACK8_X_TWO
        EXTERN ?PUSH_XSTACK_I_ONE
        EXTERN ?PUSH_XSTACK_I_TWO
        EXTERN ?S_SHL
        EXTERN __INIT_XDATA_I
        EXTERN __INIT_XDATA_Z

        FUNCTION ??addSceneSelector_APT8L08_I2C_readByte?relay,0203H
        FUNCTION ??addSceneSelector_APT8L08_I2C_start?relay,0203H
        FUNCTION ??addSceneSelector_APT8L08_I2C_stop?relay,0203H
        FUNCTION ??addSceneSelector_APT8L08_I2C_waitACK?relay,0203H
        FUNCTION ??addSceneSelector_APT8L08_I2C_write8bit?relay,0203H
        FUNCTION ??addSceneSelector_APT8L08_I2C_writeRegister?re,0203H
        PUBLIC ??addSceneSelector_APT8L08_init?relay
        FUNCTION ??addSceneSelector_APT8L08_init?relay,0203H
        FUNCTION ??addSceneSelector_APT8L08_initAl?relay,0203H
        FUNCTION ??addSceneSelector_APT8L08_initHal?relay,0203H
        FUNCTION ??addSceneSelector_clearKeyData?relay,0203H
        PUBLIC ??addSceneSelector_eventLoop?relay
        FUNCTION ??addSceneSelector_eventLoop?relay,0203H
        PUBLIC ??addSceneSelector_factoryResetCheck?relay
        FUNCTION ??addSceneSelector_factoryResetCheck?relay,0203H
        FUNCTION ??addSceneSelector_handleOneTime?relay,0203H
        PUBLIC ??addSceneSelector_init?relay
        FUNCTION ??addSceneSelector_init?relay,0203H
        PUBLIC ??addSceneSelector_isrPort0?relay
        FUNCTION ??addSceneSelector_isrPort0?relay,0203H
        PUBLIC ??addSceneSelector_isrPort1?relay
        FUNCTION ??addSceneSelector_isrPort1?relay,0203H
        PUBLIC ??addSceneSelector_isrPort2?relay
        FUNCTION ??addSceneSelector_isrPort2?relay,0203H
        FUNCTION ??addSceneSelector_sendDestinationAddressConfig,0203H
        PUBLIC ??addSceneSelector_sendLevelControlMove?relay
        FUNCTION ??addSceneSelector_sendLevelControlMove?relay,0203H
        PUBLIC ??addSceneSelector_setGroupID?relay
        FUNCTION ??addSceneSelector_setGroupID?relay,0203H
        PUBLIC ??addSceneSelector_setSceneID?relay
        FUNCTION ??addSceneSelector_setSceneID?relay,0203H
        PUBLIC ??addSceneSelector_wakeupCheck?relay
        FUNCTION ??addSceneSelector_wakeupCheck?relay,0203H
        PUBWEAK APCFG
        PUBWEAK IEN2
        PUBWEAK IP0
        PUBWEAK IP1
        PUBWEAK P0DIR
        PUBWEAK P0INP
        PUBWEAK P0SEL
        PUBWEAK P2DIR
        PUBWEAK P2IEN
        PUBWEAK P2IFG
        PUBWEAK P2INP
        PUBWEAK P2SEL
        PUBWEAK PICTL
        PUBWEAK _A_IEN0
        PUBWEAK _A_IRCON2
        PUBWEAK _A_P0
        PUBWEAK _A_P2
        PUBWEAK __Constant_1388
        PUBWEAK __Constant_3e8
        PUBLIC aSceneSelectorApt8l08_16bitKeyMap
        PUBLIC aSceneSelectorApt8l08_16bitKeyMap_saved
        PUBLIC aSceneSelectorApt8l08_i2cWaitStatus
        PUBLIC aSceneSelectorApt8l08_registerAddress
        PUBLIC aSceneSelectorApt8l08_registerData
        PUBLIC aSceneSelectorApt8l08_tkFin8bit
        PUBLIC aSceneSelectorCurrentEndpoint
        PUBLIC aSceneSelectorEndpoint1_GroupID
        PUBLIC aSceneSelectorEndpoint1_SceneID
        PUBLIC aSceneSelectorEndpoint2_GroupID
        PUBLIC aSceneSelectorEndpoint2_SceneID
        PUBLIC aSceneSelectorEndpoint3_GroupID
        PUBLIC aSceneSelectorEndpoint3_SceneID
        PUBLIC aSceneSelectorEndpoint4_GroupID
        PUBLIC aSceneSelectorEndpoint4_SceneID
        PUBLIC aSceneSelectorFactoryReset
        PUBLIC aSceneSelectorKeyDimmingDown
        PUBLIC aSceneSelectorKeyDimmingUp
        PUBLIC aSceneSelectorKeyScene1
        PUBLIC aSceneSelectorKeyScene2
        PUBLIC aSceneSelectorKeyScene3
        PUBLIC aSceneSelectorKeyScene4
        PUBLIC aSceneSelectorWakeup
        FUNCTION addSceneSelector_APT8L08_I2C_readByte,0a1203H
        ARGFRAME XSTACK, 9, STACK
        ARGFRAME IOVERLAY, 0, STATIC
        ARGFRAME DOVERLAY, 0, STATIC
        LOCFRAME XSTACK, 9, STACK
        FUNCTION addSceneSelector_APT8L08_I2C_start,021203H
        ARGFRAME XSTACK, 9, STACK
        ARGFRAME IOVERLAY, 0, STATIC
        ARGFRAME DOVERLAY, 0, STATIC
        LOCFRAME ISTACK, 2, STACK
        FUNCTION addSceneSelector_APT8L08_I2C_stop,021203H
        ARGFRAME XSTACK, 9, STACK
        ARGFRAME IOVERLAY, 0, STATIC
        ARGFRAME DOVERLAY, 0, STATIC
        LOCFRAME ISTACK, 2, STACK
        FUNCTION addSceneSelector_APT8L08_I2C_waitACK,021203H
        ARGFRAME XSTACK, 9, STACK
        ARGFRAME IOVERLAY, 0, STATIC
        ARGFRAME DOVERLAY, 0, STATIC
        LOCFRAME ISTACK, 2, STACK
        FUNCTION addSceneSelector_APT8L08_I2C_write8bit,0a1203H
        ARGFRAME XSTACK, 9, STACK
        ARGFRAME IOVERLAY, 0, STATIC
        ARGFRAME DOVERLAY, 0, STATIC
        LOCFRAME XSTACK, 10, STACK
        FUNCTION addSceneSelector_APT8L08_I2C_writeRegister,021203H
        ARGFRAME XSTACK, 9, STACK
        ARGFRAME IOVERLAY, 0, STATIC
        ARGFRAME DOVERLAY, 0, STATIC
        LOCFRAME XSTACK, 9, STACK
        PUBLIC addSceneSelector_APT8L08_init
        FUNCTION addSceneSelector_APT8L08_init,021203H
        ARGFRAME XSTACK, 0, STACK
        ARGFRAME IOVERLAY, 0, STATIC
        ARGFRAME DOVERLAY, 0, STATIC
        LOCFRAME ISTACK, 2, STACK
        FUNCTION addSceneSelector_APT8L08_initAl,021203H
        ARGFRAME XSTACK, 0, STACK
        ARGFRAME IOVERLAY, 0, STATIC
        ARGFRAME DOVERLAY, 0, STATIC
        LOCFRAME XSTACK, 9, STACK
        FUNCTION addSceneSelector_APT8L08_initHal,021203H
        ARGFRAME XSTACK, 0, STACK
        ARGFRAME IOVERLAY, 0, STATIC
        ARGFRAME DOVERLAY, 0, STATIC
        LOCFRAME ISTACK, 2, STACK
        FUNCTION addSceneSelector_clearKeyData,0203H
        ARGFRAME XSTACK, 10, STACK
        ARGFRAME IOVERLAY, 0, STATIC
        ARGFRAME DOVERLAY, 0, STATIC
        LOCFRAME ISTACK, 2, STACK
        PUBLIC addSceneSelector_eventLoop
        FUNCTION addSceneSelector_eventLoop,0a1203H
        ARGFRAME XSTACK, 0, STACK
        LOCFRAME XSTACK, 13, STACK
        PUBLIC addSceneSelector_factoryResetCheck
        FUNCTION addSceneSelector_factoryResetCheck,021203H
        ARGFRAME XSTACK, 0, STACK
        LOCFRAME ISTACK, 2, STACK
        FUNCTION addSceneSelector_handleOneTime,0a1203H
        ARGFRAME XSTACK, 9, STACK
        ARGFRAME IOVERLAY, 0, STATIC
        ARGFRAME DOVERLAY, 0, STATIC
        LOCFRAME XSTACK, 21, STACK
        PUBLIC addSceneSelector_init
        FUNCTION addSceneSelector_init,021203H
        ARGFRAME XSTACK, 0, STACK
        LOCFRAME ISTACK, 2, STACK
        PUBLIC addSceneSelector_isrPort0
        FUNCTION addSceneSelector_isrPort0,0203H
        ARGFRAME XSTACK, 0, STACK
        PUBLIC addSceneSelector_isrPort1
        FUNCTION addSceneSelector_isrPort1,0203H
        ARGFRAME XSTACK, 0, STACK
        PUBLIC addSceneSelector_isrPort2
        FUNCTION addSceneSelector_isrPort2,021203H
        ARGFRAME XSTACK, 0, STACK
        LOCFRAME XSTACK, 9, STACK
        FUNCTION addSceneSelector_sendDestinationAddressConfigure,0203H
        ARGFRAME XSTACK, 10, STACK
        ARGFRAME IOVERLAY, 0, STATIC
        ARGFRAME DOVERLAY, 0, STATIC
        LOCFRAME ISTACK, 2, STACK
        PUBLIC addSceneSelector_sendLevelControlMove
        FUNCTION addSceneSelector_sendLevelControlMove,0a1203H
        ARGFRAME XSTACK, 0, STACK
        LOCFRAME XSTACK, 12, STACK
        PUBLIC addSceneSelector_setGroupID
        FUNCTION addSceneSelector_setGroupID,0a1203H
        ARGFRAME XSTACK, 0, STACK
        LOCFRAME XSTACK, 14, STACK
        PUBLIC addSceneSelector_setSceneID
        FUNCTION addSceneSelector_setSceneID,0a1203H
        ARGFRAME XSTACK, 0, STACK
        LOCFRAME XSTACK, 14, STACK
        PUBLIC addSceneSelector_wakeupCheck
        FUNCTION addSceneSelector_wakeupCheck,021203H
        ARGFRAME XSTACK, 0, STACK
        LOCFRAME ISTACK, 2, STACK
        
          CFI Names cfiNames0
          CFI StackFrame CFA_SP SP IDATA
          CFI StackFrame CFA_PSP16 PSP16 XDATA
          CFI StackFrame CFA_XSP16 XSP16 XDATA
          CFI StaticOverlayFrame CFA_IOVERLAY IOVERLAY
          CFI StaticOverlayFrame CFA_DOVERLAY DOVERLAY
          CFI Resource `PSW.CY`:1, `B.BR0`:1, `B.BR1`:1, `B.BR2`:1, `B.BR3`:1
          CFI Resource `B.BR4`:1, `B.BR5`:1, `B.BR6`:1, `B.BR7`:1, `VB.BR8`:1
          CFI Resource `VB.BR9`:1, `VB.BR10`:1, `VB.BR11`:1, `VB.BR12`:1
          CFI Resource `VB.BR13`:1, `VB.BR14`:1, `VB.BR15`:1, VB:8, B:8, A:8
          CFI Resource PSW:8, DPL0:8, DPH0:8, R0:8, R1:8, R2:8, R3:8, R4:8, R5:8
          CFI Resource R6:8, R7:8, V0:8, V1:8, V2:8, V3:8, V4:8, V5:8, V6:8, V7:8
          CFI Resource V8:8, V9:8, V10:8, V11:8, V12:8, V13:8, V14:8, V15:8, SP:8
          CFI Resource PSPH:8, PSPL:8, PSP16:16, XSPH:8, XSPL:8, XSP16:16
          CFI VirtualResource ?RET:24
          CFI Resource ?BRET_EXT:8
          CFI VirtualResource ?RET_HIGH:8, ?RET_LOW:8
          CFI ResourceParts PSP16 PSPH, PSPL
          CFI ResourceParts XSP16 XSPH, XSPL
          CFI ResourceParts ?RET ?BRET_EXT, ?RET_HIGH, ?RET_LOW
          CFI EndNames cfiNames0
        
          CFI Common cfiCommon0 Using cfiNames0
          CFI CodeAlign 1
          CFI DataAlign -1
          CFI ReturnAddress ?RET CODE
          CFI CFA_DOVERLAY Used
          CFI CFA_IOVERLAY Used
          CFI CFA_SP SP+-3
          CFI CFA_PSP16 PSP16+0
          CFI CFA_XSP16 XSP16+0
          CFI `PSW.CY` SameValue
          CFI `B.BR0` SameValue
          CFI `B.BR1` SameValue
          CFI `B.BR2` SameValue
          CFI `B.BR3` SameValue
          CFI `B.BR4` SameValue
          CFI `B.BR5` SameValue
          CFI `B.BR6` SameValue
          CFI `B.BR7` SameValue
          CFI `VB.BR8` SameValue
          CFI `VB.BR9` SameValue
          CFI `VB.BR10` SameValue
          CFI `VB.BR11` SameValue
          CFI `VB.BR12` SameValue
          CFI `VB.BR13` SameValue
          CFI `VB.BR14` SameValue
          CFI `VB.BR15` SameValue
          CFI VB SameValue
          CFI B Undefined
          CFI A Undefined
          CFI PSW SameValue
          CFI DPL0 SameValue
          CFI DPH0 SameValue
          CFI R0 Undefined
          CFI R1 Undefined
          CFI R2 Undefined
          CFI R3 Undefined
          CFI R4 Undefined
          CFI R5 Undefined
          CFI R6 SameValue
          CFI R7 SameValue
          CFI V0 SameValue
          CFI V1 SameValue
          CFI V2 SameValue
          CFI V3 SameValue
          CFI V4 SameValue
          CFI V5 SameValue
          CFI V6 SameValue
          CFI V7 SameValue
          CFI V8 SameValue
          CFI V9 SameValue
          CFI V10 SameValue
          CFI V11 SameValue
          CFI V12 SameValue
          CFI V13 SameValue
          CFI V14 SameValue
          CFI V15 SameValue
          CFI PSPH Undefined
          CFI PSPL Undefined
          CFI XSPH Undefined
          CFI XSPL Undefined
          CFI ?RET Concat
          CFI ?BRET_EXT Frame(CFA_SP, 3)
          CFI ?RET_HIGH Frame(CFA_SP, 2)
          CFI ?RET_LOW Frame(CFA_SP, 1)
          CFI EndCommon cfiCommon0
        
        
          CFI Common cfiCommon1 Using cfiNames0
          CFI CodeAlign 1
          CFI DataAlign -1
          CFI ReturnAddress ?RET CODE
          CFI CFA_DOVERLAY Used
          CFI CFA_IOVERLAY Used
          CFI CFA_SP SP+-2
          CFI CFA_PSP16 PSP16+0
          CFI CFA_XSP16 XSP16+0
          CFI `PSW.CY` SameValue
          CFI `B.BR0` SameValue
          CFI `B.BR1` SameValue
          CFI `B.BR2` SameValue
          CFI `B.BR3` SameValue
          CFI `B.BR4` SameValue
          CFI `B.BR5` SameValue
          CFI `B.BR6` SameValue
          CFI `B.BR7` SameValue
          CFI `VB.BR8` SameValue
          CFI `VB.BR9` SameValue
          CFI `VB.BR10` SameValue
          CFI `VB.BR11` SameValue
          CFI `VB.BR12` SameValue
          CFI `VB.BR13` SameValue
          CFI `VB.BR14` SameValue
          CFI `VB.BR15` SameValue
          CFI VB SameValue
          CFI B SameValue
          CFI A SameValue
          CFI PSW SameValue
          CFI DPL0 SameValue
          CFI DPH0 SameValue
          CFI R0 SameValue
          CFI R1 SameValue
          CFI R2 SameValue
          CFI R3 SameValue
          CFI R4 SameValue
          CFI R5 SameValue
          CFI R6 SameValue
          CFI R7 SameValue
          CFI V0 SameValue
          CFI V1 SameValue
          CFI V2 SameValue
          CFI V3 SameValue
          CFI V4 SameValue
          CFI V5 SameValue
          CFI V6 SameValue
          CFI V7 SameValue
          CFI V8 SameValue
          CFI V9 SameValue
          CFI V10 SameValue
          CFI V11 SameValue
          CFI V12 SameValue
          CFI V13 SameValue
          CFI V14 SameValue
          CFI V15 SameValue
          CFI PSPH Undefined
          CFI PSPL Undefined
          CFI XSPH Undefined
          CFI XSPL Undefined
          CFI ?RET Concat
          CFI ?BRET_EXT SameValue
          CFI ?RET_HIGH Frame(CFA_SP, 2)
          CFI ?RET_LOW Frame(CFA_SP, 1)
          CFI EndCommon cfiCommon1
        
Onboard_wait        SYMBOL "Onboard_wait"
??Onboard_wait?relay SYMBOL "?relay", Onboard_wait
addCommon_atNormalWorkState SYMBOL "addCommon_atNormalWorkState"
??addCommon_atNormalWorkState?relay SYMBOL "?relay", addCommon_atNormalWorkState
addCommon_delayMS   SYMBOL "addCommon_delayMS"
??addCommon_delayMS?relay SYMBOL "?relay", addCommon_delayMS
addCommon_eventLoop SYMBOL "addCommon_eventLoop"
??addCommon_eventLoop?relay SYMBOL "?relay", addCommon_eventLoop
addCommon_factoryReset SYMBOL "addCommon_factoryReset"
??addCommon_factoryReset?relay SYMBOL "?relay", addCommon_factoryReset
addCommon_handleKeyDown SYMBOL "addCommon_handleKeyDown"
??addCommon_handleKeyDown?relay SYMBOL "?relay", addCommon_handleKeyDown
addCommon_handleKeyUp SYMBOL "addCommon_handleKeyUp"
??addCommon_handleKeyUp?relay SYMBOL "?relay", addCommon_handleKeyUp
addCommon_handleOneTime SYMBOL "addCommon_handleOneTime"
??addCommon_handleOneTime?relay SYMBOL "?relay", addCommon_handleOneTime
addCommon_init      SYMBOL "addCommon_init"
??addCommon_init?relay SYMBOL "?relay", addCommon_init
addCommon_polling   SYMBOL "addCommon_polling"
??addCommon_polling?relay SYMBOL "?relay", addCommon_polling
addCommon_sleep     SYMBOL "addCommon_sleep"
??addCommon_sleep?relay SYMBOL "?relay", addCommon_sleep
addCommon_wakeup    SYMBOL "addCommon_wakeup"
??addCommon_wakeup?relay SYMBOL "?relay", addCommon_wakeup
osal_nv_write       SYMBOL "osal_nv_write"
??osal_nv_write?relay SYMBOL "?relay", osal_nv_write
osal_set_event      SYMBOL "osal_set_event"
??osal_set_event?relay SYMBOL "?relay", osal_set_event
osal_start_timerEx  SYMBOL "osal_start_timerEx"
??osal_start_timerEx?relay SYMBOL "?relay", osal_start_timerEx
osal_stop_timerEx   SYMBOL "osal_stop_timerEx"
??osal_stop_timerEx?relay SYMBOL "?relay", osal_stop_timerEx
zclGeneral_SendLevelControlMoveRequest SYMBOL "zclGeneral_SendLevelControlMoveRequest"
??zclGeneral_SendLevelControlMoveRequest?relay SYMBOL "?relay", zclGeneral_SendLevelControlMoveRequest
zclGeneral_SendLevelControlStepRequest SYMBOL "zclGeneral_SendLevelControlStepRequest"
??zclGeneral_SendLevelControlStepRequest?relay SYMBOL "?relay", zclGeneral_SendLevelControlStepRequest
zclGeneral_SendSceneRequest SYMBOL "zclGeneral_SendSceneRequest"
??zclGeneral_SendSceneRequest?relay SYMBOL "?relay", zclGeneral_SendSceneRequest
zcl_SendCommand     SYMBOL "zcl_SendCommand"
??zcl_SendCommand?relay SYMBOL "?relay", zcl_SendCommand
addSceneSelector_APT8L08_init SYMBOL "addSceneSelector_APT8L08_init"
??addSceneSelector_APT8L08_init?relay SYMBOL "?relay", addSceneSelector_APT8L08_init
addSceneSelector_eventLoop SYMBOL "addSceneSelector_eventLoop"
??addSceneSelector_eventLoop?relay SYMBOL "?relay", addSceneSelector_eventLoop
addSceneSelector_factoryResetCheck SYMBOL "addSceneSelector_factoryResetCheck"
??addSceneSelector_factoryResetCheck?relay SYMBOL "?relay", addSceneSelector_factoryResetCheck
addSceneSelector_init SYMBOL "addSceneSelector_init"
??addSceneSelector_init?relay SYMBOL "?relay", addSceneSelector_init
addSceneSelector_isrPort0 SYMBOL "addSceneSelector_isrPort0"
??addSceneSelector_isrPort0?relay SYMBOL "?relay", addSceneSelector_isrPort0
addSceneSelector_isrPort1 SYMBOL "addSceneSelector_isrPort1"
??addSceneSelector_isrPort1?relay SYMBOL "?relay", addSceneSelector_isrPort1
addSceneSelector_isrPort2 SYMBOL "addSceneSelector_isrPort2"
??addSceneSelector_isrPort2?relay SYMBOL "?relay", addSceneSelector_isrPort2
addSceneSelector_sendLevelControlMove SYMBOL "addSceneSelector_sendLevelControlMove"
??addSceneSelector_sendLevelControlMove?relay SYMBOL "?relay", addSceneSelector_sendLevelControlMove
addSceneSelector_setGroupID SYMBOL "addSceneSelector_setGroupID"
??addSceneSelector_setGroupID?relay SYMBOL "?relay", addSceneSelector_setGroupID
addSceneSelector_setSceneID SYMBOL "addSceneSelector_setSceneID"
??addSceneSelector_setSceneID?relay SYMBOL "?relay", addSceneSelector_setSceneID
addSceneSelector_wakeupCheck SYMBOL "addSceneSelector_wakeupCheck"
??addSceneSelector_wakeupCheck?relay SYMBOL "?relay", addSceneSelector_wakeupCheck

        EXTERN ??Onboard_wait?relay
        FUNCTION ??Onboard_wait?relay,00H
        EXTERN ??addCommon_atNormalWorkState?relay
        FUNCTION ??addCommon_atNormalWorkState?relay,00H
        EXTERN ??addCommon_delayMS?relay
        FUNCTION ??addCommon_delayMS?relay,00H
        EXTERN ??addCommon_eventLoop?relay
        FUNCTION ??addCommon_eventLoop?relay,00H
        EXTERN ??addCommon_factoryReset?relay
        FUNCTION ??addCommon_factoryReset?relay,00H
        EXTERN ??addCommon_handleKeyDown?relay
        FUNCTION ??addCommon_handleKeyDown?relay,00H
        EXTERN ??addCommon_handleKeyUp?relay
        FUNCTION ??addCommon_handleKeyUp?relay,00H
        EXTERN ??addCommon_handleOneTime?relay
        FUNCTION ??addCommon_handleOneTime?relay,00H
        EXTERN ??addCommon_init?relay
        FUNCTION ??addCommon_init?relay,00H
        EXTERN ??addCommon_polling?relay
        FUNCTION ??addCommon_polling?relay,00H
        EXTERN ??addCommon_sleep?relay
        FUNCTION ??addCommon_sleep?relay,00H
        EXTERN ??addCommon_wakeup?relay
        FUNCTION ??addCommon_wakeup?relay,00H
        EXTERN ??osal_nv_write?relay
        FUNCTION ??osal_nv_write?relay,00H
        EXTERN ??osal_set_event?relay
        FUNCTION ??osal_set_event?relay,00H
        EXTERN ??osal_start_timerEx?relay
        FUNCTION ??osal_start_timerEx?relay,00H
        EXTERN ??osal_stop_timerEx?relay
        FUNCTION ??osal_stop_timerEx?relay,00H
        EXTERN ??zclGeneral_SendLevelControlMoveRequest?relay
        FUNCTION ??zclGeneral_SendLevelControlMoveRequest?relay,00H
        EXTERN ??zclGeneral_SendLevelControlStepRequest?relay
        FUNCTION ??zclGeneral_SendLevelControlStepRequest?relay,00H
        EXTERN ??zclGeneral_SendSceneRequest?relay
        FUNCTION ??zclGeneral_SendSceneRequest?relay,00H
        EXTERN ??zcl_SendCommand?relay
        FUNCTION ??zcl_SendCommand?relay,00H
        EXTERN Onboard_wait
        FUNCTION Onboard_wait,0202H
        ARGFRAME ISTACK, 2, STACK
        ARGFRAME PSTACK, 0, STACK
        ARGFRAME XSTACK, 10, STACK
        ARGFRAME IOVERLAY, 0, STATIC
        ARGFRAME DOVERLAY, 0, STATIC
        EXTERN acDelayJoinNetwork
        EXTERN acDeviceKeyTimingCounter
        EXTERN acDoubleClickCheckFlag
        EXTERN acDoubleClickCounter_whenKeyDown
        EXTERN acDoubleClickCounter_whenKeyUp
        EXTERN acInterruptTriggerEdgePort2
        EXTERN acPointer_NwkState
        EXTERN acPointer_TaskID
        EXTERN acSleepFlag
        EXTERN addCommon_atNormalWorkState
        FUNCTION addCommon_atNormalWorkState,0202H
        ARGFRAME ISTACK, 0, STACK
        ARGFRAME PSTACK, 0, STACK
        ARGFRAME XSTACK, 9, STACK
        ARGFRAME IOVERLAY, 0, STATIC
        ARGFRAME DOVERLAY, 0, STATIC
        EXTERN addCommon_delayMS
        FUNCTION addCommon_delayMS,0202H
        ARGFRAME ISTACK, 2, STACK
        ARGFRAME PSTACK, 0, STACK
        ARGFRAME XSTACK, 9, STACK
        ARGFRAME IOVERLAY, 0, STATIC
        ARGFRAME DOVERLAY, 0, STATIC
        EXTERN addCommon_eventLoop
        FUNCTION addCommon_eventLoop,0202H
        ARGFRAME ISTACK, 0, STACK
        ARGFRAME PSTACK, 0, STACK
        ARGFRAME XSTACK, 9, STACK
        ARGFRAME IOVERLAY, 0, STATIC
        ARGFRAME DOVERLAY, 0, STATIC
        EXTERN addCommon_factoryReset
        FUNCTION addCommon_factoryReset,0202H
        ARGFRAME ISTACK, 0, STACK
        ARGFRAME PSTACK, 0, STACK
        ARGFRAME XSTACK, 10, STACK
        ARGFRAME IOVERLAY, 0, STATIC
        ARGFRAME DOVERLAY, 0, STATIC
        EXTERN addCommon_handleKeyDown
        FUNCTION addCommon_handleKeyDown,0202H
        ARGFRAME ISTACK, 0, STACK
        ARGFRAME PSTACK, 0, STACK
        ARGFRAME XSTACK, 9, STACK
        ARGFRAME IOVERLAY, 0, STATIC
        ARGFRAME DOVERLAY, 0, STATIC
        EXTERN addCommon_handleKeyUp
        FUNCTION addCommon_handleKeyUp,0202H
        ARGFRAME ISTACK, 0, STACK
        ARGFRAME PSTACK, 0, STACK
        ARGFRAME XSTACK, 9, STACK
        ARGFRAME IOVERLAY, 0, STATIC
        ARGFRAME DOVERLAY, 0, STATIC
        EXTERN addCommon_handleOneTime
        FUNCTION addCommon_handleOneTime,0202H
        ARGFRAME ISTACK, 0, STACK
        ARGFRAME PSTACK, 0, STACK
        ARGFRAME XSTACK, 10, STACK
        ARGFRAME IOVERLAY, 0, STATIC
        ARGFRAME DOVERLAY, 0, STATIC
        EXTERN addCommon_init
        FUNCTION addCommon_init,0202H
        ARGFRAME ISTACK, 2, STACK
        ARGFRAME PSTACK, 0, STACK
        ARGFRAME XSTACK, 0, STACK
        ARGFRAME IOVERLAY, 0, STATIC
        ARGFRAME DOVERLAY, 0, STATIC
        EXTERN addCommon_polling
        FUNCTION addCommon_polling,0202H
        ARGFRAME ISTACK, 0, STACK
        ARGFRAME PSTACK, 0, STACK
        ARGFRAME XSTACK, 9, STACK
        ARGFRAME IOVERLAY, 0, STATIC
        ARGFRAME DOVERLAY, 0, STATIC
        EXTERN addCommon_sleep
        FUNCTION addCommon_sleep,0202H
        ARGFRAME ISTACK, 0, STACK
        ARGFRAME PSTACK, 0, STACK
        ARGFRAME XSTACK, 9, STACK
        ARGFRAME IOVERLAY, 0, STATIC
        ARGFRAME DOVERLAY, 0, STATIC
        EXTERN addCommon_wakeup
        FUNCTION addCommon_wakeup,0202H
        ARGFRAME ISTACK, 2, STACK
        ARGFRAME PSTACK, 0, STACK
        ARGFRAME XSTACK, 10, STACK
        ARGFRAME IOVERLAY, 0, STATIC
        ARGFRAME DOVERLAY, 0, STATIC
        EXTERN osal_nv_write
        FUNCTION osal_nv_write,0202H
        ARGFRAME ISTACK, 0, STACK
        ARGFRAME PSTACK, 0, STACK
        ARGFRAME XSTACK, 14, STACK
        ARGFRAME IOVERLAY, 0, STATIC
        ARGFRAME DOVERLAY, 0, STATIC
        EXTERN osal_set_event
        FUNCTION osal_set_event,0202H
        ARGFRAME ISTACK, 0, STACK
        ARGFRAME PSTACK, 0, STACK
        ARGFRAME XSTACK, 9, STACK
        ARGFRAME IOVERLAY, 0, STATIC
        ARGFRAME DOVERLAY, 0, STATIC
        EXTERN osal_start_timerEx
        FUNCTION osal_start_timerEx,0202H
        ARGFRAME ISTACK, 0, STACK
        ARGFRAME PSTACK, 0, STACK
        ARGFRAME XSTACK, 13, STACK
        ARGFRAME IOVERLAY, 0, STATIC
        ARGFRAME DOVERLAY, 0, STATIC
        EXTERN osal_stop_timerEx
        FUNCTION osal_stop_timerEx,0202H
        ARGFRAME ISTACK, 0, STACK
        ARGFRAME PSTACK, 0, STACK
        ARGFRAME XSTACK, 9, STACK
        ARGFRAME IOVERLAY, 0, STATIC
        ARGFRAME DOVERLAY, 0, STATIC
        EXTERN zclGeneral_SendLevelControlMoveRequest
        FUNCTION zclGeneral_SendLevelControlMoveRequest,0202H
        ARGFRAME ISTACK, 0, STACK
        ARGFRAME PSTACK, 0, STACK
        ARGFRAME XSTACK, 12, STACK
        ARGFRAME IOVERLAY, 0, STATIC
        ARGFRAME DOVERLAY, 0, STATIC
        EXTERN zclGeneral_SendLevelControlStepRequest
        FUNCTION zclGeneral_SendLevelControlStepRequest,0202H
        ARGFRAME ISTACK, 0, STACK
        ARGFRAME PSTACK, 0, STACK
        ARGFRAME XSTACK, 15, STACK
        ARGFRAME IOVERLAY, 0, STATIC
        ARGFRAME DOVERLAY, 0, STATIC
        EXTERN zclGeneral_SendSceneRequest
        FUNCTION zclGeneral_SendSceneRequest,0202H
        ARGFRAME ISTACK, 0, STACK
        ARGFRAME PSTACK, 0, STACK
        ARGFRAME XSTACK, 14, STACK
        ARGFRAME IOVERLAY, 0, STATIC
        ARGFRAME DOVERLAY, 0, STATIC
        EXTERN zclSceneSelector_DstAddr
        EXTERN zclSceneSelector_NwkState
        EXTERN zclSceneSelector_TaskID
        EXTERN zcl_SendCommand
        FUNCTION zcl_SendCommand,0202H
        ARGFRAME ISTACK, 0, STACK
        ARGFRAME PSTACK, 0, STACK
        ARGFRAME XSTACK, 21, STACK
        ARGFRAME IOVERLAY, 0, STATIC
        ARGFRAME DOVERLAY, 0, STATIC

// E:\GitHub\面板Z-Stack Home 1.2.2a.44539\Projects\zstack\HomeAutomation\Add\AddSceneSelector\add_sceneselector.c
//    1 /*********************************************************************
//    2  * INCLUDES
//    3  */
//    4 #include "add_sceneselector.h"

        ASEGN SFR_AN:DATA:NOROOT,080H
// union <unnamed> volatile __sfr _A_P0
_A_P0:
        DATA8
        DS 1

        ASEGN SFR_AN:DATA:NOROOT,08bH
// unsigned char volatile __sfr P2IFG
P2IFG:
        DATA8
        DS 1

        ASEGN SFR_AN:DATA:NOROOT,08cH
// unsigned char volatile __sfr PICTL
PICTL:
        DATA8
        DS 1

        ASEGN SFR_AN:DATA:NOROOT,08fH
// unsigned char volatile __sfr P0INP
P0INP:
        DATA8
        DS 1

        ASEGN SFR_AN:DATA:NOROOT,09aH
// unsigned char volatile __sfr IEN2
IEN2:
        DATA8
        DS 1

        ASEGN SFR_AN:DATA:NOROOT,0a0H
// union <unnamed> volatile __sfr _A_P2
_A_P2:
        DATA8
        DS 1

        ASEGN SFR_AN:DATA:NOROOT,0a8H
// union <unnamed> volatile __sfr _A_IEN0
_A_IEN0:
        DATA8
        DS 1

        ASEGN SFR_AN:DATA:NOROOT,0a9H
// unsigned char volatile __sfr IP0
IP0:
        DATA8
        DS 1

        ASEGN SFR_AN:DATA:NOROOT,0acH
// unsigned char volatile __sfr P2IEN
P2IEN:
        DATA8
        DS 1

        ASEGN SFR_AN:DATA:NOROOT,0b9H
// unsigned char volatile __sfr IP1
IP1:
        DATA8
        DS 1

        ASEGN SFR_AN:DATA:NOROOT,0e8H
// union <unnamed> volatile __sfr _A_IRCON2
_A_IRCON2:
        DATA8
        DS 1

        ASEGN SFR_AN:DATA:NOROOT,0f2H
// unsigned char volatile __sfr APCFG
APCFG:
        DATA8
        DS 1

        ASEGN SFR_AN:DATA:NOROOT,0f3H
// unsigned char volatile __sfr P0SEL
P0SEL:
        DATA8
        DS 1

        ASEGN SFR_AN:DATA:NOROOT,0f5H
// unsigned char volatile __sfr P2SEL
P2SEL:
        DATA8
        DS 1

        ASEGN SFR_AN:DATA:NOROOT,0f7H
// unsigned char volatile __sfr P2INP
P2INP:
        DATA8
        DS 1

        ASEGN SFR_AN:DATA:NOROOT,0fdH
// unsigned char volatile __sfr P0DIR
P0DIR:
        DATA8
        DS 1

        ASEGN SFR_AN:DATA:NOROOT,0ffH
// unsigned char volatile __sfr P2DIR
P2DIR:
        DATA8
        DS 1
//    5 
//    6 /*********************************************************************
//    7  * LOCAL VARIABLES
//    8  */

        RSEG XDATA_Z:XDATA:NOROOT(0)
        DATA8
//    9 volatile byte aSceneSelectorKeyScene1 = AC_KEY_NORMAL;
aSceneSelectorKeyScene1:
        DS 1
        REQUIRE __INIT_XDATA_Z

        RSEG XDATA_Z:XDATA:NOROOT(0)
        DATA8
//   10 volatile byte aSceneSelectorKeyScene2 = AC_KEY_NORMAL;
aSceneSelectorKeyScene2:
        DS 1
        REQUIRE __INIT_XDATA_Z

        RSEG XDATA_Z:XDATA:NOROOT(0)
        DATA8
//   11 volatile byte aSceneSelectorKeyScene3 = AC_KEY_NORMAL;
aSceneSelectorKeyScene3:
        DS 1
        REQUIRE __INIT_XDATA_Z

        RSEG XDATA_Z:XDATA:NOROOT(0)
        DATA8
//   12 volatile byte aSceneSelectorKeyScene4 = AC_KEY_NORMAL;
aSceneSelectorKeyScene4:
        DS 1
        REQUIRE __INIT_XDATA_Z

        RSEG XDATA_Z:XDATA:NOROOT(0)
        DATA8
//   13 volatile byte aSceneSelectorKeyDimmingUp = AC_KEY_NORMAL;
aSceneSelectorKeyDimmingUp:
        DS 1
        REQUIRE __INIT_XDATA_Z

        RSEG XDATA_Z:XDATA:NOROOT(0)
        DATA8
//   14 volatile byte aSceneSelectorKeyDimmingDown = AC_KEY_NORMAL;
aSceneSelectorKeyDimmingDown:
        DS 1
        REQUIRE __INIT_XDATA_Z
//   15 

        RSEG XDATA_I:XDATA:NOROOT(0)
//   16 uint16 aSceneSelectorEndpoint1_SceneID = 1;
aSceneSelectorEndpoint1_SceneID:
        DATA16
        DS 2
        REQUIRE `?<Initializer for aSceneSelectorEndpoint1_Scen`
        REQUIRE __INIT_XDATA_I

        RSEG XDATA_I:XDATA:NOROOT(0)
//   17 uint16 aSceneSelectorEndpoint2_SceneID = 2;
aSceneSelectorEndpoint2_SceneID:
        DATA16
        DS 2
        REQUIRE `?<Initializer for aSceneSelectorEndpoint2_Scen`
        REQUIRE __INIT_XDATA_I

        RSEG XDATA_I:XDATA:NOROOT(0)
//   18 uint16 aSceneSelectorEndpoint3_SceneID = 3;
aSceneSelectorEndpoint3_SceneID:
        DATA16
        DS 2
        REQUIRE `?<Initializer for aSceneSelectorEndpoint3_Scen`
        REQUIRE __INIT_XDATA_I

        RSEG XDATA_I:XDATA:NOROOT(0)
//   19 uint16 aSceneSelectorEndpoint4_SceneID = 4;
aSceneSelectorEndpoint4_SceneID:
        DATA16
        DS 2
        REQUIRE `?<Initializer for aSceneSelectorEndpoint4_Scen`
        REQUIRE __INIT_XDATA_I
//   20 

        RSEG XDATA_I:XDATA:NOROOT(0)
//   21 uint16 aSceneSelectorEndpoint1_GroupID = 1;
aSceneSelectorEndpoint1_GroupID:
        DATA16
        DS 2
        REQUIRE `?<Initializer for aSceneSelectorEndpoint1_Grou`
        REQUIRE __INIT_XDATA_I

        RSEG XDATA_I:XDATA:NOROOT(0)
//   22 uint16 aSceneSelectorEndpoint2_GroupID = 2;
aSceneSelectorEndpoint2_GroupID:
        DATA16
        DS 2
        REQUIRE `?<Initializer for aSceneSelectorEndpoint2_Grou`
        REQUIRE __INIT_XDATA_I

        RSEG XDATA_I:XDATA:NOROOT(0)
//   23 uint16 aSceneSelectorEndpoint3_GroupID = 3;
aSceneSelectorEndpoint3_GroupID:
        DATA16
        DS 2
        REQUIRE `?<Initializer for aSceneSelectorEndpoint3_Grou`
        REQUIRE __INIT_XDATA_I

        RSEG XDATA_I:XDATA:NOROOT(0)
//   24 uint16 aSceneSelectorEndpoint4_GroupID = 4;
aSceneSelectorEndpoint4_GroupID:
        DATA16
        DS 2
        REQUIRE `?<Initializer for aSceneSelectorEndpoint4_Grou`
        REQUIRE __INIT_XDATA_I
//   25 

        RSEG XDATA_I:XDATA:NOROOT(0)
//   26 volatile uint8 aSceneSelectorCurrentEndpoint = SCENESELECTOR_ENDPOINT1;
aSceneSelectorCurrentEndpoint:
        DATA8
        DS 1
        REQUIRE `?<Initializer for aSceneSelectorCurrentEndpoin`
        REQUIRE __INIT_XDATA_I
//   27 

        RSEG XDATA_Z:XDATA:NOROOT(0)
        DATA8
//   28 volatile uint8 aSceneSelectorFactoryReset = ADD_SCENESELECTOR_FACTORYRESET_KEYNORMAL;
aSceneSelectorFactoryReset:
        DS 1
        REQUIRE __INIT_XDATA_Z

        RSEG XDATA_Z:XDATA:NOROOT(0)
        DATA8
//   29 volatile uint8 aSceneSelectorWakeup = ADD_SCENESELECTOR_WAKEUP_KEYNORMAL;
aSceneSelectorWakeup:
        DS 1
        REQUIRE __INIT_XDATA_Z
//   30 
//   31 #if defined(SCENE_SELECTOR)
//   32 #elif defined(SCENE_SELECTOR_TOUCHKEY)

        RSEG XDATA_Z:XDATA:NOROOT(0)
        DATA8
//   33 uint8 aSceneSelectorApt8l08_i2cWaitStatus;
aSceneSelectorApt8l08_i2cWaitStatus:
        DS 1
        REQUIRE __INIT_XDATA_Z
//   34 

        RSEG XDATA_ROM_C:CONST:REORDER:NOROOT(0)
        DATA8
//   35 const uint8 aSceneSelectorApt8l08_registerAddress[16] = {
aSceneSelectorApt8l08_registerAddress:
        DB 32
        DB 33
        DB 34
        DB 35
        DB 36
        DB 37
        DB 38
        DB 39
        DB 40
        DB 41
        DB 42
        DB 43
        DB 44
        DB 45
        DB 24
        DB 25
//   36 	ADD_SCENESELECTOR_APT8L08_REGISTER_ADDRESS_GSR,
//   37 	ADD_SCENESELECTOR_APT8L08_REGISTER_ADDRESS_MCON,
//   38 	ADD_SCENESELECTOR_APT8L08_REGISTER_ADDRESS_FILTER0,
//   39 	ADD_SCENESELECTOR_APT8L08_REGISTER_ADDRESS_K0_ENB,
//   40 	ADD_SCENESELECTOR_APT8L08_REGISTER_ADDRESS_K1_ENB,
//   41 	ADD_SCENESELECTOR_APT8L08_REGISTER_ADDRESS_SENSE_CON,
//   42 	ADD_SCENESELECTOR_APT8L08_REGISTER_ADDRESS_SENSE_S,
//   43 	ADD_SCENESELECTOR_APT8L08_REGISTER_ADDRESS_GSR_K07,
//   44 	ADD_SCENESELECTOR_APT8L08_REGISTER_ADDRESS_GSR_K17,
//   45 	ADD_SCENESELECTOR_APT8L08_REGISTER_ADDRESS_REF_UTH,
//   46 	ADD_SCENESELECTOR_APT8L08_REGISTER_ADDRESS_KEY_ATH,
//   47 	ADD_SCENESELECTOR_APT8L08_REGISTER_ADDRESS_DSMIT,
//   48 	ADD_SCENESELECTOR_APT8L08_REGISTER_ADDRESS_MCONH,
//   49 	ADD_SCENESELECTOR_APT8L08_REGISTER_ADDRESS_FILTER1,
//   50 	ADD_SCENESELECTOR_APT8L08_REGISTER_ADDRESS_K0_CON,
//   51 	ADD_SCENESELECTOR_APT8L08_REGISTER_ADDRESS_K1_CON
//   52 };
//   53 

        RSEG XDATA_ROM_C:CONST:REORDER:NOROOT(0)
        DATA8
//   54 const uint8 aSceneSelectorApt8l08_registerData[16] = {
aSceneSelectorApt8l08_registerData:
        DB 4
        DB 84
        DB 0
        DB 3
        DB 255
        DB 0
        DB 8
        DB 2
        DB 2
        DB 16
        DB 16
        DB 4
        DB 64
        DB 0
        DB 0
        DB 0
//   55 	ADD_SCENESELECTOR_APT8L08_REGISTER_DATA_GSR,
//   56 	ADD_SCENESELECTOR_APT8L08_REGISTER_DATA_MCON,
//   57 	ADD_SCENESELECTOR_APT8L08_REGISTER_DATA_FILTER0,
//   58 	ADD_SCENESELECTOR_APT8L08_REGISTER_DATA_K0_ENB,
//   59 	ADD_SCENESELECTOR_APT8L08_REGISTER_DATA_K1_ENB,
//   60 	ADD_SCENESELECTOR_APT8L08_REGISTER_DATA_SENSE_CON,
//   61 	ADD_SCENESELECTOR_APT8L08_REGISTER_DATA_SENSE_S,
//   62 	ADD_SCENESELECTOR_APT8L08_REGISTER_DATA_GSR_K07,
//   63 	ADD_SCENESELECTOR_APT8L08_REGISTER_DATA_GSR_K17,
//   64 	ADD_SCENESELECTOR_APT8L08_REGISTER_DATA_REF_UTH,
//   65 	ADD_SCENESELECTOR_APT8L08_REGISTER_DATA_KEY_ATH,
//   66 	ADD_SCENESELECTOR_APT8L08_REGISTER_DATA_DSMIT,
//   67 	ADD_SCENESELECTOR_APT8L08_REGISTER_DATA_MCONH,
//   68 	ADD_SCENESELECTOR_APT8L08_REGISTER_DATA_FILTER1,
//   69 	ADD_SCENESELECTOR_APT8L08_REGISTER_DATA_K0_CON,
//   70 	ADD_SCENESELECTOR_APT8L08_REGISTER_DATA_K1_CON
//   71 };
//   72 

        RSEG XDATA_ROM_C:CONST:REORDER:NOROOT(0)
        DATA8
//   73 const uint8 aSceneSelectorApt8l08_tkFin8bit[16] 
aSceneSelectorApt8l08_tkFin8bit:
        DB 4
        DB 4
        DB 4
        DB 4
        DB 4
        DB 4
        DB 4
        DB 4
        DB 255
        DB 255
        DB 255
        DB 255
        DB 255
        DB 255
        DB 255
        DB 255
//   74 	= {0x04, 0x04, 0x04, 0x04, 0x04, 0x04, 0x04, 0x04, 0xff, 0xff, 0xff, 0xff, 0xff, 0xff, 0xff, 0xff};

        RSEG XDATA_Z:XDATA:NOROOT(0)
        DATA16
//   75 volatile uint16 aSceneSelectorApt8l08_16bitKeyMap = 0;
aSceneSelectorApt8l08_16bitKeyMap:
        DS 2
        REQUIRE __INIT_XDATA_Z

        RSEG XDATA_Z:XDATA:NOROOT(0)
        DATA16
//   76 volatile uint16 aSceneSelectorApt8l08_16bitKeyMap_saved = 0;
aSceneSelectorApt8l08_16bitKeyMap_saved:
        DS 2
        REQUIRE __INIT_XDATA_Z
//   77 
//   78 #else
//   79 #endif
//   80 
//   81 /*********************************************************************
//   82  * LOCAL FUNCTIONS
//   83  */
//   84 void addSceneSelector_init(void);
//   85 static void addSceneSelector_initHal(void);
//   86 static void addSceneSelector_initAl(void);
//   87 static void addSceneSelector_initNvItemID(void);
//   88 static void addSceneSelector_initNvData(void);
//   89 uint16 addSceneSelector_eventLoop(uint8 task_id, uint16 events);
//   90 static void addSceneSelector_polling(void);
//   91 static void addSceneSelector_handleOneTime(void);
//   92 void addSceneSelector_isrPort0(void);
//   93 void addSceneSelector_isrPort1(void);
//   94 void addSceneSelector_isrPort2(void);
//   95 
//   96 static void addSceneSelector_sendDestinationAddressConfigure(uint8 endPoint);
//   97 void addSceneSelector_sendLevelControlMove(void);
//   98 static void addSceneSelector_clearKeyData(void);
//   99 void addSceneSelector_factoryResetCheck(void);
//  100 void addSceneSelector_wakeupCheck(void);
//  101 void addSceneSelector_setGroupID(uint8 endPoint, aps_Group_t *group);
//  102 void addSceneSelector_setSceneID(uint8 endPoint, zclGeneral_Scene_t *scene);
//  103 
//  104 #if defined(SCENE_SELECTOR)	
//  105 #elif defined(SCENE_SELECTOR_TOUCHKEY)
//  106 void addSceneSelector_APT8L08_init(void);
//  107 static void addSceneSelector_APT8L08_initHal(void);
//  108 static void addSceneSelector_APT8L08_initAl(void);
//  109 static void addSceneSelector_APT8L08_I2C_start(void);
//  110 static void addSceneSelector_APT8L08_I2C_stop(void);
//  111 static void addSceneSelector_APT8L08_I2C_waitACK(void);
//  112 static void addSceneSelector_APT8L08_I2C_noACK(void);
//  113 static void addSceneSelector_APT8L08_I2C_ACK(void);
//  114 static void addSceneSelector_APT8L08_I2C_write8bit(uint8 dataWrite);
//  115 static uint8 addSceneSelector_APT8L08_I2C_read8bit(void);
//  116 static void addSceneSelector_APT8L08_I2C_writeByte(uint8 address, uint8 dataWrite);
//  117 static uint8 addSceneSelector_APT8L08_I2C_readByte(uint8 address);
//  118 static void addSceneSelector_APT8L08_I2C_writeRegister(uint8 address, uint8 dataWrite);
//  119 	
//  120 #else
//  121 #endif
//  122 
//  123 /*********************************************************************
//  124  * @fn      addSceneSelector_init
//  125  *
//  126  * @brief   Scene selector initial.
//  127  *
//  128  * @param   none
//  129  *
//  130  * @return  none
//  131  */

        RSEG BANKED_CODE:CODE:NOROOT(0)
//  132 void addSceneSelector_init(void)
addSceneSelector_init:
          CFI Block cfiBlock0 Using cfiCommon0
          CFI Function addSceneSelector_init
        CODE
//  133 {	
        FUNCALL addSceneSelector_init, addCommon_init
        LOCFRAME ISTACK, 2, STACK
        LOCFRAME PSTACK, 0, STACK
        LOCFRAME XSTACK, 0, STACK
        LOCFRAME IOVERLAY, 0, STATIC
        LOCFRAME DOVERLAY, 0, STATIC
        ARGFRAME ISTACK, 2, STACK
        ARGFRAME PSTACK, 0, STACK
        ARGFRAME XSTACK, 0, STACK
        ARGFRAME IOVERLAY, 0, STATIC
        ARGFRAME DOVERLAY, 0, STATIC
        FUNCALL addSceneSelector_init, addSceneSelector_APT8L08_init
        LOCFRAME ISTACK, 2, STACK
        LOCFRAME PSTACK, 0, STACK
        LOCFRAME XSTACK, 0, STACK
        LOCFRAME IOVERLAY, 0, STATIC
        LOCFRAME DOVERLAY, 0, STATIC
        ARGFRAME ISTACK, 2, STACK
        ARGFRAME PSTACK, 0, STACK
        ARGFRAME XSTACK, 0, STACK
        ARGFRAME IOVERLAY, 0, STATIC
        ARGFRAME DOVERLAY, 0, STATIC
        FUNCALL addSceneSelector_init, addCommon_wakeup
        LOCFRAME ISTACK, 2, STACK
        LOCFRAME PSTACK, 0, STACK
        LOCFRAME XSTACK, 0, STACK
        LOCFRAME IOVERLAY, 0, STATIC
        LOCFRAME DOVERLAY, 0, STATIC
        ARGFRAME ISTACK, 2, STACK
        ARGFRAME PSTACK, 0, STACK
        ARGFRAME XSTACK, 0, STACK
        ARGFRAME IOVERLAY, 0, STATIC
        ARGFRAME DOVERLAY, 0, STATIC
        PUSH    DPL
          CFI DPL0 Frame(CFA_SP, 4)
          CFI CFA_SP SP+-4
        PUSH    DPH
          CFI DPH0 Frame(CFA_SP, 5)
          CFI CFA_SP SP+-5
        ; Saved register size: 2
        ; Auto size: 0
//  134 	addCommon_init();
        ; Setup parameters for call to function addCommon_init
        LCALL   ??addCommon_init?relay; Banked call to: addCommon_init
//  135 	
//  136 #if defined(SCENE_SELECTOR)
//  137 	addSceneSelector_initHal();
//  138 	addCommon_delayMS(500);
//  139 	addSceneSelector_initAl();
//  140 	
//  141 #elif defined(SCENE_SELECTOR_TOUCHKEY)
//  142 	addSceneSelector_APT8L08_init();
        ; Setup parameters for call to function addSceneSelector_APT8L08_init
        LCALL   ??addSceneSelector_APT8L08_init?relay; Banked call to: addSceneSelector_APT8L08_init
//  143 	
//  144 #else
//  145 #endif
//  146 
//  147 	acPointer_NwkState = &zclSceneSelector_NwkState;
        MOV     DPTR,#acPointer_NwkState
        MOV     A,#zclSceneSelector_NwkState & 0xff
        MOVX    @DPTR,A
        INC     DPTR
        MOV     A,#(zclSceneSelector_NwkState >> 8) & 0xff
        MOVX    @DPTR,A
//  148 	acPointer_TaskID = &zclSceneSelector_TaskID;
        MOV     DPTR,#acPointer_TaskID
        MOV     A,#zclSceneSelector_TaskID & 0xff
        MOVX    @DPTR,A
        INC     DPTR
        MOV     A,#(zclSceneSelector_TaskID >> 8) & 0xff
        MOVX    @DPTR,A
//  149 
//  150 	addCommon_wakeup();
        ; Setup parameters for call to function addCommon_wakeup
        LCALL   ??addCommon_wakeup?relay; Banked call to: addCommon_wakeup
//  151 }
        LJMP    ??Subroutine22_0 & 0xFFFF
          CFI EndBlock cfiBlock0
//  152 
//  153 /*********************************************************************
//  154  * @fn      addSceneSelector_initHal
//  155  *
//  156  * @brief   Scene selector initial hardware abstract layer.
//  157  *
//  158  * @param   none
//  159  *
//  160  * @return  none
//  161  */
//  162 static void addSceneSelector_initHal(void)
//  163 {
//  164 	P2SEL &= ~0x01; // P2_0(key scene4)
//  165 	P2DIR &= ~0x01;
//  166 	P2INP &= ~0x80; // port2 all pull up
//  167 	P2INP &= ~0x01;
//  168 	
//  169 	APCFG &= ~0x31; // P0_4(key scene1) P0_5(key scene2) P0_0(key scene3)
//  170 	P0SEL &= ~0x31;
//  171 	P0DIR &= ~0x31;
//  172 	P2INP &= ~0x20; // port0 all pull up
//  173 	P0INP &= ~0x31;
//  174 	
//  175 	P1SEL &= ~0xc0; // P1_6(key dimming up) P1_7(key dimming down)
//  176 	P1DIR &= ~0xc0;
//  177 	P2INP &= ~0x40; // port1 all pull up
//  178 	P1INP &= ~0xc0;
//  179 
//  180 	EA = 0;
//  181 	
//  182 	MicroWait(50000);
//  183 	MicroWait(50000);
//  184 
//  185 	P0IEN |= 0x31; // P0_4 P0_5 P0_0 interrupt enable
//  186 	PICTL |= 0x01; // fall edge
//  187 	P0IFG &= ~0x31; // clear interrupt flag
//  188 	IEN1 |= 0x20; // port0 interrupt enable
//  189 
//  190 	P1IEN |= 0xc0; // P1_6 P1_7 interrupt enable
//  191 	PICTL |= 0x06; // fall edge
//  192 	P1IFG &= ~0xc0; // clear interrupt flag
//  193 	IEN2 |= 0x10; // port1 interrupt enable
//  194 
//  195 	P2IEN |= 0x01; // P2_0 interrupt enable
//  196 	PICTL |= 0x08; // fall edge
//  197 	P2IFG &= ~0x01; // clear interrupt flag
//  198 	IEN2 |= 0x02; // port2 interrupt enable
//  199 	
//  200 	IP0 |= (1 << 5); // set port0 interrupt highest priority
//  201 	IP1 |= (1 << 5);
//  202 	
//  203 	IP0 |= (1 << 4); // set port1 interrupt highest priority
//  204 	IP1 |= (1 << 4);
//  205 	
//  206 	IP0 |= (1 << 1); // set port2 interrupt highest priority
//  207 	IP1 |= (1 << 1);
//  208 	
//  209 	EA = 1;	
//  210 }
//  211 
//  212 /*********************************************************************
//  213  * @fn      addSceneSelector_initAl
//  214  *
//  215  * @brief   Scene selector initial application layer.
//  216  *
//  217  * @param   none
//  218  *
//  219  * @return  none
//  220  */
//  221 static void addSceneSelector_initAl(void)
//  222 {	
//  223 	addSceneSelector_initNvItemID();
//  224 	addSceneSelector_initNvData();
//  225 }
//  226 
//  227 /*********************************************************************
//  228  * @fn      addSceneSelector_initNvItemID
//  229  *
//  230  * @brief   Scene selector initial non-volatile flash item ID.
//  231  *
//  232  * @param   none
//  233  *
//  234  * @return  none
//  235  */
//  236 static void addSceneSelector_initNvItemID(void)
//  237 {
//  238 	osal_nv_item_init(ADD_SCENESELECTOR_NV_ITEM_ID_ENDPOINT1_SCENEID, 2, &aSceneSelectorEndpoint1_SceneID);
//  239 	osal_nv_item_init(ADD_SCENESELECTOR_NV_ITEM_ID_ENDPOINT2_SCENEID, 2, &aSceneSelectorEndpoint2_SceneID);
//  240 	osal_nv_item_init(ADD_SCENESELECTOR_NV_ITEM_ID_ENDPOINT3_SCENEID, 2, &aSceneSelectorEndpoint3_SceneID);
//  241 	osal_nv_item_init(ADD_SCENESELECTOR_NV_ITEM_ID_ENDPOINT4_SCENEID, 2, &aSceneSelectorEndpoint4_SceneID);
//  242 
//  243 	osal_nv_item_init(ADD_SCENESELECTOR_NV_ITEM_ID_ENDPOINT1_GROUPID, 2, &aSceneSelectorEndpoint1_GroupID);
//  244 	osal_nv_item_init(ADD_SCENESELECTOR_NV_ITEM_ID_ENDPOINT2_GROUPID, 2, &aSceneSelectorEndpoint2_GroupID);
//  245 	osal_nv_item_init(ADD_SCENESELECTOR_NV_ITEM_ID_ENDPOINT3_GROUPID, 2, &aSceneSelectorEndpoint3_GroupID);
//  246 	osal_nv_item_init(ADD_SCENESELECTOR_NV_ITEM_ID_ENDPOINT4_GROUPID, 2, &aSceneSelectorEndpoint4_GroupID);
//  247 }
//  248 
//  249 /*********************************************************************
//  250  * @fn      addSceneSelector_initNvData
//  251  *
//  252  * @brief   Scene selector initial non-volatile flash data.
//  253  *
//  254  * @param   none
//  255  *
//  256  * @return  none
//  257  */
//  258  static void addSceneSelector_initNvData(void)
//  259 {
//  260 	osal_nv_read(ADD_SCENESELECTOR_NV_ITEM_ID_ENDPOINT1_SCENEID, 0, 2, &aSceneSelectorEndpoint1_SceneID);
//  261 	osal_nv_read(ADD_SCENESELECTOR_NV_ITEM_ID_ENDPOINT2_SCENEID, 0, 2, &aSceneSelectorEndpoint2_SceneID);
//  262 	osal_nv_read(ADD_SCENESELECTOR_NV_ITEM_ID_ENDPOINT3_SCENEID, 0, 2, &aSceneSelectorEndpoint3_SceneID);
//  263 	osal_nv_read(ADD_SCENESELECTOR_NV_ITEM_ID_ENDPOINT4_SCENEID, 0, 2, &aSceneSelectorEndpoint4_SceneID);
//  264 	
//  265 	osal_nv_read(ADD_SCENESELECTOR_NV_ITEM_ID_ENDPOINT1_GROUPID, 0, 2, &aSceneSelectorEndpoint1_GroupID);
//  266 	osal_nv_read(ADD_SCENESELECTOR_NV_ITEM_ID_ENDPOINT2_GROUPID, 0, 2, &aSceneSelectorEndpoint2_GroupID);
//  267 	osal_nv_read(ADD_SCENESELECTOR_NV_ITEM_ID_ENDPOINT3_GROUPID, 0, 2, &aSceneSelectorEndpoint3_GroupID);
//  268 	osal_nv_read(ADD_SCENESELECTOR_NV_ITEM_ID_ENDPOINT4_GROUPID, 0, 2, &aSceneSelectorEndpoint4_GroupID);
//  269 }
//  270 
//  271 /*********************************************************************
//  272  * @fn      addSceneSelector_eventLoop
//  273  *
//  274  * @brief   Scene selector Event Loop Processor for zclGeneral.
//  275  *
//  276  * @param   uint8 task_id, uint16 events
//  277  *
//  278  * @return  uint16
//  279  */

        RSEG BANKED_CODE:CODE:NOROOT(0)
//  280 uint16 addSceneSelector_eventLoop(uint8 task_id, uint16 events)
addSceneSelector_eventLoop:
          CFI Block cfiBlock1 Using cfiCommon0
          CFI Function addSceneSelector_eventLoop
        CODE
//  281 {
        FUNCALL addSceneSelector_eventLoop, addCommon_polling
        LOCFRAME ISTACK, 0, STACK
        LOCFRAME PSTACK, 0, STACK
        LOCFRAME XSTACK, 9, STACK
        LOCFRAME IOVERLAY, 0, STATIC
        LOCFRAME DOVERLAY, 0, STATIC
        ARGFRAME ISTACK, 0, STACK
        ARGFRAME PSTACK, 0, STACK
        ARGFRAME XSTACK, 9, STACK
        ARGFRAME IOVERLAY, 0, STATIC
        ARGFRAME DOVERLAY, 0, STATIC
        FUNCALL addSceneSelector_eventLoop, osal_stop_timerEx
        LOCFRAME ISTACK, 0, STACK
        LOCFRAME PSTACK, 0, STACK
        LOCFRAME XSTACK, 9, STACK
        LOCFRAME IOVERLAY, 0, STATIC
        LOCFRAME DOVERLAY, 0, STATIC
        ARGFRAME ISTACK, 0, STACK
        ARGFRAME PSTACK, 0, STACK
        ARGFRAME XSTACK, 9, STACK
        ARGFRAME IOVERLAY, 0, STATIC
        ARGFRAME DOVERLAY, 0, STATIC
        FUNCALL addSceneSelector_eventLoop, osal_start_timerEx
        LOCFRAME ISTACK, 0, STACK
        LOCFRAME PSTACK, 0, STACK
        LOCFRAME XSTACK, 13, STACK
        LOCFRAME IOVERLAY, 0, STATIC
        LOCFRAME DOVERLAY, 0, STATIC
        ARGFRAME ISTACK, 0, STACK
        ARGFRAME PSTACK, 0, STACK
        ARGFRAME XSTACK, 13, STACK
        ARGFRAME IOVERLAY, 0, STATIC
        ARGFRAME DOVERLAY, 0, STATIC
        FUNCALL addSceneSelector_eventLoop, addCommon_sleep
        LOCFRAME ISTACK, 0, STACK
        LOCFRAME PSTACK, 0, STACK
        LOCFRAME XSTACK, 9, STACK
        LOCFRAME IOVERLAY, 0, STATIC
        LOCFRAME DOVERLAY, 0, STATIC
        ARGFRAME ISTACK, 0, STACK
        ARGFRAME PSTACK, 0, STACK
        ARGFRAME XSTACK, 9, STACK
        ARGFRAME IOVERLAY, 0, STATIC
        ARGFRAME DOVERLAY, 0, STATIC
        FUNCALL addSceneSelector_eventLoop, addCommon_wakeup
        LOCFRAME ISTACK, 0, STACK
        LOCFRAME PSTACK, 0, STACK
        LOCFRAME XSTACK, 9, STACK
        LOCFRAME IOVERLAY, 0, STATIC
        LOCFRAME DOVERLAY, 0, STATIC
        ARGFRAME ISTACK, 0, STACK
        ARGFRAME PSTACK, 0, STACK
        ARGFRAME XSTACK, 9, STACK
        ARGFRAME IOVERLAY, 0, STATIC
        ARGFRAME DOVERLAY, 0, STATIC
        FUNCALL addSceneSelector_eventLoop, osal_start_timerEx
        LOCFRAME ISTACK, 0, STACK
        LOCFRAME PSTACK, 0, STACK
        LOCFRAME XSTACK, 13, STACK
        LOCFRAME IOVERLAY, 0, STATIC
        LOCFRAME DOVERLAY, 0, STATIC
        ARGFRAME ISTACK, 0, STACK
        ARGFRAME PSTACK, 0, STACK
        ARGFRAME XSTACK, 13, STACK
        ARGFRAME IOVERLAY, 0, STATIC
        ARGFRAME DOVERLAY, 0, STATIC
        FUNCALL addSceneSelector_eventLoop, addSceneSelector_handleOneTime
        LOCFRAME ISTACK, 0, STACK
        LOCFRAME PSTACK, 0, STACK
        LOCFRAME XSTACK, 9, STACK
        LOCFRAME IOVERLAY, 0, STATIC
        LOCFRAME DOVERLAY, 0, STATIC
        ARGFRAME ISTACK, 0, STACK
        ARGFRAME PSTACK, 0, STACK
        ARGFRAME XSTACK, 9, STACK
        ARGFRAME IOVERLAY, 0, STATIC
        ARGFRAME DOVERLAY, 0, STATIC
        FUNCALL addSceneSelector_eventLoop, addCommon_wakeup
        LOCFRAME ISTACK, 0, STACK
        LOCFRAME PSTACK, 0, STACK
        LOCFRAME XSTACK, 9, STACK
        LOCFRAME IOVERLAY, 0, STATIC
        LOCFRAME DOVERLAY, 0, STATIC
        ARGFRAME ISTACK, 0, STACK
        ARGFRAME PSTACK, 0, STACK
        ARGFRAME XSTACK, 9, STACK
        ARGFRAME IOVERLAY, 0, STATIC
        ARGFRAME DOVERLAY, 0, STATIC
        FUNCALL addSceneSelector_eventLoop, osal_start_timerEx
        LOCFRAME ISTACK, 0, STACK
        LOCFRAME PSTACK, 0, STACK
        LOCFRAME XSTACK, 13, STACK
        LOCFRAME IOVERLAY, 0, STATIC
        LOCFRAME DOVERLAY, 0, STATIC
        ARGFRAME ISTACK, 0, STACK
        ARGFRAME PSTACK, 0, STACK
        ARGFRAME XSTACK, 13, STACK
        ARGFRAME IOVERLAY, 0, STATIC
        ARGFRAME DOVERLAY, 0, STATIC
        FUNCALL addSceneSelector_eventLoop, addSceneSelector_handleOneTime
        LOCFRAME ISTACK, 0, STACK
        LOCFRAME PSTACK, 0, STACK
        LOCFRAME XSTACK, 9, STACK
        LOCFRAME IOVERLAY, 0, STATIC
        LOCFRAME DOVERLAY, 0, STATIC
        ARGFRAME ISTACK, 0, STACK
        ARGFRAME PSTACK, 0, STACK
        ARGFRAME XSTACK, 9, STACK
        ARGFRAME IOVERLAY, 0, STATIC
        ARGFRAME DOVERLAY, 0, STATIC
        FUNCALL addSceneSelector_eventLoop, addCommon_eventLoop
        LOCFRAME ISTACK, 0, STACK
        LOCFRAME PSTACK, 0, STACK
        LOCFRAME XSTACK, 9, STACK
        LOCFRAME IOVERLAY, 0, STATIC
        LOCFRAME DOVERLAY, 0, STATIC
        ARGFRAME ISTACK, 0, STACK
        ARGFRAME PSTACK, 0, STACK
        ARGFRAME XSTACK, 9, STACK
        ARGFRAME IOVERLAY, 0, STATIC
        ARGFRAME DOVERLAY, 0, STATIC
        REQUIRE ?V0
        MOV     A,#-0x9
        LCALL   ?BANKED_ENTER_XDATA
          CFI DPH0 load(1, XDATA, add(CFA_XSP16, literal(-1)))
          CFI DPL0 load(1, XDATA, add(CFA_XSP16, literal(-2)))
          CFI ?BRET_EXT load(1, XDATA, add(CFA_XSP16, literal(-3)))
          CFI ?RET_HIGH load(1, XDATA, add(CFA_XSP16, literal(-4)))
          CFI ?RET_LOW load(1, XDATA, add(CFA_XSP16, literal(-5)))
          CFI R7 load(1, XDATA, add(CFA_XSP16, literal(-6)))
          CFI V0 load(1, XDATA, add(CFA_XSP16, literal(-7)))
          CFI VB load(1, XDATA, add(CFA_XSP16, literal(-8)))
          CFI R6 load(1, XDATA, add(CFA_XSP16, literal(-9)))
          CFI CFA_SP SP+0
          CFI CFA_XSP16 add(XSP16, 9)
        ; Saved register size: 9
        ; Auto size: 0
        MOV     A,R2
        MOV     R6,A
        MOV     A,R3
        MOV     R7,A
//  282 	if (events & AC_EVENT_POLLING)//5S进一次事件
        ANL     A,#0x1
        JZ      ??addSceneSelector_eventLoop_0
//  283 	{
//  284 		addSceneSelector_polling();
        ; Setup parameters for call to function addCommon_polling
        LCALL   ??addCommon_polling?relay; Banked call to: addCommon_polling
//  285 		
//  286 		if (acDelayJoinNetwork != 0)//两分钟的控制
        MOV     DPTR,#acDelayJoinNetwork
        MOVX    A,@DPTR
        JZ      ??addSceneSelector_eventLoop_1
//  287 		{
//  288 			osal_stop_timerEx(*acPointer_TaskID, AC_EVENT_POLLING);
        ; Setup parameters for call to function osal_stop_timerEx
        LCALL   ?Subroutine5 & 0xFFFF
??CrossCallReturnLabel_10:
        LCALL   ??osal_stop_timerEx?relay; Banked call to: osal_stop_timerEx
//  289 			osal_start_timerEx(*acPointer_TaskID, AC_EVENT_POLLING, AC_DELAY_POLLING);
        ; Setup parameters for call to function osal_start_timerEx
        MOV     DPTR,#__Constant_1388
        LCALL   ?PUSH_XSTACK8_X_FOUR
          CFI CFA_XSP16 add(XSP16, 13)
        LCALL   ?Subroutine5 & 0xFFFF
//  290 		} else
??CrossCallReturnLabel_11:
        LCALL   ??osal_start_timerEx?relay; Banked call to: osal_start_timerEx
        MOV     A,#0x4
        LCALL   ?DEALLOC_XSTACK8
          CFI CFA_XSP16 add(XSP16, 9)
        SJMP    ??addSceneSelector_eventLoop_2
//  291 		{			
//  292 #if defined(POWER_SAVING)
//  293 			if (acSleepFlag == FALSE)
??addSceneSelector_eventLoop_1:
        MOV     DPTR,#acSleepFlag
        MOVX    A,@DPTR
        JNZ     ??addSceneSelector_eventLoop_2
//  294 			{
//  295 				addCommon_sleep();
        ; Setup parameters for call to function addCommon_sleep
        LCALL   ??addCommon_sleep?relay; Banked call to: addCommon_sleep
//  296 			}
//  297 #else
//  298 #endif
//  299 		}
//  300 		return ( events ^ AC_EVENT_POLLING );
??addSceneSelector_eventLoop_2:
        MOV     A,R6
        MOV     R2,A
        MOV     A,R7
        XRL     A,#0x1
        SJMP    ??addSceneSelector_eventLoop_3
//  301 	}
//  302 	
//  303 	if (events & AC_EVENT_HANDLE_ONE_TIME)
??addSceneSelector_eventLoop_0:
        MOV     A,R7
        ANL     A,#0x2
        JZ      ??addSceneSelector_eventLoop_4
//  304 	{
//  305 		//add by jc按键按下，唤醒唤醒1秒，发送2次data request
//  306 		addCommon_wakeup();
        ; Setup parameters for call to function addCommon_wakeup
        LCALL   ??addCommon_wakeup?relay; Banked call to: addCommon_wakeup
//  307 		acDelayJoinNetwork = 1;
        MOV     DPTR,#acDelayJoinNetwork
        MOV     A,#0x1
        MOVX    @DPTR,A
//  308 		osal_start_timerEx(*acPointer_TaskID, AC_EVENT_POLLING, 1000); //
        ; Setup parameters for call to function osal_start_timerEx
        MOV     DPTR,#__Constant_3e8
        LCALL   ?PUSH_XSTACK8_X_FOUR
          CFI CFA_XSP16 add(XSP16, 13)
        LCALL   ?Subroutine5 & 0xFFFF
??CrossCallReturnLabel_12:
        LCALL   ??osal_start_timerEx?relay; Banked call to: osal_start_timerEx
        MOV     A,#0x4
        LCALL   ?DEALLOC_XSTACK8
          CFI CFA_XSP16 add(XSP16, 9)
//  309 		//end of add by jc
//  310 		addSceneSelector_handleOneTime();
        ; Setup parameters for call to function addSceneSelector_handleOneTime
        LCALL   ??addSceneSelector_handleOneTime?relay; Banked call to: addSceneSelector_handleOneTime
//  311 		return ( events ^ AC_EVENT_HANDLE_ONE_TIME);
        MOV     A,R6
        MOV     R2,A
        MOV     A,R7
        XRL     A,#0x2
        SJMP    ??addSceneSelector_eventLoop_3
//  312 	}
//  313 	
//  314 	if (events & AC_EVENT_DOUBLE_CLICK_CHECK)
??addSceneSelector_eventLoop_4:
        MOV     A,R7
        ANL     A,#0x20
        JZ      ??addSceneSelector_eventLoop_5
//  315 	{
//  316 		//add by jc按键按下，唤醒唤醒5秒，发送2次data request
//  317 		addCommon_wakeup();
        ; Setup parameters for call to function addCommon_wakeup
        LCALL   ??addCommon_wakeup?relay; Banked call to: addCommon_wakeup
//  318 		acDelayJoinNetwork = 1;
        MOV     DPTR,#acDelayJoinNetwork
        MOV     A,#0x1
        MOVX    @DPTR,A
//  319 		osal_start_timerEx(*acPointer_TaskID, AC_EVENT_POLLING, 1000);
        ; Setup parameters for call to function osal_start_timerEx
        MOV     DPTR,#__Constant_3e8
        LCALL   ?PUSH_XSTACK8_X_FOUR
          CFI CFA_XSP16 add(XSP16, 13)
        LCALL   ?Subroutine5 & 0xFFFF
??CrossCallReturnLabel_13:
        LCALL   ??osal_start_timerEx?relay; Banked call to: osal_start_timerEx
        MOV     A,#0x4
        LCALL   ?DEALLOC_XSTACK8
          CFI CFA_XSP16 add(XSP16, 9)
//  320 		//end of add by jc
//  321 		if (acDoubleClickCounter_whenKeyDown >= 2)
        MOV     DPTR,#acDoubleClickCounter_whenKeyDown
        MOVX    A,@DPTR
        CLR     C
        SUBB    A,#0x2
        JC      ??addSceneSelector_eventLoop_6
//  322 		{
//  323 			acDoubleClickCounter_whenKeyUp = acDoubleClickCounter_whenKeyDown;
        MOVX    A,@DPTR
        MOV     DPTR,#acDoubleClickCounter_whenKeyUp
        MOVX    @DPTR,A
//  324 		}
//  325 		acDoubleClickCounter_whenKeyDown = 0;
??addSceneSelector_eventLoop_6:
        MOV     DPTR,#acDoubleClickCounter_whenKeyDown
        CLR     A
        MOVX    @DPTR,A
//  326 		addSceneSelector_handleOneTime();
        ; Setup parameters for call to function addSceneSelector_handleOneTime
        LCALL   ??addSceneSelector_handleOneTime?relay; Banked call to: addSceneSelector_handleOneTime
//  327 		acDoubleClickCheckFlag = FALSE;
        MOV     DPTR,#acDoubleClickCheckFlag
        CLR     A
        MOVX    @DPTR,A
//  328 		return ( events ^ AC_EVENT_DOUBLE_CLICK_CHECK);
        MOV     A,R6
        MOV     R2,A
        MOV     A,R7
        XRL     A,#0x20
??addSceneSelector_eventLoop_3:
        MOV     R3,A
        SJMP    ??addSceneSelector_eventLoop_7
//  329 	}
//  330 	
//  331 	return addCommon_eventLoop(task_id, events);
??addSceneSelector_eventLoop_5:
        ; Setup parameters for call to function addCommon_eventLoop
        LCALL   ??addCommon_eventLoop?relay; Banked call to: addCommon_eventLoop
??addSceneSelector_eventLoop_7:
        LJMP    ?Subroutine1 & 0xFFFF
          CFI EndBlock cfiBlock1
//  332 }

        RSEG BANKED_CODE:CODE:NOROOT(0)
?Subroutine5:
          CFI Block cfiCond2 Using cfiCommon0
          CFI Function addSceneSelector_eventLoop
          CFI Conditional ??CrossCallReturnLabel_10
          CFI R6 load(1, XDATA, add(CFA_XSP16, literal(-9)))
          CFI VB load(1, XDATA, add(CFA_XSP16, literal(-8)))
          CFI V0 load(1, XDATA, add(CFA_XSP16, literal(-7)))
          CFI R7 load(1, XDATA, add(CFA_XSP16, literal(-6)))
          CFI ?RET_LOW load(1, XDATA, add(CFA_XSP16, literal(-5)))
          CFI ?RET_HIGH load(1, XDATA, add(CFA_XSP16, literal(-4)))
          CFI ?BRET_EXT load(1, XDATA, add(CFA_XSP16, literal(-3)))
          CFI DPL0 load(1, XDATA, add(CFA_XSP16, literal(-2)))
          CFI DPH0 load(1, XDATA, add(CFA_XSP16, literal(-1)))
          CFI CFA_SP SP+-2
          CFI CFA_XSP16 add(XSP16, 9)
          CFI Block cfiCond3 Using cfiCommon0
          CFI (cfiCond3) Function addSceneSelector_eventLoop
          CFI (cfiCond3) Conditional ??CrossCallReturnLabel_11
          CFI (cfiCond3) R6 load(1, XDATA, add(CFA_XSP16, literal(-9)))
          CFI (cfiCond3) VB load(1, XDATA, add(CFA_XSP16, literal(-8)))
          CFI (cfiCond3) V0 load(1, XDATA, add(CFA_XSP16, literal(-7)))
          CFI (cfiCond3) R7 load(1, XDATA, add(CFA_XSP16, literal(-6)))
          CFI (cfiCond3) ?RET_LOW load(1, XDATA, add(CFA_XSP16, literal(-5)))
          CFI (cfiCond3) ?RET_HIGH load(1, XDATA, add(CFA_XSP16, literal(-4)))
          CFI (cfiCond3) ?BRET_EXT load(1, XDATA, add(CFA_XSP16, literal(-3)))
          CFI (cfiCond3) DPL0 load(1, XDATA, add(CFA_XSP16, literal(-2)))
          CFI (cfiCond3) DPH0 load(1, XDATA, add(CFA_XSP16, literal(-1)))
          CFI (cfiCond3) CFA_SP SP+-2
          CFI (cfiCond3) CFA_XSP16 add(XSP16, 13)
          CFI Block cfiCond4 Using cfiCommon0
          CFI (cfiCond4) Function addSceneSelector_eventLoop
          CFI (cfiCond4) Conditional ??CrossCallReturnLabel_12
          CFI (cfiCond4) R6 load(1, XDATA, add(CFA_XSP16, literal(-9)))
          CFI (cfiCond4) VB load(1, XDATA, add(CFA_XSP16, literal(-8)))
          CFI (cfiCond4) V0 load(1, XDATA, add(CFA_XSP16, literal(-7)))
          CFI (cfiCond4) R7 load(1, XDATA, add(CFA_XSP16, literal(-6)))
          CFI (cfiCond4) ?RET_LOW load(1, XDATA, add(CFA_XSP16, literal(-5)))
          CFI (cfiCond4) ?RET_HIGH load(1, XDATA, add(CFA_XSP16, literal(-4)))
          CFI (cfiCond4) ?BRET_EXT load(1, XDATA, add(CFA_XSP16, literal(-3)))
          CFI (cfiCond4) DPL0 load(1, XDATA, add(CFA_XSP16, literal(-2)))
          CFI (cfiCond4) DPH0 load(1, XDATA, add(CFA_XSP16, literal(-1)))
          CFI (cfiCond4) CFA_SP SP+-2
          CFI (cfiCond4) CFA_XSP16 add(XSP16, 13)
          CFI Block cfiCond5 Using cfiCommon0
          CFI (cfiCond5) Function addSceneSelector_eventLoop
          CFI (cfiCond5) Conditional ??CrossCallReturnLabel_13
          CFI (cfiCond5) R6 load(1, XDATA, add(CFA_XSP16, literal(-9)))
          CFI (cfiCond5) VB load(1, XDATA, add(CFA_XSP16, literal(-8)))
          CFI (cfiCond5) V0 load(1, XDATA, add(CFA_XSP16, literal(-7)))
          CFI (cfiCond5) R7 load(1, XDATA, add(CFA_XSP16, literal(-6)))
          CFI (cfiCond5) ?RET_LOW load(1, XDATA, add(CFA_XSP16, literal(-5)))
          CFI (cfiCond5) ?RET_HIGH load(1, XDATA, add(CFA_XSP16, literal(-4)))
          CFI (cfiCond5) ?BRET_EXT load(1, XDATA, add(CFA_XSP16, literal(-3)))
          CFI (cfiCond5) DPL0 load(1, XDATA, add(CFA_XSP16, literal(-2)))
          CFI (cfiCond5) DPH0 load(1, XDATA, add(CFA_XSP16, literal(-1)))
          CFI (cfiCond5) CFA_SP SP+-2
          CFI (cfiCond5) CFA_XSP16 add(XSP16, 13)
          CFI Block cfiPicker6 Using cfiCommon1
          CFI (cfiPicker6) NoFunction
          CFI (cfiPicker6) Picker
        MOV     R2,#0x0
        MOV     R3,#0x1
          CFI EndBlock cfiCond2
          CFI EndBlock cfiCond3
          CFI EndBlock cfiCond4
          CFI EndBlock cfiCond5
          CFI EndBlock cfiPicker6
        REQUIRE ??Subroutine15_0
        ; // Fall through to label ??Subroutine15_0

        RSEG BANKED_CODE:CODE:NOROOT(0)
??Subroutine15_0:
          CFI Block cfiCond7 Using cfiCommon0
          CFI Function addSceneSelector_isrPort2
          CFI Conditional ??CrossCallReturnLabel_8
          CFI R6 load(1, XDATA, add(CFA_XSP16, literal(-9)))
          CFI VB load(1, XDATA, add(CFA_XSP16, literal(-8)))
          CFI V0 load(1, XDATA, add(CFA_XSP16, literal(-7)))
          CFI R7 load(1, XDATA, add(CFA_XSP16, literal(-6)))
          CFI ?RET_LOW load(1, XDATA, add(CFA_XSP16, literal(-5)))
          CFI ?RET_HIGH load(1, XDATA, add(CFA_XSP16, literal(-4)))
          CFI ?BRET_EXT load(1, XDATA, add(CFA_XSP16, literal(-3)))
          CFI DPL0 load(1, XDATA, add(CFA_XSP16, literal(-2)))
          CFI DPH0 load(1, XDATA, add(CFA_XSP16, literal(-1)))
          CFI CFA_SP SP+-2
          CFI CFA_XSP16 add(XSP16, 9)
          CFI Block cfiCond8 Using cfiCommon0
          CFI (cfiCond8) Function addSceneSelector_isrPort2
          CFI (cfiCond8) Conditional ??CrossCallReturnLabel_9
          CFI (cfiCond8) R6 load(1, XDATA, add(CFA_XSP16, literal(-9)))
          CFI (cfiCond8) VB load(1, XDATA, add(CFA_XSP16, literal(-8)))
          CFI (cfiCond8) V0 load(1, XDATA, add(CFA_XSP16, literal(-7)))
          CFI (cfiCond8) R7 load(1, XDATA, add(CFA_XSP16, literal(-6)))
          CFI (cfiCond8) ?RET_LOW load(1, XDATA, add(CFA_XSP16, literal(-5)))
          CFI (cfiCond8) ?RET_HIGH load(1, XDATA, add(CFA_XSP16, literal(-4)))
          CFI (cfiCond8) ?BRET_EXT load(1, XDATA, add(CFA_XSP16, literal(-3)))
          CFI (cfiCond8) DPL0 load(1, XDATA, add(CFA_XSP16, literal(-2)))
          CFI (cfiCond8) DPH0 load(1, XDATA, add(CFA_XSP16, literal(-1)))
          CFI (cfiCond8) CFA_SP SP+-2
          CFI (cfiCond8) CFA_XSP16 add(XSP16, 9)
          CFI Block cfiCond9 Using cfiCommon0
          CFI (cfiCond9) Function addSceneSelector_eventLoop
          CFI (cfiCond9) Conditional ??CrossCallReturnLabel_10
          CFI (cfiCond9) R6 load(1, XDATA, add(CFA_XSP16, literal(-9)))
          CFI (cfiCond9) VB load(1, XDATA, add(CFA_XSP16, literal(-8)))
          CFI (cfiCond9) V0 load(1, XDATA, add(CFA_XSP16, literal(-7)))
          CFI (cfiCond9) R7 load(1, XDATA, add(CFA_XSP16, literal(-6)))
          CFI (cfiCond9) ?RET_LOW load(1, XDATA, add(CFA_XSP16, literal(-5)))
          CFI (cfiCond9) ?RET_HIGH load(1, XDATA, add(CFA_XSP16, literal(-4)))
          CFI (cfiCond9) ?BRET_EXT load(1, XDATA, add(CFA_XSP16, literal(-3)))
          CFI (cfiCond9) DPL0 load(1, XDATA, add(CFA_XSP16, literal(-2)))
          CFI (cfiCond9) DPH0 load(1, XDATA, add(CFA_XSP16, literal(-1)))
          CFI (cfiCond9) CFA_SP SP+-2
          CFI (cfiCond9) CFA_XSP16 add(XSP16, 9)
          CFI Block cfiCond10 Using cfiCommon0
          CFI (cfiCond10) Function addSceneSelector_eventLoop
          CFI (cfiCond10) Conditional ??CrossCallReturnLabel_11
          CFI (cfiCond10) R6 load(1, XDATA, add(CFA_XSP16, literal(-9)))
          CFI (cfiCond10) VB load(1, XDATA, add(CFA_XSP16, literal(-8)))
          CFI (cfiCond10) V0 load(1, XDATA, add(CFA_XSP16, literal(-7)))
          CFI (cfiCond10) R7 load(1, XDATA, add(CFA_XSP16, literal(-6)))
          CFI (cfiCond10) ?RET_LOW load(1, XDATA, add(CFA_XSP16, literal(-5)))
          CFI (cfiCond10) ?RET_HIGH load(1, XDATA, add(CFA_XSP16, literal(-4)))
          CFI (cfiCond10) ?BRET_EXT load(1, XDATA, add(CFA_XSP16, literal(-3)))
          CFI (cfiCond10) DPL0 load(1, XDATA, add(CFA_XSP16, literal(-2)))
          CFI (cfiCond10) DPH0 load(1, XDATA, add(CFA_XSP16, literal(-1)))
          CFI (cfiCond10) CFA_SP SP+-2
          CFI (cfiCond10) CFA_XSP16 add(XSP16, 13)
          CFI Block cfiCond11 Using cfiCommon0
          CFI (cfiCond11) Function addSceneSelector_eventLoop
          CFI (cfiCond11) Conditional ??CrossCallReturnLabel_12
          CFI (cfiCond11) R6 load(1, XDATA, add(CFA_XSP16, literal(-9)))
          CFI (cfiCond11) VB load(1, XDATA, add(CFA_XSP16, literal(-8)))
          CFI (cfiCond11) V0 load(1, XDATA, add(CFA_XSP16, literal(-7)))
          CFI (cfiCond11) R7 load(1, XDATA, add(CFA_XSP16, literal(-6)))
          CFI (cfiCond11) ?RET_LOW load(1, XDATA, add(CFA_XSP16, literal(-5)))
          CFI (cfiCond11) ?RET_HIGH load(1, XDATA, add(CFA_XSP16, literal(-4)))
          CFI (cfiCond11) ?BRET_EXT load(1, XDATA, add(CFA_XSP16, literal(-3)))
          CFI (cfiCond11) DPL0 load(1, XDATA, add(CFA_XSP16, literal(-2)))
          CFI (cfiCond11) DPH0 load(1, XDATA, add(CFA_XSP16, literal(-1)))
          CFI (cfiCond11) CFA_SP SP+-2
          CFI (cfiCond11) CFA_XSP16 add(XSP16, 13)
          CFI Block cfiCond12 Using cfiCommon0
          CFI (cfiCond12) Function addSceneSelector_eventLoop
          CFI (cfiCond12) Conditional ??CrossCallReturnLabel_13
          CFI (cfiCond12) R6 load(1, XDATA, add(CFA_XSP16, literal(-9)))
          CFI (cfiCond12) VB load(1, XDATA, add(CFA_XSP16, literal(-8)))
          CFI (cfiCond12) V0 load(1, XDATA, add(CFA_XSP16, literal(-7)))
          CFI (cfiCond12) R7 load(1, XDATA, add(CFA_XSP16, literal(-6)))
          CFI (cfiCond12) ?RET_LOW load(1, XDATA, add(CFA_XSP16, literal(-5)))
          CFI (cfiCond12) ?RET_HIGH load(1, XDATA, add(CFA_XSP16, literal(-4)))
          CFI (cfiCond12) ?BRET_EXT load(1, XDATA, add(CFA_XSP16, literal(-3)))
          CFI (cfiCond12) DPL0 load(1, XDATA, add(CFA_XSP16, literal(-2)))
          CFI (cfiCond12) DPH0 load(1, XDATA, add(CFA_XSP16, literal(-1)))
          CFI (cfiCond12) CFA_SP SP+-2
          CFI (cfiCond12) CFA_XSP16 add(XSP16, 13)
          CFI Block cfiPicker13 Using cfiCommon1
          CFI (cfiPicker13) NoFunction
          CFI (cfiPicker13) Picker
        MOV     DPTR,#acPointer_TaskID
        MOVX    A,@DPTR
        MOV     R0,A
        INC     DPTR
        MOVX    A,@DPTR
        MOV     DPH,A
        MOV     DPL,R0
        MOVX    A,@DPTR
        MOV     R1,A
        RET
          CFI EndBlock cfiCond7
          CFI EndBlock cfiCond8
          CFI EndBlock cfiCond9
          CFI EndBlock cfiCond10
          CFI EndBlock cfiCond11
          CFI EndBlock cfiCond12
          CFI EndBlock cfiPicker13
//  333 
//  334 /*********************************************************************
//  335  * @fn      addSceneSelector_polling
//  336  *
//  337  * @brief   Scene selector.
//  338  *
//  339  * @param   none
//  340  *
//  341  * @return  none
//  342  */
//  343 static void addSceneSelector_polling(void)
//  344 {
//  345 	addCommon_polling();
//  346 }
//  347 
//  348 /*********************************************************************
//  349  * @fn      addSceneSelector_handleOneTime
//  350  *
//  351  * @brief   Scene selector handle one time.
//  352  *
//  353  * @param   none
//  354  *
//  355  * @return  none
//  356  */

        RSEG BANKED_CODE:CODE:NOROOT(0)
//  357 void addSceneSelector_handleOneTime(void)
addSceneSelector_handleOneTime:
          CFI Block cfiBlock14 Using cfiCommon0
          CFI Function addSceneSelector_handleOneTime
        CODE
//  358 {
        FUNCALL addSceneSelector_handleOneTime, addCommon_handleOneTime
        LOCFRAME ISTACK, 0, STACK
        LOCFRAME PSTACK, 0, STACK
        LOCFRAME XSTACK, 10, STACK
        LOCFRAME IOVERLAY, 0, STATIC
        LOCFRAME DOVERLAY, 0, STATIC
        ARGFRAME ISTACK, 0, STACK
        ARGFRAME PSTACK, 0, STACK
        ARGFRAME XSTACK, 10, STACK
        ARGFRAME IOVERLAY, 0, STATIC
        ARGFRAME DOVERLAY, 0, STATIC
        FUNCALL addSceneSelector_handleOneTime, addSceneSelector_clearKeyData
        LOCFRAME ISTACK, 0, STACK
        LOCFRAME PSTACK, 0, STACK
        LOCFRAME XSTACK, 10, STACK
        LOCFRAME IOVERLAY, 0, STATIC
        LOCFRAME DOVERLAY, 0, STATIC
        ARGFRAME ISTACK, 0, STACK
        ARGFRAME PSTACK, 0, STACK
        ARGFRAME XSTACK, 10, STACK
        ARGFRAME IOVERLAY, 0, STATIC
        ARGFRAME DOVERLAY, 0, STATIC
        FUNCALL addSceneSelector_handleOneTime, addCommon_factoryReset
        LOCFRAME ISTACK, 0, STACK
        LOCFRAME PSTACK, 0, STACK
        LOCFRAME XSTACK, 10, STACK
        LOCFRAME IOVERLAY, 0, STATIC
        LOCFRAME DOVERLAY, 0, STATIC
        ARGFRAME ISTACK, 0, STACK
        ARGFRAME PSTACK, 0, STACK
        ARGFRAME XSTACK, 10, STACK
        ARGFRAME IOVERLAY, 0, STATIC
        ARGFRAME DOVERLAY, 0, STATIC
        FUNCALL addSceneSelector_handleOneTime, addSceneSelector_clearKeyData
        LOCFRAME ISTACK, 0, STACK
        LOCFRAME PSTACK, 0, STACK
        LOCFRAME XSTACK, 10, STACK
        LOCFRAME IOVERLAY, 0, STATIC
        LOCFRAME DOVERLAY, 0, STATIC
        ARGFRAME ISTACK, 0, STACK
        ARGFRAME PSTACK, 0, STACK
        ARGFRAME XSTACK, 10, STACK
        ARGFRAME IOVERLAY, 0, STATIC
        ARGFRAME DOVERLAY, 0, STATIC
        FUNCALL addSceneSelector_handleOneTime, addCommon_wakeup
        LOCFRAME ISTACK, 0, STACK
        LOCFRAME PSTACK, 0, STACK
        LOCFRAME XSTACK, 10, STACK
        LOCFRAME IOVERLAY, 0, STATIC
        LOCFRAME DOVERLAY, 0, STATIC
        ARGFRAME ISTACK, 0, STACK
        ARGFRAME PSTACK, 0, STACK
        ARGFRAME XSTACK, 10, STACK
        ARGFRAME IOVERLAY, 0, STATIC
        ARGFRAME DOVERLAY, 0, STATIC
        FUNCALL addSceneSelector_handleOneTime, addSceneSelector_clearKeyData
        LOCFRAME ISTACK, 0, STACK
        LOCFRAME PSTACK, 0, STACK
        LOCFRAME XSTACK, 10, STACK
        LOCFRAME IOVERLAY, 0, STATIC
        LOCFRAME DOVERLAY, 0, STATIC
        ARGFRAME ISTACK, 0, STACK
        ARGFRAME PSTACK, 0, STACK
        ARGFRAME XSTACK, 10, STACK
        ARGFRAME IOVERLAY, 0, STATIC
        ARGFRAME DOVERLAY, 0, STATIC
        FUNCALL addSceneSelector_handleOneTime, addSceneSelector_clearKeyData
        LOCFRAME ISTACK, 0, STACK
        LOCFRAME PSTACK, 0, STACK
        LOCFRAME XSTACK, 10, STACK
        LOCFRAME IOVERLAY, 0, STATIC
        LOCFRAME DOVERLAY, 0, STATIC
        ARGFRAME ISTACK, 0, STACK
        ARGFRAME PSTACK, 0, STACK
        ARGFRAME XSTACK, 10, STACK
        ARGFRAME IOVERLAY, 0, STATIC
        ARGFRAME DOVERLAY, 0, STATIC
        FUNCALL addSceneSelector_handleOneTime, addSceneSelector_sendDestinationAddressConfigure
        LOCFRAME ISTACK, 0, STACK
        LOCFRAME PSTACK, 0, STACK
        LOCFRAME XSTACK, 10, STACK
        LOCFRAME IOVERLAY, 0, STATIC
        LOCFRAME DOVERLAY, 0, STATIC
        ARGFRAME ISTACK, 0, STACK
        ARGFRAME PSTACK, 0, STACK
        ARGFRAME XSTACK, 10, STACK
        ARGFRAME IOVERLAY, 0, STATIC
        ARGFRAME DOVERLAY, 0, STATIC
        FUNCALL addSceneSelector_handleOneTime, zclGeneral_SendSceneRequest
        LOCFRAME ISTACK, 0, STACK
        LOCFRAME PSTACK, 0, STACK
        LOCFRAME XSTACK, 14, STACK
        LOCFRAME IOVERLAY, 0, STATIC
        LOCFRAME DOVERLAY, 0, STATIC
        ARGFRAME ISTACK, 0, STACK
        ARGFRAME PSTACK, 0, STACK
        ARGFRAME XSTACK, 14, STACK
        ARGFRAME IOVERLAY, 0, STATIC
        ARGFRAME DOVERLAY, 0, STATIC
        FUNCALL addSceneSelector_handleOneTime, addSceneSelector_clearKeyData
        LOCFRAME ISTACK, 0, STACK
        LOCFRAME PSTACK, 0, STACK
        LOCFRAME XSTACK, 10, STACK
        LOCFRAME IOVERLAY, 0, STATIC
        LOCFRAME DOVERLAY, 0, STATIC
        ARGFRAME ISTACK, 0, STACK
        ARGFRAME PSTACK, 0, STACK
        ARGFRAME XSTACK, 10, STACK
        ARGFRAME IOVERLAY, 0, STATIC
        ARGFRAME DOVERLAY, 0, STATIC
        FUNCALL addSceneSelector_handleOneTime, addSceneSelector_sendDestinationAddressConfigure
        LOCFRAME ISTACK, 0, STACK
        LOCFRAME PSTACK, 0, STACK
        LOCFRAME XSTACK, 10, STACK
        LOCFRAME IOVERLAY, 0, STATIC
        LOCFRAME DOVERLAY, 0, STATIC
        ARGFRAME ISTACK, 0, STACK
        ARGFRAME PSTACK, 0, STACK
        ARGFRAME XSTACK, 10, STACK
        ARGFRAME IOVERLAY, 0, STATIC
        ARGFRAME DOVERLAY, 0, STATIC
        FUNCALL addSceneSelector_handleOneTime, zclGeneral_SendSceneRequest
        LOCFRAME ISTACK, 0, STACK
        LOCFRAME PSTACK, 0, STACK
        LOCFRAME XSTACK, 14, STACK
        LOCFRAME IOVERLAY, 0, STATIC
        LOCFRAME DOVERLAY, 0, STATIC
        ARGFRAME ISTACK, 0, STACK
        ARGFRAME PSTACK, 0, STACK
        ARGFRAME XSTACK, 14, STACK
        ARGFRAME IOVERLAY, 0, STATIC
        ARGFRAME DOVERLAY, 0, STATIC
        FUNCALL addSceneSelector_handleOneTime, addSceneSelector_clearKeyData
        LOCFRAME ISTACK, 0, STACK
        LOCFRAME PSTACK, 0, STACK
        LOCFRAME XSTACK, 10, STACK
        LOCFRAME IOVERLAY, 0, STATIC
        LOCFRAME DOVERLAY, 0, STATIC
        ARGFRAME ISTACK, 0, STACK
        ARGFRAME PSTACK, 0, STACK
        ARGFRAME XSTACK, 10, STACK
        ARGFRAME IOVERLAY, 0, STATIC
        ARGFRAME DOVERLAY, 0, STATIC
        FUNCALL addSceneSelector_handleOneTime, addSceneSelector_clearKeyData
        LOCFRAME ISTACK, 0, STACK
        LOCFRAME PSTACK, 0, STACK
        LOCFRAME XSTACK, 10, STACK
        LOCFRAME IOVERLAY, 0, STATIC
        LOCFRAME DOVERLAY, 0, STATIC
        ARGFRAME ISTACK, 0, STACK
        ARGFRAME PSTACK, 0, STACK
        ARGFRAME XSTACK, 10, STACK
        ARGFRAME IOVERLAY, 0, STATIC
        ARGFRAME DOVERLAY, 0, STATIC
        FUNCALL addSceneSelector_handleOneTime, addSceneSelector_sendDestinationAddressConfigure
        LOCFRAME ISTACK, 0, STACK
        LOCFRAME PSTACK, 0, STACK
        LOCFRAME XSTACK, 10, STACK
        LOCFRAME IOVERLAY, 0, STATIC
        LOCFRAME DOVERLAY, 0, STATIC
        ARGFRAME ISTACK, 0, STACK
        ARGFRAME PSTACK, 0, STACK
        ARGFRAME XSTACK, 10, STACK
        ARGFRAME IOVERLAY, 0, STATIC
        ARGFRAME DOVERLAY, 0, STATIC
        FUNCALL addSceneSelector_handleOneTime, zclGeneral_SendSceneRequest
        LOCFRAME ISTACK, 0, STACK
        LOCFRAME PSTACK, 0, STACK
        LOCFRAME XSTACK, 14, STACK
        LOCFRAME IOVERLAY, 0, STATIC
        LOCFRAME DOVERLAY, 0, STATIC
        ARGFRAME ISTACK, 0, STACK
        ARGFRAME PSTACK, 0, STACK
        ARGFRAME XSTACK, 14, STACK
        ARGFRAME IOVERLAY, 0, STATIC
        ARGFRAME DOVERLAY, 0, STATIC
        FUNCALL addSceneSelector_handleOneTime, addSceneSelector_clearKeyData
        LOCFRAME ISTACK, 0, STACK
        LOCFRAME PSTACK, 0, STACK
        LOCFRAME XSTACK, 10, STACK
        LOCFRAME IOVERLAY, 0, STATIC
        LOCFRAME DOVERLAY, 0, STATIC
        ARGFRAME ISTACK, 0, STACK
        ARGFRAME PSTACK, 0, STACK
        ARGFRAME XSTACK, 10, STACK
        ARGFRAME IOVERLAY, 0, STATIC
        ARGFRAME DOVERLAY, 0, STATIC
        FUNCALL addSceneSelector_handleOneTime, addSceneSelector_sendDestinationAddressConfigure
        LOCFRAME ISTACK, 0, STACK
        LOCFRAME PSTACK, 0, STACK
        LOCFRAME XSTACK, 10, STACK
        LOCFRAME IOVERLAY, 0, STATIC
        LOCFRAME DOVERLAY, 0, STATIC
        ARGFRAME ISTACK, 0, STACK
        ARGFRAME PSTACK, 0, STACK
        ARGFRAME XSTACK, 10, STACK
        ARGFRAME IOVERLAY, 0, STATIC
        ARGFRAME DOVERLAY, 0, STATIC
        FUNCALL addSceneSelector_handleOneTime, zclGeneral_SendSceneRequest
        LOCFRAME ISTACK, 0, STACK
        LOCFRAME PSTACK, 0, STACK
        LOCFRAME XSTACK, 14, STACK
        LOCFRAME IOVERLAY, 0, STATIC
        LOCFRAME DOVERLAY, 0, STATIC
        ARGFRAME ISTACK, 0, STACK
        ARGFRAME PSTACK, 0, STACK
        ARGFRAME XSTACK, 14, STACK
        ARGFRAME IOVERLAY, 0, STATIC
        ARGFRAME DOVERLAY, 0, STATIC
        FUNCALL addSceneSelector_handleOneTime, addSceneSelector_clearKeyData
        LOCFRAME ISTACK, 0, STACK
        LOCFRAME PSTACK, 0, STACK
        LOCFRAME XSTACK, 10, STACK
        LOCFRAME IOVERLAY, 0, STATIC
        LOCFRAME DOVERLAY, 0, STATIC
        ARGFRAME ISTACK, 0, STACK
        ARGFRAME PSTACK, 0, STACK
        ARGFRAME XSTACK, 10, STACK
        ARGFRAME IOVERLAY, 0, STATIC
        ARGFRAME DOVERLAY, 0, STATIC
        FUNCALL addSceneSelector_handleOneTime, addSceneSelector_clearKeyData
        LOCFRAME ISTACK, 0, STACK
        LOCFRAME PSTACK, 0, STACK
        LOCFRAME XSTACK, 10, STACK
        LOCFRAME IOVERLAY, 0, STATIC
        LOCFRAME DOVERLAY, 0, STATIC
        ARGFRAME ISTACK, 0, STACK
        ARGFRAME PSTACK, 0, STACK
        ARGFRAME XSTACK, 10, STACK
        ARGFRAME IOVERLAY, 0, STATIC
        ARGFRAME DOVERLAY, 0, STATIC
        FUNCALL addSceneSelector_handleOneTime, addSceneSelector_sendDestinationAddressConfigure
        LOCFRAME ISTACK, 0, STACK
        LOCFRAME PSTACK, 0, STACK
        LOCFRAME XSTACK, 10, STACK
        LOCFRAME IOVERLAY, 0, STATIC
        LOCFRAME DOVERLAY, 0, STATIC
        ARGFRAME ISTACK, 0, STACK
        ARGFRAME PSTACK, 0, STACK
        ARGFRAME XSTACK, 10, STACK
        ARGFRAME IOVERLAY, 0, STATIC
        ARGFRAME DOVERLAY, 0, STATIC
        FUNCALL addSceneSelector_handleOneTime, zclGeneral_SendSceneRequest
        LOCFRAME ISTACK, 0, STACK
        LOCFRAME PSTACK, 0, STACK
        LOCFRAME XSTACK, 14, STACK
        LOCFRAME IOVERLAY, 0, STATIC
        LOCFRAME DOVERLAY, 0, STATIC
        ARGFRAME ISTACK, 0, STACK
        ARGFRAME PSTACK, 0, STACK
        ARGFRAME XSTACK, 14, STACK
        ARGFRAME IOVERLAY, 0, STATIC
        ARGFRAME DOVERLAY, 0, STATIC
        FUNCALL addSceneSelector_handleOneTime, addSceneSelector_clearKeyData
        LOCFRAME ISTACK, 0, STACK
        LOCFRAME PSTACK, 0, STACK
        LOCFRAME XSTACK, 10, STACK
        LOCFRAME IOVERLAY, 0, STATIC
        LOCFRAME DOVERLAY, 0, STATIC
        ARGFRAME ISTACK, 0, STACK
        ARGFRAME PSTACK, 0, STACK
        ARGFRAME XSTACK, 10, STACK
        ARGFRAME IOVERLAY, 0, STATIC
        ARGFRAME DOVERLAY, 0, STATIC
        FUNCALL addSceneSelector_handleOneTime, addSceneSelector_sendDestinationAddressConfigure
        LOCFRAME ISTACK, 0, STACK
        LOCFRAME PSTACK, 0, STACK
        LOCFRAME XSTACK, 10, STACK
        LOCFRAME IOVERLAY, 0, STATIC
        LOCFRAME DOVERLAY, 0, STATIC
        ARGFRAME ISTACK, 0, STACK
        ARGFRAME PSTACK, 0, STACK
        ARGFRAME XSTACK, 10, STACK
        ARGFRAME IOVERLAY, 0, STATIC
        ARGFRAME DOVERLAY, 0, STATIC
        FUNCALL addSceneSelector_handleOneTime, zclGeneral_SendSceneRequest
        LOCFRAME ISTACK, 0, STACK
        LOCFRAME PSTACK, 0, STACK
        LOCFRAME XSTACK, 14, STACK
        LOCFRAME IOVERLAY, 0, STATIC
        LOCFRAME DOVERLAY, 0, STATIC
        ARGFRAME ISTACK, 0, STACK
        ARGFRAME PSTACK, 0, STACK
        ARGFRAME XSTACK, 14, STACK
        ARGFRAME IOVERLAY, 0, STATIC
        ARGFRAME DOVERLAY, 0, STATIC
        FUNCALL addSceneSelector_handleOneTime, addSceneSelector_clearKeyData
        LOCFRAME ISTACK, 0, STACK
        LOCFRAME PSTACK, 0, STACK
        LOCFRAME XSTACK, 10, STACK
        LOCFRAME IOVERLAY, 0, STATIC
        LOCFRAME DOVERLAY, 0, STATIC
        ARGFRAME ISTACK, 0, STACK
        ARGFRAME PSTACK, 0, STACK
        ARGFRAME XSTACK, 10, STACK
        ARGFRAME IOVERLAY, 0, STATIC
        ARGFRAME DOVERLAY, 0, STATIC
        FUNCALL addSceneSelector_handleOneTime, addSceneSelector_clearKeyData
        LOCFRAME ISTACK, 0, STACK
        LOCFRAME PSTACK, 0, STACK
        LOCFRAME XSTACK, 10, STACK
        LOCFRAME IOVERLAY, 0, STATIC
        LOCFRAME DOVERLAY, 0, STATIC
        ARGFRAME ISTACK, 0, STACK
        ARGFRAME PSTACK, 0, STACK
        ARGFRAME XSTACK, 10, STACK
        ARGFRAME IOVERLAY, 0, STATIC
        ARGFRAME DOVERLAY, 0, STATIC
        FUNCALL addSceneSelector_handleOneTime, addSceneSelector_sendDestinationAddressConfigure
        LOCFRAME ISTACK, 0, STACK
        LOCFRAME PSTACK, 0, STACK
        LOCFRAME XSTACK, 10, STACK
        LOCFRAME IOVERLAY, 0, STATIC
        LOCFRAME DOVERLAY, 0, STATIC
        ARGFRAME ISTACK, 0, STACK
        ARGFRAME PSTACK, 0, STACK
        ARGFRAME XSTACK, 10, STACK
        ARGFRAME IOVERLAY, 0, STATIC
        ARGFRAME DOVERLAY, 0, STATIC
        FUNCALL addSceneSelector_handleOneTime, zclGeneral_SendSceneRequest
        LOCFRAME ISTACK, 0, STACK
        LOCFRAME PSTACK, 0, STACK
        LOCFRAME XSTACK, 14, STACK
        LOCFRAME IOVERLAY, 0, STATIC
        LOCFRAME DOVERLAY, 0, STATIC
        ARGFRAME ISTACK, 0, STACK
        ARGFRAME PSTACK, 0, STACK
        ARGFRAME XSTACK, 14, STACK
        ARGFRAME IOVERLAY, 0, STATIC
        ARGFRAME DOVERLAY, 0, STATIC
        FUNCALL addSceneSelector_handleOneTime, addSceneSelector_clearKeyData
        LOCFRAME ISTACK, 0, STACK
        LOCFRAME PSTACK, 0, STACK
        LOCFRAME XSTACK, 10, STACK
        LOCFRAME IOVERLAY, 0, STATIC
        LOCFRAME DOVERLAY, 0, STATIC
        ARGFRAME ISTACK, 0, STACK
        ARGFRAME PSTACK, 0, STACK
        ARGFRAME XSTACK, 10, STACK
        ARGFRAME IOVERLAY, 0, STATIC
        ARGFRAME DOVERLAY, 0, STATIC
        FUNCALL addSceneSelector_handleOneTime, addSceneSelector_sendDestinationAddressConfigure
        LOCFRAME ISTACK, 0, STACK
        LOCFRAME PSTACK, 0, STACK
        LOCFRAME XSTACK, 10, STACK
        LOCFRAME IOVERLAY, 0, STATIC
        LOCFRAME DOVERLAY, 0, STATIC
        ARGFRAME ISTACK, 0, STACK
        ARGFRAME PSTACK, 0, STACK
        ARGFRAME XSTACK, 10, STACK
        ARGFRAME IOVERLAY, 0, STATIC
        ARGFRAME DOVERLAY, 0, STATIC
        FUNCALL addSceneSelector_handleOneTime, zclGeneral_SendSceneRequest
        LOCFRAME ISTACK, 0, STACK
        LOCFRAME PSTACK, 0, STACK
        LOCFRAME XSTACK, 14, STACK
        LOCFRAME IOVERLAY, 0, STATIC
        LOCFRAME DOVERLAY, 0, STATIC
        ARGFRAME ISTACK, 0, STACK
        ARGFRAME PSTACK, 0, STACK
        ARGFRAME XSTACK, 14, STACK
        ARGFRAME IOVERLAY, 0, STATIC
        ARGFRAME DOVERLAY, 0, STATIC
        FUNCALL addSceneSelector_handleOneTime, addSceneSelector_clearKeyData
        LOCFRAME ISTACK, 0, STACK
        LOCFRAME PSTACK, 0, STACK
        LOCFRAME XSTACK, 10, STACK
        LOCFRAME IOVERLAY, 0, STATIC
        LOCFRAME DOVERLAY, 0, STATIC
        ARGFRAME ISTACK, 0, STACK
        ARGFRAME PSTACK, 0, STACK
        ARGFRAME XSTACK, 10, STACK
        ARGFRAME IOVERLAY, 0, STATIC
        ARGFRAME DOVERLAY, 0, STATIC
        FUNCALL addSceneSelector_handleOneTime, addSceneSelector_clearKeyData
        LOCFRAME ISTACK, 0, STACK
        LOCFRAME PSTACK, 0, STACK
        LOCFRAME XSTACK, 10, STACK
        LOCFRAME IOVERLAY, 0, STATIC
        LOCFRAME DOVERLAY, 0, STATIC
        ARGFRAME ISTACK, 0, STACK
        ARGFRAME PSTACK, 0, STACK
        ARGFRAME XSTACK, 10, STACK
        ARGFRAME IOVERLAY, 0, STATIC
        ARGFRAME DOVERLAY, 0, STATIC
        FUNCALL addSceneSelector_handleOneTime, addSceneSelector_sendDestinationAddressConfigure
        LOCFRAME ISTACK, 0, STACK
        LOCFRAME PSTACK, 0, STACK
        LOCFRAME XSTACK, 10, STACK
        LOCFRAME IOVERLAY, 0, STATIC
        LOCFRAME DOVERLAY, 0, STATIC
        ARGFRAME ISTACK, 0, STACK
        ARGFRAME PSTACK, 0, STACK
        ARGFRAME XSTACK, 10, STACK
        ARGFRAME IOVERLAY, 0, STATIC
        ARGFRAME DOVERLAY, 0, STATIC
        FUNCALL addSceneSelector_handleOneTime, zclGeneral_SendLevelControlStepRequest
        LOCFRAME ISTACK, 0, STACK
        LOCFRAME PSTACK, 0, STACK
        LOCFRAME XSTACK, 15, STACK
        LOCFRAME IOVERLAY, 0, STATIC
        LOCFRAME DOVERLAY, 0, STATIC
        ARGFRAME ISTACK, 0, STACK
        ARGFRAME PSTACK, 0, STACK
        ARGFRAME XSTACK, 15, STACK
        ARGFRAME IOVERLAY, 0, STATIC
        ARGFRAME DOVERLAY, 0, STATIC
        FUNCALL addSceneSelector_handleOneTime, addSceneSelector_sendDestinationAddressConfigure
        LOCFRAME ISTACK, 0, STACK
        LOCFRAME PSTACK, 0, STACK
        LOCFRAME XSTACK, 10, STACK
        LOCFRAME IOVERLAY, 0, STATIC
        LOCFRAME DOVERLAY, 0, STATIC
        ARGFRAME ISTACK, 0, STACK
        ARGFRAME PSTACK, 0, STACK
        ARGFRAME XSTACK, 10, STACK
        ARGFRAME IOVERLAY, 0, STATIC
        ARGFRAME DOVERLAY, 0, STATIC
        FUNCALL addSceneSelector_handleOneTime, zcl_SendCommand
        LOCFRAME ISTACK, 0, STACK
        LOCFRAME PSTACK, 0, STACK
        LOCFRAME XSTACK, 21, STACK
        LOCFRAME IOVERLAY, 0, STATIC
        LOCFRAME DOVERLAY, 0, STATIC
        ARGFRAME ISTACK, 0, STACK
        ARGFRAME PSTACK, 0, STACK
        ARGFRAME XSTACK, 21, STACK
        ARGFRAME IOVERLAY, 0, STATIC
        ARGFRAME DOVERLAY, 0, STATIC
        FUNCALL addSceneSelector_handleOneTime, addSceneSelector_clearKeyData
        LOCFRAME ISTACK, 0, STACK
        LOCFRAME PSTACK, 0, STACK
        LOCFRAME XSTACK, 10, STACK
        LOCFRAME IOVERLAY, 0, STATIC
        LOCFRAME DOVERLAY, 0, STATIC
        ARGFRAME ISTACK, 0, STACK
        ARGFRAME PSTACK, 0, STACK
        ARGFRAME XSTACK, 10, STACK
        ARGFRAME IOVERLAY, 0, STATIC
        ARGFRAME DOVERLAY, 0, STATIC
        FUNCALL addSceneSelector_handleOneTime, addSceneSelector_sendDestinationAddressConfigure
        LOCFRAME ISTACK, 0, STACK
        LOCFRAME PSTACK, 0, STACK
        LOCFRAME XSTACK, 10, STACK
        LOCFRAME IOVERLAY, 0, STATIC
        LOCFRAME DOVERLAY, 0, STATIC
        ARGFRAME ISTACK, 0, STACK
        ARGFRAME PSTACK, 0, STACK
        ARGFRAME XSTACK, 10, STACK
        ARGFRAME IOVERLAY, 0, STATIC
        ARGFRAME DOVERLAY, 0, STATIC
        FUNCALL addSceneSelector_handleOneTime, zcl_SendCommand
        LOCFRAME ISTACK, 0, STACK
        LOCFRAME PSTACK, 0, STACK
        LOCFRAME XSTACK, 21, STACK
        LOCFRAME IOVERLAY, 0, STATIC
        LOCFRAME DOVERLAY, 0, STATIC
        ARGFRAME ISTACK, 0, STACK
        ARGFRAME PSTACK, 0, STACK
        ARGFRAME XSTACK, 21, STACK
        ARGFRAME IOVERLAY, 0, STATIC
        ARGFRAME DOVERLAY, 0, STATIC
        FUNCALL addSceneSelector_handleOneTime, addSceneSelector_clearKeyData
        LOCFRAME ISTACK, 0, STACK
        LOCFRAME PSTACK, 0, STACK
        LOCFRAME XSTACK, 10, STACK
        LOCFRAME IOVERLAY, 0, STATIC
        LOCFRAME DOVERLAY, 0, STATIC
        ARGFRAME ISTACK, 0, STACK
        ARGFRAME PSTACK, 0, STACK
        ARGFRAME XSTACK, 10, STACK
        ARGFRAME IOVERLAY, 0, STATIC
        ARGFRAME DOVERLAY, 0, STATIC
        FUNCALL addSceneSelector_handleOneTime, addSceneSelector_clearKeyData
        LOCFRAME ISTACK, 0, STACK
        LOCFRAME PSTACK, 0, STACK
        LOCFRAME XSTACK, 10, STACK
        LOCFRAME IOVERLAY, 0, STATIC
        LOCFRAME DOVERLAY, 0, STATIC
        ARGFRAME ISTACK, 0, STACK
        ARGFRAME PSTACK, 0, STACK
        ARGFRAME XSTACK, 10, STACK
        ARGFRAME IOVERLAY, 0, STATIC
        ARGFRAME DOVERLAY, 0, STATIC
        FUNCALL addSceneSelector_handleOneTime, addSceneSelector_sendDestinationAddressConfigure
        LOCFRAME ISTACK, 0, STACK
        LOCFRAME PSTACK, 0, STACK
        LOCFRAME XSTACK, 10, STACK
        LOCFRAME IOVERLAY, 0, STATIC
        LOCFRAME DOVERLAY, 0, STATIC
        ARGFRAME ISTACK, 0, STACK
        ARGFRAME PSTACK, 0, STACK
        ARGFRAME XSTACK, 10, STACK
        ARGFRAME IOVERLAY, 0, STATIC
        ARGFRAME DOVERLAY, 0, STATIC
        FUNCALL addSceneSelector_handleOneTime, zclGeneral_SendLevelControlStepRequest
        LOCFRAME ISTACK, 0, STACK
        LOCFRAME PSTACK, 0, STACK
        LOCFRAME XSTACK, 15, STACK
        LOCFRAME IOVERLAY, 0, STATIC
        LOCFRAME DOVERLAY, 0, STATIC
        ARGFRAME ISTACK, 0, STACK
        ARGFRAME PSTACK, 0, STACK
        ARGFRAME XSTACK, 15, STACK
        ARGFRAME IOVERLAY, 0, STATIC
        ARGFRAME DOVERLAY, 0, STATIC
        FUNCALL addSceneSelector_handleOneTime, addSceneSelector_sendDestinationAddressConfigure
        LOCFRAME ISTACK, 0, STACK
        LOCFRAME PSTACK, 0, STACK
        LOCFRAME XSTACK, 10, STACK
        LOCFRAME IOVERLAY, 0, STATIC
        LOCFRAME DOVERLAY, 0, STATIC
        ARGFRAME ISTACK, 0, STACK
        ARGFRAME PSTACK, 0, STACK
        ARGFRAME XSTACK, 10, STACK
        ARGFRAME IOVERLAY, 0, STATIC
        ARGFRAME DOVERLAY, 0, STATIC
        FUNCALL addSceneSelector_handleOneTime, zcl_SendCommand
        LOCFRAME ISTACK, 0, STACK
        LOCFRAME PSTACK, 0, STACK
        LOCFRAME XSTACK, 21, STACK
        LOCFRAME IOVERLAY, 0, STATIC
        LOCFRAME DOVERLAY, 0, STATIC
        ARGFRAME ISTACK, 0, STACK
        ARGFRAME PSTACK, 0, STACK
        ARGFRAME XSTACK, 21, STACK
        ARGFRAME IOVERLAY, 0, STATIC
        ARGFRAME DOVERLAY, 0, STATIC
        FUNCALL addSceneSelector_handleOneTime, addSceneSelector_clearKeyData
        LOCFRAME ISTACK, 0, STACK
        LOCFRAME PSTACK, 0, STACK
        LOCFRAME XSTACK, 10, STACK
        LOCFRAME IOVERLAY, 0, STATIC
        LOCFRAME DOVERLAY, 0, STATIC
        ARGFRAME ISTACK, 0, STACK
        ARGFRAME PSTACK, 0, STACK
        ARGFRAME XSTACK, 10, STACK
        ARGFRAME IOVERLAY, 0, STATIC
        ARGFRAME DOVERLAY, 0, STATIC
        FUNCALL addSceneSelector_handleOneTime, addSceneSelector_sendDestinationAddressConfigure
        LOCFRAME ISTACK, 0, STACK
        LOCFRAME PSTACK, 0, STACK
        LOCFRAME XSTACK, 10, STACK
        LOCFRAME IOVERLAY, 0, STATIC
        LOCFRAME DOVERLAY, 0, STATIC
        ARGFRAME ISTACK, 0, STACK
        ARGFRAME PSTACK, 0, STACK
        ARGFRAME XSTACK, 10, STACK
        ARGFRAME IOVERLAY, 0, STATIC
        ARGFRAME DOVERLAY, 0, STATIC
        FUNCALL addSceneSelector_handleOneTime, zcl_SendCommand
        LOCFRAME ISTACK, 0, STACK
        LOCFRAME PSTACK, 0, STACK
        LOCFRAME XSTACK, 21, STACK
        LOCFRAME IOVERLAY, 0, STATIC
        LOCFRAME DOVERLAY, 0, STATIC
        ARGFRAME ISTACK, 0, STACK
        ARGFRAME PSTACK, 0, STACK
        ARGFRAME XSTACK, 21, STACK
        ARGFRAME IOVERLAY, 0, STATIC
        ARGFRAME DOVERLAY, 0, STATIC
        FUNCALL addSceneSelector_handleOneTime, addSceneSelector_clearKeyData
        LOCFRAME ISTACK, 0, STACK
        LOCFRAME PSTACK, 0, STACK
        LOCFRAME XSTACK, 10, STACK
        LOCFRAME IOVERLAY, 0, STATIC
        LOCFRAME DOVERLAY, 0, STATIC
        ARGFRAME ISTACK, 0, STACK
        ARGFRAME PSTACK, 0, STACK
        ARGFRAME XSTACK, 10, STACK
        ARGFRAME IOVERLAY, 0, STATIC
        ARGFRAME DOVERLAY, 0, STATIC
        REQUIRE ?V0
        REQUIRE ?V1
        MOV     A,#-0xa
        LCALL   ?BANKED_ENTER_XDATA
          CFI DPH0 load(1, XDATA, add(CFA_XSP16, literal(-1)))
          CFI DPL0 load(1, XDATA, add(CFA_XSP16, literal(-2)))
          CFI ?BRET_EXT load(1, XDATA, add(CFA_XSP16, literal(-3)))
          CFI ?RET_HIGH load(1, XDATA, add(CFA_XSP16, literal(-4)))
          CFI ?RET_LOW load(1, XDATA, add(CFA_XSP16, literal(-5)))
          CFI R7 load(1, XDATA, add(CFA_XSP16, literal(-6)))
          CFI V1 load(1, XDATA, add(CFA_XSP16, literal(-7)))
          CFI V0 load(1, XDATA, add(CFA_XSP16, literal(-8)))
          CFI VB load(1, XDATA, add(CFA_XSP16, literal(-9)))
          CFI R6 load(1, XDATA, add(CFA_XSP16, literal(-10)))
          CFI CFA_SP SP+0
          CFI CFA_XSP16 add(XSP16, 10)
        ; Saved register size: 10
        ; Auto size: 0
//  359 	addCommon_handleOneTime();
        ; Setup parameters for call to function addCommon_handleOneTime
        LCALL   ??addCommon_handleOneTime?relay; Banked call to: addCommon_handleOneTime
//  360 
//  361 	// factory reset
//  362 	if (aSceneSelectorFactoryReset == ADD_SCENESELECTOR_FACTORYRESET_KEYDOWN_10S)
        MOV     DPTR,#aSceneSelectorFactoryReset
        MOVX    A,@DPTR
        XRL     A,#0x2
        JNZ     ??addSceneSelector_handleOneTime_0
//  363 	{
//  364 		addSceneSelector_clearKeyData();	
        ; Setup parameters for call to function addSceneSelector_clearKeyData
        LCALL   ??addSceneSelector_clearKeyData?relay; Banked call to: addSceneSelector_clearKeyData
//  365 		acDoubleClickCounter_whenKeyUp = 0;
        MOV     DPTR,#acDoubleClickCounter_whenKeyUp
        CLR     A
        MOVX    @DPTR,A
//  366 		aSceneSelectorFactoryReset = ADD_SCENESELECTOR_FACTORYRESET_KEYNORMAL;
        MOV     DPTR,#aSceneSelectorFactoryReset
        MOVX    @DPTR,A
//  367 		addCommon_factoryReset(); //恢复出厂设置
        ; Setup parameters for call to function addCommon_factoryReset
        LCALL   ??addCommon_factoryReset?relay; Banked call to: addCommon_factoryReset
        LJMP    ??addSceneSelector_handleOneTime_1 & 0xFFFF
//  368 	} 
//  369 
//  370 	else // wakeup
//  371 
//  372 	if (aSceneSelectorWakeup == ADD_SCENESELECTOR_WAKEUP_KEYDOWN_10S)
??addSceneSelector_handleOneTime_0:
        MOV     DPTR,#aSceneSelectorWakeup
        MOVX    A,@DPTR
        XRL     A,#0x2
        JNZ     ??addSceneSelector_handleOneTime_2
//  373 	{
//  374 		addSceneSelector_clearKeyData();	
        ; Setup parameters for call to function addSceneSelector_clearKeyData
        LCALL   ??addSceneSelector_clearKeyData?relay; Banked call to: addSceneSelector_clearKeyData
//  375 		acDoubleClickCounter_whenKeyUp = 0;
        MOV     DPTR,#acDoubleClickCounter_whenKeyUp
        CLR     A
        MOVX    @DPTR,A
//  376 		aSceneSelectorWakeup = ADD_SCENESELECTOR_WAKEUP_KEYNORMAL;
        MOV     DPTR,#aSceneSelectorWakeup
        MOVX    @DPTR,A
//  377 		addCommon_wakeup();//唤醒两分钟
        ; Setup parameters for call to function addCommon_wakeup
        LCALL   ??addCommon_wakeup?relay; Banked call to: addCommon_wakeup
        LJMP    ??addSceneSelector_handleOneTime_1 & 0xFFFF
//  378 	}
//  379 
//  380 	else // key0
//  381 	
//  382 	if (aSceneSelectorKeyScene1 == AC_KEY_DOWN) // long press
??addSceneSelector_handleOneTime_2:
        MOV     DPTR,#aSceneSelectorKeyScene1
        MOVX    A,@DPTR
        XRL     A,#0x1
        JNZ     ??addSceneSelector_handleOneTime_3
//  383 	{
//  384 		addSceneSelector_clearKeyData();
        ; Setup parameters for call to function addSceneSelector_clearKeyData
        LCALL   ??addSceneSelector_clearKeyData?relay; Banked call to: addSceneSelector_clearKeyData
//  385 		aSceneSelectorKeyScene1 = AC_KEY_DOWN;
        MOV     DPTR,#aSceneSelectorKeyScene1
        LJMP    ??addSceneSelector_handleOneTime_4 & 0xFFFF
//  386 	} else if ((aSceneSelectorKeyScene1 == AC_KEY_UP_600MS_TO_1S) || (aSceneSelectorKeyScene1 == AC_KEY_UP_1S_TO_5S))
??addSceneSelector_handleOneTime_3:
        MOVX    A,@DPTR
        XRL     A,#0x3
        JZ      ??addSceneSelector_handleOneTime_5
        MOVX    A,@DPTR
        XRL     A,#0x4
        JNZ     ??addSceneSelector_handleOneTime_6
//  387 	{
//  388 		addSceneSelector_clearKeyData();//场景调用
??addSceneSelector_handleOneTime_5:
        ; Setup parameters for call to function addSceneSelector_clearKeyData
        LCALL   ??addSceneSelector_clearKeyData?relay; Banked call to: addSceneSelector_clearKeyData
//  389 		addSceneSelector_sendDestinationAddressConfigure(SCENESELECTOR_ENDPOINT1);
        ; Setup parameters for call to function addSceneSelector_sendDestinationAddressConfigure
        MOV     R1,#0x1
        LCALL   ??addSceneSelector_sendDestinationAddressConfig; Banked call to: addSceneSelector_sendDestinationAddressConfigure
//  390 		zclGeneral_SendSceneRecall(SCENESELECTOR_ENDPOINT1, &zclSceneSelector_DstAddr, aSceneSelectorEndpoint1_GroupID, aSceneSelectorEndpoint1_SceneID, FALSE, 0);
        ; Setup parameters for call to function zclGeneral_SendSceneRequest
        MOV     ?V0,#0x0
        MOV     R0,#?V0
        LCALL   ?PUSH_XSTACK_I_ONE
          CFI CFA_XSP16 add(XSP16, 11)
        MOV     R0,#?V0
        LCALL   ?PUSH_XSTACK_I_ONE
          CFI CFA_XSP16 add(XSP16, 12)
        MOV     DPTR,#aSceneSelectorEndpoint1_GroupID
        LCALL   ?PUSH_XSTACK8_X_TWO
          CFI CFA_XSP16 add(XSP16, 14)
        MOV     DPTR,#aSceneSelectorEndpoint1_SceneID
        MOVX    A,@DPTR
        MOV     R5,A
        MOV     R4,#0x5
        SJMP    ??addSceneSelector_handleOneTime_7
          CFI CFA_XSP16 add(XSP16, 10)
//  391 		aSceneSelectorCurrentEndpoint = SCENESELECTOR_ENDPOINT1;
//  392 	} else if ((aSceneSelectorKeyScene1 == AC_KEY_UP_5S_TO_10S) || (aSceneSelectorKeyScene1 == AC_KEY_UP_ABOVE_10S))
??addSceneSelector_handleOneTime_6:
        MOVX    A,@DPTR
        XRL     A,#0x5
        JZ      ??addSceneSelector_handleOneTime_8
        MOVX    A,@DPTR
        XRL     A,#0x6
        JNZ     ??addSceneSelector_handleOneTime_9
//  393 	{
//  394 		addSceneSelector_clearKeyData();//场景存储
??addSceneSelector_handleOneTime_8:
        ; Setup parameters for call to function addSceneSelector_clearKeyData
        LCALL   ??addSceneSelector_clearKeyData?relay; Banked call to: addSceneSelector_clearKeyData
//  395 		addSceneSelector_sendDestinationAddressConfigure(SCENESELECTOR_ENDPOINT1);
        ; Setup parameters for call to function addSceneSelector_sendDestinationAddressConfigure
        MOV     R1,#0x1
        LCALL   ??addSceneSelector_sendDestinationAddressConfig; Banked call to: addSceneSelector_sendDestinationAddressConfigure
//  396 		zclGeneral_SendSceneStore(SCENESELECTOR_ENDPOINT1, &zclSceneSelector_DstAddr, aSceneSelectorEndpoint1_GroupID, aSceneSelectorEndpoint1_SceneID, FALSE, 0);
        ; Setup parameters for call to function zclGeneral_SendSceneRequest
        MOV     ?V0,#0x0
        MOV     R0,#?V0
        LCALL   ?PUSH_XSTACK_I_ONE
          CFI CFA_XSP16 add(XSP16, 11)
        MOV     R0,#?V0
        LCALL   ?PUSH_XSTACK_I_ONE
          CFI CFA_XSP16 add(XSP16, 12)
        MOV     DPTR,#aSceneSelectorEndpoint1_GroupID
        LCALL   ?PUSH_XSTACK8_X_TWO
          CFI CFA_XSP16 add(XSP16, 14)
        MOV     DPTR,#aSceneSelectorEndpoint1_SceneID
        MOVX    A,@DPTR
        MOV     R5,A
        MOV     R4,#0x4
??addSceneSelector_handleOneTime_7:
        MOV     R2,#zclSceneSelector_DstAddr & 0xff
        MOV     R3,#(zclSceneSelector_DstAddr >> 8) & 0xff
        MOV     R1,#0x1
        LCALL   ??zclGeneral_SendSceneRequest?relay; Banked call to: zclGeneral_SendSceneRequest
        MOV     A,#0x4
        LCALL   ?DEALLOC_XSTACK8
          CFI CFA_XSP16 add(XSP16, 10)
//  397 		aSceneSelectorCurrentEndpoint = SCENESELECTOR_ENDPOINT1;
        MOV     DPTR,#aSceneSelectorCurrentEndpoint
        LJMP    ??addSceneSelector_handleOneTime_4 & 0xFFFF
//  398 	}
//  399 	
//  400 	else // key1
//  401 	
//  402 	if (aSceneSelectorKeyScene2 == AC_KEY_DOWN) // long press
??addSceneSelector_handleOneTime_9:
        MOV     DPTR,#aSceneSelectorKeyScene2
        MOVX    A,@DPTR
        XRL     A,#0x1
        JNZ     ??addSceneSelector_handleOneTime_10
//  403 	{
//  404 		addSceneSelector_clearKeyData();
        ; Setup parameters for call to function addSceneSelector_clearKeyData
        LCALL   ??addSceneSelector_clearKeyData?relay; Banked call to: addSceneSelector_clearKeyData
//  405 		aSceneSelectorKeyScene2 = AC_KEY_DOWN;
        MOV     DPTR,#aSceneSelectorKeyScene2
        LJMP    ??addSceneSelector_handleOneTime_4 & 0xFFFF
//  406 	} else if ((aSceneSelectorKeyScene2 == AC_KEY_UP_600MS_TO_1S) || (aSceneSelectorKeyScene2 == AC_KEY_UP_1S_TO_5S))
??addSceneSelector_handleOneTime_10:
        MOVX    A,@DPTR
        XRL     A,#0x3
        JZ      ??addSceneSelector_handleOneTime_11
        MOVX    A,@DPTR
        XRL     A,#0x4
        JNZ     ??addSceneSelector_handleOneTime_12
//  407 	{
//  408 		addSceneSelector_clearKeyData();
??addSceneSelector_handleOneTime_11:
        ; Setup parameters for call to function addSceneSelector_clearKeyData
        LCALL   ??addSceneSelector_clearKeyData?relay; Banked call to: addSceneSelector_clearKeyData
//  409 		addSceneSelector_sendDestinationAddressConfigure(SCENESELECTOR_ENDPOINT2);
        ; Setup parameters for call to function addSceneSelector_sendDestinationAddressConfigure
        MOV     R1,#0x2
        LCALL   ??addSceneSelector_sendDestinationAddressConfig; Banked call to: addSceneSelector_sendDestinationAddressConfigure
//  410 		zclGeneral_SendSceneRecall(SCENESELECTOR_ENDPOINT2, &zclSceneSelector_DstAddr, aSceneSelectorEndpoint2_GroupID, aSceneSelectorEndpoint2_SceneID, FALSE, 0);
        ; Setup parameters for call to function zclGeneral_SendSceneRequest
        MOV     ?V0,#0x0
        MOV     R0,#?V0
        LCALL   ?PUSH_XSTACK_I_ONE
          CFI CFA_XSP16 add(XSP16, 11)
        MOV     R0,#?V0
        LCALL   ?PUSH_XSTACK_I_ONE
          CFI CFA_XSP16 add(XSP16, 12)
        MOV     DPTR,#aSceneSelectorEndpoint2_GroupID
        LCALL   ?PUSH_XSTACK8_X_TWO
          CFI CFA_XSP16 add(XSP16, 14)
        MOV     DPTR,#aSceneSelectorEndpoint2_SceneID
        MOVX    A,@DPTR
        MOV     R5,A
        MOV     R4,#0x5
        SJMP    ??addSceneSelector_handleOneTime_13
          CFI CFA_XSP16 add(XSP16, 10)
//  411 		aSceneSelectorCurrentEndpoint = SCENESELECTOR_ENDPOINT2;
//  412 	} else if ((aSceneSelectorKeyScene2 == AC_KEY_UP_5S_TO_10S) || (aSceneSelectorKeyScene2 == AC_KEY_UP_ABOVE_10S))
??addSceneSelector_handleOneTime_12:
        MOVX    A,@DPTR
        XRL     A,#0x5
        JZ      ??addSceneSelector_handleOneTime_14
        MOVX    A,@DPTR
        XRL     A,#0x6
        JNZ     ??addSceneSelector_handleOneTime_15
//  413 	{
//  414 		addSceneSelector_clearKeyData();
??addSceneSelector_handleOneTime_14:
        ; Setup parameters for call to function addSceneSelector_clearKeyData
        LCALL   ??addSceneSelector_clearKeyData?relay; Banked call to: addSceneSelector_clearKeyData
//  415 		addSceneSelector_sendDestinationAddressConfigure(SCENESELECTOR_ENDPOINT2);
        ; Setup parameters for call to function addSceneSelector_sendDestinationAddressConfigure
        MOV     R1,#0x2
        LCALL   ??addSceneSelector_sendDestinationAddressConfig; Banked call to: addSceneSelector_sendDestinationAddressConfigure
//  416 		zclGeneral_SendSceneStore(SCENESELECTOR_ENDPOINT2, &zclSceneSelector_DstAddr, aSceneSelectorEndpoint2_GroupID, aSceneSelectorEndpoint2_SceneID, FALSE, 0);
        ; Setup parameters for call to function zclGeneral_SendSceneRequest
        MOV     ?V0,#0x0
        MOV     R0,#?V0
        LCALL   ?PUSH_XSTACK_I_ONE
          CFI CFA_XSP16 add(XSP16, 11)
        MOV     R0,#?V0
        LCALL   ?PUSH_XSTACK_I_ONE
          CFI CFA_XSP16 add(XSP16, 12)
        MOV     DPTR,#aSceneSelectorEndpoint2_GroupID
        LCALL   ?PUSH_XSTACK8_X_TWO
          CFI CFA_XSP16 add(XSP16, 14)
        MOV     DPTR,#aSceneSelectorEndpoint2_SceneID
        MOVX    A,@DPTR
        MOV     R5,A
        MOV     R4,#0x4
??addSceneSelector_handleOneTime_13:
        MOV     R2,#zclSceneSelector_DstAddr & 0xff
        MOV     R3,#(zclSceneSelector_DstAddr >> 8) & 0xff
        MOV     R1,#0x2
        LCALL   ??zclGeneral_SendSceneRequest?relay; Banked call to: zclGeneral_SendSceneRequest
        MOV     A,#0x4
        LCALL   ?DEALLOC_XSTACK8
          CFI CFA_XSP16 add(XSP16, 10)
//  417 		aSceneSelectorCurrentEndpoint = SCENESELECTOR_ENDPOINT2;
        MOV     DPTR,#aSceneSelectorCurrentEndpoint
        MOV     A,#0x2
        LJMP    ??addSceneSelector_handleOneTime_16 & 0xFFFF
//  418 	}
//  419 
//  420 	else // key2
//  421 	
//  422 	if (aSceneSelectorKeyScene3 == AC_KEY_DOWN) // long press
??addSceneSelector_handleOneTime_15:
        MOV     DPTR,#aSceneSelectorKeyScene3
        MOVX    A,@DPTR
        XRL     A,#0x1
        JNZ     ??addSceneSelector_handleOneTime_17
//  423 	{
//  424 		addSceneSelector_clearKeyData();
        ; Setup parameters for call to function addSceneSelector_clearKeyData
        LCALL   ??addSceneSelector_clearKeyData?relay; Banked call to: addSceneSelector_clearKeyData
//  425 		aSceneSelectorKeyScene3 = AC_KEY_DOWN;
        MOV     DPTR,#aSceneSelectorKeyScene3
        LJMP    ??addSceneSelector_handleOneTime_4 & 0xFFFF
//  426 	} else if ((aSceneSelectorKeyScene3 == AC_KEY_UP_600MS_TO_1S) || (aSceneSelectorKeyScene3 == AC_KEY_UP_1S_TO_5S))
??addSceneSelector_handleOneTime_17:
        MOVX    A,@DPTR
        XRL     A,#0x3
        JZ      ??addSceneSelector_handleOneTime_18
        MOVX    A,@DPTR
        XRL     A,#0x4
        JNZ     ??addSceneSelector_handleOneTime_19
//  427 	{
//  428 		addSceneSelector_clearKeyData();
??addSceneSelector_handleOneTime_18:
        ; Setup parameters for call to function addSceneSelector_clearKeyData
        LCALL   ??addSceneSelector_clearKeyData?relay; Banked call to: addSceneSelector_clearKeyData
//  429 		addSceneSelector_sendDestinationAddressConfigure(SCENESELECTOR_ENDPOINT3);
        ; Setup parameters for call to function addSceneSelector_sendDestinationAddressConfigure
        MOV     R1,#0x3
        LCALL   ??addSceneSelector_sendDestinationAddressConfig; Banked call to: addSceneSelector_sendDestinationAddressConfigure
//  430 		zclGeneral_SendSceneRecall(SCENESELECTOR_ENDPOINT3, &zclSceneSelector_DstAddr, aSceneSelectorEndpoint3_GroupID, aSceneSelectorEndpoint3_SceneID, FALSE, 0);
        ; Setup parameters for call to function zclGeneral_SendSceneRequest
        MOV     ?V0,#0x0
        MOV     R0,#?V0
        LCALL   ?PUSH_XSTACK_I_ONE
          CFI CFA_XSP16 add(XSP16, 11)
        MOV     R0,#?V0
        LCALL   ?PUSH_XSTACK_I_ONE
          CFI CFA_XSP16 add(XSP16, 12)
        MOV     DPTR,#aSceneSelectorEndpoint3_GroupID
        LCALL   ?PUSH_XSTACK8_X_TWO
          CFI CFA_XSP16 add(XSP16, 14)
        MOV     DPTR,#aSceneSelectorEndpoint3_SceneID
        MOVX    A,@DPTR
        MOV     R5,A
        MOV     R4,#0x5
        SJMP    ??addSceneSelector_handleOneTime_20
          CFI CFA_XSP16 add(XSP16, 10)
//  431 		aSceneSelectorCurrentEndpoint = SCENESELECTOR_ENDPOINT3;
//  432 	} else if ((aSceneSelectorKeyScene3 == AC_KEY_UP_5S_TO_10S) || (aSceneSelectorKeyScene3 == AC_KEY_UP_ABOVE_10S))
??addSceneSelector_handleOneTime_19:
        MOVX    A,@DPTR
        XRL     A,#0x5
        JZ      ??addSceneSelector_handleOneTime_21
        MOVX    A,@DPTR
        XRL     A,#0x6
        JNZ     ??addSceneSelector_handleOneTime_22
//  433 	{
//  434 		addSceneSelector_clearKeyData();
??addSceneSelector_handleOneTime_21:
        ; Setup parameters for call to function addSceneSelector_clearKeyData
        LCALL   ??addSceneSelector_clearKeyData?relay; Banked call to: addSceneSelector_clearKeyData
//  435 		addSceneSelector_sendDestinationAddressConfigure(SCENESELECTOR_ENDPOINT3);
        ; Setup parameters for call to function addSceneSelector_sendDestinationAddressConfigure
        MOV     R1,#0x3
        LCALL   ??addSceneSelector_sendDestinationAddressConfig; Banked call to: addSceneSelector_sendDestinationAddressConfigure
//  436 		zclGeneral_SendSceneStore(SCENESELECTOR_ENDPOINT3, &zclSceneSelector_DstAddr, aSceneSelectorEndpoint3_GroupID, aSceneSelectorEndpoint3_SceneID, FALSE, 0);
        ; Setup parameters for call to function zclGeneral_SendSceneRequest
        MOV     ?V0,#0x0
        MOV     R0,#?V0
        LCALL   ?PUSH_XSTACK_I_ONE
          CFI CFA_XSP16 add(XSP16, 11)
        MOV     R0,#?V0
        LCALL   ?PUSH_XSTACK_I_ONE
          CFI CFA_XSP16 add(XSP16, 12)
        MOV     DPTR,#aSceneSelectorEndpoint3_GroupID
        LCALL   ?PUSH_XSTACK8_X_TWO
          CFI CFA_XSP16 add(XSP16, 14)
        MOV     DPTR,#aSceneSelectorEndpoint3_SceneID
        MOVX    A,@DPTR
        MOV     R5,A
        MOV     R4,#0x4
??addSceneSelector_handleOneTime_20:
        MOV     R2,#zclSceneSelector_DstAddr & 0xff
        MOV     R3,#(zclSceneSelector_DstAddr >> 8) & 0xff
        MOV     R1,#0x3
        LCALL   ??zclGeneral_SendSceneRequest?relay; Banked call to: zclGeneral_SendSceneRequest
        MOV     A,#0x4
        LCALL   ?DEALLOC_XSTACK8
          CFI CFA_XSP16 add(XSP16, 10)
//  437 		aSceneSelectorCurrentEndpoint = SCENESELECTOR_ENDPOINT3;
        MOV     DPTR,#aSceneSelectorCurrentEndpoint
        MOV     A,#0x3
        LJMP    ??addSceneSelector_handleOneTime_16 & 0xFFFF
//  438 	}
//  439 
//  440 	else // key3
//  441 	
//  442 	if (aSceneSelectorKeyScene4 == AC_KEY_DOWN) // long press
??addSceneSelector_handleOneTime_22:
        MOV     DPTR,#aSceneSelectorKeyScene4
        MOVX    A,@DPTR
        XRL     A,#0x1
        JNZ     ??addSceneSelector_handleOneTime_23
//  443 	{
//  444 		addSceneSelector_clearKeyData();
        ; Setup parameters for call to function addSceneSelector_clearKeyData
        LCALL   ??addSceneSelector_clearKeyData?relay; Banked call to: addSceneSelector_clearKeyData
//  445 		aSceneSelectorKeyScene4 = AC_KEY_DOWN;
        MOV     DPTR,#aSceneSelectorKeyScene4
        LJMP    ??addSceneSelector_handleOneTime_4 & 0xFFFF
//  446 	} else if ((aSceneSelectorKeyScene4 == AC_KEY_UP_600MS_TO_1S) || (aSceneSelectorKeyScene4 == AC_KEY_UP_1S_TO_5S))
??addSceneSelector_handleOneTime_23:
        MOVX    A,@DPTR
        XRL     A,#0x3
        JZ      ??addSceneSelector_handleOneTime_24
        MOVX    A,@DPTR
        XRL     A,#0x4
        JNZ     ??addSceneSelector_handleOneTime_25
//  447 	{
//  448 		addSceneSelector_clearKeyData();
??addSceneSelector_handleOneTime_24:
        ; Setup parameters for call to function addSceneSelector_clearKeyData
        LCALL   ??addSceneSelector_clearKeyData?relay; Banked call to: addSceneSelector_clearKeyData
//  449 		addSceneSelector_sendDestinationAddressConfigure(SCENESELECTOR_ENDPOINT4);
        ; Setup parameters for call to function addSceneSelector_sendDestinationAddressConfigure
        MOV     R1,#0x4
        LCALL   ??addSceneSelector_sendDestinationAddressConfig; Banked call to: addSceneSelector_sendDestinationAddressConfigure
//  450 		zclGeneral_SendSceneRecall(SCENESELECTOR_ENDPOINT4, &zclSceneSelector_DstAddr, aSceneSelectorEndpoint4_GroupID, aSceneSelectorEndpoint4_SceneID, FALSE, 0);
        ; Setup parameters for call to function zclGeneral_SendSceneRequest
        MOV     ?V0,#0x0
        MOV     R0,#?V0
        LCALL   ?PUSH_XSTACK_I_ONE
          CFI CFA_XSP16 add(XSP16, 11)
        MOV     R0,#?V0
        LCALL   ?PUSH_XSTACK_I_ONE
          CFI CFA_XSP16 add(XSP16, 12)
        MOV     DPTR,#aSceneSelectorEndpoint4_GroupID
        LCALL   ?PUSH_XSTACK8_X_TWO
          CFI CFA_XSP16 add(XSP16, 14)
        MOV     DPTR,#aSceneSelectorEndpoint4_SceneID
        MOVX    A,@DPTR
        MOV     R5,A
        MOV     R4,#0x5
        SJMP    ??addSceneSelector_handleOneTime_26
          CFI CFA_XSP16 add(XSP16, 10)
//  451 		aSceneSelectorCurrentEndpoint = SCENESELECTOR_ENDPOINT4;
//  452 	} else if ((aSceneSelectorKeyScene4 == AC_KEY_UP_5S_TO_10S) || (aSceneSelectorKeyScene4 == AC_KEY_UP_ABOVE_10S))
??addSceneSelector_handleOneTime_25:
        MOVX    A,@DPTR
        XRL     A,#0x5
        JZ      ??addSceneSelector_handleOneTime_27
        MOVX    A,@DPTR
        XRL     A,#0x6
        JNZ     ??addSceneSelector_handleOneTime_28
//  453 	{
//  454 		addSceneSelector_clearKeyData();
??addSceneSelector_handleOneTime_27:
        ; Setup parameters for call to function addSceneSelector_clearKeyData
        LCALL   ??addSceneSelector_clearKeyData?relay; Banked call to: addSceneSelector_clearKeyData
//  455 		addSceneSelector_sendDestinationAddressConfigure(SCENESELECTOR_ENDPOINT4);
        ; Setup parameters for call to function addSceneSelector_sendDestinationAddressConfigure
        MOV     R1,#0x4
        LCALL   ??addSceneSelector_sendDestinationAddressConfig; Banked call to: addSceneSelector_sendDestinationAddressConfigure
//  456 		zclGeneral_SendSceneStore(SCENESELECTOR_ENDPOINT4, &zclSceneSelector_DstAddr, aSceneSelectorEndpoint4_GroupID, aSceneSelectorEndpoint4_SceneID, FALSE, 0);
        ; Setup parameters for call to function zclGeneral_SendSceneRequest
        MOV     ?V0,#0x0
        MOV     R0,#?V0
        LCALL   ?PUSH_XSTACK_I_ONE
          CFI CFA_XSP16 add(XSP16, 11)
        MOV     R0,#?V0
        LCALL   ?PUSH_XSTACK_I_ONE
          CFI CFA_XSP16 add(XSP16, 12)
        MOV     DPTR,#aSceneSelectorEndpoint4_GroupID
        LCALL   ?PUSH_XSTACK8_X_TWO
          CFI CFA_XSP16 add(XSP16, 14)
        MOV     DPTR,#aSceneSelectorEndpoint4_SceneID
        MOVX    A,@DPTR
        MOV     R5,A
        MOV     R4,#0x4
??addSceneSelector_handleOneTime_26:
        MOV     R2,#zclSceneSelector_DstAddr & 0xff
        MOV     R3,#(zclSceneSelector_DstAddr >> 8) & 0xff
        MOV     R1,#0x4
        LCALL   ??zclGeneral_SendSceneRequest?relay; Banked call to: zclGeneral_SendSceneRequest
        MOV     A,#0x4
        LCALL   ?DEALLOC_XSTACK8
          CFI CFA_XSP16 add(XSP16, 10)
//  457 		aSceneSelectorCurrentEndpoint = SCENESELECTOR_ENDPOINT4;
        MOV     DPTR,#aSceneSelectorCurrentEndpoint
        MOV     A,#0x4
        LJMP    ??addSceneSelector_handleOneTime_16 & 0xFFFF
//  458 	}
//  459 
//  460 	else // keyDimmingUp
//  461 	
//  462 	if (aSceneSelectorKeyDimmingUp == AC_KEY_DOWN) // long press
??addSceneSelector_handleOneTime_28:
        MOV     DPTR,#aSceneSelectorKeyDimmingUp
        MOVX    A,@DPTR
        XRL     A,#0x1
        JNZ     ??addSceneSelector_handleOneTime_29
//  463 	{
//  464 		addSceneSelector_clearKeyData();
        ; Setup parameters for call to function addSceneSelector_clearKeyData
        LCALL   ??addSceneSelector_clearKeyData?relay; Banked call to: addSceneSelector_clearKeyData
//  465 		aSceneSelectorKeyDimmingUp = AC_KEY_DOWN;
        MOV     DPTR,#aSceneSelectorKeyDimmingUp
        LJMP    ??addSceneSelector_handleOneTime_4 & 0xFFFF
//  466 	} else if (aSceneSelectorKeyDimmingUp == AC_KEY_UP_600MS_TO_1S)
??addSceneSelector_handleOneTime_29:
        MOVX    A,@DPTR
        XRL     A,#0x3
        JNZ     ??addSceneSelector_handleOneTime_30
//  467 	{
//  468 		addSceneSelector_clearKeyData();
        ; Setup parameters for call to function addSceneSelector_clearKeyData
        LCALL   ??addSceneSelector_clearKeyData?relay; Banked call to: addSceneSelector_clearKeyData
//  469 		if (acDoubleClickCounter_whenKeyUp <= 1) // short press，级调，增亮
        LCALL   ?Subroutine13 & 0xFFFF
??CrossCallReturnLabel_6:
        JNC     ??addSceneSelector_handleOneTime_31
//  470 		{
//  471 			addSceneSelector_sendDestinationAddressConfigure(aSceneSelectorCurrentEndpoint);
        ; Setup parameters for call to function addSceneSelector_sendDestinationAddressConfigure
        LCALL   ??addSceneSelector_sendDestinationAddressConfig; Banked call to: addSceneSelector_sendDestinationAddressConfigure
//  472 			zclGeneral_SendLevelControlStep(aSceneSelectorCurrentEndpoint, &zclSceneSelector_DstAddr, LEVEL_STEP_UP, 35, 1, FALSE, 0 );
        ; Setup parameters for call to function zclGeneral_SendLevelControlStepRequest
        MOV     ?V0,#0x0
        MOV     R0,#?V0
        LCALL   ?PUSH_XSTACK_I_ONE
          CFI CFA_XSP16 add(XSP16, 11)
        MOV     R0,#?V0
        LCALL   ?PUSH_XSTACK_I_ONE
          CFI CFA_XSP16 add(XSP16, 12)
        MOV     ?V0,#0x1
        MOV     ?V1,#0x0
        MOV     R0,#?V0
        LCALL   ?PUSH_XSTACK_I_TWO
          CFI CFA_XSP16 add(XSP16, 14)
        MOV     ?V0,#0x23
        MOV     R0,#?V0
        LCALL   ?PUSH_XSTACK_I_ONE
          CFI CFA_XSP16 add(XSP16, 15)
        MOV     R5,#0x0
        LJMP    ??addSceneSelector_handleOneTime_32 & 0xFFFF
          CFI CFA_XSP16 add(XSP16, 10)
//  473 		} else // double click，开灯
//  474 		{
//  475 			addSceneSelector_sendDestinationAddressConfigure(aSceneSelectorCurrentEndpoint);
??addSceneSelector_handleOneTime_31:
        ; Setup parameters for call to function addSceneSelector_sendDestinationAddressConfigure
        LCALL   ??addSceneSelector_sendDestinationAddressConfig; Banked call to: addSceneSelector_sendDestinationAddressConfigure
//  476 			zclGeneral_SendOnOff_CmdOn(aSceneSelectorCurrentEndpoint, &zclSceneSelector_DstAddr, FALSE, 0 );
        ; Setup parameters for call to function zcl_SendCommand
        CLR     A
        MOV     ?V0,A
        MOV     ?V1,A
        MOV     R0,#?V0
        LCALL   ?PUSH_XSTACK_I_TWO
          CFI CFA_XSP16 add(XSP16, 12)
        MOV     R0,#?V0
        LCALL   ?PUSH_XSTACK_I_TWO
          CFI CFA_XSP16 add(XSP16, 14)
        MOV     R0,#?V0
        LCALL   ?PUSH_XSTACK_I_ONE
          CFI CFA_XSP16 add(XSP16, 15)
        MOV     R0,#?V0
        LCALL   ?PUSH_XSTACK_I_TWO
          CFI CFA_XSP16 add(XSP16, 17)
        MOV     R0,#?V0
        LCALL   ?PUSH_XSTACK_I_ONE
          CFI CFA_XSP16 add(XSP16, 18)
        MOV     R0,#?V0
        LCALL   ?PUSH_XSTACK_I_ONE
          CFI CFA_XSP16 add(XSP16, 19)
        MOV     ?V0,#0x1
        MOV     R0,#?V0
        LCALL   ?PUSH_XSTACK_I_ONE
          CFI CFA_XSP16 add(XSP16, 20)
        LJMP    ??addSceneSelector_handleOneTime_33 & 0xFFFF
          CFI CFA_XSP16 add(XSP16, 10)
//  477 		}
//  478 	} else if ((aSceneSelectorKeyDimmingUp == AC_KEY_UP_1S_TO_5S) || (aSceneSelectorKeyDimmingUp == AC_KEY_UP_5S_TO_10S) || (aSceneSelectorKeyDimmingUp == AC_KEY_UP_ABOVE_10S))
??addSceneSelector_handleOneTime_30:
        MOVX    A,@DPTR
        XRL     A,#0x4
        JZ      ??addSceneSelector_handleOneTime_34
        MOVX    A,@DPTR
        XRL     A,#0x5
        JZ      ??addSceneSelector_handleOneTime_34
        MOVX    A,@DPTR
        XRL     A,#0x6
        JNZ     ??addSceneSelector_handleOneTime_35
//  479 	{
//  480 		addSceneSelector_clearKeyData();//处理长按抬起后，停止渐变move调光
??addSceneSelector_handleOneTime_34:
        ; Setup parameters for call to function addSceneSelector_clearKeyData
        LJMP    ??addSceneSelector_handleOneTime_36 & 0xFFFF
//  481 		addSceneSelector_sendDestinationAddressConfigure(aSceneSelectorCurrentEndpoint);
//  482 		zclGeneral_SendLevelControlStop(aSceneSelectorCurrentEndpoint, &zclSceneSelector_DstAddr, FALSE, 0 );
//  483 	}
//  484 
//  485 	else // keyDimmingDown
//  486 	
//  487 	if (aSceneSelectorKeyDimmingDown == AC_KEY_DOWN) // long press
??addSceneSelector_handleOneTime_35:
        MOV     DPTR,#aSceneSelectorKeyDimmingDown
        MOVX    A,@DPTR
        XRL     A,#0x1
        JNZ     ??addSceneSelector_handleOneTime_37
//  488 	{
//  489 		addSceneSelector_clearKeyData();
        ; Setup parameters for call to function addSceneSelector_clearKeyData
        LCALL   ??addSceneSelector_clearKeyData?relay; Banked call to: addSceneSelector_clearKeyData
//  490 		aSceneSelectorKeyDimmingDown = AC_KEY_DOWN;
        MOV     DPTR,#aSceneSelectorKeyDimmingDown
??addSceneSelector_handleOneTime_4:
        MOV     A,#0x1
??addSceneSelector_handleOneTime_16:
        MOVX    @DPTR,A
        LJMP    ??addSceneSelector_handleOneTime_1 & 0xFFFF
//  491 	} else if (aSceneSelectorKeyDimmingDown == AC_KEY_UP_600MS_TO_1S)
??addSceneSelector_handleOneTime_37:
        MOVX    A,@DPTR
        XRL     A,#0x3
        JNZ     ??addSceneSelector_handleOneTime_38
//  492 	{
//  493 		addSceneSelector_clearKeyData();
        ; Setup parameters for call to function addSceneSelector_clearKeyData
        LCALL   ??addSceneSelector_clearKeyData?relay; Banked call to: addSceneSelector_clearKeyData
//  494 		if (acDoubleClickCounter_whenKeyUp <= 1) // short press
        LCALL   ?Subroutine13 & 0xFFFF
??CrossCallReturnLabel_7:
        JNC     ??addSceneSelector_handleOneTime_39
//  495 		{
//  496 			addSceneSelector_sendDestinationAddressConfigure(aSceneSelectorCurrentEndpoint);
        ; Setup parameters for call to function addSceneSelector_sendDestinationAddressConfigure
        LCALL   ??addSceneSelector_sendDestinationAddressConfig; Banked call to: addSceneSelector_sendDestinationAddressConfigure
//  497 			zclGeneral_SendLevelControlStep(aSceneSelectorCurrentEndpoint, &zclSceneSelector_DstAddr, LEVEL_STEP_DOWN, 35, 1, FALSE, 0 );
        ; Setup parameters for call to function zclGeneral_SendLevelControlStepRequest
        MOV     ?V0,#0x0
        MOV     R0,#?V0
        LCALL   ?PUSH_XSTACK_I_ONE
          CFI CFA_XSP16 add(XSP16, 11)
        MOV     R0,#?V0
        LCALL   ?PUSH_XSTACK_I_ONE
          CFI CFA_XSP16 add(XSP16, 12)
        MOV     ?V0,#0x1
        MOV     ?V1,#0x0
        MOV     R0,#?V0
        LCALL   ?PUSH_XSTACK_I_TWO
          CFI CFA_XSP16 add(XSP16, 14)
        MOV     ?V0,#0x23
        MOV     R0,#?V0
        LCALL   ?PUSH_XSTACK_I_ONE
          CFI CFA_XSP16 add(XSP16, 15)
        MOV     R5,#0x1
??addSceneSelector_handleOneTime_32:
        MOV     R4,#0x2
        MOV     R2,#zclSceneSelector_DstAddr & 0xff
        MOV     R3,#(zclSceneSelector_DstAddr >> 8) & 0xff
        MOV     DPTR,#aSceneSelectorCurrentEndpoint
        MOVX    A,@DPTR
        MOV     R1,A
        LCALL   ??zclGeneral_SendLevelControlStepRequest?relay; Banked call to: zclGeneral_SendLevelControlStepRequest
        MOV     A,#0x5
        LCALL   ?DEALLOC_XSTACK8
          CFI CFA_XSP16 add(XSP16, 10)
        LJMP    ??addSceneSelector_handleOneTime_1 & 0xFFFF
//  498 		} else // double click
//  499 		{
//  500 			addSceneSelector_sendDestinationAddressConfigure(aSceneSelectorCurrentEndpoint);
??addSceneSelector_handleOneTime_39:
        ; Setup parameters for call to function addSceneSelector_sendDestinationAddressConfigure
        LCALL   ??addSceneSelector_sendDestinationAddressConfig; Banked call to: addSceneSelector_sendDestinationAddressConfigure
//  501 			zclGeneral_SendOnOff_CmdOff(aSceneSelectorCurrentEndpoint, &zclSceneSelector_DstAddr, FALSE, 0 );
        ; Setup parameters for call to function zcl_SendCommand
        CLR     A
        MOV     ?V0,A
        MOV     ?V1,A
        MOV     R0,#?V0
        LCALL   ?PUSH_XSTACK_I_TWO
          CFI CFA_XSP16 add(XSP16, 12)
        MOV     R0,#?V0
        LCALL   ?PUSH_XSTACK_I_TWO
          CFI CFA_XSP16 add(XSP16, 14)
        MOV     R0,#?V0
        LCALL   ?PUSH_XSTACK_I_ONE
          CFI CFA_XSP16 add(XSP16, 15)
        MOV     R0,#?V0
        LCALL   ?PUSH_XSTACK_I_TWO
          CFI CFA_XSP16 add(XSP16, 17)
        MOV     R0,#?V0
        LCALL   ?PUSH_XSTACK_I_ONE
          CFI CFA_XSP16 add(XSP16, 18)
        MOV     R0,#?V0
        LCALL   ?PUSH_XSTACK_I_ONE
          CFI CFA_XSP16 add(XSP16, 19)
        MOV     ?V0,#0x1
        MOV     R0,#?V0
        LCALL   ?PUSH_XSTACK_I_ONE
          CFI CFA_XSP16 add(XSP16, 20)
        MOV     ?V0,#0x0
??addSceneSelector_handleOneTime_33:
        MOV     R0,#?V0
        LCALL   ?PUSH_XSTACK_I_ONE
          CFI CFA_XSP16 add(XSP16, 21)
        MOV     R4,#0x6
        SJMP    ??addSceneSelector_handleOneTime_40
          CFI CFA_XSP16 add(XSP16, 10)
//  502 		}
//  503 	} else if ((aSceneSelectorKeyDimmingDown == AC_KEY_UP_1S_TO_5S) || (aSceneSelectorKeyDimmingDown == AC_KEY_UP_5S_TO_10S) || (aSceneSelectorKeyDimmingDown == AC_KEY_UP_ABOVE_10S))
??addSceneSelector_handleOneTime_38:
        MOVX    A,@DPTR
        XRL     A,#0x4
        JZ      ??addSceneSelector_handleOneTime_36
        MOVX    A,@DPTR
        XRL     A,#0x5
        JZ      ??addSceneSelector_handleOneTime_36
        MOVX    A,@DPTR
        XRL     A,#0x6
        JNZ     ??addSceneSelector_handleOneTime_41
//  504 	{
//  505 		addSceneSelector_clearKeyData();
??addSceneSelector_handleOneTime_36:
        ; Setup parameters for call to function addSceneSelector_clearKeyData
        LCALL   ??addSceneSelector_clearKeyData?relay; Banked call to: addSceneSelector_clearKeyData
//  506 		addSceneSelector_sendDestinationAddressConfigure(aSceneSelectorCurrentEndpoint);
        ; Setup parameters for call to function addSceneSelector_sendDestinationAddressConfigure
        MOV     DPTR,#aSceneSelectorCurrentEndpoint
        MOVX    A,@DPTR
        MOV     R1,A
        LCALL   ??addSceneSelector_sendDestinationAddressConfig; Banked call to: addSceneSelector_sendDestinationAddressConfigure
//  507 		zclGeneral_SendLevelControlStop(aSceneSelectorCurrentEndpoint, &zclSceneSelector_DstAddr, FALSE, 0 );
        ; Setup parameters for call to function zcl_SendCommand
        CLR     A
        MOV     ?V0,A
        MOV     ?V1,A
        MOV     R0,#?V0
        LCALL   ?PUSH_XSTACK_I_TWO
          CFI CFA_XSP16 add(XSP16, 12)
        MOV     R0,#?V0
        LCALL   ?PUSH_XSTACK_I_TWO
          CFI CFA_XSP16 add(XSP16, 14)
        MOV     R0,#?V0
        LCALL   ?PUSH_XSTACK_I_ONE
          CFI CFA_XSP16 add(XSP16, 15)
        MOV     R0,#?V0
        LCALL   ?PUSH_XSTACK_I_TWO
          CFI CFA_XSP16 add(XSP16, 17)
        MOV     R0,#?V0
        LCALL   ?PUSH_XSTACK_I_ONE
          CFI CFA_XSP16 add(XSP16, 18)
        MOV     R0,#?V0
        LCALL   ?PUSH_XSTACK_I_ONE
          CFI CFA_XSP16 add(XSP16, 19)
        MOV     ?V0,#0x1
        MOV     R0,#?V0
        LCALL   ?PUSH_XSTACK_I_ONE
          CFI CFA_XSP16 add(XSP16, 20)
        MOV     ?V0,#0x3
        MOV     R0,#?V0
        LCALL   ?PUSH_XSTACK_I_ONE
          CFI CFA_XSP16 add(XSP16, 21)
        MOV     R4,#0x8
??addSceneSelector_handleOneTime_40:
        MOV     R5,#0x0
        MOV     R2,#zclSceneSelector_DstAddr & 0xff
        MOV     R3,#(zclSceneSelector_DstAddr >> 8) & 0xff
        MOV     DPTR,#aSceneSelectorCurrentEndpoint
        MOVX    A,@DPTR
        MOV     R1,A
        LCALL   ??zcl_SendCommand?relay; Banked call to: zcl_SendCommand
        MOV     A,#0xb
        LCALL   ?DEALLOC_XSTACK8
          CFI CFA_XSP16 add(XSP16, 10)
        SJMP    ??addSceneSelector_handleOneTime_1
//  508 	}
//  509 	
//  510 	else // others
//  511 		
//  512 	{
//  513 		addSceneSelector_clearKeyData();
??addSceneSelector_handleOneTime_41:
        ; Setup parameters for call to function addSceneSelector_clearKeyData
        LCALL   ??addSceneSelector_clearKeyData?relay; Banked call to: addSceneSelector_clearKeyData
//  514 	}
//  515 	
//  516 	acDoubleClickCounter_whenKeyUp = 0;
??addSceneSelector_handleOneTime_1:
        MOV     DPTR,#acDoubleClickCounter_whenKeyUp
        CLR     A
        MOVX    @DPTR,A
//  517 	acDoubleClickCounter_whenKeyDown = 0;
        MOV     DPTR,#acDoubleClickCounter_whenKeyDown
        MOVX    @DPTR,A
//  518 }
        LJMP    ?Subroutine2 & 0xFFFF
          CFI EndBlock cfiBlock14

        RSEG BANKED_CODE:CODE:NOROOT(0)
?Subroutine13:
          CFI Block cfiCond15 Using cfiCommon0
          CFI Function addSceneSelector_handleOneTime
          CFI Conditional ??CrossCallReturnLabel_6
          CFI R6 load(1, XDATA, add(CFA_XSP16, literal(-10)))
          CFI VB load(1, XDATA, add(CFA_XSP16, literal(-9)))
          CFI V0 load(1, XDATA, add(CFA_XSP16, literal(-8)))
          CFI V1 load(1, XDATA, add(CFA_XSP16, literal(-7)))
          CFI R7 load(1, XDATA, add(CFA_XSP16, literal(-6)))
          CFI ?RET_LOW load(1, XDATA, add(CFA_XSP16, literal(-5)))
          CFI ?RET_HIGH load(1, XDATA, add(CFA_XSP16, literal(-4)))
          CFI ?BRET_EXT load(1, XDATA, add(CFA_XSP16, literal(-3)))
          CFI DPL0 load(1, XDATA, add(CFA_XSP16, literal(-2)))
          CFI DPH0 load(1, XDATA, add(CFA_XSP16, literal(-1)))
          CFI CFA_SP SP+-2
          CFI CFA_XSP16 add(XSP16, 10)
          CFI Block cfiCond16 Using cfiCommon0
          CFI (cfiCond16) Function addSceneSelector_handleOneTime
          CFI (cfiCond16) Conditional ??CrossCallReturnLabel_7
          CFI (cfiCond16) R6 load(1, XDATA, add(CFA_XSP16, literal(-10)))
          CFI (cfiCond16) VB load(1, XDATA, add(CFA_XSP16, literal(-9)))
          CFI (cfiCond16) V0 load(1, XDATA, add(CFA_XSP16, literal(-8)))
          CFI (cfiCond16) V1 load(1, XDATA, add(CFA_XSP16, literal(-7)))
          CFI (cfiCond16) R7 load(1, XDATA, add(CFA_XSP16, literal(-6)))
          CFI (cfiCond16) ?RET_LOW load(1, XDATA, add(CFA_XSP16, literal(-5)))
          CFI (cfiCond16) ?RET_HIGH load(1, XDATA, add(CFA_XSP16, literal(-4)))
          CFI (cfiCond16) ?BRET_EXT load(1, XDATA, add(CFA_XSP16, literal(-3)))
          CFI (cfiCond16) DPL0 load(1, XDATA, add(CFA_XSP16, literal(-2)))
          CFI (cfiCond16) DPH0 load(1, XDATA, add(CFA_XSP16, literal(-1)))
          CFI (cfiCond16) CFA_SP SP+-2
          CFI (cfiCond16) CFA_XSP16 add(XSP16, 10)
          CFI Block cfiPicker17 Using cfiCommon1
          CFI (cfiPicker17) NoFunction
          CFI (cfiPicker17) Picker
        MOV     DPTR,#acDoubleClickCounter_whenKeyUp
        MOVX    A,@DPTR
        CLR     C
        SUBB    A,#0x2
        MOV     DPTR,#aSceneSelectorCurrentEndpoint
        MOVX    A,@DPTR
        MOV     R1,A
        RET
          CFI EndBlock cfiCond15
          CFI EndBlock cfiCond16
          CFI EndBlock cfiPicker17
//  519 
//  520 /*********************************************************************
//  521  * @fn      addSceneSelector_isrPort0
//  522  *
//  523  * @brief   Port0 interrupt service routine.
//  524  *
//  525  * @param   none
//  526  *
//  527  * @return  none
//  528  */

        RSEG BANKED_CODE:CODE:NOROOT(0)
//  529 void addSceneSelector_isrPort0(void)
addSceneSelector_isrPort0:
          CFI Block cfiBlock18 Using cfiCommon0
          CFI Function addSceneSelector_isrPort0
        CODE
//  530 {
        ; Saved register size: 0
        ; Auto size: 0
//  531 #if defined(SCENE_SELECTOR)	
//  532 	IEN1 &= ~0x20; // port0 interrupt disable
//  533 
//  534 	if (TRUE == addCommon_atNormalWorkState(FALSE))
//  535 	{
//  536 		//#pragma vector = P0INT_VECTOR    
//  537 		//__interrupt void P0_ISR(void) 
//  538 		{
//  539 			// factory reset
//  540 			if (aSceneSelectorFactoryReset == ADD_SCENESELECTOR_FACTORYRESET_KEYDOWN_10S)
//  541 			{
//  542 				osal_set_event(*acPointer_TaskID, AC_EVENT_HANDLE_ONE_TIME);
//  543 			} else if (aSceneSelectorFactoryReset == ADD_SCENESELECTOR_FACTORYRESET_KEYDOWN_5S)
//  544 			{
//  545 				addSceneSelector_clearKeyData();
//  546 				acDoubleClickCounter_whenKeyUp = 0;
//  547 				aSceneSelectorFactoryReset = ADD_SCENESELECTOR_FACTORYRESET_KEYNORMAL;
//  548 				// no operation
//  549 			}
//  550 
//  551 			else // P0_4(key scene1)
//  552 			
//  553 			if ((P0IFG & 0x10) == 0x10) 
//  554 			{
//  555 				if ((acInterruptTriggerEdgePort0 == AC_INTERRUPT_TRIGGER_EDGE_FALL) && 
//  556 					(ADD_SCENESELECTOR_KEY_SCENE1 == 0))
//  557 				{
//  558 					MicroWait(10000);
//  559 					if ((acInterruptTriggerEdgePort0 == AC_INTERRUPT_TRIGGER_EDGE_FALL) && 
//  560 						(ADD_SCENESELECTOR_KEY_SCENE1 == 0))
//  561 					{
//  562 						aSceneSelectorKeyScene1 = addCommon_handleKeyDown();
//  563 						P0IFG &= ~0x10; // clear interrupt flag
//  564 						P0IF = 0;
//  565 						EA = 0;
//  566 						PICTL &= ~0x01;
//  567 						acInterruptTriggerEdgePort0 = AC_INTERRUPT_TRIGGER_EDGE_RISE;
//  568 						EA = 1;
//  569 					}
//  570 				} else if ((acInterruptTriggerEdgePort0 == AC_INTERRUPT_TRIGGER_EDGE_RISE) && 
//  571 					(ADD_SCENESELECTOR_KEY_SCENE1 == 1))
//  572 				{
//  573 					MicroWait(10000);
//  574 					if ((acInterruptTriggerEdgePort0 == AC_INTERRUPT_TRIGGER_EDGE_RISE) && 
//  575 						(ADD_SCENESELECTOR_KEY_SCENE1 == 1))
//  576 					{	
//  577 						aSceneSelectorKeyScene1 = addCommon_handleKeyUp();
//  578 						if (aSceneSelectorKeyScene1 == AC_KEY_UP_BELOW_600MS)
//  579 						{
//  580 							if (acDoubleClickCheckFlag == TRUE)
//  581 							{
//  582 								aSceneSelectorKeyScene1 = AC_KEY_UP_600MS_TO_1S;
//  583 								acDoubleClickCounter_whenKeyUp++;
//  584 							} else 
//  585 							{
//  586 								aSceneSelectorKeyScene1 = AC_KEY_UP_600MS_TO_1S;
//  587 								osal_set_event(*acPointer_TaskID, AC_EVENT_HANDLE_ONE_TIME);
//  588 							}
//  589 						} else 
//  590 						{
//  591 							osal_set_event(*acPointer_TaskID, AC_EVENT_HANDLE_ONE_TIME);
//  592 						}						
//  593 						P0IFG &= ~0x10; // clear interrupt flag
//  594 						P0IF = 0;
//  595 						EA = 0;
//  596 						PICTL |= 0x01;
//  597 						acInterruptTriggerEdgePort0 = AC_INTERRUPT_TRIGGER_EDGE_FALL;
//  598 						EA = 1;
//  599 					}
//  600 				}
//  601 			}
//  602 
//  603 			else // P0_5(key scene2)
//  604 			
//  605 			if ((P0IFG & 0x20) == 0x20) 
//  606 			{
//  607 				if ((acInterruptTriggerEdgePort0 == AC_INTERRUPT_TRIGGER_EDGE_FALL) && 
//  608 					(ADD_SCENESELECTOR_KEY_SCENE2 == 0))
//  609 				{
//  610 					MicroWait(10000);
//  611 					if ((acInterruptTriggerEdgePort0 == AC_INTERRUPT_TRIGGER_EDGE_FALL) && 
//  612 						(ADD_SCENESELECTOR_KEY_SCENE2 == 0))
//  613 					{
//  614 						aSceneSelectorKeyScene2 = addCommon_handleKeyDown();
//  615 						P0IFG &= ~0x20; // clear interrupt flag
//  616 						P0IF = 0;
//  617 						EA = 0;
//  618 						PICTL &= ~0x01;
//  619 						acInterruptTriggerEdgePort0 = AC_INTERRUPT_TRIGGER_EDGE_RISE;
//  620 						EA = 1;
//  621 					}
//  622 				} else if ((acInterruptTriggerEdgePort0 == AC_INTERRUPT_TRIGGER_EDGE_RISE) && 
//  623 					(ADD_SCENESELECTOR_KEY_SCENE2 == 1))
//  624 				{
//  625 					MicroWait(10000);
//  626 					if ((acInterruptTriggerEdgePort0 == AC_INTERRUPT_TRIGGER_EDGE_RISE) && 
//  627 						(ADD_SCENESELECTOR_KEY_SCENE2 == 1))
//  628 					{	
//  629 						aSceneSelectorKeyScene2 = addCommon_handleKeyUp();
//  630 						if (aSceneSelectorKeyScene2 == AC_KEY_UP_BELOW_600MS)
//  631 						{
//  632 							if (acDoubleClickCheckFlag == TRUE)
//  633 							{
//  634 								aSceneSelectorKeyScene2 = AC_KEY_UP_600MS_TO_1S;
//  635 								acDoubleClickCounter_whenKeyUp++;
//  636 							} else 
//  637 							{
//  638 								aSceneSelectorKeyScene2 = AC_KEY_UP_600MS_TO_1S;
//  639 								osal_set_event(*acPointer_TaskID, AC_EVENT_HANDLE_ONE_TIME);
//  640 							}
//  641 						} else 
//  642 						{
//  643 							osal_set_event(*acPointer_TaskID, AC_EVENT_HANDLE_ONE_TIME);
//  644 						}						
//  645 						P0IFG &= ~0x20; // clear interrupt flag
//  646 						P0IF = 0;
//  647 						EA = 0;
//  648 						PICTL |= 0x01;
//  649 						acInterruptTriggerEdgePort0 = AC_INTERRUPT_TRIGGER_EDGE_FALL;
//  650 						EA = 1;
//  651 					}
//  652 				}
//  653 			}
//  654 
//  655 			else // P0_0(key scene3)
//  656 			
//  657 			if ((P0IFG & 0x01) == 0x01) 
//  658 			{
//  659 				if ((acInterruptTriggerEdgePort0 == AC_INTERRUPT_TRIGGER_EDGE_FALL) && 
//  660 					(ADD_SCENESELECTOR_KEY_SCENE3 == 0))
//  661 				{
//  662 					MicroWait(10000);
//  663 					if ((acInterruptTriggerEdgePort0 == AC_INTERRUPT_TRIGGER_EDGE_FALL) && 
//  664 						(ADD_SCENESELECTOR_KEY_SCENE3 == 0))
//  665 					{
//  666 						aSceneSelectorKeyScene3 = addCommon_handleKeyDown();
//  667 						P0IFG &= ~0x01; // clear interrupt flag
//  668 						P0IF = 0;
//  669 						EA = 0;
//  670 						PICTL &= ~0x01;
//  671 						acInterruptTriggerEdgePort0 = AC_INTERRUPT_TRIGGER_EDGE_RISE;
//  672 						EA = 1;
//  673 					}
//  674 				} else if ((acInterruptTriggerEdgePort0 == AC_INTERRUPT_TRIGGER_EDGE_RISE) && 
//  675 					(ADD_SCENESELECTOR_KEY_SCENE3 == 1))
//  676 				{
//  677 					MicroWait(10000);
//  678 					if ((acInterruptTriggerEdgePort0 == AC_INTERRUPT_TRIGGER_EDGE_RISE) && 
//  679 						(ADD_SCENESELECTOR_KEY_SCENE3 == 1))
//  680 					{	
//  681 						aSceneSelectorKeyScene3 = addCommon_handleKeyUp();
//  682 						if (aSceneSelectorKeyScene3 == AC_KEY_UP_BELOW_600MS)
//  683 						{
//  684 							if (acDoubleClickCheckFlag == TRUE)
//  685 							{
//  686 								aSceneSelectorKeyScene3 = AC_KEY_UP_600MS_TO_1S;
//  687 								acDoubleClickCounter_whenKeyUp++;
//  688 							} else 
//  689 							{
//  690 								aSceneSelectorKeyScene3 = AC_KEY_UP_600MS_TO_1S;
//  691 								osal_set_event(*acPointer_TaskID, AC_EVENT_HANDLE_ONE_TIME);
//  692 							}
//  693 						} else 
//  694 						{
//  695 							osal_set_event(*acPointer_TaskID, AC_EVENT_HANDLE_ONE_TIME);
//  696 						}						
//  697 						P0IFG &= ~0x01; // clear interrupt flag
//  698 						P0IF = 0;
//  699 						EA = 0;
//  700 						PICTL |= 0x01;
//  701 						acInterruptTriggerEdgePort0 = AC_INTERRUPT_TRIGGER_EDGE_FALL;
//  702 						EA = 1;
//  703 					}
//  704 				}
//  705 			}
//  706 		}		 
//  707 	} else 
//  708 	{
//  709 		P0IFG &= ~0x31; // clear interrupt flag
//  710 		P0IF = 0;
//  711 	}
//  712 	
//  713 	IEN1 |= 0x20; // port0 interrupt enable
//  714 		
//  715 #elif defined(SCENE_SELECTOR_TOUCHKEY)
//  716 		
//  717 #else
//  718 #endif	
//  719 }
        LJMP    ?BRET
          CFI EndBlock cfiBlock18
//  720 
//  721 /*********************************************************************
//  722  * @fn      addSceneSelector_isrPort1
//  723  *
//  724  * @brief   Port1 interrupt service routine.
//  725  *
//  726  * @param   none
//  727  *
//  728  * @return  none
//  729  */

        RSEG BANKED_CODE:CODE:NOROOT(0)
//  730 void addSceneSelector_isrPort1(void)
addSceneSelector_isrPort1:
          CFI Block cfiBlock19 Using cfiCommon0
          CFI Function addSceneSelector_isrPort1
        CODE
//  731 {
        ; Saved register size: 0
        ; Auto size: 0
//  732 #if defined(SCENE_SELECTOR)	
//  733 	IEN2 &= ~0x10; // port1 interrupt disable	
//  734 	
//  735 	if (TRUE == addCommon_atNormalWorkState(FALSE))
//  736 	{
//  737 		//#pragma vector = P1INT_VECTOR    
//  738 		//__interrupt void P1_ISR(void) 
//  739 		{
//  740 			// wakeup
//  741 			if (aSceneSelectorWakeup == ADD_SCENESELECTOR_WAKEUP_KEYDOWN_10S)
//  742 			{
//  743 				osal_set_event(*acPointer_TaskID, AC_EVENT_HANDLE_ONE_TIME);
//  744 			} else if (aSceneSelectorWakeup == ADD_SCENESELECTOR_WAKEUP_KEYDOWN_5S)
//  745 			{
//  746 				addSceneSelector_clearKeyData();
//  747 				acDoubleClickCounter_whenKeyUp = 0;
//  748 				aSceneSelectorWakeup = ADD_SCENESELECTOR_WAKEUP_KEYNORMAL;
//  749 				// no operation
//  750 			}
//  751 
//  752 			else // P1_6(key dimming up)
//  753 			
//  754 			if ((P1IFG & 0x40) == 0x40) 
//  755 			{
//  756 				if ((acInterruptTriggerEdgePort1 == AC_INTERRUPT_TRIGGER_EDGE_FALL) && 
//  757 					(ADD_SCENESELECTOR_KEY_DIMMINGUP == 0))
//  758 				{
//  759 					MicroWait(10000);
//  760 					if ((acInterruptTriggerEdgePort1 == AC_INTERRUPT_TRIGGER_EDGE_FALL) && 
//  761 						(ADD_SCENESELECTOR_KEY_DIMMINGUP == 0))
//  762 					{
//  763 						aSceneSelectorKeyDimmingUp = addCommon_handleKeyDown();
//  764 						P1IFG &= ~0x40; // clear interrupt flag
//  765 						P1IF = 0;
//  766 						EA = 0;
//  767 						PICTL &= ~0x06;
//  768 						acInterruptTriggerEdgePort1 = AC_INTERRUPT_TRIGGER_EDGE_RISE;
//  769 						EA = 1;
//  770 					}
//  771 				} else if ((acInterruptTriggerEdgePort1 == AC_INTERRUPT_TRIGGER_EDGE_RISE) && 
//  772 					(ADD_SCENESELECTOR_KEY_DIMMINGUP == 1))
//  773 				{
//  774 					MicroWait(10000);
//  775 					if ((acInterruptTriggerEdgePort1 == AC_INTERRUPT_TRIGGER_EDGE_RISE) && 
//  776 						(ADD_SCENESELECTOR_KEY_DIMMINGUP == 1))
//  777 					{
//  778 						aSceneSelectorKeyDimmingUp = addCommon_handleKeyUp();
//  779 						if (aSceneSelectorKeyDimmingUp == AC_KEY_UP_BELOW_600MS)
//  780 						{
//  781 							if (acDoubleClickCheckFlag == TRUE)
//  782 							{
//  783 								aSceneSelectorKeyDimmingUp = AC_KEY_UP_600MS_TO_1S;
//  784 								acDoubleClickCounter_whenKeyUp++;
//  785 							} else 
//  786 							{
//  787 								aSceneSelectorKeyDimmingUp = AC_KEY_UP_600MS_TO_1S;
//  788 								osal_set_event(*acPointer_TaskID, AC_EVENT_HANDLE_ONE_TIME);
//  789 							}
//  790 						} else 
//  791 						{
//  792 							osal_set_event(*acPointer_TaskID, AC_EVENT_HANDLE_ONE_TIME);
//  793 						}						
//  794 						P1IFG &= ~0x40; // clear interrupt flag
//  795 						P1IF = 0;
//  796 						EA = 0;
//  797 						PICTL |= 0x06;
//  798 						acInterruptTriggerEdgePort1 = AC_INTERRUPT_TRIGGER_EDGE_FALL;
//  799 						EA = 1;
//  800 					}
//  801 				}
//  802 			}
//  803 
//  804 			else // P1_7(key dimming down)
//  805 			
//  806 			if ((P1IFG & 0x80) == 0x80) 
//  807 			{
//  808 				if ((acInterruptTriggerEdgePort1 == AC_INTERRUPT_TRIGGER_EDGE_FALL) && 
//  809 					(ADD_SCENESELECTOR_KEY_DIMMINGDOWN == 0))
//  810 				{
//  811 					MicroWait(10000);
//  812 					if ((acInterruptTriggerEdgePort1 == AC_INTERRUPT_TRIGGER_EDGE_FALL) && 
//  813 						(ADD_SCENESELECTOR_KEY_DIMMINGDOWN == 0))
//  814 					{
//  815 						aSceneSelectorKeyDimmingDown = addCommon_handleKeyDown();
//  816 						P1IFG &= ~0x80; // clear interrupt flag
//  817 						P1IF = 0;
//  818 						EA = 0;
//  819 						PICTL &= ~0x06;
//  820 						acInterruptTriggerEdgePort1 = AC_INTERRUPT_TRIGGER_EDGE_RISE;
//  821 						EA = 1;
//  822 					}
//  823 				} else if ((acInterruptTriggerEdgePort1 == AC_INTERRUPT_TRIGGER_EDGE_RISE) && 
//  824 					(ADD_SCENESELECTOR_KEY_DIMMINGDOWN == 1))
//  825 				{
//  826 					MicroWait(10000);
//  827 					if ((acInterruptTriggerEdgePort1 == AC_INTERRUPT_TRIGGER_EDGE_RISE) && 
//  828 						(ADD_SCENESELECTOR_KEY_DIMMINGDOWN == 1))
//  829 					{
//  830 						aSceneSelectorKeyDimmingDown = addCommon_handleKeyUp();
//  831 						if (aSceneSelectorKeyDimmingDown == AC_KEY_UP_BELOW_600MS)
//  832 						{
//  833 							if (acDoubleClickCheckFlag == TRUE)
//  834 							{
//  835 								aSceneSelectorKeyDimmingDown = AC_KEY_UP_600MS_TO_1S;
//  836 								acDoubleClickCounter_whenKeyUp++;
//  837 							} else 
//  838 							{
//  839 								aSceneSelectorKeyDimmingDown = AC_KEY_UP_600MS_TO_1S;
//  840 								osal_set_event(*acPointer_TaskID, AC_EVENT_HANDLE_ONE_TIME);
//  841 							}
//  842 						} else 
//  843 						{
//  844 							osal_set_event(*acPointer_TaskID, AC_EVENT_HANDLE_ONE_TIME);
//  845 						}						
//  846 						P1IFG &= ~0x80; // clear interrupt flag
//  847 						P1IF = 0;
//  848 						EA = 0;
//  849 						PICTL |= 0x06;
//  850 						acInterruptTriggerEdgePort1 = AC_INTERRUPT_TRIGGER_EDGE_FALL;
//  851 						EA = 1;
//  852 					}
//  853 				}
//  854 			}
//  855 		} 
//  856 	} else 
//  857 	{
//  858 		P1IFG &= ~0xc0; // clear interrupt flag
//  859 		P1IF = 0;
//  860 	}
//  861 	
//  862 	IEN2 |= 0x10; // port1 interrupt enable
//  863 		
//  864 #elif defined(SCENE_SELECTOR_TOUCHKEY)
//  865 		
//  866 #else
//  867 #endif
//  868 }
        LJMP    ?BRET
          CFI EndBlock cfiBlock19
//  869 
//  870 /*********************************************************************
//  871  * @fn      addSceneSelector_isrPort2
//  872  *
//  873  * @brief   Port2 interrupt service routine.
//  874  *
//  875  * @param   none
//  876  *
//  877  * @return  none
//  878  */

        RSEG BANKED_CODE:CODE:NOROOT(0)
//  879 void addSceneSelector_isrPort2(void)
addSceneSelector_isrPort2:
          CFI Block cfiBlock20 Using cfiCommon0
          CFI Function addSceneSelector_isrPort2
        CODE
//  880 {
        FUNCALL addSceneSelector_isrPort2, addCommon_atNormalWorkState
        LOCFRAME ISTACK, 0, STACK
        LOCFRAME PSTACK, 0, STACK
        LOCFRAME XSTACK, 9, STACK
        LOCFRAME IOVERLAY, 0, STATIC
        LOCFRAME DOVERLAY, 0, STATIC
        ARGFRAME ISTACK, 0, STACK
        ARGFRAME PSTACK, 0, STACK
        ARGFRAME XSTACK, 9, STACK
        ARGFRAME IOVERLAY, 0, STATIC
        ARGFRAME DOVERLAY, 0, STATIC
        FUNCALL addSceneSelector_isrPort2, Onboard_wait
        LOCFRAME ISTACK, 0, STACK
        LOCFRAME PSTACK, 0, STACK
        LOCFRAME XSTACK, 9, STACK
        LOCFRAME IOVERLAY, 0, STATIC
        LOCFRAME DOVERLAY, 0, STATIC
        ARGFRAME ISTACK, 0, STACK
        ARGFRAME PSTACK, 0, STACK
        ARGFRAME XSTACK, 9, STACK
        ARGFRAME IOVERLAY, 0, STATIC
        ARGFRAME DOVERLAY, 0, STATIC
        FUNCALL addSceneSelector_isrPort2, addSceneSelector_APT8L08_I2C_readByte
        LOCFRAME ISTACK, 0, STACK
        LOCFRAME PSTACK, 0, STACK
        LOCFRAME XSTACK, 9, STACK
        LOCFRAME IOVERLAY, 0, STATIC
        LOCFRAME DOVERLAY, 0, STATIC
        ARGFRAME ISTACK, 0, STACK
        ARGFRAME PSTACK, 0, STACK
        ARGFRAME XSTACK, 9, STACK
        ARGFRAME IOVERLAY, 0, STATIC
        ARGFRAME DOVERLAY, 0, STATIC
        FUNCALL addSceneSelector_isrPort2, addSceneSelector_APT8L08_I2C_readByte
        LOCFRAME ISTACK, 0, STACK
        LOCFRAME PSTACK, 0, STACK
        LOCFRAME XSTACK, 9, STACK
        LOCFRAME IOVERLAY, 0, STATIC
        LOCFRAME DOVERLAY, 0, STATIC
        ARGFRAME ISTACK, 0, STACK
        ARGFRAME PSTACK, 0, STACK
        ARGFRAME XSTACK, 9, STACK
        ARGFRAME IOVERLAY, 0, STATIC
        ARGFRAME DOVERLAY, 0, STATIC
        FUNCALL addSceneSelector_isrPort2, addCommon_handleKeyDown
        LOCFRAME ISTACK, 0, STACK
        LOCFRAME PSTACK, 0, STACK
        LOCFRAME XSTACK, 9, STACK
        LOCFRAME IOVERLAY, 0, STATIC
        LOCFRAME DOVERLAY, 0, STATIC
        ARGFRAME ISTACK, 0, STACK
        ARGFRAME PSTACK, 0, STACK
        ARGFRAME XSTACK, 9, STACK
        ARGFRAME IOVERLAY, 0, STATIC
        ARGFRAME DOVERLAY, 0, STATIC
        FUNCALL addSceneSelector_isrPort2, addCommon_handleKeyDown
        LOCFRAME ISTACK, 0, STACK
        LOCFRAME PSTACK, 0, STACK
        LOCFRAME XSTACK, 9, STACK
        LOCFRAME IOVERLAY, 0, STATIC
        LOCFRAME DOVERLAY, 0, STATIC
        ARGFRAME ISTACK, 0, STACK
        ARGFRAME PSTACK, 0, STACK
        ARGFRAME XSTACK, 9, STACK
        ARGFRAME IOVERLAY, 0, STATIC
        ARGFRAME DOVERLAY, 0, STATIC
        FUNCALL addSceneSelector_isrPort2, addCommon_handleKeyDown
        LOCFRAME ISTACK, 0, STACK
        LOCFRAME PSTACK, 0, STACK
        LOCFRAME XSTACK, 9, STACK
        LOCFRAME IOVERLAY, 0, STATIC
        LOCFRAME DOVERLAY, 0, STATIC
        ARGFRAME ISTACK, 0, STACK
        ARGFRAME PSTACK, 0, STACK
        ARGFRAME XSTACK, 9, STACK
        ARGFRAME IOVERLAY, 0, STATIC
        ARGFRAME DOVERLAY, 0, STATIC
        FUNCALL addSceneSelector_isrPort2, addCommon_handleKeyDown
        LOCFRAME ISTACK, 0, STACK
        LOCFRAME PSTACK, 0, STACK
        LOCFRAME XSTACK, 9, STACK
        LOCFRAME IOVERLAY, 0, STATIC
        LOCFRAME DOVERLAY, 0, STATIC
        ARGFRAME ISTACK, 0, STACK
        ARGFRAME PSTACK, 0, STACK
        ARGFRAME XSTACK, 9, STACK
        ARGFRAME IOVERLAY, 0, STATIC
        ARGFRAME DOVERLAY, 0, STATIC
        FUNCALL addSceneSelector_isrPort2, addCommon_handleKeyDown
        LOCFRAME ISTACK, 0, STACK
        LOCFRAME PSTACK, 0, STACK
        LOCFRAME XSTACK, 9, STACK
        LOCFRAME IOVERLAY, 0, STATIC
        LOCFRAME DOVERLAY, 0, STATIC
        ARGFRAME ISTACK, 0, STACK
        ARGFRAME PSTACK, 0, STACK
        ARGFRAME XSTACK, 9, STACK
        ARGFRAME IOVERLAY, 0, STATIC
        ARGFRAME DOVERLAY, 0, STATIC
        FUNCALL addSceneSelector_isrPort2, addCommon_handleKeyDown
        LOCFRAME ISTACK, 0, STACK
        LOCFRAME PSTACK, 0, STACK
        LOCFRAME XSTACK, 9, STACK
        LOCFRAME IOVERLAY, 0, STATIC
        LOCFRAME DOVERLAY, 0, STATIC
        ARGFRAME ISTACK, 0, STACK
        ARGFRAME PSTACK, 0, STACK
        ARGFRAME XSTACK, 9, STACK
        ARGFRAME IOVERLAY, 0, STATIC
        ARGFRAME DOVERLAY, 0, STATIC
        FUNCALL addSceneSelector_isrPort2, Onboard_wait
        LOCFRAME ISTACK, 0, STACK
        LOCFRAME PSTACK, 0, STACK
        LOCFRAME XSTACK, 9, STACK
        LOCFRAME IOVERLAY, 0, STATIC
        LOCFRAME DOVERLAY, 0, STATIC
        ARGFRAME ISTACK, 0, STACK
        ARGFRAME PSTACK, 0, STACK
        ARGFRAME XSTACK, 9, STACK
        ARGFRAME IOVERLAY, 0, STATIC
        ARGFRAME DOVERLAY, 0, STATIC
        FUNCALL addSceneSelector_isrPort2, addSceneSelector_APT8L08_I2C_readByte
        LOCFRAME ISTACK, 0, STACK
        LOCFRAME PSTACK, 0, STACK
        LOCFRAME XSTACK, 9, STACK
        LOCFRAME IOVERLAY, 0, STATIC
        LOCFRAME DOVERLAY, 0, STATIC
        ARGFRAME ISTACK, 0, STACK
        ARGFRAME PSTACK, 0, STACK
        ARGFRAME XSTACK, 9, STACK
        ARGFRAME IOVERLAY, 0, STATIC
        ARGFRAME DOVERLAY, 0, STATIC
        FUNCALL addSceneSelector_isrPort2, addSceneSelector_APT8L08_I2C_readByte
        LOCFRAME ISTACK, 0, STACK
        LOCFRAME PSTACK, 0, STACK
        LOCFRAME XSTACK, 9, STACK
        LOCFRAME IOVERLAY, 0, STATIC
        LOCFRAME DOVERLAY, 0, STATIC
        ARGFRAME ISTACK, 0, STACK
        ARGFRAME PSTACK, 0, STACK
        ARGFRAME XSTACK, 9, STACK
        ARGFRAME IOVERLAY, 0, STATIC
        ARGFRAME DOVERLAY, 0, STATIC
        FUNCALL addSceneSelector_isrPort2, osal_stop_timerEx
        LOCFRAME ISTACK, 0, STACK
        LOCFRAME PSTACK, 0, STACK
        LOCFRAME XSTACK, 9, STACK
        LOCFRAME IOVERLAY, 0, STATIC
        LOCFRAME DOVERLAY, 0, STATIC
        ARGFRAME ISTACK, 0, STACK
        ARGFRAME PSTACK, 0, STACK
        ARGFRAME XSTACK, 9, STACK
        ARGFRAME IOVERLAY, 0, STATIC
        ARGFRAME DOVERLAY, 0, STATIC
        FUNCALL addSceneSelector_isrPort2, addSceneSelector_clearKeyData
        LOCFRAME ISTACK, 0, STACK
        LOCFRAME PSTACK, 0, STACK
        LOCFRAME XSTACK, 9, STACK
        LOCFRAME IOVERLAY, 0, STATIC
        LOCFRAME DOVERLAY, 0, STATIC
        ARGFRAME ISTACK, 0, STACK
        ARGFRAME PSTACK, 0, STACK
        ARGFRAME XSTACK, 9, STACK
        ARGFRAME IOVERLAY, 0, STATIC
        ARGFRAME DOVERLAY, 0, STATIC
        FUNCALL addSceneSelector_isrPort2, osal_set_event
        LOCFRAME ISTACK, 0, STACK
        LOCFRAME PSTACK, 0, STACK
        LOCFRAME XSTACK, 9, STACK
        LOCFRAME IOVERLAY, 0, STATIC
        LOCFRAME DOVERLAY, 0, STATIC
        ARGFRAME ISTACK, 0, STACK
        ARGFRAME PSTACK, 0, STACK
        ARGFRAME XSTACK, 9, STACK
        ARGFRAME IOVERLAY, 0, STATIC
        ARGFRAME DOVERLAY, 0, STATIC
        FUNCALL addSceneSelector_isrPort2, addSceneSelector_clearKeyData
        LOCFRAME ISTACK, 0, STACK
        LOCFRAME PSTACK, 0, STACK
        LOCFRAME XSTACK, 9, STACK
        LOCFRAME IOVERLAY, 0, STATIC
        LOCFRAME DOVERLAY, 0, STATIC
        ARGFRAME ISTACK, 0, STACK
        ARGFRAME PSTACK, 0, STACK
        ARGFRAME XSTACK, 9, STACK
        ARGFRAME IOVERLAY, 0, STATIC
        ARGFRAME DOVERLAY, 0, STATIC
        FUNCALL addSceneSelector_isrPort2, addCommon_handleKeyUp
        LOCFRAME ISTACK, 0, STACK
        LOCFRAME PSTACK, 0, STACK
        LOCFRAME XSTACK, 9, STACK
        LOCFRAME IOVERLAY, 0, STATIC
        LOCFRAME DOVERLAY, 0, STATIC
        ARGFRAME ISTACK, 0, STACK
        ARGFRAME PSTACK, 0, STACK
        ARGFRAME XSTACK, 9, STACK
        ARGFRAME IOVERLAY, 0, STATIC
        ARGFRAME DOVERLAY, 0, STATIC
        FUNCALL addSceneSelector_isrPort2, osal_set_event
        LOCFRAME ISTACK, 0, STACK
        LOCFRAME PSTACK, 0, STACK
        LOCFRAME XSTACK, 9, STACK
        LOCFRAME IOVERLAY, 0, STATIC
        LOCFRAME DOVERLAY, 0, STATIC
        ARGFRAME ISTACK, 0, STACK
        ARGFRAME PSTACK, 0, STACK
        ARGFRAME XSTACK, 9, STACK
        ARGFRAME IOVERLAY, 0, STATIC
        ARGFRAME DOVERLAY, 0, STATIC
        FUNCALL addSceneSelector_isrPort2, osal_set_event
        LOCFRAME ISTACK, 0, STACK
        LOCFRAME PSTACK, 0, STACK
        LOCFRAME XSTACK, 9, STACK
        LOCFRAME IOVERLAY, 0, STATIC
        LOCFRAME DOVERLAY, 0, STATIC
        ARGFRAME ISTACK, 0, STACK
        ARGFRAME PSTACK, 0, STACK
        ARGFRAME XSTACK, 9, STACK
        ARGFRAME IOVERLAY, 0, STATIC
        ARGFRAME DOVERLAY, 0, STATIC
        FUNCALL addSceneSelector_isrPort2, addCommon_handleKeyUp
        LOCFRAME ISTACK, 0, STACK
        LOCFRAME PSTACK, 0, STACK
        LOCFRAME XSTACK, 9, STACK
        LOCFRAME IOVERLAY, 0, STATIC
        LOCFRAME DOVERLAY, 0, STATIC
        ARGFRAME ISTACK, 0, STACK
        ARGFRAME PSTACK, 0, STACK
        ARGFRAME XSTACK, 9, STACK
        ARGFRAME IOVERLAY, 0, STATIC
        ARGFRAME DOVERLAY, 0, STATIC
        FUNCALL addSceneSelector_isrPort2, osal_set_event
        LOCFRAME ISTACK, 0, STACK
        LOCFRAME PSTACK, 0, STACK
        LOCFRAME XSTACK, 9, STACK
        LOCFRAME IOVERLAY, 0, STATIC
        LOCFRAME DOVERLAY, 0, STATIC
        ARGFRAME ISTACK, 0, STACK
        ARGFRAME PSTACK, 0, STACK
        ARGFRAME XSTACK, 9, STACK
        ARGFRAME IOVERLAY, 0, STATIC
        ARGFRAME DOVERLAY, 0, STATIC
        FUNCALL addSceneSelector_isrPort2, osal_set_event
        LOCFRAME ISTACK, 0, STACK
        LOCFRAME PSTACK, 0, STACK
        LOCFRAME XSTACK, 9, STACK
        LOCFRAME IOVERLAY, 0, STATIC
        LOCFRAME DOVERLAY, 0, STATIC
        ARGFRAME ISTACK, 0, STACK
        ARGFRAME PSTACK, 0, STACK
        ARGFRAME XSTACK, 9, STACK
        ARGFRAME IOVERLAY, 0, STATIC
        ARGFRAME DOVERLAY, 0, STATIC
        FUNCALL addSceneSelector_isrPort2, addCommon_handleKeyUp
        LOCFRAME ISTACK, 0, STACK
        LOCFRAME PSTACK, 0, STACK
        LOCFRAME XSTACK, 9, STACK
        LOCFRAME IOVERLAY, 0, STATIC
        LOCFRAME DOVERLAY, 0, STATIC
        ARGFRAME ISTACK, 0, STACK
        ARGFRAME PSTACK, 0, STACK
        ARGFRAME XSTACK, 9, STACK
        ARGFRAME IOVERLAY, 0, STATIC
        ARGFRAME DOVERLAY, 0, STATIC
        FUNCALL addSceneSelector_isrPort2, osal_set_event
        LOCFRAME ISTACK, 0, STACK
        LOCFRAME PSTACK, 0, STACK
        LOCFRAME XSTACK, 9, STACK
        LOCFRAME IOVERLAY, 0, STATIC
        LOCFRAME DOVERLAY, 0, STATIC
        ARGFRAME ISTACK, 0, STACK
        ARGFRAME PSTACK, 0, STACK
        ARGFRAME XSTACK, 9, STACK
        ARGFRAME IOVERLAY, 0, STATIC
        ARGFRAME DOVERLAY, 0, STATIC
        FUNCALL addSceneSelector_isrPort2, osal_set_event
        LOCFRAME ISTACK, 0, STACK
        LOCFRAME PSTACK, 0, STACK
        LOCFRAME XSTACK, 9, STACK
        LOCFRAME IOVERLAY, 0, STATIC
        LOCFRAME DOVERLAY, 0, STATIC
        ARGFRAME ISTACK, 0, STACK
        ARGFRAME PSTACK, 0, STACK
        ARGFRAME XSTACK, 9, STACK
        ARGFRAME IOVERLAY, 0, STATIC
        ARGFRAME DOVERLAY, 0, STATIC
        FUNCALL addSceneSelector_isrPort2, addCommon_handleKeyUp
        LOCFRAME ISTACK, 0, STACK
        LOCFRAME PSTACK, 0, STACK
        LOCFRAME XSTACK, 9, STACK
        LOCFRAME IOVERLAY, 0, STATIC
        LOCFRAME DOVERLAY, 0, STATIC
        ARGFRAME ISTACK, 0, STACK
        ARGFRAME PSTACK, 0, STACK
        ARGFRAME XSTACK, 9, STACK
        ARGFRAME IOVERLAY, 0, STATIC
        ARGFRAME DOVERLAY, 0, STATIC
        FUNCALL addSceneSelector_isrPort2, osal_set_event
        LOCFRAME ISTACK, 0, STACK
        LOCFRAME PSTACK, 0, STACK
        LOCFRAME XSTACK, 9, STACK
        LOCFRAME IOVERLAY, 0, STATIC
        LOCFRAME DOVERLAY, 0, STATIC
        ARGFRAME ISTACK, 0, STACK
        ARGFRAME PSTACK, 0, STACK
        ARGFRAME XSTACK, 9, STACK
        ARGFRAME IOVERLAY, 0, STATIC
        ARGFRAME DOVERLAY, 0, STATIC
        FUNCALL addSceneSelector_isrPort2, osal_set_event
        LOCFRAME ISTACK, 0, STACK
        LOCFRAME PSTACK, 0, STACK
        LOCFRAME XSTACK, 9, STACK
        LOCFRAME IOVERLAY, 0, STATIC
        LOCFRAME DOVERLAY, 0, STATIC
        ARGFRAME ISTACK, 0, STACK
        ARGFRAME PSTACK, 0, STACK
        ARGFRAME XSTACK, 9, STACK
        ARGFRAME IOVERLAY, 0, STATIC
        ARGFRAME DOVERLAY, 0, STATIC
        FUNCALL addSceneSelector_isrPort2, addCommon_handleKeyUp
        LOCFRAME ISTACK, 0, STACK
        LOCFRAME PSTACK, 0, STACK
        LOCFRAME XSTACK, 9, STACK
        LOCFRAME IOVERLAY, 0, STATIC
        LOCFRAME DOVERLAY, 0, STATIC
        ARGFRAME ISTACK, 0, STACK
        ARGFRAME PSTACK, 0, STACK
        ARGFRAME XSTACK, 9, STACK
        ARGFRAME IOVERLAY, 0, STATIC
        ARGFRAME DOVERLAY, 0, STATIC
        FUNCALL addSceneSelector_isrPort2, osal_set_event
        LOCFRAME ISTACK, 0, STACK
        LOCFRAME PSTACK, 0, STACK
        LOCFRAME XSTACK, 9, STACK
        LOCFRAME IOVERLAY, 0, STATIC
        LOCFRAME DOVERLAY, 0, STATIC
        ARGFRAME ISTACK, 0, STACK
        ARGFRAME PSTACK, 0, STACK
        ARGFRAME XSTACK, 9, STACK
        ARGFRAME IOVERLAY, 0, STATIC
        ARGFRAME DOVERLAY, 0, STATIC
        FUNCALL addSceneSelector_isrPort2, osal_set_event
        LOCFRAME ISTACK, 0, STACK
        LOCFRAME PSTACK, 0, STACK
        LOCFRAME XSTACK, 9, STACK
        LOCFRAME IOVERLAY, 0, STATIC
        LOCFRAME DOVERLAY, 0, STATIC
        ARGFRAME ISTACK, 0, STACK
        ARGFRAME PSTACK, 0, STACK
        ARGFRAME XSTACK, 9, STACK
        ARGFRAME IOVERLAY, 0, STATIC
        ARGFRAME DOVERLAY, 0, STATIC
        FUNCALL addSceneSelector_isrPort2, addCommon_handleKeyUp
        LOCFRAME ISTACK, 0, STACK
        LOCFRAME PSTACK, 0, STACK
        LOCFRAME XSTACK, 9, STACK
        LOCFRAME IOVERLAY, 0, STATIC
        LOCFRAME DOVERLAY, 0, STATIC
        ARGFRAME ISTACK, 0, STACK
        ARGFRAME PSTACK, 0, STACK
        ARGFRAME XSTACK, 9, STACK
        ARGFRAME IOVERLAY, 0, STATIC
        ARGFRAME DOVERLAY, 0, STATIC
        FUNCALL addSceneSelector_isrPort2, osal_set_event
        LOCFRAME ISTACK, 0, STACK
        LOCFRAME PSTACK, 0, STACK
        LOCFRAME XSTACK, 9, STACK
        LOCFRAME IOVERLAY, 0, STATIC
        LOCFRAME DOVERLAY, 0, STATIC
        ARGFRAME ISTACK, 0, STACK
        ARGFRAME PSTACK, 0, STACK
        ARGFRAME XSTACK, 9, STACK
        ARGFRAME IOVERLAY, 0, STATIC
        ARGFRAME DOVERLAY, 0, STATIC
        FUNCALL addSceneSelector_isrPort2, osal_set_event
        LOCFRAME ISTACK, 0, STACK
        LOCFRAME PSTACK, 0, STACK
        LOCFRAME XSTACK, 9, STACK
        LOCFRAME IOVERLAY, 0, STATIC
        LOCFRAME DOVERLAY, 0, STATIC
        ARGFRAME ISTACK, 0, STACK
        ARGFRAME PSTACK, 0, STACK
        ARGFRAME XSTACK, 9, STACK
        ARGFRAME IOVERLAY, 0, STATIC
        ARGFRAME DOVERLAY, 0, STATIC
        MOV     A,#-0x9
        LCALL   ?BANKED_ENTER_XDATA
          CFI DPH0 load(1, XDATA, add(CFA_XSP16, literal(-1)))
          CFI DPL0 load(1, XDATA, add(CFA_XSP16, literal(-2)))
          CFI ?BRET_EXT load(1, XDATA, add(CFA_XSP16, literal(-3)))
          CFI ?RET_HIGH load(1, XDATA, add(CFA_XSP16, literal(-4)))
          CFI ?RET_LOW load(1, XDATA, add(CFA_XSP16, literal(-5)))
          CFI R7 load(1, XDATA, add(CFA_XSP16, literal(-6)))
          CFI V0 load(1, XDATA, add(CFA_XSP16, literal(-7)))
          CFI VB load(1, XDATA, add(CFA_XSP16, literal(-8)))
          CFI R6 load(1, XDATA, add(CFA_XSP16, literal(-9)))
          CFI CFA_SP SP+0
          CFI CFA_XSP16 add(XSP16, 9)
        ; Saved register size: 9
        ; Auto size: 0
//  881 #if defined(SCENE_SELECTOR)	
//  882 	IEN2 &= ~0x02; // port2 interrupt disable	
//  883 	
//  884 	if (TRUE == addCommon_atNormalWorkState(FALSE))
//  885 	{
//  886 		//#pragma vector = P2INT_VECTOR    
//  887 		//__interrupt void P2_ISR(void) 
//  888 		{
//  889 			// P2_0(key scene4)
//  890 			if ((P2IFG & 0x01) == 0x01)
//  891 			{	
//  892 				if ((acInterruptTriggerEdgePort2 == AC_INTERRUPT_TRIGGER_EDGE_FALL) && 
//  893 					(ADD_SCENESELECTOR_KEY_SCENE4 == 0))
//  894 				{	
//  895 					MicroWait(10000);
//  896 					if ((acInterruptTriggerEdgePort2 == AC_INTERRUPT_TRIGGER_EDGE_FALL) && 
//  897 						(ADD_SCENESELECTOR_KEY_SCENE4 == 0))
//  898 					{
//  899 						aSceneSelectorKeyScene4 = addCommon_handleKeyDown();
//  900 						P2IFG &= ~0x01; // clear interrupt flag
//  901 						P2IF = 0;
//  902 						EA = 0;
//  903 						PICTL &= ~0x08;
//  904 						acInterruptTriggerEdgePort2 = AC_INTERRUPT_TRIGGER_EDGE_RISE;
//  905 						EA = 1;
//  906 					}
//  907 				} else if ((acInterruptTriggerEdgePort2 == AC_INTERRUPT_TRIGGER_EDGE_RISE) && 
//  908 					(ADD_SCENESELECTOR_KEY_SCENE4 == 1))
//  909 				{	
//  910 					MicroWait(10000);
//  911 					if ((acInterruptTriggerEdgePort2 == AC_INTERRUPT_TRIGGER_EDGE_RISE) && 
//  912 						(ADD_SCENESELECTOR_KEY_SCENE4 == 1))
//  913 					{
//  914 						aSceneSelectorKeyScene4 = addCommon_handleKeyUp();
//  915 						if (aSceneSelectorKeyScene4 == AC_KEY_UP_BELOW_600MS)
//  916 						{
//  917 							if (acDoubleClickCheckFlag == TRUE)
//  918 							{
//  919 								aSceneSelectorKeyScene4 = AC_KEY_UP_600MS_TO_1S;
//  920 								acDoubleClickCounter_whenKeyUp++;
//  921 							} else 
//  922 							{
//  923 								aSceneSelectorKeyScene4 = AC_KEY_UP_600MS_TO_1S;
//  924 								osal_set_event(*acPointer_TaskID, AC_EVENT_HANDLE_ONE_TIME);
//  925 							}
//  926 						} else 
//  927 						{
//  928 							osal_set_event(*acPointer_TaskID, AC_EVENT_HANDLE_ONE_TIME);
//  929 						}
//  930 						P2IFG &= ~0x01; // clear interrupt flag
//  931 						P2IF = 0;
//  932 						EA = 0;
//  933 						PICTL |= 0x08;
//  934 						acInterruptTriggerEdgePort2 = AC_INTERRUPT_TRIGGER_EDGE_FALL;
//  935 						EA = 1;
//  936 					}
//  937 				}
//  938 			}
//  939 		} 
//  940 	} else 
//  941 	{
//  942 		P2IFG &= ~0x01; // clear interrupt flag
//  943 		P2IF = 0;
//  944 	}	
//  945 	
//  946 	IEN2 |= 0x02; // port2 interrupt enable	
//  947 	
//  948 #elif defined(SCENE_SELECTOR_TOUCHKEY)
//  949 	IEN2 &= ~0x02; // port2 interrupt disable
        ANL     0x9a,#0xfd
//  950 	
//  951 	if (TRUE == addCommon_atNormalWorkState(FALSE))
        ; Setup parameters for call to function addCommon_atNormalWorkState
        MOV     R1,#0x0
        LCALL   ??addCommon_atNormalWorkState?relay; Banked call to: addCommon_atNormalWorkState
        MOV     A,R1
        XRL     A,#0x1
        JZ      $+5
        LJMP    ??addSceneSelector_isrPort2_0 & 0xFFFF
//  952 	{
//  953 		//#pragma vector = P2INT_VECTOR    
//  954 		//__interrupt void P2_ISR(void) 
//  955 		{
//  956 			if ((P2IFG & 0x01) == 0x01) // P2_0 interrupt
        MOV     A,0x8b
        MOV     C,0xE0 /* A   */.0
        JC      $+5
        LJMP    ??addSceneSelector_isrPort2_1 & 0xFFFF
//  957 			{
//  958 				if ((acInterruptTriggerEdgePort2 == AC_INTERRUPT_TRIGGER_EDGE_FALL) && 
//  959 					(ADD_SCENESELECTOR_APT8L08_TP_INT == 0))
        MOV     DPTR,#acInterruptTriggerEdgePort2
        MOVX    A,@DPTR
        JZ      $+5
        LJMP    ??addSceneSelector_isrPort2_2 & 0xFFFF
        MOV     C,0xa0.0
        JNC     $+5
        LJMP    ??addSceneSelector_isrPort2_2 & 0xFFFF
//  960 				{
//  961 					MicroWait(10000);
        ; Setup parameters for call to function Onboard_wait
        MOV     R2,#0x10
        MOV     R3,#0x27
        LCALL   ??Onboard_wait?relay ; Banked call to: Onboard_wait
//  962 					if ((acInterruptTriggerEdgePort2 == AC_INTERRUPT_TRIGGER_EDGE_FALL) && 
//  963 						(ADD_SCENESELECTOR_APT8L08_TP_INT == 0))
        MOV     DPTR,#acInterruptTriggerEdgePort2
        MOVX    A,@DPTR
        JZ      $+5
        LJMP    ??addSceneSelector_isrPort2_1 & 0xFFFF
        MOV     C,0xa0.0
        JNC     $+5
        LJMP    ??addSceneSelector_isrPort2_1 & 0xFFFF
//  964 					{
//  965 						aSceneSelectorApt8l08_16bitKeyMap_saved = 0;
        MOV     DPTR,#aSceneSelectorApt8l08_16bitKeyMap_saved
        CLR     A
        MOVX    @DPTR,A
        INC     DPTR
        MOVX    @DPTR,A
//  966 						aSceneSelectorApt8l08_16bitKeyMap = 
//  967 							addSceneSelector_APT8L08_I2C_readByte(ADD_SCENESELECTOR_APT8L08_REGISTER_ADDRESS_KVR1) * 256 
//  968 							+ addSceneSelector_APT8L08_I2C_readByte(ADD_SCENESELECTOR_APT8L08_REGISTER_ADDRESS_KVR0);
        ; Setup parameters for call to function addSceneSelector_APT8L08_I2C_readByte
        MOV     R1,#0x35
        LCALL   ??addSceneSelector_APT8L08_I2C_readByte?relay; Banked call to: addSceneSelector_APT8L08_I2C_readByte
        MOV     A,R1
        MOV     R6,A
        MOV     R7,A
        ; Setup parameters for call to function addSceneSelector_APT8L08_I2C_readByte
        MOV     R1,#0x34
        LCALL   ??addSceneSelector_APT8L08_I2C_readByte?relay; Banked call to: addSceneSelector_APT8L08_I2C_readByte
        LCALL   ?Subroutine3 & 0xFFFF
//  969 
//  970 						if (aSceneSelectorApt8l08_16bitKeyMap & ADD_SCENESELECTOR_APT8L08_TOUCHKEY_SCENE1)
??CrossCallReturnLabel_48:
        LCALL   ?Subroutine6 & 0xFFFF
??CrossCallReturnLabel_30:
        JZ      ??addSceneSelector_isrPort2_3
//  971 						{
//  972 							aSceneSelectorKeyScene1 = addCommon_handleKeyDown();
        ; Setup parameters for call to function addCommon_handleKeyDown
        LCALL   ??addCommon_handleKeyDown?relay; Banked call to: addCommon_handleKeyDown
        MOV     A,R1
        MOV     DPTR,#aSceneSelectorKeyScene1
        SJMP    ??addSceneSelector_isrPort2_4
//  973 						} else if (aSceneSelectorApt8l08_16bitKeyMap & ADD_SCENESELECTOR_APT8L08_TOUCHKEY_SCENE2)
??addSceneSelector_isrPort2_3:
        LCALL   ?Subroutine7 & 0xFFFF
??CrossCallReturnLabel_27:
        JZ      ??addSceneSelector_isrPort2_5
//  974 						{
//  975 							aSceneSelectorKeyScene2 = addCommon_handleKeyDown();
        ; Setup parameters for call to function addCommon_handleKeyDown
        LCALL   ??addCommon_handleKeyDown?relay; Banked call to: addCommon_handleKeyDown
        MOV     A,R1
        MOV     DPTR,#aSceneSelectorKeyScene2
        SJMP    ??addSceneSelector_isrPort2_4
//  976 						} else if (aSceneSelectorApt8l08_16bitKeyMap & ADD_SCENESELECTOR_APT8L08_TOUCHKEY_SCENE3)
??addSceneSelector_isrPort2_5:
        LCALL   ?Subroutine8 & 0xFFFF
??CrossCallReturnLabel_24:
        JZ      ??addSceneSelector_isrPort2_6
//  977 						{
//  978 							aSceneSelectorKeyScene3 = addCommon_handleKeyDown();
        ; Setup parameters for call to function addCommon_handleKeyDown
        LCALL   ??addCommon_handleKeyDown?relay; Banked call to: addCommon_handleKeyDown
        MOV     A,R1
        MOV     DPTR,#aSceneSelectorKeyScene3
        SJMP    ??addSceneSelector_isrPort2_4
//  979 						} else if (aSceneSelectorApt8l08_16bitKeyMap & ADD_SCENESELECTOR_APT8L08_TOUCHKEY_SCENE4)
??addSceneSelector_isrPort2_6:
        LCALL   ?Subroutine9 & 0xFFFF
??CrossCallReturnLabel_21:
        JZ      ??addSceneSelector_isrPort2_7
//  980 						{
//  981 							aSceneSelectorKeyScene4 = addCommon_handleKeyDown();
        ; Setup parameters for call to function addCommon_handleKeyDown
        LCALL   ??addCommon_handleKeyDown?relay; Banked call to: addCommon_handleKeyDown
        MOV     A,R1
        MOV     DPTR,#aSceneSelectorKeyScene4
        SJMP    ??addSceneSelector_isrPort2_4
//  982 						} else if (aSceneSelectorApt8l08_16bitKeyMap & ADD_SCENESELECTOR_APT8L08_TOUCHKEY_DIMMINGUP)
??addSceneSelector_isrPort2_7:
        LCALL   ?Subroutine10 & 0xFFFF
??CrossCallReturnLabel_18:
        JZ      ??addSceneSelector_isrPort2_8
//  983 						{
//  984 							aSceneSelectorKeyDimmingUp = addCommon_handleKeyDown();
        ; Setup parameters for call to function addCommon_handleKeyDown
        LCALL   ??addCommon_handleKeyDown?relay; Banked call to: addCommon_handleKeyDown
        MOV     A,R1
        MOV     DPTR,#aSceneSelectorKeyDimmingUp
        SJMP    ??addSceneSelector_isrPort2_4
//  985 						} else if (aSceneSelectorApt8l08_16bitKeyMap & ADD_SCENESELECTOR_APT8L08_TOUCHKEY_DIMMINGDOWN)
??addSceneSelector_isrPort2_8:
        LCALL   ?Subroutine11 & 0xFFFF
??CrossCallReturnLabel_15:
        JZ      ??addSceneSelector_isrPort2_9
//  986 						{
//  987 							aSceneSelectorKeyDimmingDown = addCommon_handleKeyDown();
        ; Setup parameters for call to function addCommon_handleKeyDown
        LCALL   ??addCommon_handleKeyDown?relay; Banked call to: addCommon_handleKeyDown
        MOV     A,R1
        MOV     DPTR,#aSceneSelectorKeyDimmingDown
??addSceneSelector_isrPort2_4:
        MOVX    @DPTR,A
//  988 						}						
//  989 						P2IFG &= ~0x01; // clear interrupt flag
??addSceneSelector_isrPort2_9:
        ANL     0x8b,#0xfe
//  990 						P2IF = 0;
        CLR     0xe8.0
//  991 						EA = 0;
        CLR     0xa8.7
//  992 						PICTL &= ~0x08;
        ANL     0x8c,#0xf7
//  993 						acInterruptTriggerEdgePort2 = AC_INTERRUPT_TRIGGER_EDGE_RISE;
        MOV     DPTR,#acInterruptTriggerEdgePort2
        MOV     A,#0x1
        LJMP    ??addSceneSelector_isrPort2_10 & 0xFFFF
//  994 						EA = 1;
//  995 					}
//  996 				} else if ((acInterruptTriggerEdgePort2 == AC_INTERRUPT_TRIGGER_EDGE_RISE) && 
//  997 					(ADD_SCENESELECTOR_APT8L08_TP_INT == 1))//抬起后的中断处理，计算时间
??addSceneSelector_isrPort2_2:
        MOVX    A,@DPTR
        XRL     A,#0x1
        JZ      $+5
        LJMP    ??addSceneSelector_isrPort2_1 & 0xFFFF
        MOV     C,0xa0.0
        JC      $+5
        LJMP    ??addSceneSelector_isrPort2_1 & 0xFFFF
//  998 				{
//  999 					MicroWait(10000);
        ; Setup parameters for call to function Onboard_wait
        MOV     R2,#0x10
        MOV     R3,#0x27
        LCALL   ??Onboard_wait?relay ; Banked call to: Onboard_wait
// 1000 					if ((acInterruptTriggerEdgePort2 == AC_INTERRUPT_TRIGGER_EDGE_RISE) && 
// 1001 						(ADD_SCENESELECTOR_APT8L08_TP_INT == 1))
        MOV     DPTR,#acInterruptTriggerEdgePort2
        MOVX    A,@DPTR
        XRL     A,#0x1
        JZ      $+5
        LJMP    ??addSceneSelector_isrPort2_1 & 0xFFFF
        MOV     C,0xa0.0
        JC      $+5
        LJMP    ??addSceneSelector_isrPort2_1 & 0xFFFF
// 1002 					{
// 1003 						aSceneSelectorApt8l08_16bitKeyMap_saved = aSceneSelectorApt8l08_16bitKeyMap;
        MOV     DPTR,#aSceneSelectorApt8l08_16bitKeyMap
        LCALL   ??Subroutine23_0 & 0xFFFF
??CrossCallReturnLabel_38:
        MOV     DPTR,#aSceneSelectorApt8l08_16bitKeyMap_saved
        LCALL   ??Subroutine24_0 & 0xFFFF
// 1004 						aSceneSelectorApt8l08_16bitKeyMap = 
// 1005 							addSceneSelector_APT8L08_I2C_readByte(ADD_SCENESELECTOR_APT8L08_REGISTER_ADDRESS_KVR1) * 256 
// 1006 							+ addSceneSelector_APT8L08_I2C_readByte(ADD_SCENESELECTOR_APT8L08_REGISTER_ADDRESS_KVR0);
??CrossCallReturnLabel_43:
        ; Setup parameters for call to function addSceneSelector_APT8L08_I2C_readByte
        MOV     R1,#0x35
        LCALL   ??addSceneSelector_APT8L08_I2C_readByte?relay; Banked call to: addSceneSelector_APT8L08_I2C_readByte
        MOV     A,R1
        MOV     R6,A
        MOV     R7,A
        ; Setup parameters for call to function addSceneSelector_APT8L08_I2C_readByte
        MOV     R1,#0x34
        LCALL   ??addSceneSelector_APT8L08_I2C_readByte?relay; Banked call to: addSceneSelector_APT8L08_I2C_readByte
        LCALL   ?Subroutine3 & 0xFFFF
// 1007 						
// 1008 						osal_stop_timerEx(*acPointer_TaskID, AC_EVENT_DEVICE_KEY_TIMING);
??CrossCallReturnLabel_49:
        ; Setup parameters for call to function osal_stop_timerEx
        MOV     R2,#0x0
        MOV     R3,#0x8
        LCALL   ??Subroutine15_0 & 0xFFFF
??CrossCallReturnLabel_8:
        LCALL   ??osal_stop_timerEx?relay; Banked call to: osal_stop_timerEx
// 1009 
// 1010 						// factory reset
// 1011 						if (aSceneSelectorFactoryReset == ADD_SCENESELECTOR_FACTORYRESET_KEYDOWN_10S)
        MOV     DPTR,#aSceneSelectorFactoryReset
        MOVX    A,@DPTR
        XRL     A,#0x2
        JZ      ??addSceneSelector_isrPort2_11
// 1012 						{
// 1013 							osal_set_event(*acPointer_TaskID, AC_EVENT_HANDLE_ONE_TIME);
// 1014 						} else if (aSceneSelectorFactoryReset == ADD_SCENESELECTOR_FACTORYRESET_KEYDOWN_5S)
        MOVX    A,@DPTR
        XRL     A,#0x1
        JNZ     ??addSceneSelector_isrPort2_12
// 1015 						{
// 1016 							addSceneSelector_clearKeyData();
        ; Setup parameters for call to function addSceneSelector_clearKeyData
        LCALL   ??addSceneSelector_clearKeyData?relay; Banked call to: addSceneSelector_clearKeyData
// 1017 							acDoubleClickCounter_whenKeyUp = 0;
        MOV     DPTR,#acDoubleClickCounter_whenKeyUp
        CLR     A
        MOVX    @DPTR,A
// 1018 							aSceneSelectorFactoryReset = ADD_SCENESELECTOR_FACTORYRESET_KEYNORMAL;
        MOV     DPTR,#aSceneSelectorFactoryReset
        LJMP    ??addSceneSelector_isrPort2_13 & 0xFFFF
// 1019 							// no operation
// 1020 						}
// 1021 
// 1022 						else // wakeup
// 1023 
// 1024 						if (aSceneSelectorWakeup == ADD_SCENESELECTOR_WAKEUP_KEYDOWN_10S)
??addSceneSelector_isrPort2_12:
        MOV     DPTR,#aSceneSelectorWakeup
        MOVX    A,@DPTR
        XRL     A,#0x2
        JNZ     ??addSceneSelector_isrPort2_14
// 1025 						{
// 1026 							osal_set_event(*acPointer_TaskID, AC_EVENT_HANDLE_ONE_TIME);
??addSceneSelector_isrPort2_11:
        ; Setup parameters for call to function osal_set_event
        LJMP    ??addSceneSelector_isrPort2_15 & 0xFFFF
// 1027 						} else if (aSceneSelectorWakeup == ADD_SCENESELECTOR_WAKEUP_KEYDOWN_5S)
??addSceneSelector_isrPort2_14:
        MOVX    A,@DPTR
        XRL     A,#0x1
        JNZ     ??addSceneSelector_isrPort2_16
// 1028 						{
// 1029 							addSceneSelector_clearKeyData();
        ; Setup parameters for call to function addSceneSelector_clearKeyData
        LCALL   ??addSceneSelector_clearKeyData?relay; Banked call to: addSceneSelector_clearKeyData
// 1030 							acDoubleClickCounter_whenKeyUp = 0;
        MOV     DPTR,#acDoubleClickCounter_whenKeyUp
        CLR     A
        MOVX    @DPTR,A
// 1031 							aSceneSelectorWakeup = ADD_SCENESELECTOR_WAKEUP_KEYNORMAL;
        MOV     DPTR,#aSceneSelectorWakeup
        LJMP    ??addSceneSelector_isrPort2_13 & 0xFFFF
// 1032 							// no operation
// 1033 						}
// 1034 
// 1035 						else // key0
// 1036 
// 1037 						if ((aSceneSelectorApt8l08_16bitKeyMap_saved & ADD_SCENESELECTOR_APT8L08_TOUCHKEY_SCENE1)
// 1038 							&& (!(aSceneSelectorApt8l08_16bitKeyMap & ADD_SCENESELECTOR_APT8L08_TOUCHKEY_SCENE1)))
??addSceneSelector_isrPort2_16:
        MOV     DPTR,#aSceneSelectorApt8l08_16bitKeyMap_saved
        LCALL   ??Subroutine21_0 & 0xFFFF
??CrossCallReturnLabel_29:
        JZ      ??addSceneSelector_isrPort2_17
        LCALL   ?Subroutine6 & 0xFFFF
??CrossCallReturnLabel_31:
        JNZ     ??addSceneSelector_isrPort2_17
// 1039 						{
// 1040 							aSceneSelectorKeyScene1 = addCommon_handleKeyUp();
        ; Setup parameters for call to function addCommon_handleKeyUp
        LCALL   ??addCommon_handleKeyUp?relay; Banked call to: addCommon_handleKeyUp
        MOV     A,R1
        MOV     DPTR,#aSceneSelectorKeyScene1
        LCALL   ?Subroutine4 & 0xFFFF
// 1041 							if (aSceneSelectorKeyScene1 == AC_KEY_UP_BELOW_600MS)
??CrossCallReturnLabel_0:
        JNZ     ??addSceneSelector_isrPort2_18
// 1042 							{
// 1043 								if (acDoubleClickCheckFlag == TRUE)
        MOV     DPTR,#acDoubleClickCheckFlag
        MOVX    A,@DPTR
        XRL     A,#0x1
        MOV     DPTR,#aSceneSelectorKeyScene1
        LJMP    ??addSceneSelector_isrPort2_19 & 0xFFFF
        ; Setup parameters for call to function osal_set_event
// 1044 								{
// 1045 									aSceneSelectorKeyScene1 = AC_KEY_UP_600MS_TO_1S;
// 1046 									acDoubleClickCounter_whenKeyUp++;
// 1047 								} else 
// 1048 								{
// 1049 									aSceneSelectorKeyScene1 = AC_KEY_UP_600MS_TO_1S;
// 1050 									osal_set_event(*acPointer_TaskID, AC_EVENT_HANDLE_ONE_TIME);
// 1051 								}
// 1052 							} else 
// 1053 							{
// 1054 								osal_set_event(*acPointer_TaskID, AC_EVENT_HANDLE_ONE_TIME);
??addSceneSelector_isrPort2_18:
        ; Setup parameters for call to function osal_set_event
        LJMP    ??addSceneSelector_isrPort2_15 & 0xFFFF
// 1055 							}
// 1056 						} 
// 1057 
// 1058 						else // key1
// 1059 
// 1060 						if ((aSceneSelectorApt8l08_16bitKeyMap_saved & ADD_SCENESELECTOR_APT8L08_TOUCHKEY_SCENE2)
// 1061 							&& (!(aSceneSelectorApt8l08_16bitKeyMap & ADD_SCENESELECTOR_APT8L08_TOUCHKEY_SCENE2)))
??addSceneSelector_isrPort2_17:
        MOV     DPTR,#aSceneSelectorApt8l08_16bitKeyMap_saved
        LCALL   ??Subroutine20_0 & 0xFFFF
??CrossCallReturnLabel_26:
        JZ      ??addSceneSelector_isrPort2_20
        LCALL   ?Subroutine7 & 0xFFFF
??CrossCallReturnLabel_28:
        JNZ     ??addSceneSelector_isrPort2_20
// 1062 						{
// 1063 							aSceneSelectorKeyScene2 = addCommon_handleKeyUp();
        ; Setup parameters for call to function addCommon_handleKeyUp
        LCALL   ??addCommon_handleKeyUp?relay; Banked call to: addCommon_handleKeyUp
        MOV     A,R1
        MOV     DPTR,#aSceneSelectorKeyScene2
        LCALL   ?Subroutine4 & 0xFFFF
// 1064 							if (aSceneSelectorKeyScene2 == AC_KEY_UP_BELOW_600MS)
??CrossCallReturnLabel_1:
        JNZ     ??addSceneSelector_isrPort2_21
// 1065 							{
// 1066 								if (acDoubleClickCheckFlag == TRUE)
        MOV     DPTR,#acDoubleClickCheckFlag
        MOVX    A,@DPTR
        XRL     A,#0x1
        MOV     DPTR,#aSceneSelectorKeyScene2
        SJMP    ??addSceneSelector_isrPort2_19
        ; Setup parameters for call to function osal_set_event
// 1067 								{
// 1068 									aSceneSelectorKeyScene2 = AC_KEY_UP_600MS_TO_1S;
// 1069 									acDoubleClickCounter_whenKeyUp++;
// 1070 								} else 
// 1071 								{
// 1072 									aSceneSelectorKeyScene2 = AC_KEY_UP_600MS_TO_1S;
// 1073 									osal_set_event(*acPointer_TaskID, AC_EVENT_HANDLE_ONE_TIME);
// 1074 								}
// 1075 							} else 
// 1076 							{
// 1077 								osal_set_event(*acPointer_TaskID, AC_EVENT_HANDLE_ONE_TIME);
??addSceneSelector_isrPort2_21:
        ; Setup parameters for call to function osal_set_event
        LJMP    ??addSceneSelector_isrPort2_15 & 0xFFFF
// 1078 							}
// 1079 						} 
// 1080 
// 1081 						else // key2
// 1082 
// 1083 						if ((aSceneSelectorApt8l08_16bitKeyMap_saved & ADD_SCENESELECTOR_APT8L08_TOUCHKEY_SCENE3)
// 1084 							&& (!(aSceneSelectorApt8l08_16bitKeyMap & ADD_SCENESELECTOR_APT8L08_TOUCHKEY_SCENE3)))
??addSceneSelector_isrPort2_20:
        MOV     DPTR,#aSceneSelectorApt8l08_16bitKeyMap_saved
        LCALL   ??Subroutine19_0 & 0xFFFF
??CrossCallReturnLabel_23:
        JZ      ??addSceneSelector_isrPort2_22
        LCALL   ?Subroutine8 & 0xFFFF
??CrossCallReturnLabel_25:
        JNZ     ??addSceneSelector_isrPort2_22
// 1085 						{
// 1086 							aSceneSelectorKeyScene3 = addCommon_handleKeyUp();
        ; Setup parameters for call to function addCommon_handleKeyUp
        LCALL   ??addCommon_handleKeyUp?relay; Banked call to: addCommon_handleKeyUp
        MOV     A,R1
        MOV     DPTR,#aSceneSelectorKeyScene3
        LCALL   ?Subroutine4 & 0xFFFF
// 1087 							if (aSceneSelectorKeyScene3 == AC_KEY_UP_BELOW_600MS)
??CrossCallReturnLabel_2:
        JNZ     ??addSceneSelector_isrPort2_23
// 1088 							{
// 1089 								if (acDoubleClickCheckFlag == TRUE)
        MOV     DPTR,#acDoubleClickCheckFlag
        MOVX    A,@DPTR
        XRL     A,#0x1
        MOV     DPTR,#aSceneSelectorKeyScene3
        SJMP    ??addSceneSelector_isrPort2_19
        ; Setup parameters for call to function osal_set_event
// 1090 								{
// 1091 									aSceneSelectorKeyScene3 = AC_KEY_UP_600MS_TO_1S;
// 1092 									acDoubleClickCounter_whenKeyUp++;
// 1093 								} else 
// 1094 								{
// 1095 									aSceneSelectorKeyScene3 = AC_KEY_UP_600MS_TO_1S;
// 1096 									osal_set_event(*acPointer_TaskID, AC_EVENT_HANDLE_ONE_TIME);
// 1097 								}
// 1098 							} else 
// 1099 							{
// 1100 								osal_set_event(*acPointer_TaskID, AC_EVENT_HANDLE_ONE_TIME);
??addSceneSelector_isrPort2_23:
        ; Setup parameters for call to function osal_set_event
        SJMP    ??addSceneSelector_isrPort2_15
// 1101 							}
// 1102 						} 
// 1103 
// 1104 						else // key3
// 1105 
// 1106 						if ((aSceneSelectorApt8l08_16bitKeyMap_saved & ADD_SCENESELECTOR_APT8L08_TOUCHKEY_SCENE4)
// 1107 							&& (!(aSceneSelectorApt8l08_16bitKeyMap & ADD_SCENESELECTOR_APT8L08_TOUCHKEY_SCENE4)))
??addSceneSelector_isrPort2_22:
        MOV     DPTR,#aSceneSelectorApt8l08_16bitKeyMap_saved
        LCALL   ??Subroutine18_0 & 0xFFFF
??CrossCallReturnLabel_20:
        JZ      ??addSceneSelector_isrPort2_24
        LCALL   ?Subroutine9 & 0xFFFF
??CrossCallReturnLabel_22:
        JNZ     ??addSceneSelector_isrPort2_24
// 1108 						{
// 1109 							aSceneSelectorKeyScene4 = addCommon_handleKeyUp();
        ; Setup parameters for call to function addCommon_handleKeyUp
        LCALL   ??addCommon_handleKeyUp?relay; Banked call to: addCommon_handleKeyUp
        MOV     A,R1
        MOV     DPTR,#aSceneSelectorKeyScene4
        LCALL   ?Subroutine4 & 0xFFFF
// 1110 							if (aSceneSelectorKeyScene4 == AC_KEY_UP_BELOW_600MS)
??CrossCallReturnLabel_3:
        JNZ     ??addSceneSelector_isrPort2_15
// 1111 							{
// 1112 								if (acDoubleClickCheckFlag == TRUE)
        MOV     DPTR,#acDoubleClickCheckFlag
        MOVX    A,@DPTR
        XRL     A,#0x1
        MOV     DPTR,#aSceneSelectorKeyScene4
        SJMP    ??addSceneSelector_isrPort2_19
        ; Setup parameters for call to function osal_set_event
// 1113 								{
// 1114 									aSceneSelectorKeyScene4 = AC_KEY_UP_600MS_TO_1S;
// 1115 									acDoubleClickCounter_whenKeyUp++;
// 1116 								} else 
// 1117 								{
// 1118 									aSceneSelectorKeyScene4 = AC_KEY_UP_600MS_TO_1S;
// 1119 									osal_set_event(*acPointer_TaskID, AC_EVENT_HANDLE_ONE_TIME);
// 1120 								}
// 1121 							} else 
// 1122 							{
// 1123 								osal_set_event(*acPointer_TaskID, AC_EVENT_HANDLE_ONE_TIME);
// 1124 							}
// 1125 						} 
// 1126 
// 1127 						else // keyDimmingUp
// 1128 
// 1129 						if ((aSceneSelectorApt8l08_16bitKeyMap_saved & ADD_SCENESELECTOR_APT8L08_TOUCHKEY_DIMMINGUP)
// 1130 							&& (!(aSceneSelectorApt8l08_16bitKeyMap & ADD_SCENESELECTOR_APT8L08_TOUCHKEY_DIMMINGUP)))
??addSceneSelector_isrPort2_24:
        MOV     DPTR,#aSceneSelectorApt8l08_16bitKeyMap_saved
        LCALL   ??Subroutine17_0 & 0xFFFF
??CrossCallReturnLabel_17:
        JZ      ??addSceneSelector_isrPort2_25
        LCALL   ?Subroutine10 & 0xFFFF
??CrossCallReturnLabel_19:
        JNZ     ??addSceneSelector_isrPort2_25
// 1131 						{
// 1132 							aSceneSelectorKeyDimmingUp = addCommon_handleKeyUp();
        ; Setup parameters for call to function addCommon_handleKeyUp
        LCALL   ??addCommon_handleKeyUp?relay; Banked call to: addCommon_handleKeyUp
        MOV     A,R1
        MOV     DPTR,#aSceneSelectorKeyDimmingUp
        LCALL   ?Subroutine4 & 0xFFFF
// 1133 							if (aSceneSelectorKeyDimmingUp == AC_KEY_UP_BELOW_600MS)
??CrossCallReturnLabel_4:
        JNZ     ??addSceneSelector_isrPort2_15
// 1134 							{
// 1135 								if (acDoubleClickCheckFlag == TRUE)
        MOV     DPTR,#acDoubleClickCheckFlag
        MOVX    A,@DPTR
        XRL     A,#0x1
        MOV     DPTR,#aSceneSelectorKeyDimmingUp
??addSceneSelector_isrPort2_19:
        JZ      ??addSceneSelector_isrPort2_26
// 1136 								{
// 1137 									aSceneSelectorKeyDimmingUp = AC_KEY_UP_600MS_TO_1S;
// 1138 									acDoubleClickCounter_whenKeyUp++;
// 1139 								} else 
// 1140 								{
// 1141 									aSceneSelectorKeyDimmingUp = AC_KEY_UP_600MS_TO_1S;
        SJMP    ??addSceneSelector_isrPort2_27
        ; Setup parameters for call to function osal_set_event
// 1142 									osal_set_event(*acPointer_TaskID, AC_EVENT_HANDLE_ONE_TIME);
// 1143 								}
// 1144 							} else 
// 1145 							{
// 1146 								osal_set_event(*acPointer_TaskID, AC_EVENT_HANDLE_ONE_TIME);
// 1147 							}
// 1148 						} 
// 1149 
// 1150 						else // keyDimmingDown
// 1151 
// 1152 						if ((aSceneSelectorApt8l08_16bitKeyMap_saved & ADD_SCENESELECTOR_APT8L08_TOUCHKEY_DIMMINGDOWN)
// 1153 							&& (!(aSceneSelectorApt8l08_16bitKeyMap & ADD_SCENESELECTOR_APT8L08_TOUCHKEY_DIMMINGDOWN)))
??addSceneSelector_isrPort2_25:
        MOV     DPTR,#aSceneSelectorApt8l08_16bitKeyMap_saved
        LCALL   ??Subroutine16_0 & 0xFFFF
??CrossCallReturnLabel_14:
        JZ      ??addSceneSelector_isrPort2_28
        LCALL   ?Subroutine11 & 0xFFFF
??CrossCallReturnLabel_16:
        JNZ     ??addSceneSelector_isrPort2_28
// 1154 						{
// 1155 							aSceneSelectorKeyDimmingDown = addCommon_handleKeyUp();
        ; Setup parameters for call to function addCommon_handleKeyUp
        LCALL   ??addCommon_handleKeyUp?relay; Banked call to: addCommon_handleKeyUp
        MOV     A,R1
        MOV     DPTR,#aSceneSelectorKeyDimmingDown
        LCALL   ?Subroutine4 & 0xFFFF
// 1156 							if (aSceneSelectorKeyDimmingDown == AC_KEY_UP_BELOW_600MS)
??CrossCallReturnLabel_5:
        JNZ     ??addSceneSelector_isrPort2_15
// 1157 							{
// 1158 								if (acDoubleClickCheckFlag == TRUE)
        MOV     DPTR,#acDoubleClickCheckFlag
        MOVX    A,@DPTR
        XRL     A,#0x1
        MOV     DPTR,#aSceneSelectorKeyDimmingDown
        JNZ     ??addSceneSelector_isrPort2_27
// 1159 								{
// 1160 									aSceneSelectorKeyDimmingDown = AC_KEY_UP_600MS_TO_1S;
??addSceneSelector_isrPort2_26:
        MOV     A,#0x3
        MOVX    @DPTR,A
// 1161 									acDoubleClickCounter_whenKeyUp++;
        MOV     DPTR,#acDoubleClickCounter_whenKeyUp
        MOVX    A,@DPTR
        INC     A
??addSceneSelector_isrPort2_13:
        MOVX    @DPTR,A
        SJMP    ??addSceneSelector_isrPort2_28
// 1162 								} else 
// 1163 								{
// 1164 									aSceneSelectorKeyDimmingDown = AC_KEY_UP_600MS_TO_1S;
??addSceneSelector_isrPort2_27:
        MOV     A,#0x3
        MOVX    @DPTR,A
// 1165 									osal_set_event(*acPointer_TaskID, AC_EVENT_HANDLE_ONE_TIME);
        ; Setup parameters for call to function osal_set_event
// 1166 								}
// 1167 							} else 
// 1168 							{
// 1169 								osal_set_event(*acPointer_TaskID, AC_EVENT_HANDLE_ONE_TIME);
??addSceneSelector_isrPort2_15:
        ; Setup parameters for call to function osal_set_event
        MOV     R2,#0x0
        MOV     R3,#0x2
        LCALL   ??Subroutine15_0 & 0xFFFF
// 1170 							}
// 1171 						}						
??CrossCallReturnLabel_9:
        LCALL   ??osal_set_event?relay; Banked call to: osal_set_event
// 1172 						P2IFG &= ~0x01; // clear interrupt flag
??addSceneSelector_isrPort2_28:
        ANL     0x8b,#0xfe
// 1173 						P2IF = 0;
        CLR     0xe8.0
// 1174 						EA = 0;
        CLR     0xa8.7
// 1175 						PICTL |= 0x08;
        ORL     0x8c,#0x8
// 1176 						acInterruptTriggerEdgePort2 = AC_INTERRUPT_TRIGGER_EDGE_FALL;
        MOV     DPTR,#acInterruptTriggerEdgePort2
        CLR     A
??addSceneSelector_isrPort2_10:
        MOVX    @DPTR,A
// 1177 						EA = 1;
        SETB    0xa8.7
        SJMP    ??addSceneSelector_isrPort2_1
// 1178 					}
// 1179 				}
// 1180 			}
// 1181 		} 
// 1182 	} else 
// 1183 	{
// 1184 		P2IFG &= ~0x01; // clear interrupt flag
??addSceneSelector_isrPort2_0:
        ANL     0x8b,#0xfe
// 1185 		P2IF = 0;
        CLR     0xe8.0
// 1186 	}	
// 1187 	
// 1188 	IEN2 |= 0x02; // port2 interrupt enable
??addSceneSelector_isrPort2_1:
        ORL     0x9a,#0x2
// 1189 
// 1190 #else
// 1191 #endif
// 1192 }
        LJMP    ?Subroutine1 & 0xFFFF
          CFI EndBlock cfiBlock20
        REQUIRE IEN2
        REQUIRE P2IFG
        REQUIRE _A_P2
        REQUIRE _A_IRCON2
        REQUIRE _A_IEN0
        REQUIRE PICTL

        RSEG BANKED_CODE:CODE:NOROOT(0)
?Subroutine11:
          CFI Block cfiCond21 Using cfiCommon0
          CFI Function addSceneSelector_isrPort2
          CFI Conditional ??CrossCallReturnLabel_15
          CFI R6 load(1, XDATA, add(CFA_XSP16, literal(-9)))
          CFI VB load(1, XDATA, add(CFA_XSP16, literal(-8)))
          CFI V0 load(1, XDATA, add(CFA_XSP16, literal(-7)))
          CFI R7 load(1, XDATA, add(CFA_XSP16, literal(-6)))
          CFI ?RET_LOW load(1, XDATA, add(CFA_XSP16, literal(-5)))
          CFI ?RET_HIGH load(1, XDATA, add(CFA_XSP16, literal(-4)))
          CFI ?BRET_EXT load(1, XDATA, add(CFA_XSP16, literal(-3)))
          CFI DPL0 load(1, XDATA, add(CFA_XSP16, literal(-2)))
          CFI DPH0 load(1, XDATA, add(CFA_XSP16, literal(-1)))
          CFI CFA_SP SP+-2
          CFI CFA_XSP16 add(XSP16, 9)
          CFI Block cfiCond22 Using cfiCommon0
          CFI (cfiCond22) Function addSceneSelector_isrPort2
          CFI (cfiCond22) Conditional ??CrossCallReturnLabel_16
          CFI (cfiCond22) R6 load(1, XDATA, add(CFA_XSP16, literal(-9)))
          CFI (cfiCond22) VB load(1, XDATA, add(CFA_XSP16, literal(-8)))
          CFI (cfiCond22) V0 load(1, XDATA, add(CFA_XSP16, literal(-7)))
          CFI (cfiCond22) R7 load(1, XDATA, add(CFA_XSP16, literal(-6)))
          CFI (cfiCond22) ?RET_LOW load(1, XDATA, add(CFA_XSP16, literal(-5)))
          CFI (cfiCond22) ?RET_HIGH load(1, XDATA, add(CFA_XSP16, literal(-4)))
          CFI (cfiCond22) ?BRET_EXT load(1, XDATA, add(CFA_XSP16, literal(-3)))
          CFI (cfiCond22) DPL0 load(1, XDATA, add(CFA_XSP16, literal(-2)))
          CFI (cfiCond22) DPH0 load(1, XDATA, add(CFA_XSP16, literal(-1)))
          CFI (cfiCond22) CFA_SP SP+-2
          CFI (cfiCond22) CFA_XSP16 add(XSP16, 9)
          CFI Block cfiPicker23 Using cfiCommon1
          CFI (cfiPicker23) NoFunction
          CFI (cfiPicker23) Picker
        MOV     DPTR,#aSceneSelectorApt8l08_16bitKeyMap
          CFI EndBlock cfiCond21
          CFI EndBlock cfiCond22
          CFI EndBlock cfiPicker23
        REQUIRE ??Subroutine16_0
        ; // Fall through to label ??Subroutine16_0

        RSEG BANKED_CODE:CODE:NOROOT(0)
??Subroutine16_0:
          CFI Block cfiCond24 Using cfiCommon0
          CFI Function addSceneSelector_isrPort2
          CFI Conditional ??CrossCallReturnLabel_14
          CFI R6 load(1, XDATA, add(CFA_XSP16, literal(-9)))
          CFI VB load(1, XDATA, add(CFA_XSP16, literal(-8)))
          CFI V0 load(1, XDATA, add(CFA_XSP16, literal(-7)))
          CFI R7 load(1, XDATA, add(CFA_XSP16, literal(-6)))
          CFI ?RET_LOW load(1, XDATA, add(CFA_XSP16, literal(-5)))
          CFI ?RET_HIGH load(1, XDATA, add(CFA_XSP16, literal(-4)))
          CFI ?BRET_EXT load(1, XDATA, add(CFA_XSP16, literal(-3)))
          CFI DPL0 load(1, XDATA, add(CFA_XSP16, literal(-2)))
          CFI DPH0 load(1, XDATA, add(CFA_XSP16, literal(-1)))
          CFI CFA_SP SP+-2
          CFI CFA_XSP16 add(XSP16, 9)
          CFI Block cfiCond25 Using cfiCommon0
          CFI (cfiCond25) Function addSceneSelector_isrPort2
          CFI (cfiCond25) Conditional ??CrossCallReturnLabel_15
          CFI (cfiCond25) R6 load(1, XDATA, add(CFA_XSP16, literal(-9)))
          CFI (cfiCond25) VB load(1, XDATA, add(CFA_XSP16, literal(-8)))
          CFI (cfiCond25) V0 load(1, XDATA, add(CFA_XSP16, literal(-7)))
          CFI (cfiCond25) R7 load(1, XDATA, add(CFA_XSP16, literal(-6)))
          CFI (cfiCond25) ?RET_LOW load(1, XDATA, add(CFA_XSP16, literal(-5)))
          CFI (cfiCond25) ?RET_HIGH load(1, XDATA, add(CFA_XSP16, literal(-4)))
          CFI (cfiCond25) ?BRET_EXT load(1, XDATA, add(CFA_XSP16, literal(-3)))
          CFI (cfiCond25) DPL0 load(1, XDATA, add(CFA_XSP16, literal(-2)))
          CFI (cfiCond25) DPH0 load(1, XDATA, add(CFA_XSP16, literal(-1)))
          CFI (cfiCond25) CFA_SP SP+-2
          CFI (cfiCond25) CFA_XSP16 add(XSP16, 9)
          CFI Block cfiCond26 Using cfiCommon0
          CFI (cfiCond26) Function addSceneSelector_isrPort2
          CFI (cfiCond26) Conditional ??CrossCallReturnLabel_16
          CFI (cfiCond26) R6 load(1, XDATA, add(CFA_XSP16, literal(-9)))
          CFI (cfiCond26) VB load(1, XDATA, add(CFA_XSP16, literal(-8)))
          CFI (cfiCond26) V0 load(1, XDATA, add(CFA_XSP16, literal(-7)))
          CFI (cfiCond26) R7 load(1, XDATA, add(CFA_XSP16, literal(-6)))
          CFI (cfiCond26) ?RET_LOW load(1, XDATA, add(CFA_XSP16, literal(-5)))
          CFI (cfiCond26) ?RET_HIGH load(1, XDATA, add(CFA_XSP16, literal(-4)))
          CFI (cfiCond26) ?BRET_EXT load(1, XDATA, add(CFA_XSP16, literal(-3)))
          CFI (cfiCond26) DPL0 load(1, XDATA, add(CFA_XSP16, literal(-2)))
          CFI (cfiCond26) DPH0 load(1, XDATA, add(CFA_XSP16, literal(-1)))
          CFI (cfiCond26) CFA_SP SP+-2
          CFI (cfiCond26) CFA_XSP16 add(XSP16, 9)
          CFI Block cfiPicker27 Using cfiCommon1
          CFI (cfiPicker27) NoFunction
          CFI (cfiPicker27) Picker
        LCALL   ?Subroutine14 & 0xFFFF
??CrossCallReturnLabel_32:
        ANL     A,#0x80
        RET
          CFI EndBlock cfiCond24
          CFI EndBlock cfiCond25
          CFI EndBlock cfiCond26
          CFI EndBlock cfiPicker27

        RSEG BANKED_CODE:CODE:NOROOT(0)
?Subroutine10:
          CFI Block cfiCond28 Using cfiCommon0
          CFI Function addSceneSelector_isrPort2
          CFI Conditional ??CrossCallReturnLabel_18
          CFI R6 load(1, XDATA, add(CFA_XSP16, literal(-9)))
          CFI VB load(1, XDATA, add(CFA_XSP16, literal(-8)))
          CFI V0 load(1, XDATA, add(CFA_XSP16, literal(-7)))
          CFI R7 load(1, XDATA, add(CFA_XSP16, literal(-6)))
          CFI ?RET_LOW load(1, XDATA, add(CFA_XSP16, literal(-5)))
          CFI ?RET_HIGH load(1, XDATA, add(CFA_XSP16, literal(-4)))
          CFI ?BRET_EXT load(1, XDATA, add(CFA_XSP16, literal(-3)))
          CFI DPL0 load(1, XDATA, add(CFA_XSP16, literal(-2)))
          CFI DPH0 load(1, XDATA, add(CFA_XSP16, literal(-1)))
          CFI CFA_SP SP+-2
          CFI CFA_XSP16 add(XSP16, 9)
          CFI Block cfiCond29 Using cfiCommon0
          CFI (cfiCond29) Function addSceneSelector_isrPort2
          CFI (cfiCond29) Conditional ??CrossCallReturnLabel_19
          CFI (cfiCond29) R6 load(1, XDATA, add(CFA_XSP16, literal(-9)))
          CFI (cfiCond29) VB load(1, XDATA, add(CFA_XSP16, literal(-8)))
          CFI (cfiCond29) V0 load(1, XDATA, add(CFA_XSP16, literal(-7)))
          CFI (cfiCond29) R7 load(1, XDATA, add(CFA_XSP16, literal(-6)))
          CFI (cfiCond29) ?RET_LOW load(1, XDATA, add(CFA_XSP16, literal(-5)))
          CFI (cfiCond29) ?RET_HIGH load(1, XDATA, add(CFA_XSP16, literal(-4)))
          CFI (cfiCond29) ?BRET_EXT load(1, XDATA, add(CFA_XSP16, literal(-3)))
          CFI (cfiCond29) DPL0 load(1, XDATA, add(CFA_XSP16, literal(-2)))
          CFI (cfiCond29) DPH0 load(1, XDATA, add(CFA_XSP16, literal(-1)))
          CFI (cfiCond29) CFA_SP SP+-2
          CFI (cfiCond29) CFA_XSP16 add(XSP16, 9)
          CFI Block cfiPicker30 Using cfiCommon1
          CFI (cfiPicker30) NoFunction
          CFI (cfiPicker30) Picker
        MOV     DPTR,#aSceneSelectorApt8l08_16bitKeyMap
          CFI EndBlock cfiCond28
          CFI EndBlock cfiCond29
          CFI EndBlock cfiPicker30
        REQUIRE ??Subroutine17_0
        ; // Fall through to label ??Subroutine17_0

        RSEG BANKED_CODE:CODE:NOROOT(0)
??Subroutine17_0:
          CFI Block cfiCond31 Using cfiCommon0
          CFI Function addSceneSelector_isrPort2
          CFI Conditional ??CrossCallReturnLabel_17
          CFI R6 load(1, XDATA, add(CFA_XSP16, literal(-9)))
          CFI VB load(1, XDATA, add(CFA_XSP16, literal(-8)))
          CFI V0 load(1, XDATA, add(CFA_XSP16, literal(-7)))
          CFI R7 load(1, XDATA, add(CFA_XSP16, literal(-6)))
          CFI ?RET_LOW load(1, XDATA, add(CFA_XSP16, literal(-5)))
          CFI ?RET_HIGH load(1, XDATA, add(CFA_XSP16, literal(-4)))
          CFI ?BRET_EXT load(1, XDATA, add(CFA_XSP16, literal(-3)))
          CFI DPL0 load(1, XDATA, add(CFA_XSP16, literal(-2)))
          CFI DPH0 load(1, XDATA, add(CFA_XSP16, literal(-1)))
          CFI CFA_SP SP+-2
          CFI CFA_XSP16 add(XSP16, 9)
          CFI Block cfiCond32 Using cfiCommon0
          CFI (cfiCond32) Function addSceneSelector_isrPort2
          CFI (cfiCond32) Conditional ??CrossCallReturnLabel_18
          CFI (cfiCond32) R6 load(1, XDATA, add(CFA_XSP16, literal(-9)))
          CFI (cfiCond32) VB load(1, XDATA, add(CFA_XSP16, literal(-8)))
          CFI (cfiCond32) V0 load(1, XDATA, add(CFA_XSP16, literal(-7)))
          CFI (cfiCond32) R7 load(1, XDATA, add(CFA_XSP16, literal(-6)))
          CFI (cfiCond32) ?RET_LOW load(1, XDATA, add(CFA_XSP16, literal(-5)))
          CFI (cfiCond32) ?RET_HIGH load(1, XDATA, add(CFA_XSP16, literal(-4)))
          CFI (cfiCond32) ?BRET_EXT load(1, XDATA, add(CFA_XSP16, literal(-3)))
          CFI (cfiCond32) DPL0 load(1, XDATA, add(CFA_XSP16, literal(-2)))
          CFI (cfiCond32) DPH0 load(1, XDATA, add(CFA_XSP16, literal(-1)))
          CFI (cfiCond32) CFA_SP SP+-2
          CFI (cfiCond32) CFA_XSP16 add(XSP16, 9)
          CFI Block cfiCond33 Using cfiCommon0
          CFI (cfiCond33) Function addSceneSelector_isrPort2
          CFI (cfiCond33) Conditional ??CrossCallReturnLabel_19
          CFI (cfiCond33) R6 load(1, XDATA, add(CFA_XSP16, literal(-9)))
          CFI (cfiCond33) VB load(1, XDATA, add(CFA_XSP16, literal(-8)))
          CFI (cfiCond33) V0 load(1, XDATA, add(CFA_XSP16, literal(-7)))
          CFI (cfiCond33) R7 load(1, XDATA, add(CFA_XSP16, literal(-6)))
          CFI (cfiCond33) ?RET_LOW load(1, XDATA, add(CFA_XSP16, literal(-5)))
          CFI (cfiCond33) ?RET_HIGH load(1, XDATA, add(CFA_XSP16, literal(-4)))
          CFI (cfiCond33) ?BRET_EXT load(1, XDATA, add(CFA_XSP16, literal(-3)))
          CFI (cfiCond33) DPL0 load(1, XDATA, add(CFA_XSP16, literal(-2)))
          CFI (cfiCond33) DPH0 load(1, XDATA, add(CFA_XSP16, literal(-1)))
          CFI (cfiCond33) CFA_SP SP+-2
          CFI (cfiCond33) CFA_XSP16 add(XSP16, 9)
          CFI Block cfiPicker34 Using cfiCommon1
          CFI (cfiPicker34) NoFunction
          CFI (cfiPicker34) Picker
        LCALL   ?Subroutine14 & 0xFFFF
??CrossCallReturnLabel_33:
        ANL     A,#0x10
        RET
          CFI EndBlock cfiCond31
          CFI EndBlock cfiCond32
          CFI EndBlock cfiCond33
          CFI EndBlock cfiPicker34

        RSEG BANKED_CODE:CODE:NOROOT(0)
?Subroutine9:
          CFI Block cfiCond35 Using cfiCommon0
          CFI Function addSceneSelector_isrPort2
          CFI Conditional ??CrossCallReturnLabel_21
          CFI R6 load(1, XDATA, add(CFA_XSP16, literal(-9)))
          CFI VB load(1, XDATA, add(CFA_XSP16, literal(-8)))
          CFI V0 load(1, XDATA, add(CFA_XSP16, literal(-7)))
          CFI R7 load(1, XDATA, add(CFA_XSP16, literal(-6)))
          CFI ?RET_LOW load(1, XDATA, add(CFA_XSP16, literal(-5)))
          CFI ?RET_HIGH load(1, XDATA, add(CFA_XSP16, literal(-4)))
          CFI ?BRET_EXT load(1, XDATA, add(CFA_XSP16, literal(-3)))
          CFI DPL0 load(1, XDATA, add(CFA_XSP16, literal(-2)))
          CFI DPH0 load(1, XDATA, add(CFA_XSP16, literal(-1)))
          CFI CFA_SP SP+-2
          CFI CFA_XSP16 add(XSP16, 9)
          CFI Block cfiCond36 Using cfiCommon0
          CFI (cfiCond36) Function addSceneSelector_isrPort2
          CFI (cfiCond36) Conditional ??CrossCallReturnLabel_22
          CFI (cfiCond36) R6 load(1, XDATA, add(CFA_XSP16, literal(-9)))
          CFI (cfiCond36) VB load(1, XDATA, add(CFA_XSP16, literal(-8)))
          CFI (cfiCond36) V0 load(1, XDATA, add(CFA_XSP16, literal(-7)))
          CFI (cfiCond36) R7 load(1, XDATA, add(CFA_XSP16, literal(-6)))
          CFI (cfiCond36) ?RET_LOW load(1, XDATA, add(CFA_XSP16, literal(-5)))
          CFI (cfiCond36) ?RET_HIGH load(1, XDATA, add(CFA_XSP16, literal(-4)))
          CFI (cfiCond36) ?BRET_EXT load(1, XDATA, add(CFA_XSP16, literal(-3)))
          CFI (cfiCond36) DPL0 load(1, XDATA, add(CFA_XSP16, literal(-2)))
          CFI (cfiCond36) DPH0 load(1, XDATA, add(CFA_XSP16, literal(-1)))
          CFI (cfiCond36) CFA_SP SP+-2
          CFI (cfiCond36) CFA_XSP16 add(XSP16, 9)
          CFI Block cfiPicker37 Using cfiCommon1
          CFI (cfiPicker37) NoFunction
          CFI (cfiPicker37) Picker
        MOV     DPTR,#aSceneSelectorApt8l08_16bitKeyMap
          CFI EndBlock cfiCond35
          CFI EndBlock cfiCond36
          CFI EndBlock cfiPicker37
        REQUIRE ??Subroutine18_0
        ; // Fall through to label ??Subroutine18_0

        RSEG BANKED_CODE:CODE:NOROOT(0)
??Subroutine18_0:
          CFI Block cfiCond38 Using cfiCommon0
          CFI Function addSceneSelector_isrPort2
          CFI Conditional ??CrossCallReturnLabel_20
          CFI R6 load(1, XDATA, add(CFA_XSP16, literal(-9)))
          CFI VB load(1, XDATA, add(CFA_XSP16, literal(-8)))
          CFI V0 load(1, XDATA, add(CFA_XSP16, literal(-7)))
          CFI R7 load(1, XDATA, add(CFA_XSP16, literal(-6)))
          CFI ?RET_LOW load(1, XDATA, add(CFA_XSP16, literal(-5)))
          CFI ?RET_HIGH load(1, XDATA, add(CFA_XSP16, literal(-4)))
          CFI ?BRET_EXT load(1, XDATA, add(CFA_XSP16, literal(-3)))
          CFI DPL0 load(1, XDATA, add(CFA_XSP16, literal(-2)))
          CFI DPH0 load(1, XDATA, add(CFA_XSP16, literal(-1)))
          CFI CFA_SP SP+-2
          CFI CFA_XSP16 add(XSP16, 9)
          CFI Block cfiCond39 Using cfiCommon0
          CFI (cfiCond39) Function addSceneSelector_isrPort2
          CFI (cfiCond39) Conditional ??CrossCallReturnLabel_21
          CFI (cfiCond39) R6 load(1, XDATA, add(CFA_XSP16, literal(-9)))
          CFI (cfiCond39) VB load(1, XDATA, add(CFA_XSP16, literal(-8)))
          CFI (cfiCond39) V0 load(1, XDATA, add(CFA_XSP16, literal(-7)))
          CFI (cfiCond39) R7 load(1, XDATA, add(CFA_XSP16, literal(-6)))
          CFI (cfiCond39) ?RET_LOW load(1, XDATA, add(CFA_XSP16, literal(-5)))
          CFI (cfiCond39) ?RET_HIGH load(1, XDATA, add(CFA_XSP16, literal(-4)))
          CFI (cfiCond39) ?BRET_EXT load(1, XDATA, add(CFA_XSP16, literal(-3)))
          CFI (cfiCond39) DPL0 load(1, XDATA, add(CFA_XSP16, literal(-2)))
          CFI (cfiCond39) DPH0 load(1, XDATA, add(CFA_XSP16, literal(-1)))
          CFI (cfiCond39) CFA_SP SP+-2
          CFI (cfiCond39) CFA_XSP16 add(XSP16, 9)
          CFI Block cfiCond40 Using cfiCommon0
          CFI (cfiCond40) Function addSceneSelector_isrPort2
          CFI (cfiCond40) Conditional ??CrossCallReturnLabel_22
          CFI (cfiCond40) R6 load(1, XDATA, add(CFA_XSP16, literal(-9)))
          CFI (cfiCond40) VB load(1, XDATA, add(CFA_XSP16, literal(-8)))
          CFI (cfiCond40) V0 load(1, XDATA, add(CFA_XSP16, literal(-7)))
          CFI (cfiCond40) R7 load(1, XDATA, add(CFA_XSP16, literal(-6)))
          CFI (cfiCond40) ?RET_LOW load(1, XDATA, add(CFA_XSP16, literal(-5)))
          CFI (cfiCond40) ?RET_HIGH load(1, XDATA, add(CFA_XSP16, literal(-4)))
          CFI (cfiCond40) ?BRET_EXT load(1, XDATA, add(CFA_XSP16, literal(-3)))
          CFI (cfiCond40) DPL0 load(1, XDATA, add(CFA_XSP16, literal(-2)))
          CFI (cfiCond40) DPH0 load(1, XDATA, add(CFA_XSP16, literal(-1)))
          CFI (cfiCond40) CFA_SP SP+-2
          CFI (cfiCond40) CFA_XSP16 add(XSP16, 9)
          CFI Block cfiPicker41 Using cfiCommon1
          CFI (cfiPicker41) NoFunction
          CFI (cfiPicker41) Picker
        LCALL   ?Subroutine14 & 0xFFFF
??CrossCallReturnLabel_34:
        ANL     A,#0x40
        RET
          CFI EndBlock cfiCond38
          CFI EndBlock cfiCond39
          CFI EndBlock cfiCond40
          CFI EndBlock cfiPicker41

        RSEG BANKED_CODE:CODE:NOROOT(0)
?Subroutine8:
          CFI Block cfiCond42 Using cfiCommon0
          CFI Function addSceneSelector_isrPort2
          CFI Conditional ??CrossCallReturnLabel_24
          CFI R6 load(1, XDATA, add(CFA_XSP16, literal(-9)))
          CFI VB load(1, XDATA, add(CFA_XSP16, literal(-8)))
          CFI V0 load(1, XDATA, add(CFA_XSP16, literal(-7)))
          CFI R7 load(1, XDATA, add(CFA_XSP16, literal(-6)))
          CFI ?RET_LOW load(1, XDATA, add(CFA_XSP16, literal(-5)))
          CFI ?RET_HIGH load(1, XDATA, add(CFA_XSP16, literal(-4)))
          CFI ?BRET_EXT load(1, XDATA, add(CFA_XSP16, literal(-3)))
          CFI DPL0 load(1, XDATA, add(CFA_XSP16, literal(-2)))
          CFI DPH0 load(1, XDATA, add(CFA_XSP16, literal(-1)))
          CFI CFA_SP SP+-2
          CFI CFA_XSP16 add(XSP16, 9)
          CFI Block cfiCond43 Using cfiCommon0
          CFI (cfiCond43) Function addSceneSelector_isrPort2
          CFI (cfiCond43) Conditional ??CrossCallReturnLabel_25
          CFI (cfiCond43) R6 load(1, XDATA, add(CFA_XSP16, literal(-9)))
          CFI (cfiCond43) VB load(1, XDATA, add(CFA_XSP16, literal(-8)))
          CFI (cfiCond43) V0 load(1, XDATA, add(CFA_XSP16, literal(-7)))
          CFI (cfiCond43) R7 load(1, XDATA, add(CFA_XSP16, literal(-6)))
          CFI (cfiCond43) ?RET_LOW load(1, XDATA, add(CFA_XSP16, literal(-5)))
          CFI (cfiCond43) ?RET_HIGH load(1, XDATA, add(CFA_XSP16, literal(-4)))
          CFI (cfiCond43) ?BRET_EXT load(1, XDATA, add(CFA_XSP16, literal(-3)))
          CFI (cfiCond43) DPL0 load(1, XDATA, add(CFA_XSP16, literal(-2)))
          CFI (cfiCond43) DPH0 load(1, XDATA, add(CFA_XSP16, literal(-1)))
          CFI (cfiCond43) CFA_SP SP+-2
          CFI (cfiCond43) CFA_XSP16 add(XSP16, 9)
          CFI Block cfiPicker44 Using cfiCommon1
          CFI (cfiPicker44) NoFunction
          CFI (cfiPicker44) Picker
        MOV     DPTR,#aSceneSelectorApt8l08_16bitKeyMap
          CFI EndBlock cfiCond42
          CFI EndBlock cfiCond43
          CFI EndBlock cfiPicker44
        REQUIRE ??Subroutine19_0
        ; // Fall through to label ??Subroutine19_0

        RSEG BANKED_CODE:CODE:NOROOT(0)
??Subroutine19_0:
          CFI Block cfiCond45 Using cfiCommon0
          CFI Function addSceneSelector_isrPort2
          CFI Conditional ??CrossCallReturnLabel_23
          CFI R6 load(1, XDATA, add(CFA_XSP16, literal(-9)))
          CFI VB load(1, XDATA, add(CFA_XSP16, literal(-8)))
          CFI V0 load(1, XDATA, add(CFA_XSP16, literal(-7)))
          CFI R7 load(1, XDATA, add(CFA_XSP16, literal(-6)))
          CFI ?RET_LOW load(1, XDATA, add(CFA_XSP16, literal(-5)))
          CFI ?RET_HIGH load(1, XDATA, add(CFA_XSP16, literal(-4)))
          CFI ?BRET_EXT load(1, XDATA, add(CFA_XSP16, literal(-3)))
          CFI DPL0 load(1, XDATA, add(CFA_XSP16, literal(-2)))
          CFI DPH0 load(1, XDATA, add(CFA_XSP16, literal(-1)))
          CFI CFA_SP SP+-2
          CFI CFA_XSP16 add(XSP16, 9)
          CFI Block cfiCond46 Using cfiCommon0
          CFI (cfiCond46) Function addSceneSelector_isrPort2
          CFI (cfiCond46) Conditional ??CrossCallReturnLabel_24
          CFI (cfiCond46) R6 load(1, XDATA, add(CFA_XSP16, literal(-9)))
          CFI (cfiCond46) VB load(1, XDATA, add(CFA_XSP16, literal(-8)))
          CFI (cfiCond46) V0 load(1, XDATA, add(CFA_XSP16, literal(-7)))
          CFI (cfiCond46) R7 load(1, XDATA, add(CFA_XSP16, literal(-6)))
          CFI (cfiCond46) ?RET_LOW load(1, XDATA, add(CFA_XSP16, literal(-5)))
          CFI (cfiCond46) ?RET_HIGH load(1, XDATA, add(CFA_XSP16, literal(-4)))
          CFI (cfiCond46) ?BRET_EXT load(1, XDATA, add(CFA_XSP16, literal(-3)))
          CFI (cfiCond46) DPL0 load(1, XDATA, add(CFA_XSP16, literal(-2)))
          CFI (cfiCond46) DPH0 load(1, XDATA, add(CFA_XSP16, literal(-1)))
          CFI (cfiCond46) CFA_SP SP+-2
          CFI (cfiCond46) CFA_XSP16 add(XSP16, 9)
          CFI Block cfiCond47 Using cfiCommon0
          CFI (cfiCond47) Function addSceneSelector_isrPort2
          CFI (cfiCond47) Conditional ??CrossCallReturnLabel_25
          CFI (cfiCond47) R6 load(1, XDATA, add(CFA_XSP16, literal(-9)))
          CFI (cfiCond47) VB load(1, XDATA, add(CFA_XSP16, literal(-8)))
          CFI (cfiCond47) V0 load(1, XDATA, add(CFA_XSP16, literal(-7)))
          CFI (cfiCond47) R7 load(1, XDATA, add(CFA_XSP16, literal(-6)))
          CFI (cfiCond47) ?RET_LOW load(1, XDATA, add(CFA_XSP16, literal(-5)))
          CFI (cfiCond47) ?RET_HIGH load(1, XDATA, add(CFA_XSP16, literal(-4)))
          CFI (cfiCond47) ?BRET_EXT load(1, XDATA, add(CFA_XSP16, literal(-3)))
          CFI (cfiCond47) DPL0 load(1, XDATA, add(CFA_XSP16, literal(-2)))
          CFI (cfiCond47) DPH0 load(1, XDATA, add(CFA_XSP16, literal(-1)))
          CFI (cfiCond47) CFA_SP SP+-2
          CFI (cfiCond47) CFA_XSP16 add(XSP16, 9)
          CFI Block cfiPicker48 Using cfiCommon1
          CFI (cfiPicker48) NoFunction
          CFI (cfiPicker48) Picker
        LCALL   ?Subroutine14 & 0xFFFF
??CrossCallReturnLabel_35:
        ANL     A,#0x8
        RET
          CFI EndBlock cfiCond45
          CFI EndBlock cfiCond46
          CFI EndBlock cfiCond47
          CFI EndBlock cfiPicker48

        RSEG BANKED_CODE:CODE:NOROOT(0)
?Subroutine14:
          CFI Block cfiCond49 Using cfiCommon0
          CFI Function addSceneSelector_isrPort2
          CFI Conditional ??CrossCallReturnLabel_32, ??CrossCallReturnLabel_15
          CFI R6 load(1, XDATA, add(CFA_XSP16, literal(-9)))
          CFI VB load(1, XDATA, add(CFA_XSP16, literal(-8)))
          CFI V0 load(1, XDATA, add(CFA_XSP16, literal(-7)))
          CFI R7 load(1, XDATA, add(CFA_XSP16, literal(-6)))
          CFI ?RET_LOW load(1, XDATA, add(CFA_XSP16, literal(-5)))
          CFI ?RET_HIGH load(1, XDATA, add(CFA_XSP16, literal(-4)))
          CFI ?BRET_EXT load(1, XDATA, add(CFA_XSP16, literal(-3)))
          CFI DPL0 load(1, XDATA, add(CFA_XSP16, literal(-2)))
          CFI DPH0 load(1, XDATA, add(CFA_XSP16, literal(-1)))
          CFI CFA_SP SP+-4
          CFI CFA_XSP16 add(XSP16, 9)
          CFI Block cfiCond50 Using cfiCommon0
          CFI (cfiCond50) Function addSceneSelector_isrPort2
          CFI (cfiCond50) Conditional ??CrossCallReturnLabel_32, ??CrossCallReturnLabel_16
          CFI (cfiCond50) R6 load(1, XDATA, add(CFA_XSP16, literal(-9)))
          CFI (cfiCond50) VB load(1, XDATA, add(CFA_XSP16, literal(-8)))
          CFI (cfiCond50) V0 load(1, XDATA, add(CFA_XSP16, literal(-7)))
          CFI (cfiCond50) R7 load(1, XDATA, add(CFA_XSP16, literal(-6)))
          CFI (cfiCond50) ?RET_LOW load(1, XDATA, add(CFA_XSP16, literal(-5)))
          CFI (cfiCond50) ?RET_HIGH load(1, XDATA, add(CFA_XSP16, literal(-4)))
          CFI (cfiCond50) ?BRET_EXT load(1, XDATA, add(CFA_XSP16, literal(-3)))
          CFI (cfiCond50) DPL0 load(1, XDATA, add(CFA_XSP16, literal(-2)))
          CFI (cfiCond50) DPH0 load(1, XDATA, add(CFA_XSP16, literal(-1)))
          CFI (cfiCond50) CFA_SP SP+-4
          CFI (cfiCond50) CFA_XSP16 add(XSP16, 9)
          CFI Block cfiCond51 Using cfiCommon0
          CFI (cfiCond51) Function addSceneSelector_isrPort2
          CFI (cfiCond51) Conditional ??CrossCallReturnLabel_32, ??CrossCallReturnLabel_14
          CFI (cfiCond51) R6 load(1, XDATA, add(CFA_XSP16, literal(-9)))
          CFI (cfiCond51) VB load(1, XDATA, add(CFA_XSP16, literal(-8)))
          CFI (cfiCond51) V0 load(1, XDATA, add(CFA_XSP16, literal(-7)))
          CFI (cfiCond51) R7 load(1, XDATA, add(CFA_XSP16, literal(-6)))
          CFI (cfiCond51) ?RET_LOW load(1, XDATA, add(CFA_XSP16, literal(-5)))
          CFI (cfiCond51) ?RET_HIGH load(1, XDATA, add(CFA_XSP16, literal(-4)))
          CFI (cfiCond51) ?BRET_EXT load(1, XDATA, add(CFA_XSP16, literal(-3)))
          CFI (cfiCond51) DPL0 load(1, XDATA, add(CFA_XSP16, literal(-2)))
          CFI (cfiCond51) DPH0 load(1, XDATA, add(CFA_XSP16, literal(-1)))
          CFI (cfiCond51) CFA_SP SP+-4
          CFI (cfiCond51) CFA_XSP16 add(XSP16, 9)
          CFI Block cfiCond52 Using cfiCommon0
          CFI (cfiCond52) Function addSceneSelector_isrPort2
          CFI (cfiCond52) Conditional ??CrossCallReturnLabel_33, ??CrossCallReturnLabel_18
          CFI (cfiCond52) R6 load(1, XDATA, add(CFA_XSP16, literal(-9)))
          CFI (cfiCond52) VB load(1, XDATA, add(CFA_XSP16, literal(-8)))
          CFI (cfiCond52) V0 load(1, XDATA, add(CFA_XSP16, literal(-7)))
          CFI (cfiCond52) R7 load(1, XDATA, add(CFA_XSP16, literal(-6)))
          CFI (cfiCond52) ?RET_LOW load(1, XDATA, add(CFA_XSP16, literal(-5)))
          CFI (cfiCond52) ?RET_HIGH load(1, XDATA, add(CFA_XSP16, literal(-4)))
          CFI (cfiCond52) ?BRET_EXT load(1, XDATA, add(CFA_XSP16, literal(-3)))
          CFI (cfiCond52) DPL0 load(1, XDATA, add(CFA_XSP16, literal(-2)))
          CFI (cfiCond52) DPH0 load(1, XDATA, add(CFA_XSP16, literal(-1)))
          CFI (cfiCond52) CFA_SP SP+-4
          CFI (cfiCond52) CFA_XSP16 add(XSP16, 9)
          CFI Block cfiCond53 Using cfiCommon0
          CFI (cfiCond53) Function addSceneSelector_isrPort2
          CFI (cfiCond53) Conditional ??CrossCallReturnLabel_33, ??CrossCallReturnLabel_19
          CFI (cfiCond53) R6 load(1, XDATA, add(CFA_XSP16, literal(-9)))
          CFI (cfiCond53) VB load(1, XDATA, add(CFA_XSP16, literal(-8)))
          CFI (cfiCond53) V0 load(1, XDATA, add(CFA_XSP16, literal(-7)))
          CFI (cfiCond53) R7 load(1, XDATA, add(CFA_XSP16, literal(-6)))
          CFI (cfiCond53) ?RET_LOW load(1, XDATA, add(CFA_XSP16, literal(-5)))
          CFI (cfiCond53) ?RET_HIGH load(1, XDATA, add(CFA_XSP16, literal(-4)))
          CFI (cfiCond53) ?BRET_EXT load(1, XDATA, add(CFA_XSP16, literal(-3)))
          CFI (cfiCond53) DPL0 load(1, XDATA, add(CFA_XSP16, literal(-2)))
          CFI (cfiCond53) DPH0 load(1, XDATA, add(CFA_XSP16, literal(-1)))
          CFI (cfiCond53) CFA_SP SP+-4
          CFI (cfiCond53) CFA_XSP16 add(XSP16, 9)
          CFI Block cfiCond54 Using cfiCommon0
          CFI (cfiCond54) Function addSceneSelector_isrPort2
          CFI (cfiCond54) Conditional ??CrossCallReturnLabel_33, ??CrossCallReturnLabel_17
          CFI (cfiCond54) R6 load(1, XDATA, add(CFA_XSP16, literal(-9)))
          CFI (cfiCond54) VB load(1, XDATA, add(CFA_XSP16, literal(-8)))
          CFI (cfiCond54) V0 load(1, XDATA, add(CFA_XSP16, literal(-7)))
          CFI (cfiCond54) R7 load(1, XDATA, add(CFA_XSP16, literal(-6)))
          CFI (cfiCond54) ?RET_LOW load(1, XDATA, add(CFA_XSP16, literal(-5)))
          CFI (cfiCond54) ?RET_HIGH load(1, XDATA, add(CFA_XSP16, literal(-4)))
          CFI (cfiCond54) ?BRET_EXT load(1, XDATA, add(CFA_XSP16, literal(-3)))
          CFI (cfiCond54) DPL0 load(1, XDATA, add(CFA_XSP16, literal(-2)))
          CFI (cfiCond54) DPH0 load(1, XDATA, add(CFA_XSP16, literal(-1)))
          CFI (cfiCond54) CFA_SP SP+-4
          CFI (cfiCond54) CFA_XSP16 add(XSP16, 9)
          CFI Block cfiCond55 Using cfiCommon0
          CFI (cfiCond55) Function addSceneSelector_isrPort2
          CFI (cfiCond55) Conditional ??CrossCallReturnLabel_34, ??CrossCallReturnLabel_21
          CFI (cfiCond55) R6 load(1, XDATA, add(CFA_XSP16, literal(-9)))
          CFI (cfiCond55) VB load(1, XDATA, add(CFA_XSP16, literal(-8)))
          CFI (cfiCond55) V0 load(1, XDATA, add(CFA_XSP16, literal(-7)))
          CFI (cfiCond55) R7 load(1, XDATA, add(CFA_XSP16, literal(-6)))
          CFI (cfiCond55) ?RET_LOW load(1, XDATA, add(CFA_XSP16, literal(-5)))
          CFI (cfiCond55) ?RET_HIGH load(1, XDATA, add(CFA_XSP16, literal(-4)))
          CFI (cfiCond55) ?BRET_EXT load(1, XDATA, add(CFA_XSP16, literal(-3)))
          CFI (cfiCond55) DPL0 load(1, XDATA, add(CFA_XSP16, literal(-2)))
          CFI (cfiCond55) DPH0 load(1, XDATA, add(CFA_XSP16, literal(-1)))
          CFI (cfiCond55) CFA_SP SP+-4
          CFI (cfiCond55) CFA_XSP16 add(XSP16, 9)
          CFI Block cfiCond56 Using cfiCommon0
          CFI (cfiCond56) Function addSceneSelector_isrPort2
          CFI (cfiCond56) Conditional ??CrossCallReturnLabel_34, ??CrossCallReturnLabel_22
          CFI (cfiCond56) R6 load(1, XDATA, add(CFA_XSP16, literal(-9)))
          CFI (cfiCond56) VB load(1, XDATA, add(CFA_XSP16, literal(-8)))
          CFI (cfiCond56) V0 load(1, XDATA, add(CFA_XSP16, literal(-7)))
          CFI (cfiCond56) R7 load(1, XDATA, add(CFA_XSP16, literal(-6)))
          CFI (cfiCond56) ?RET_LOW load(1, XDATA, add(CFA_XSP16, literal(-5)))
          CFI (cfiCond56) ?RET_HIGH load(1, XDATA, add(CFA_XSP16, literal(-4)))
          CFI (cfiCond56) ?BRET_EXT load(1, XDATA, add(CFA_XSP16, literal(-3)))
          CFI (cfiCond56) DPL0 load(1, XDATA, add(CFA_XSP16, literal(-2)))
          CFI (cfiCond56) DPH0 load(1, XDATA, add(CFA_XSP16, literal(-1)))
          CFI (cfiCond56) CFA_SP SP+-4
          CFI (cfiCond56) CFA_XSP16 add(XSP16, 9)
          CFI Block cfiCond57 Using cfiCommon0
          CFI (cfiCond57) Function addSceneSelector_isrPort2
          CFI (cfiCond57) Conditional ??CrossCallReturnLabel_34, ??CrossCallReturnLabel_20
          CFI (cfiCond57) R6 load(1, XDATA, add(CFA_XSP16, literal(-9)))
          CFI (cfiCond57) VB load(1, XDATA, add(CFA_XSP16, literal(-8)))
          CFI (cfiCond57) V0 load(1, XDATA, add(CFA_XSP16, literal(-7)))
          CFI (cfiCond57) R7 load(1, XDATA, add(CFA_XSP16, literal(-6)))
          CFI (cfiCond57) ?RET_LOW load(1, XDATA, add(CFA_XSP16, literal(-5)))
          CFI (cfiCond57) ?RET_HIGH load(1, XDATA, add(CFA_XSP16, literal(-4)))
          CFI (cfiCond57) ?BRET_EXT load(1, XDATA, add(CFA_XSP16, literal(-3)))
          CFI (cfiCond57) DPL0 load(1, XDATA, add(CFA_XSP16, literal(-2)))
          CFI (cfiCond57) DPH0 load(1, XDATA, add(CFA_XSP16, literal(-1)))
          CFI (cfiCond57) CFA_SP SP+-4
          CFI (cfiCond57) CFA_XSP16 add(XSP16, 9)
          CFI Block cfiCond58 Using cfiCommon0
          CFI (cfiCond58) Function addSceneSelector_isrPort2
          CFI (cfiCond58) Conditional ??CrossCallReturnLabel_35, ??CrossCallReturnLabel_24
          CFI (cfiCond58) R6 load(1, XDATA, add(CFA_XSP16, literal(-9)))
          CFI (cfiCond58) VB load(1, XDATA, add(CFA_XSP16, literal(-8)))
          CFI (cfiCond58) V0 load(1, XDATA, add(CFA_XSP16, literal(-7)))
          CFI (cfiCond58) R7 load(1, XDATA, add(CFA_XSP16, literal(-6)))
          CFI (cfiCond58) ?RET_LOW load(1, XDATA, add(CFA_XSP16, literal(-5)))
          CFI (cfiCond58) ?RET_HIGH load(1, XDATA, add(CFA_XSP16, literal(-4)))
          CFI (cfiCond58) ?BRET_EXT load(1, XDATA, add(CFA_XSP16, literal(-3)))
          CFI (cfiCond58) DPL0 load(1, XDATA, add(CFA_XSP16, literal(-2)))
          CFI (cfiCond58) DPH0 load(1, XDATA, add(CFA_XSP16, literal(-1)))
          CFI (cfiCond58) CFA_SP SP+-4
          CFI (cfiCond58) CFA_XSP16 add(XSP16, 9)
          CFI Block cfiCond59 Using cfiCommon0
          CFI (cfiCond59) Function addSceneSelector_isrPort2
          CFI (cfiCond59) Conditional ??CrossCallReturnLabel_35, ??CrossCallReturnLabel_25
          CFI (cfiCond59) R6 load(1, XDATA, add(CFA_XSP16, literal(-9)))
          CFI (cfiCond59) VB load(1, XDATA, add(CFA_XSP16, literal(-8)))
          CFI (cfiCond59) V0 load(1, XDATA, add(CFA_XSP16, literal(-7)))
          CFI (cfiCond59) R7 load(1, XDATA, add(CFA_XSP16, literal(-6)))
          CFI (cfiCond59) ?RET_LOW load(1, XDATA, add(CFA_XSP16, literal(-5)))
          CFI (cfiCond59) ?RET_HIGH load(1, XDATA, add(CFA_XSP16, literal(-4)))
          CFI (cfiCond59) ?BRET_EXT load(1, XDATA, add(CFA_XSP16, literal(-3)))
          CFI (cfiCond59) DPL0 load(1, XDATA, add(CFA_XSP16, literal(-2)))
          CFI (cfiCond59) DPH0 load(1, XDATA, add(CFA_XSP16, literal(-1)))
          CFI (cfiCond59) CFA_SP SP+-4
          CFI (cfiCond59) CFA_XSP16 add(XSP16, 9)
          CFI Block cfiCond60 Using cfiCommon0
          CFI (cfiCond60) Function addSceneSelector_isrPort2
          CFI (cfiCond60) Conditional ??CrossCallReturnLabel_35, ??CrossCallReturnLabel_23
          CFI (cfiCond60) R6 load(1, XDATA, add(CFA_XSP16, literal(-9)))
          CFI (cfiCond60) VB load(1, XDATA, add(CFA_XSP16, literal(-8)))
          CFI (cfiCond60) V0 load(1, XDATA, add(CFA_XSP16, literal(-7)))
          CFI (cfiCond60) R7 load(1, XDATA, add(CFA_XSP16, literal(-6)))
          CFI (cfiCond60) ?RET_LOW load(1, XDATA, add(CFA_XSP16, literal(-5)))
          CFI (cfiCond60) ?RET_HIGH load(1, XDATA, add(CFA_XSP16, literal(-4)))
          CFI (cfiCond60) ?BRET_EXT load(1, XDATA, add(CFA_XSP16, literal(-3)))
          CFI (cfiCond60) DPL0 load(1, XDATA, add(CFA_XSP16, literal(-2)))
          CFI (cfiCond60) DPH0 load(1, XDATA, add(CFA_XSP16, literal(-1)))
          CFI (cfiCond60) CFA_SP SP+-4
          CFI (cfiCond60) CFA_XSP16 add(XSP16, 9)
          CFI Block cfiCond61 Using cfiCommon0
          CFI (cfiCond61) Function addSceneSelector_isrPort2
          CFI (cfiCond61) Conditional ??CrossCallReturnLabel_36, ??CrossCallReturnLabel_27
          CFI (cfiCond61) R6 load(1, XDATA, add(CFA_XSP16, literal(-9)))
          CFI (cfiCond61) VB load(1, XDATA, add(CFA_XSP16, literal(-8)))
          CFI (cfiCond61) V0 load(1, XDATA, add(CFA_XSP16, literal(-7)))
          CFI (cfiCond61) R7 load(1, XDATA, add(CFA_XSP16, literal(-6)))
          CFI (cfiCond61) ?RET_LOW load(1, XDATA, add(CFA_XSP16, literal(-5)))
          CFI (cfiCond61) ?RET_HIGH load(1, XDATA, add(CFA_XSP16, literal(-4)))
          CFI (cfiCond61) ?BRET_EXT load(1, XDATA, add(CFA_XSP16, literal(-3)))
          CFI (cfiCond61) DPL0 load(1, XDATA, add(CFA_XSP16, literal(-2)))
          CFI (cfiCond61) DPH0 load(1, XDATA, add(CFA_XSP16, literal(-1)))
          CFI (cfiCond61) CFA_SP SP+-4
          CFI (cfiCond61) CFA_XSP16 add(XSP16, 9)
          CFI Block cfiCond62 Using cfiCommon0
          CFI (cfiCond62) Function addSceneSelector_isrPort2
          CFI (cfiCond62) Conditional ??CrossCallReturnLabel_36, ??CrossCallReturnLabel_28
          CFI (cfiCond62) R6 load(1, XDATA, add(CFA_XSP16, literal(-9)))
          CFI (cfiCond62) VB load(1, XDATA, add(CFA_XSP16, literal(-8)))
          CFI (cfiCond62) V0 load(1, XDATA, add(CFA_XSP16, literal(-7)))
          CFI (cfiCond62) R7 load(1, XDATA, add(CFA_XSP16, literal(-6)))
          CFI (cfiCond62) ?RET_LOW load(1, XDATA, add(CFA_XSP16, literal(-5)))
          CFI (cfiCond62) ?RET_HIGH load(1, XDATA, add(CFA_XSP16, literal(-4)))
          CFI (cfiCond62) ?BRET_EXT load(1, XDATA, add(CFA_XSP16, literal(-3)))
          CFI (cfiCond62) DPL0 load(1, XDATA, add(CFA_XSP16, literal(-2)))
          CFI (cfiCond62) DPH0 load(1, XDATA, add(CFA_XSP16, literal(-1)))
          CFI (cfiCond62) CFA_SP SP+-4
          CFI (cfiCond62) CFA_XSP16 add(XSP16, 9)
          CFI Block cfiCond63 Using cfiCommon0
          CFI (cfiCond63) Function addSceneSelector_isrPort2
          CFI (cfiCond63) Conditional ??CrossCallReturnLabel_36, ??CrossCallReturnLabel_26
          CFI (cfiCond63) R6 load(1, XDATA, add(CFA_XSP16, literal(-9)))
          CFI (cfiCond63) VB load(1, XDATA, add(CFA_XSP16, literal(-8)))
          CFI (cfiCond63) V0 load(1, XDATA, add(CFA_XSP16, literal(-7)))
          CFI (cfiCond63) R7 load(1, XDATA, add(CFA_XSP16, literal(-6)))
          CFI (cfiCond63) ?RET_LOW load(1, XDATA, add(CFA_XSP16, literal(-5)))
          CFI (cfiCond63) ?RET_HIGH load(1, XDATA, add(CFA_XSP16, literal(-4)))
          CFI (cfiCond63) ?BRET_EXT load(1, XDATA, add(CFA_XSP16, literal(-3)))
          CFI (cfiCond63) DPL0 load(1, XDATA, add(CFA_XSP16, literal(-2)))
          CFI (cfiCond63) DPH0 load(1, XDATA, add(CFA_XSP16, literal(-1)))
          CFI (cfiCond63) CFA_SP SP+-4
          CFI (cfiCond63) CFA_XSP16 add(XSP16, 9)
          CFI Block cfiCond64 Using cfiCommon0
          CFI (cfiCond64) Function addSceneSelector_isrPort2
          CFI (cfiCond64) Conditional ??CrossCallReturnLabel_37, ??CrossCallReturnLabel_30
          CFI (cfiCond64) R6 load(1, XDATA, add(CFA_XSP16, literal(-9)))
          CFI (cfiCond64) VB load(1, XDATA, add(CFA_XSP16, literal(-8)))
          CFI (cfiCond64) V0 load(1, XDATA, add(CFA_XSP16, literal(-7)))
          CFI (cfiCond64) R7 load(1, XDATA, add(CFA_XSP16, literal(-6)))
          CFI (cfiCond64) ?RET_LOW load(1, XDATA, add(CFA_XSP16, literal(-5)))
          CFI (cfiCond64) ?RET_HIGH load(1, XDATA, add(CFA_XSP16, literal(-4)))
          CFI (cfiCond64) ?BRET_EXT load(1, XDATA, add(CFA_XSP16, literal(-3)))
          CFI (cfiCond64) DPL0 load(1, XDATA, add(CFA_XSP16, literal(-2)))
          CFI (cfiCond64) DPH0 load(1, XDATA, add(CFA_XSP16, literal(-1)))
          CFI (cfiCond64) CFA_SP SP+-4
          CFI (cfiCond64) CFA_XSP16 add(XSP16, 9)
          CFI Block cfiCond65 Using cfiCommon0
          CFI (cfiCond65) Function addSceneSelector_isrPort2
          CFI (cfiCond65) Conditional ??CrossCallReturnLabel_37, ??CrossCallReturnLabel_31
          CFI (cfiCond65) R6 load(1, XDATA, add(CFA_XSP16, literal(-9)))
          CFI (cfiCond65) VB load(1, XDATA, add(CFA_XSP16, literal(-8)))
          CFI (cfiCond65) V0 load(1, XDATA, add(CFA_XSP16, literal(-7)))
          CFI (cfiCond65) R7 load(1, XDATA, add(CFA_XSP16, literal(-6)))
          CFI (cfiCond65) ?RET_LOW load(1, XDATA, add(CFA_XSP16, literal(-5)))
          CFI (cfiCond65) ?RET_HIGH load(1, XDATA, add(CFA_XSP16, literal(-4)))
          CFI (cfiCond65) ?BRET_EXT load(1, XDATA, add(CFA_XSP16, literal(-3)))
          CFI (cfiCond65) DPL0 load(1, XDATA, add(CFA_XSP16, literal(-2)))
          CFI (cfiCond65) DPH0 load(1, XDATA, add(CFA_XSP16, literal(-1)))
          CFI (cfiCond65) CFA_SP SP+-4
          CFI (cfiCond65) CFA_XSP16 add(XSP16, 9)
          CFI Block cfiCond66 Using cfiCommon0
          CFI (cfiCond66) Function addSceneSelector_isrPort2
          CFI (cfiCond66) Conditional ??CrossCallReturnLabel_37, ??CrossCallReturnLabel_29
          CFI (cfiCond66) R6 load(1, XDATA, add(CFA_XSP16, literal(-9)))
          CFI (cfiCond66) VB load(1, XDATA, add(CFA_XSP16, literal(-8)))
          CFI (cfiCond66) V0 load(1, XDATA, add(CFA_XSP16, literal(-7)))
          CFI (cfiCond66) R7 load(1, XDATA, add(CFA_XSP16, literal(-6)))
          CFI (cfiCond66) ?RET_LOW load(1, XDATA, add(CFA_XSP16, literal(-5)))
          CFI (cfiCond66) ?RET_HIGH load(1, XDATA, add(CFA_XSP16, literal(-4)))
          CFI (cfiCond66) ?BRET_EXT load(1, XDATA, add(CFA_XSP16, literal(-3)))
          CFI (cfiCond66) DPL0 load(1, XDATA, add(CFA_XSP16, literal(-2)))
          CFI (cfiCond66) DPH0 load(1, XDATA, add(CFA_XSP16, literal(-1)))
          CFI (cfiCond66) CFA_SP SP+-4
          CFI (cfiCond66) CFA_XSP16 add(XSP16, 9)
          CFI Block cfiPicker67 Using cfiCommon1
          CFI (cfiPicker67) NoFunction
          CFI (cfiPicker67) Picker
        MOVX    A,@DPTR
        MOV     R0,A
        INC     DPTR
        MOVX    A,@DPTR
        MOV     A,R0
        RET
          CFI EndBlock cfiCond49
          CFI EndBlock cfiCond50
          CFI EndBlock cfiCond51
          CFI EndBlock cfiCond52
          CFI EndBlock cfiCond53
          CFI EndBlock cfiCond54
          CFI EndBlock cfiCond55
          CFI EndBlock cfiCond56
          CFI EndBlock cfiCond57
          CFI EndBlock cfiCond58
          CFI EndBlock cfiCond59
          CFI EndBlock cfiCond60
          CFI EndBlock cfiCond61
          CFI EndBlock cfiCond62
          CFI EndBlock cfiCond63
          CFI EndBlock cfiCond64
          CFI EndBlock cfiCond65
          CFI EndBlock cfiCond66
          CFI EndBlock cfiPicker67

        RSEG BANKED_CODE:CODE:NOROOT(0)
?Subroutine7:
          CFI Block cfiCond68 Using cfiCommon0
          CFI Function addSceneSelector_isrPort2
          CFI Conditional ??CrossCallReturnLabel_27
          CFI R6 load(1, XDATA, add(CFA_XSP16, literal(-9)))
          CFI VB load(1, XDATA, add(CFA_XSP16, literal(-8)))
          CFI V0 load(1, XDATA, add(CFA_XSP16, literal(-7)))
          CFI R7 load(1, XDATA, add(CFA_XSP16, literal(-6)))
          CFI ?RET_LOW load(1, XDATA, add(CFA_XSP16, literal(-5)))
          CFI ?RET_HIGH load(1, XDATA, add(CFA_XSP16, literal(-4)))
          CFI ?BRET_EXT load(1, XDATA, add(CFA_XSP16, literal(-3)))
          CFI DPL0 load(1, XDATA, add(CFA_XSP16, literal(-2)))
          CFI DPH0 load(1, XDATA, add(CFA_XSP16, literal(-1)))
          CFI CFA_SP SP+-2
          CFI CFA_XSP16 add(XSP16, 9)
          CFI Block cfiCond69 Using cfiCommon0
          CFI (cfiCond69) Function addSceneSelector_isrPort2
          CFI (cfiCond69) Conditional ??CrossCallReturnLabel_28
          CFI (cfiCond69) R6 load(1, XDATA, add(CFA_XSP16, literal(-9)))
          CFI (cfiCond69) VB load(1, XDATA, add(CFA_XSP16, literal(-8)))
          CFI (cfiCond69) V0 load(1, XDATA, add(CFA_XSP16, literal(-7)))
          CFI (cfiCond69) R7 load(1, XDATA, add(CFA_XSP16, literal(-6)))
          CFI (cfiCond69) ?RET_LOW load(1, XDATA, add(CFA_XSP16, literal(-5)))
          CFI (cfiCond69) ?RET_HIGH load(1, XDATA, add(CFA_XSP16, literal(-4)))
          CFI (cfiCond69) ?BRET_EXT load(1, XDATA, add(CFA_XSP16, literal(-3)))
          CFI (cfiCond69) DPL0 load(1, XDATA, add(CFA_XSP16, literal(-2)))
          CFI (cfiCond69) DPH0 load(1, XDATA, add(CFA_XSP16, literal(-1)))
          CFI (cfiCond69) CFA_SP SP+-2
          CFI (cfiCond69) CFA_XSP16 add(XSP16, 9)
          CFI Block cfiPicker70 Using cfiCommon1
          CFI (cfiPicker70) NoFunction
          CFI (cfiPicker70) Picker
        MOV     DPTR,#aSceneSelectorApt8l08_16bitKeyMap
          CFI EndBlock cfiCond68
          CFI EndBlock cfiCond69
          CFI EndBlock cfiPicker70
        REQUIRE ??Subroutine20_0
        ; // Fall through to label ??Subroutine20_0

        RSEG BANKED_CODE:CODE:NOROOT(0)
??Subroutine20_0:
          CFI Block cfiCond71 Using cfiCommon0
          CFI Function addSceneSelector_isrPort2
          CFI Conditional ??CrossCallReturnLabel_26
          CFI R6 load(1, XDATA, add(CFA_XSP16, literal(-9)))
          CFI VB load(1, XDATA, add(CFA_XSP16, literal(-8)))
          CFI V0 load(1, XDATA, add(CFA_XSP16, literal(-7)))
          CFI R7 load(1, XDATA, add(CFA_XSP16, literal(-6)))
          CFI ?RET_LOW load(1, XDATA, add(CFA_XSP16, literal(-5)))
          CFI ?RET_HIGH load(1, XDATA, add(CFA_XSP16, literal(-4)))
          CFI ?BRET_EXT load(1, XDATA, add(CFA_XSP16, literal(-3)))
          CFI DPL0 load(1, XDATA, add(CFA_XSP16, literal(-2)))
          CFI DPH0 load(1, XDATA, add(CFA_XSP16, literal(-1)))
          CFI CFA_SP SP+-2
          CFI CFA_XSP16 add(XSP16, 9)
          CFI Block cfiCond72 Using cfiCommon0
          CFI (cfiCond72) Function addSceneSelector_isrPort2
          CFI (cfiCond72) Conditional ??CrossCallReturnLabel_27
          CFI (cfiCond72) R6 load(1, XDATA, add(CFA_XSP16, literal(-9)))
          CFI (cfiCond72) VB load(1, XDATA, add(CFA_XSP16, literal(-8)))
          CFI (cfiCond72) V0 load(1, XDATA, add(CFA_XSP16, literal(-7)))
          CFI (cfiCond72) R7 load(1, XDATA, add(CFA_XSP16, literal(-6)))
          CFI (cfiCond72) ?RET_LOW load(1, XDATA, add(CFA_XSP16, literal(-5)))
          CFI (cfiCond72) ?RET_HIGH load(1, XDATA, add(CFA_XSP16, literal(-4)))
          CFI (cfiCond72) ?BRET_EXT load(1, XDATA, add(CFA_XSP16, literal(-3)))
          CFI (cfiCond72) DPL0 load(1, XDATA, add(CFA_XSP16, literal(-2)))
          CFI (cfiCond72) DPH0 load(1, XDATA, add(CFA_XSP16, literal(-1)))
          CFI (cfiCond72) CFA_SP SP+-2
          CFI (cfiCond72) CFA_XSP16 add(XSP16, 9)
          CFI Block cfiCond73 Using cfiCommon0
          CFI (cfiCond73) Function addSceneSelector_isrPort2
          CFI (cfiCond73) Conditional ??CrossCallReturnLabel_28
          CFI (cfiCond73) R6 load(1, XDATA, add(CFA_XSP16, literal(-9)))
          CFI (cfiCond73) VB load(1, XDATA, add(CFA_XSP16, literal(-8)))
          CFI (cfiCond73) V0 load(1, XDATA, add(CFA_XSP16, literal(-7)))
          CFI (cfiCond73) R7 load(1, XDATA, add(CFA_XSP16, literal(-6)))
          CFI (cfiCond73) ?RET_LOW load(1, XDATA, add(CFA_XSP16, literal(-5)))
          CFI (cfiCond73) ?RET_HIGH load(1, XDATA, add(CFA_XSP16, literal(-4)))
          CFI (cfiCond73) ?BRET_EXT load(1, XDATA, add(CFA_XSP16, literal(-3)))
          CFI (cfiCond73) DPL0 load(1, XDATA, add(CFA_XSP16, literal(-2)))
          CFI (cfiCond73) DPH0 load(1, XDATA, add(CFA_XSP16, literal(-1)))
          CFI (cfiCond73) CFA_SP SP+-2
          CFI (cfiCond73) CFA_XSP16 add(XSP16, 9)
          CFI Block cfiPicker74 Using cfiCommon1
          CFI (cfiPicker74) NoFunction
          CFI (cfiPicker74) Picker
        LCALL   ?Subroutine14 & 0xFFFF
??CrossCallReturnLabel_36:
        ANL     A,#0x20
        RET
          CFI EndBlock cfiCond71
          CFI EndBlock cfiCond72
          CFI EndBlock cfiCond73
          CFI EndBlock cfiPicker74

        RSEG BANKED_CODE:CODE:NOROOT(0)
?Subroutine6:
          CFI Block cfiCond75 Using cfiCommon0
          CFI Function addSceneSelector_isrPort2
          CFI Conditional ??CrossCallReturnLabel_30
          CFI R6 load(1, XDATA, add(CFA_XSP16, literal(-9)))
          CFI VB load(1, XDATA, add(CFA_XSP16, literal(-8)))
          CFI V0 load(1, XDATA, add(CFA_XSP16, literal(-7)))
          CFI R7 load(1, XDATA, add(CFA_XSP16, literal(-6)))
          CFI ?RET_LOW load(1, XDATA, add(CFA_XSP16, literal(-5)))
          CFI ?RET_HIGH load(1, XDATA, add(CFA_XSP16, literal(-4)))
          CFI ?BRET_EXT load(1, XDATA, add(CFA_XSP16, literal(-3)))
          CFI DPL0 load(1, XDATA, add(CFA_XSP16, literal(-2)))
          CFI DPH0 load(1, XDATA, add(CFA_XSP16, literal(-1)))
          CFI CFA_SP SP+-2
          CFI CFA_XSP16 add(XSP16, 9)
          CFI Block cfiCond76 Using cfiCommon0
          CFI (cfiCond76) Function addSceneSelector_isrPort2
          CFI (cfiCond76) Conditional ??CrossCallReturnLabel_31
          CFI (cfiCond76) R6 load(1, XDATA, add(CFA_XSP16, literal(-9)))
          CFI (cfiCond76) VB load(1, XDATA, add(CFA_XSP16, literal(-8)))
          CFI (cfiCond76) V0 load(1, XDATA, add(CFA_XSP16, literal(-7)))
          CFI (cfiCond76) R7 load(1, XDATA, add(CFA_XSP16, literal(-6)))
          CFI (cfiCond76) ?RET_LOW load(1, XDATA, add(CFA_XSP16, literal(-5)))
          CFI (cfiCond76) ?RET_HIGH load(1, XDATA, add(CFA_XSP16, literal(-4)))
          CFI (cfiCond76) ?BRET_EXT load(1, XDATA, add(CFA_XSP16, literal(-3)))
          CFI (cfiCond76) DPL0 load(1, XDATA, add(CFA_XSP16, literal(-2)))
          CFI (cfiCond76) DPH0 load(1, XDATA, add(CFA_XSP16, literal(-1)))
          CFI (cfiCond76) CFA_SP SP+-2
          CFI (cfiCond76) CFA_XSP16 add(XSP16, 9)
          CFI Block cfiPicker77 Using cfiCommon1
          CFI (cfiPicker77) NoFunction
          CFI (cfiPicker77) Picker
        MOV     DPTR,#aSceneSelectorApt8l08_16bitKeyMap
          CFI EndBlock cfiCond75
          CFI EndBlock cfiCond76
          CFI EndBlock cfiPicker77
        REQUIRE ??Subroutine21_0
        ; // Fall through to label ??Subroutine21_0

        RSEG BANKED_CODE:CODE:NOROOT(0)
??Subroutine21_0:
          CFI Block cfiCond78 Using cfiCommon0
          CFI Function addSceneSelector_isrPort2
          CFI Conditional ??CrossCallReturnLabel_29
          CFI R6 load(1, XDATA, add(CFA_XSP16, literal(-9)))
          CFI VB load(1, XDATA, add(CFA_XSP16, literal(-8)))
          CFI V0 load(1, XDATA, add(CFA_XSP16, literal(-7)))
          CFI R7 load(1, XDATA, add(CFA_XSP16, literal(-6)))
          CFI ?RET_LOW load(1, XDATA, add(CFA_XSP16, literal(-5)))
          CFI ?RET_HIGH load(1, XDATA, add(CFA_XSP16, literal(-4)))
          CFI ?BRET_EXT load(1, XDATA, add(CFA_XSP16, literal(-3)))
          CFI DPL0 load(1, XDATA, add(CFA_XSP16, literal(-2)))
          CFI DPH0 load(1, XDATA, add(CFA_XSP16, literal(-1)))
          CFI CFA_SP SP+-2
          CFI CFA_XSP16 add(XSP16, 9)
          CFI Block cfiCond79 Using cfiCommon0
          CFI (cfiCond79) Function addSceneSelector_isrPort2
          CFI (cfiCond79) Conditional ??CrossCallReturnLabel_30
          CFI (cfiCond79) R6 load(1, XDATA, add(CFA_XSP16, literal(-9)))
          CFI (cfiCond79) VB load(1, XDATA, add(CFA_XSP16, literal(-8)))
          CFI (cfiCond79) V0 load(1, XDATA, add(CFA_XSP16, literal(-7)))
          CFI (cfiCond79) R7 load(1, XDATA, add(CFA_XSP16, literal(-6)))
          CFI (cfiCond79) ?RET_LOW load(1, XDATA, add(CFA_XSP16, literal(-5)))
          CFI (cfiCond79) ?RET_HIGH load(1, XDATA, add(CFA_XSP16, literal(-4)))
          CFI (cfiCond79) ?BRET_EXT load(1, XDATA, add(CFA_XSP16, literal(-3)))
          CFI (cfiCond79) DPL0 load(1, XDATA, add(CFA_XSP16, literal(-2)))
          CFI (cfiCond79) DPH0 load(1, XDATA, add(CFA_XSP16, literal(-1)))
          CFI (cfiCond79) CFA_SP SP+-2
          CFI (cfiCond79) CFA_XSP16 add(XSP16, 9)
          CFI Block cfiCond80 Using cfiCommon0
          CFI (cfiCond80) Function addSceneSelector_isrPort2
          CFI (cfiCond80) Conditional ??CrossCallReturnLabel_31
          CFI (cfiCond80) R6 load(1, XDATA, add(CFA_XSP16, literal(-9)))
          CFI (cfiCond80) VB load(1, XDATA, add(CFA_XSP16, literal(-8)))
          CFI (cfiCond80) V0 load(1, XDATA, add(CFA_XSP16, literal(-7)))
          CFI (cfiCond80) R7 load(1, XDATA, add(CFA_XSP16, literal(-6)))
          CFI (cfiCond80) ?RET_LOW load(1, XDATA, add(CFA_XSP16, literal(-5)))
          CFI (cfiCond80) ?RET_HIGH load(1, XDATA, add(CFA_XSP16, literal(-4)))
          CFI (cfiCond80) ?BRET_EXT load(1, XDATA, add(CFA_XSP16, literal(-3)))
          CFI (cfiCond80) DPL0 load(1, XDATA, add(CFA_XSP16, literal(-2)))
          CFI (cfiCond80) DPH0 load(1, XDATA, add(CFA_XSP16, literal(-1)))
          CFI (cfiCond80) CFA_SP SP+-2
          CFI (cfiCond80) CFA_XSP16 add(XSP16, 9)
          CFI Block cfiPicker81 Using cfiCommon1
          CFI (cfiPicker81) NoFunction
          CFI (cfiPicker81) Picker
        LCALL   ?Subroutine14 & 0xFFFF
??CrossCallReturnLabel_37:
        ANL     A,#0x4
        RET
          CFI EndBlock cfiCond78
          CFI EndBlock cfiCond79
          CFI EndBlock cfiCond80
          CFI EndBlock cfiPicker81

        RSEG BANKED_CODE:CODE:NOROOT(0)
?Subroutine4:
          CFI Block cfiCond82 Using cfiCommon0
          CFI Function addSceneSelector_isrPort2
          CFI Conditional ??CrossCallReturnLabel_0
          CFI R6 load(1, XDATA, add(CFA_XSP16, literal(-9)))
          CFI VB load(1, XDATA, add(CFA_XSP16, literal(-8)))
          CFI V0 load(1, XDATA, add(CFA_XSP16, literal(-7)))
          CFI R7 load(1, XDATA, add(CFA_XSP16, literal(-6)))
          CFI ?RET_LOW load(1, XDATA, add(CFA_XSP16, literal(-5)))
          CFI ?RET_HIGH load(1, XDATA, add(CFA_XSP16, literal(-4)))
          CFI ?BRET_EXT load(1, XDATA, add(CFA_XSP16, literal(-3)))
          CFI DPL0 load(1, XDATA, add(CFA_XSP16, literal(-2)))
          CFI DPH0 load(1, XDATA, add(CFA_XSP16, literal(-1)))
          CFI CFA_SP SP+-2
          CFI CFA_XSP16 add(XSP16, 9)
          CFI Block cfiCond83 Using cfiCommon0
          CFI (cfiCond83) Function addSceneSelector_isrPort2
          CFI (cfiCond83) Conditional ??CrossCallReturnLabel_1
          CFI (cfiCond83) R6 load(1, XDATA, add(CFA_XSP16, literal(-9)))
          CFI (cfiCond83) VB load(1, XDATA, add(CFA_XSP16, literal(-8)))
          CFI (cfiCond83) V0 load(1, XDATA, add(CFA_XSP16, literal(-7)))
          CFI (cfiCond83) R7 load(1, XDATA, add(CFA_XSP16, literal(-6)))
          CFI (cfiCond83) ?RET_LOW load(1, XDATA, add(CFA_XSP16, literal(-5)))
          CFI (cfiCond83) ?RET_HIGH load(1, XDATA, add(CFA_XSP16, literal(-4)))
          CFI (cfiCond83) ?BRET_EXT load(1, XDATA, add(CFA_XSP16, literal(-3)))
          CFI (cfiCond83) DPL0 load(1, XDATA, add(CFA_XSP16, literal(-2)))
          CFI (cfiCond83) DPH0 load(1, XDATA, add(CFA_XSP16, literal(-1)))
          CFI (cfiCond83) CFA_SP SP+-2
          CFI (cfiCond83) CFA_XSP16 add(XSP16, 9)
          CFI Block cfiCond84 Using cfiCommon0
          CFI (cfiCond84) Function addSceneSelector_isrPort2
          CFI (cfiCond84) Conditional ??CrossCallReturnLabel_2
          CFI (cfiCond84) R6 load(1, XDATA, add(CFA_XSP16, literal(-9)))
          CFI (cfiCond84) VB load(1, XDATA, add(CFA_XSP16, literal(-8)))
          CFI (cfiCond84) V0 load(1, XDATA, add(CFA_XSP16, literal(-7)))
          CFI (cfiCond84) R7 load(1, XDATA, add(CFA_XSP16, literal(-6)))
          CFI (cfiCond84) ?RET_LOW load(1, XDATA, add(CFA_XSP16, literal(-5)))
          CFI (cfiCond84) ?RET_HIGH load(1, XDATA, add(CFA_XSP16, literal(-4)))
          CFI (cfiCond84) ?BRET_EXT load(1, XDATA, add(CFA_XSP16, literal(-3)))
          CFI (cfiCond84) DPL0 load(1, XDATA, add(CFA_XSP16, literal(-2)))
          CFI (cfiCond84) DPH0 load(1, XDATA, add(CFA_XSP16, literal(-1)))
          CFI (cfiCond84) CFA_SP SP+-2
          CFI (cfiCond84) CFA_XSP16 add(XSP16, 9)
          CFI Block cfiCond85 Using cfiCommon0
          CFI (cfiCond85) Function addSceneSelector_isrPort2
          CFI (cfiCond85) Conditional ??CrossCallReturnLabel_3
          CFI (cfiCond85) R6 load(1, XDATA, add(CFA_XSP16, literal(-9)))
          CFI (cfiCond85) VB load(1, XDATA, add(CFA_XSP16, literal(-8)))
          CFI (cfiCond85) V0 load(1, XDATA, add(CFA_XSP16, literal(-7)))
          CFI (cfiCond85) R7 load(1, XDATA, add(CFA_XSP16, literal(-6)))
          CFI (cfiCond85) ?RET_LOW load(1, XDATA, add(CFA_XSP16, literal(-5)))
          CFI (cfiCond85) ?RET_HIGH load(1, XDATA, add(CFA_XSP16, literal(-4)))
          CFI (cfiCond85) ?BRET_EXT load(1, XDATA, add(CFA_XSP16, literal(-3)))
          CFI (cfiCond85) DPL0 load(1, XDATA, add(CFA_XSP16, literal(-2)))
          CFI (cfiCond85) DPH0 load(1, XDATA, add(CFA_XSP16, literal(-1)))
          CFI (cfiCond85) CFA_SP SP+-2
          CFI (cfiCond85) CFA_XSP16 add(XSP16, 9)
          CFI Block cfiCond86 Using cfiCommon0
          CFI (cfiCond86) Function addSceneSelector_isrPort2
          CFI (cfiCond86) Conditional ??CrossCallReturnLabel_4
          CFI (cfiCond86) R6 load(1, XDATA, add(CFA_XSP16, literal(-9)))
          CFI (cfiCond86) VB load(1, XDATA, add(CFA_XSP16, literal(-8)))
          CFI (cfiCond86) V0 load(1, XDATA, add(CFA_XSP16, literal(-7)))
          CFI (cfiCond86) R7 load(1, XDATA, add(CFA_XSP16, literal(-6)))
          CFI (cfiCond86) ?RET_LOW load(1, XDATA, add(CFA_XSP16, literal(-5)))
          CFI (cfiCond86) ?RET_HIGH load(1, XDATA, add(CFA_XSP16, literal(-4)))
          CFI (cfiCond86) ?BRET_EXT load(1, XDATA, add(CFA_XSP16, literal(-3)))
          CFI (cfiCond86) DPL0 load(1, XDATA, add(CFA_XSP16, literal(-2)))
          CFI (cfiCond86) DPH0 load(1, XDATA, add(CFA_XSP16, literal(-1)))
          CFI (cfiCond86) CFA_SP SP+-2
          CFI (cfiCond86) CFA_XSP16 add(XSP16, 9)
          CFI Block cfiCond87 Using cfiCommon0
          CFI (cfiCond87) Function addSceneSelector_isrPort2
          CFI (cfiCond87) Conditional ??CrossCallReturnLabel_5
          CFI (cfiCond87) R6 load(1, XDATA, add(CFA_XSP16, literal(-9)))
          CFI (cfiCond87) VB load(1, XDATA, add(CFA_XSP16, literal(-8)))
          CFI (cfiCond87) V0 load(1, XDATA, add(CFA_XSP16, literal(-7)))
          CFI (cfiCond87) R7 load(1, XDATA, add(CFA_XSP16, literal(-6)))
          CFI (cfiCond87) ?RET_LOW load(1, XDATA, add(CFA_XSP16, literal(-5)))
          CFI (cfiCond87) ?RET_HIGH load(1, XDATA, add(CFA_XSP16, literal(-4)))
          CFI (cfiCond87) ?BRET_EXT load(1, XDATA, add(CFA_XSP16, literal(-3)))
          CFI (cfiCond87) DPL0 load(1, XDATA, add(CFA_XSP16, literal(-2)))
          CFI (cfiCond87) DPH0 load(1, XDATA, add(CFA_XSP16, literal(-1)))
          CFI (cfiCond87) CFA_SP SP+-2
          CFI (cfiCond87) CFA_XSP16 add(XSP16, 9)
          CFI Block cfiPicker88 Using cfiCommon1
          CFI (cfiPicker88) NoFunction
          CFI (cfiPicker88) Picker
        MOVX    @DPTR,A
        MOVX    A,@DPTR
        XRL     A,#0x2
        RET
          CFI EndBlock cfiCond82
          CFI EndBlock cfiCond83
          CFI EndBlock cfiCond84
          CFI EndBlock cfiCond85
          CFI EndBlock cfiCond86
          CFI EndBlock cfiCond87
          CFI EndBlock cfiPicker88
// 1193 
// 1194 /*********************************************************************
// 1195  * @fn      addSceneSelector_sendDestinationAddressConfigure
// 1196  *
// 1197  * @brief   Destination address configure.
// 1198  *
// 1199  * @param   none
// 1200  *
// 1201  * @return  none
// 1202  */

        RSEG BANKED_CODE:CODE:NOROOT(0)
// 1203 static void addSceneSelector_sendDestinationAddressConfigure(uint8 endPoint)
addSceneSelector_sendDestinationAddressConfigure:
          CFI Block cfiBlock89 Using cfiCommon0
          CFI Function addSceneSelector_sendDestinationAddressConfigure
        CODE
// 1204 {
        PUSH    DPL
          CFI DPL0 Frame(CFA_SP, 4)
          CFI CFA_SP SP+-4
        PUSH    DPH
          CFI DPH0 Frame(CFA_SP, 5)
          CFI CFA_SP SP+-5
        ; Saved register size: 2
        ; Auto size: 0
// 1205 	zclSceneSelector_DstAddr.addrMode = (afAddrMode_t)AddrGroup;
        MOV     DPTR,#zclSceneSelector_DstAddr + 8
        MOV     A,#0x1
        MOVX    @DPTR,A
// 1206 	zclSceneSelector_DstAddr.endPoint = endPoint;
        MOV     A,R1
        INC     DPTR
        MOVX    @DPTR,A
// 1207 	if (endPoint == SCENESELECTOR_ENDPOINT1)
        MOV     A,#0x1
        XRL     A,R1
        JNZ     ??addSceneSelector_sendDestinationAddressConfig_1
// 1208 	{
// 1209 		zclSceneSelector_DstAddr.addr.shortAddr = aSceneSelectorEndpoint1_GroupID;
        MOV     DPTR,#aSceneSelectorEndpoint1_GroupID
        SJMP    ??addSceneSelector_sendDestinationAddressConfig_2
// 1210 	} else if (endPoint == SCENESELECTOR_ENDPOINT2)
??addSceneSelector_sendDestinationAddressConfig_1:
        MOV     A,#0x2
        XRL     A,R1
        JNZ     ??addSceneSelector_sendDestinationAddressConfig_3
// 1211 	{
// 1212 		zclSceneSelector_DstAddr.addr.shortAddr = aSceneSelectorEndpoint2_GroupID;
        MOV     DPTR,#aSceneSelectorEndpoint2_GroupID
        SJMP    ??addSceneSelector_sendDestinationAddressConfig_2
// 1213 	} else if (endPoint == SCENESELECTOR_ENDPOINT3)
??addSceneSelector_sendDestinationAddressConfig_3:
        MOV     A,#0x3
        XRL     A,R1
        JNZ     ??addSceneSelector_sendDestinationAddressConfig_4
// 1214 	{
// 1215 		zclSceneSelector_DstAddr.addr.shortAddr = aSceneSelectorEndpoint3_GroupID;
        MOV     DPTR,#aSceneSelectorEndpoint3_GroupID
        SJMP    ??addSceneSelector_sendDestinationAddressConfig_2
// 1216 	} else if (endPoint == SCENESELECTOR_ENDPOINT4)
??addSceneSelector_sendDestinationAddressConfig_4:
        MOV     A,#0x4
        XRL     A,R1
        JNZ     ??addSceneSelector_sendDestinationAddressConfig_5
// 1217 	{
// 1218 		zclSceneSelector_DstAddr.addr.shortAddr = aSceneSelectorEndpoint4_GroupID;
        MOV     DPTR,#aSceneSelectorEndpoint4_GroupID
??addSceneSelector_sendDestinationAddressConfig_2:
        MOVX    A,@DPTR
        MOV     R2,A
        INC     DPTR
        MOVX    A,@DPTR
        MOV     R3,A
        MOV     DPTR,#zclSceneSelector_DstAddr
        MOV     A,R2
        MOVX    @DPTR,A
        INC     DPTR
        MOV     A,R3
        MOVX    @DPTR,A
// 1219 	}
// 1220 
// 1221 /*
// 1222 uint16 groupList[APS_MAX_GROUPS];
// 1223 uint8 numberOfGroups = 0;
// 1224 
// 1225 uint16 *p = &(groupList[0]);
// 1226 	for (int i = 0; i < APS_MAX_GROUPS; i++)
// 1227 	{
// 1228 		groupList[i] = 0x0000;
// 1229 	}	
// 1230 	
// 1231 	numberOfGroups = aps_FindAllGroupsForEndpoint(endpoint, p);
// 1232 	if (numberOfGroups == 0)
// 1233 	{
// 1234 		zclGeneral_SendSceneRecall(endpoint, &zclSceneSelector_DstAddr, 0x0000, sceneID, FALSE, 0);
// 1235 	} else
// 1236 	{
// 1237 		zclGeneral_SendSceneRecall(endpoint, &zclSceneSelector_DstAddr, groupList[0], sceneID, FALSE, 0);
// 1238 	}
// 1239 */	
// 1240 }
??addSceneSelector_sendDestinationAddressConfig_5:
        LJMP    ??Subroutine22_0 & 0xFFFF
          CFI EndBlock cfiBlock89
// 1241 
// 1242 /*********************************************************************
// 1243  * @fn      addSceneSelector_sendLevelControlMove
// 1244  *
// 1245  * @brief   Scene selector.
// 1246  *
// 1247  * @param   none
// 1248  *
// 1249  * @return  none
// 1250  */

        RSEG BANKED_CODE:CODE:NOROOT(0)
// 1251 void addSceneSelector_sendLevelControlMove(void)
addSceneSelector_sendLevelControlMove:
          CFI Block cfiBlock90 Using cfiCommon0
          CFI Function addSceneSelector_sendLevelControlMove
        CODE
// 1252 {	
        FUNCALL addSceneSelector_sendLevelControlMove, addSceneSelector_sendDestinationAddressConfigure
        LOCFRAME ISTACK, 0, STACK
        LOCFRAME PSTACK, 0, STACK
        LOCFRAME XSTACK, 9, STACK
        LOCFRAME IOVERLAY, 0, STATIC
        LOCFRAME DOVERLAY, 0, STATIC
        ARGFRAME ISTACK, 0, STACK
        ARGFRAME PSTACK, 0, STACK
        ARGFRAME XSTACK, 9, STACK
        ARGFRAME IOVERLAY, 0, STATIC
        ARGFRAME DOVERLAY, 0, STATIC
        FUNCALL addSceneSelector_sendLevelControlMove, zclGeneral_SendLevelControlMoveRequest
        LOCFRAME ISTACK, 0, STACK
        LOCFRAME PSTACK, 0, STACK
        LOCFRAME XSTACK, 12, STACK
        LOCFRAME IOVERLAY, 0, STATIC
        LOCFRAME DOVERLAY, 0, STATIC
        ARGFRAME ISTACK, 0, STACK
        ARGFRAME PSTACK, 0, STACK
        ARGFRAME XSTACK, 12, STACK
        ARGFRAME IOVERLAY, 0, STATIC
        ARGFRAME DOVERLAY, 0, STATIC
        FUNCALL addSceneSelector_sendLevelControlMove, addSceneSelector_sendDestinationAddressConfigure
        LOCFRAME ISTACK, 0, STACK
        LOCFRAME PSTACK, 0, STACK
        LOCFRAME XSTACK, 9, STACK
        LOCFRAME IOVERLAY, 0, STATIC
        LOCFRAME DOVERLAY, 0, STATIC
        ARGFRAME ISTACK, 0, STACK
        ARGFRAME PSTACK, 0, STACK
        ARGFRAME XSTACK, 9, STACK
        ARGFRAME IOVERLAY, 0, STATIC
        ARGFRAME DOVERLAY, 0, STATIC
        FUNCALL addSceneSelector_sendLevelControlMove, zclGeneral_SendLevelControlMoveRequest
        LOCFRAME ISTACK, 0, STACK
        LOCFRAME PSTACK, 0, STACK
        LOCFRAME XSTACK, 12, STACK
        LOCFRAME IOVERLAY, 0, STATIC
        LOCFRAME DOVERLAY, 0, STATIC
        ARGFRAME ISTACK, 0, STACK
        ARGFRAME PSTACK, 0, STACK
        ARGFRAME XSTACK, 12, STACK
        ARGFRAME IOVERLAY, 0, STATIC
        ARGFRAME DOVERLAY, 0, STATIC
        REQUIRE ?V0
        MOV     A,#-0x9
        LCALL   ?BANKED_ENTER_XDATA
          CFI DPH0 load(1, XDATA, add(CFA_XSP16, literal(-1)))
          CFI DPL0 load(1, XDATA, add(CFA_XSP16, literal(-2)))
          CFI ?BRET_EXT load(1, XDATA, add(CFA_XSP16, literal(-3)))
          CFI ?RET_HIGH load(1, XDATA, add(CFA_XSP16, literal(-4)))
          CFI ?RET_LOW load(1, XDATA, add(CFA_XSP16, literal(-5)))
          CFI R7 load(1, XDATA, add(CFA_XSP16, literal(-6)))
          CFI V0 load(1, XDATA, add(CFA_XSP16, literal(-7)))
          CFI VB load(1, XDATA, add(CFA_XSP16, literal(-8)))
          CFI R6 load(1, XDATA, add(CFA_XSP16, literal(-9)))
          CFI CFA_SP SP+0
          CFI CFA_XSP16 add(XSP16, 9)
        ; Saved register size: 9
        ; Auto size: 0
// 1253 	if (aSceneSelectorKeyDimmingUp == AC_KEY_DOWN)
        MOV     DPTR,#aSceneSelectorKeyDimmingUp
        MOVX    A,@DPTR
        XRL     A,#0x1
        JNZ     ??addSceneSelector_sendLevelControlMove_0
// 1254 	{
// 1255 		addSceneSelector_sendDestinationAddressConfigure(aSceneSelectorCurrentEndpoint);
        ; Setup parameters for call to function addSceneSelector_sendDestinationAddressConfigure
        MOV     DPTR,#aSceneSelectorCurrentEndpoint
        MOVX    A,@DPTR
        MOV     R1,A
        LCALL   ??addSceneSelector_sendDestinationAddressConfig; Banked call to: addSceneSelector_sendDestinationAddressConfigure
// 1256 		zclGeneral_SendLevelControlMove(aSceneSelectorCurrentEndpoint, &zclSceneSelector_DstAddr, LEVEL_MOVE_UP, 45, FALSE, 0 );
        ; Setup parameters for call to function zclGeneral_SendLevelControlMoveRequest
        MOV     ?V0,#0x0
        MOV     R0,#?V0
        LCALL   ?PUSH_XSTACK_I_ONE
          CFI CFA_XSP16 add(XSP16, 10)
        MOV     R0,#?V0
        LCALL   ?PUSH_XSTACK_I_ONE
          CFI CFA_XSP16 add(XSP16, 11)
        MOV     ?V0,#0x2d
        MOV     R0,#?V0
        LCALL   ?PUSH_XSTACK_I_ONE
          CFI CFA_XSP16 add(XSP16, 12)
        MOV     R5,#0x0
        SJMP    ??addSceneSelector_sendLevelControlMove_1
          CFI CFA_XSP16 add(XSP16, 9)
// 1257 	} else if (aSceneSelectorKeyDimmingDown == AC_KEY_DOWN)
??addSceneSelector_sendLevelControlMove_0:
        MOV     DPTR,#aSceneSelectorKeyDimmingDown
        MOVX    A,@DPTR
        XRL     A,#0x1
        JNZ     ??addSceneSelector_sendLevelControlMove_2
// 1258 	{
// 1259 		addSceneSelector_sendDestinationAddressConfigure(aSceneSelectorCurrentEndpoint);
        ; Setup parameters for call to function addSceneSelector_sendDestinationAddressConfigure
        MOV     DPTR,#aSceneSelectorCurrentEndpoint
        MOVX    A,@DPTR
        MOV     R1,A
        LCALL   ??addSceneSelector_sendDestinationAddressConfig; Banked call to: addSceneSelector_sendDestinationAddressConfigure
// 1260 		zclGeneral_SendLevelControlMove(aSceneSelectorCurrentEndpoint, &zclSceneSelector_DstAddr, LEVEL_MOVE_DOWN, 45, FALSE, 0 );
        ; Setup parameters for call to function zclGeneral_SendLevelControlMoveRequest
        MOV     ?V0,#0x0
        MOV     R0,#?V0
        LCALL   ?PUSH_XSTACK_I_ONE
          CFI CFA_XSP16 add(XSP16, 10)
        MOV     R0,#?V0
        LCALL   ?PUSH_XSTACK_I_ONE
          CFI CFA_XSP16 add(XSP16, 11)
        MOV     ?V0,#0x2d
        MOV     R0,#?V0
        LCALL   ?PUSH_XSTACK_I_ONE
          CFI CFA_XSP16 add(XSP16, 12)
        MOV     R5,#0x1
??addSceneSelector_sendLevelControlMove_1:
        MOV     R4,#0x1
        MOV     R2,#zclSceneSelector_DstAddr & 0xff
        MOV     R3,#(zclSceneSelector_DstAddr >> 8) & 0xff
        MOV     DPTR,#aSceneSelectorCurrentEndpoint
        MOVX    A,@DPTR
        MOV     R1,A
        LCALL   ??zclGeneral_SendLevelControlMoveRequest?relay; Banked call to: zclGeneral_SendLevelControlMoveRequest
        MOV     A,#0x3
        LCALL   ?DEALLOC_XSTACK8
          CFI CFA_XSP16 add(XSP16, 9)
// 1261 	}	
// 1262 }
??addSceneSelector_sendLevelControlMove_2:
        LJMP    ?Subroutine1 & 0xFFFF
          CFI EndBlock cfiBlock90
// 1263 
// 1264 /*********************************************************************
// 1265  * @fn      addSceneSelector_clearKeyData
// 1266  *
// 1267  * @brief   Scene selector.
// 1268  *
// 1269  * @param   none
// 1270  *
// 1271  * @return  none
// 1272  */

        RSEG BANKED_CODE:CODE:NOROOT(0)
// 1273 static void addSceneSelector_clearKeyData(void)
addSceneSelector_clearKeyData:
          CFI Block cfiBlock91 Using cfiCommon0
          CFI Function addSceneSelector_clearKeyData
        CODE
// 1274 {
        PUSH    DPL
          CFI DPL0 Frame(CFA_SP, 4)
          CFI CFA_SP SP+-4
        PUSH    DPH
          CFI DPH0 Frame(CFA_SP, 5)
          CFI CFA_SP SP+-5
        ; Saved register size: 2
        ; Auto size: 0
// 1275 	aSceneSelectorKeyScene1 = AC_KEY_NORMAL;
        MOV     DPTR,#aSceneSelectorKeyScene1
        CLR     A
        MOVX    @DPTR,A
// 1276 	aSceneSelectorKeyScene2 = AC_KEY_NORMAL;		
        MOV     DPTR,#aSceneSelectorKeyScene2
        MOVX    @DPTR,A
// 1277 	aSceneSelectorKeyScene3 = AC_KEY_NORMAL;		
        MOV     DPTR,#aSceneSelectorKeyScene3
        MOVX    @DPTR,A
// 1278 	aSceneSelectorKeyScene4 = AC_KEY_NORMAL;		
        MOV     DPTR,#aSceneSelectorKeyScene4
        MOVX    @DPTR,A
// 1279 	aSceneSelectorKeyDimmingUp = AC_KEY_NORMAL;		
        MOV     DPTR,#aSceneSelectorKeyDimmingUp
        MOVX    @DPTR,A
// 1280 	aSceneSelectorKeyDimmingDown = AC_KEY_NORMAL;
        MOV     DPTR,#aSceneSelectorKeyDimmingDown
        MOVX    @DPTR,A
// 1281 }
        SJMP    ??Subroutine22_0
          CFI EndBlock cfiBlock91

        RSEG BANKED_CODE:CODE:NOROOT(0)
?Subroutine0:
          CFI Block cfiBlock92 Using cfiCommon0
          CFI NoFunction
          CFI CFA_SP SP+-5
          CFI DPL0 Frame(CFA_SP, 4)
          CFI DPH0 Frame(CFA_SP, 5)
        MOV     R2,#0x5
        MOV     R3,#0x0
        LCALL   ??Onboard_wait?relay ; Banked call to: Onboard_wait
          CFI EndBlock cfiBlock92
        REQUIRE ??Subroutine22_0
        ; // Fall through to label ??Subroutine22_0

        RSEG BANKED_CODE:CODE:NOROOT(0)
??Subroutine22_0:
          CFI Block cfiBlock93 Using cfiCommon0
          CFI NoFunction
          CFI CFA_SP SP+-5
          CFI DPL0 Frame(CFA_SP, 4)
          CFI DPH0 Frame(CFA_SP, 5)
        POP     DPH
          CFI CFA_SP SP+-4
          CFI DPH0 SameValue
        POP     DPL
          CFI CFA_SP SP+-3
          CFI DPL0 SameValue
        LJMP    ?BRET
          CFI EndBlock cfiBlock93
// 1282 
// 1283 /*********************************************************************
// 1284  * @fn      addSceneSelector_factoryResetCheck
// 1285  *
// 1286  * @brief   Scene selector.
// 1287  *
// 1288  * @param   none
// 1289  *
// 1290  * @return  none
// 1291  */

        RSEG BANKED_CODE:CODE:NOROOT(0)
// 1292 void addSceneSelector_factoryResetCheck(void)
addSceneSelector_factoryResetCheck:
          CFI Block cfiBlock94 Using cfiCommon0
          CFI Function addSceneSelector_factoryResetCheck
        CODE
// 1293 {	
        FUNCALL addSceneSelector_factoryResetCheck, addSceneSelector_APT8L08_I2C_readByte
        LOCFRAME ISTACK, 2, STACK
        LOCFRAME PSTACK, 0, STACK
        LOCFRAME XSTACK, 0, STACK
        LOCFRAME IOVERLAY, 0, STATIC
        LOCFRAME DOVERLAY, 0, STATIC
        ARGFRAME ISTACK, 2, STACK
        ARGFRAME PSTACK, 0, STACK
        ARGFRAME XSTACK, 0, STACK
        ARGFRAME IOVERLAY, 0, STATIC
        ARGFRAME DOVERLAY, 0, STATIC
        FUNCALL addSceneSelector_factoryResetCheck, addSceneSelector_APT8L08_I2C_readByte
        LOCFRAME ISTACK, 2, STACK
        LOCFRAME PSTACK, 0, STACK
        LOCFRAME XSTACK, 0, STACK
        LOCFRAME IOVERLAY, 0, STATIC
        LOCFRAME DOVERLAY, 0, STATIC
        ARGFRAME ISTACK, 2, STACK
        ARGFRAME PSTACK, 0, STACK
        ARGFRAME XSTACK, 0, STACK
        ARGFRAME IOVERLAY, 0, STATIC
        ARGFRAME DOVERLAY, 0, STATIC
        PUSH    DPL
          CFI DPL0 Frame(CFA_SP, 4)
          CFI CFA_SP SP+-4
        PUSH    DPH
          CFI DPH0 Frame(CFA_SP, 5)
          CFI CFA_SP SP+-5
        ; Saved register size: 2
        ; Auto size: 0
// 1294 	uint16 temp_16bitKeyMap = 0;
// 1295 
// 1296 	temp_16bitKeyMap = 
// 1297 		addSceneSelector_APT8L08_I2C_readByte(ADD_SCENESELECTOR_APT8L08_REGISTER_ADDRESS_KVR1) * 256 
// 1298 		+ addSceneSelector_APT8L08_I2C_readByte(ADD_SCENESELECTOR_APT8L08_REGISTER_ADDRESS_KVR0);
        ; Setup parameters for call to function addSceneSelector_APT8L08_I2C_readByte
        MOV     R1,#0x35
        LCALL   ??addSceneSelector_APT8L08_I2C_readByte?relay; Banked call to: addSceneSelector_APT8L08_I2C_readByte
        ; Setup parameters for call to function addSceneSelector_APT8L08_I2C_readByte
        MOV     R1,#0x34
        LCALL   ??addSceneSelector_APT8L08_I2C_readByte?relay; Banked call to: addSceneSelector_APT8L08_I2C_readByte
        MOV     A,R1
// 1299 	
// 1300 	if (acDeviceKeyTimingCounter == 50) // 5000ms
        ANL     A,#0x24
        MOV     R0,A
        MOV     DPTR,#acDeviceKeyTimingCounter
        MOVX    A,@DPTR
        XRL     A,#0x32
        JNZ     ??addSceneSelector_factoryResetCheck_0
// 1301 	{
// 1302 		if ((temp_16bitKeyMap & ADD_SCENESELECTOR_APT8L08_TOUCHKEY_SCENE1)
// 1303 			&& (temp_16bitKeyMap & ADD_SCENESELECTOR_APT8L08_TOUCHKEY_SCENE2))
        MOV     A,#0x24
        XRL     A,R0
        JNZ     ??addSceneSelector_factoryResetCheck_1
// 1304 		{
// 1305 			aSceneSelectorFactoryReset = ADD_SCENESELECTOR_FACTORYRESET_KEYDOWN_5S;
        MOV     DPTR,#aSceneSelectorFactoryReset
        MOV     A,#0x1
        SJMP    ??addSceneSelector_factoryResetCheck_2
// 1306 		}
// 1307 	} else if (acDeviceKeyTimingCounter == 100) // 10000ms
??addSceneSelector_factoryResetCheck_0:
        MOVX    A,@DPTR
        XRL     A,#0x64
        JNZ     ??addSceneSelector_factoryResetCheck_1
// 1308 	{
// 1309 		if ((aSceneSelectorFactoryReset == ADD_SCENESELECTOR_FACTORYRESET_KEYDOWN_5S)
// 1310 			&& (temp_16bitKeyMap & ADD_SCENESELECTOR_APT8L08_TOUCHKEY_SCENE1)
// 1311 			&& (temp_16bitKeyMap & ADD_SCENESELECTOR_APT8L08_TOUCHKEY_SCENE2))
        MOV     DPTR,#aSceneSelectorFactoryReset
        MOVX    A,@DPTR
        XRL     A,#0x1
        JNZ     ??addSceneSelector_factoryResetCheck_1
        MOV     A,#0x24
        XRL     A,R0
        JNZ     ??addSceneSelector_factoryResetCheck_1
// 1312 		{
// 1313 			aSceneSelectorFactoryReset = ADD_SCENESELECTOR_FACTORYRESET_KEYDOWN_10S;
        MOV     A,#0x2
??addSceneSelector_factoryResetCheck_2:
        MOVX    @DPTR,A
// 1314 		}
// 1315 	}
// 1316 }
??addSceneSelector_factoryResetCheck_1:
        SJMP    ??Subroutine22_0
          CFI EndBlock cfiBlock94
// 1317 
// 1318 /*********************************************************************
// 1319  * @fn      addSceneSelector_wakeupCheck
// 1320  *
// 1321  * @brief   Scene selector.
// 1322  *
// 1323  * @param   none
// 1324  *
// 1325  * @return  none
// 1326  */

        RSEG BANKED_CODE:CODE:NOROOT(0)
// 1327 void addSceneSelector_wakeupCheck(void)
addSceneSelector_wakeupCheck:
          CFI Block cfiBlock95 Using cfiCommon0
          CFI Function addSceneSelector_wakeupCheck
        CODE
// 1328 {	
        FUNCALL addSceneSelector_wakeupCheck, addSceneSelector_APT8L08_I2C_readByte
        LOCFRAME ISTACK, 2, STACK
        LOCFRAME PSTACK, 0, STACK
        LOCFRAME XSTACK, 0, STACK
        LOCFRAME IOVERLAY, 0, STATIC
        LOCFRAME DOVERLAY, 0, STATIC
        ARGFRAME ISTACK, 2, STACK
        ARGFRAME PSTACK, 0, STACK
        ARGFRAME XSTACK, 0, STACK
        ARGFRAME IOVERLAY, 0, STATIC
        ARGFRAME DOVERLAY, 0, STATIC
        FUNCALL addSceneSelector_wakeupCheck, addSceneSelector_APT8L08_I2C_readByte
        LOCFRAME ISTACK, 2, STACK
        LOCFRAME PSTACK, 0, STACK
        LOCFRAME XSTACK, 0, STACK
        LOCFRAME IOVERLAY, 0, STATIC
        LOCFRAME DOVERLAY, 0, STATIC
        ARGFRAME ISTACK, 2, STACK
        ARGFRAME PSTACK, 0, STACK
        ARGFRAME XSTACK, 0, STACK
        ARGFRAME IOVERLAY, 0, STATIC
        ARGFRAME DOVERLAY, 0, STATIC
        PUSH    DPL
          CFI DPL0 Frame(CFA_SP, 4)
          CFI CFA_SP SP+-4
        PUSH    DPH
          CFI DPH0 Frame(CFA_SP, 5)
          CFI CFA_SP SP+-5
        ; Saved register size: 2
        ; Auto size: 0
// 1329 	uint16 temp_16bitKeyMap = 0;
// 1330 
// 1331 	temp_16bitKeyMap = 
// 1332 		addSceneSelector_APT8L08_I2C_readByte(ADD_SCENESELECTOR_APT8L08_REGISTER_ADDRESS_KVR1) * 256 
// 1333 		+ addSceneSelector_APT8L08_I2C_readByte(ADD_SCENESELECTOR_APT8L08_REGISTER_ADDRESS_KVR0);
        ; Setup parameters for call to function addSceneSelector_APT8L08_I2C_readByte
        MOV     R1,#0x35
        LCALL   ??addSceneSelector_APT8L08_I2C_readByte?relay; Banked call to: addSceneSelector_APT8L08_I2C_readByte
        ; Setup parameters for call to function addSceneSelector_APT8L08_I2C_readByte
        MOV     R1,#0x34
        LCALL   ??addSceneSelector_APT8L08_I2C_readByte?relay; Banked call to: addSceneSelector_APT8L08_I2C_readByte
        MOV     A,R1
// 1334 	
// 1335 	if (acDeviceKeyTimingCounter == 50) // 5000ms
        ANL     A,#0x48
        MOV     R0,A
        MOV     DPTR,#acDeviceKeyTimingCounter
        MOVX    A,@DPTR
        XRL     A,#0x32
        JNZ     ??addSceneSelector_wakeupCheck_0
// 1336 	{
// 1337 		if ((temp_16bitKeyMap & ADD_SCENESELECTOR_APT8L08_TOUCHKEY_SCENE3)
// 1338 			&& (temp_16bitKeyMap & ADD_SCENESELECTOR_APT8L08_TOUCHKEY_SCENE4))
        MOV     A,#0x48
        XRL     A,R0
        JNZ     ??addSceneSelector_wakeupCheck_1
// 1339 		{
// 1340 			aSceneSelectorWakeup = ADD_SCENESELECTOR_WAKEUP_KEYDOWN_5S;
        MOV     DPTR,#aSceneSelectorWakeup
        MOV     A,#0x1
        SJMP    ??addSceneSelector_wakeupCheck_2
// 1341 		}
// 1342 	} else if (acDeviceKeyTimingCounter == 100) // 10000ms
??addSceneSelector_wakeupCheck_0:
        MOVX    A,@DPTR
        XRL     A,#0x64
        JNZ     ??addSceneSelector_wakeupCheck_1
// 1343 	{
// 1344 		if ((aSceneSelectorWakeup == ADD_SCENESELECTOR_WAKEUP_KEYDOWN_5S)
// 1345 			&& (temp_16bitKeyMap & ADD_SCENESELECTOR_APT8L08_TOUCHKEY_SCENE3)
// 1346 			&& (temp_16bitKeyMap & ADD_SCENESELECTOR_APT8L08_TOUCHKEY_SCENE4))
        MOV     DPTR,#aSceneSelectorWakeup
        MOVX    A,@DPTR
        XRL     A,#0x1
        JNZ     ??addSceneSelector_wakeupCheck_1
        MOV     A,#0x48
        XRL     A,R0
        JNZ     ??addSceneSelector_wakeupCheck_1
// 1347 		{
// 1348 			aSceneSelectorWakeup = ADD_SCENESELECTOR_WAKEUP_KEYDOWN_10S;
        MOV     A,#0x2
??addSceneSelector_wakeupCheck_2:
        MOVX    @DPTR,A
// 1349 		}
// 1350 	}
// 1351 }
??addSceneSelector_wakeupCheck_1:
        LJMP    ??Subroutine22_0 & 0xFFFF
          CFI EndBlock cfiBlock95
// 1352 
// 1353 /*********************************************************************
// 1354  * @fn      addSceneSelector_setGroupID
// 1355  *
// 1356  * @brief   Scene selector.
// 1357  *
// 1358  * @param   none
// 1359  *
// 1360  * @return  none
// 1361  */

        RSEG BANKED_CODE:CODE:NOROOT(0)
// 1362 void addSceneSelector_setGroupID(uint8 endPoint, aps_Group_t *group)
addSceneSelector_setGroupID:
          CFI Block cfiBlock96 Using cfiCommon0
          CFI Function addSceneSelector_setGroupID
        CODE
// 1363 {
        FUNCALL addSceneSelector_setGroupID, osal_nv_write
        LOCFRAME ISTACK, 0, STACK
        LOCFRAME PSTACK, 0, STACK
        LOCFRAME XSTACK, 14, STACK
        LOCFRAME IOVERLAY, 0, STATIC
        LOCFRAME DOVERLAY, 0, STATIC
        ARGFRAME ISTACK, 0, STACK
        ARGFRAME PSTACK, 0, STACK
        ARGFRAME XSTACK, 14, STACK
        ARGFRAME IOVERLAY, 0, STATIC
        ARGFRAME DOVERLAY, 0, STATIC
        FUNCALL addSceneSelector_setGroupID, osal_nv_write
        LOCFRAME ISTACK, 0, STACK
        LOCFRAME PSTACK, 0, STACK
        LOCFRAME XSTACK, 14, STACK
        LOCFRAME IOVERLAY, 0, STATIC
        LOCFRAME DOVERLAY, 0, STATIC
        ARGFRAME ISTACK, 0, STACK
        ARGFRAME PSTACK, 0, STACK
        ARGFRAME XSTACK, 14, STACK
        ARGFRAME IOVERLAY, 0, STATIC
        ARGFRAME DOVERLAY, 0, STATIC
        FUNCALL addSceneSelector_setGroupID, osal_nv_write
        LOCFRAME ISTACK, 0, STACK
        LOCFRAME PSTACK, 0, STACK
        LOCFRAME XSTACK, 14, STACK
        LOCFRAME IOVERLAY, 0, STATIC
        LOCFRAME DOVERLAY, 0, STATIC
        ARGFRAME ISTACK, 0, STACK
        ARGFRAME PSTACK, 0, STACK
        ARGFRAME XSTACK, 14, STACK
        ARGFRAME IOVERLAY, 0, STATIC
        ARGFRAME DOVERLAY, 0, STATIC
        FUNCALL addSceneSelector_setGroupID, osal_nv_write
        LOCFRAME ISTACK, 0, STACK
        LOCFRAME PSTACK, 0, STACK
        LOCFRAME XSTACK, 14, STACK
        LOCFRAME IOVERLAY, 0, STATIC
        LOCFRAME DOVERLAY, 0, STATIC
        ARGFRAME ISTACK, 0, STACK
        ARGFRAME PSTACK, 0, STACK
        ARGFRAME XSTACK, 14, STACK
        ARGFRAME IOVERLAY, 0, STATIC
        ARGFRAME DOVERLAY, 0, STATIC
        REQUIRE ?V0
        REQUIRE ?V1
        MOV     A,#-0xa
        LCALL   ?BANKED_ENTER_XDATA
          CFI DPH0 load(1, XDATA, add(CFA_XSP16, literal(-1)))
          CFI DPL0 load(1, XDATA, add(CFA_XSP16, literal(-2)))
          CFI ?BRET_EXT load(1, XDATA, add(CFA_XSP16, literal(-3)))
          CFI ?RET_HIGH load(1, XDATA, add(CFA_XSP16, literal(-4)))
          CFI ?RET_LOW load(1, XDATA, add(CFA_XSP16, literal(-5)))
          CFI R7 load(1, XDATA, add(CFA_XSP16, literal(-6)))
          CFI V1 load(1, XDATA, add(CFA_XSP16, literal(-7)))
          CFI V0 load(1, XDATA, add(CFA_XSP16, literal(-8)))
          CFI VB load(1, XDATA, add(CFA_XSP16, literal(-9)))
          CFI R6 load(1, XDATA, add(CFA_XSP16, literal(-10)))
          CFI CFA_SP SP+0
          CFI CFA_XSP16 add(XSP16, 10)
        ; Saved register size: 10
        ; Auto size: 0
        MOV     A,R1
        MOV     R6,A
// 1364 	if (endPoint == SCENESELECTOR_ENDPOINT1)
        MOV     A,#0x1
        XRL     A,R6
        JNZ     ??addSceneSelector_setGroupID_0
// 1365 	{
// 1366 		aSceneSelectorEndpoint1_GroupID = group->ID;
        LCALL   ?Subroutine12 & 0xFFFF
??CrossCallReturnLabel_39:
        MOV     DPTR,#aSceneSelectorEndpoint1_GroupID
        LCALL   ??Subroutine24_0 & 0xFFFF
// 1367 		osal_nv_write(ADD_SCENESELECTOR_NV_ITEM_ID_ENDPOINT1_GROUPID, 0, 2, &aSceneSelectorEndpoint1_GroupID);
??CrossCallReturnLabel_44:
        ; Setup parameters for call to function osal_nv_write
        MOV     ?V0,#aSceneSelectorEndpoint1_GroupID & 0xff
        MOV     ?V1,#(aSceneSelectorEndpoint1_GroupID >> 8) & 0xff
        MOV     R0,#?V0
        LCALL   ?PUSH_XSTACK_I_TWO
          CFI CFA_XSP16 add(XSP16, 12)
        MOV     ?V0,#0x2
        MOV     ?V1,#0x0
        MOV     R0,#?V0
        LCALL   ?PUSH_XSTACK_I_TWO
          CFI CFA_XSP16 add(XSP16, 14)
        MOV     R4,#0x0
        MOV     R5,#0x0
        MOV     R2,#-0x7f
        LJMP    ??addSceneSelector_setGroupID_1 & 0xFFFF
          CFI CFA_XSP16 add(XSP16, 10)
// 1368 	} else if (endPoint == SCENESELECTOR_ENDPOINT2)
??addSceneSelector_setGroupID_0:
        MOV     A,#0x2
        XRL     A,R6
        JNZ     ??addSceneSelector_setGroupID_2
// 1369 	{
// 1370 		aSceneSelectorEndpoint2_GroupID = group->ID;
        LCALL   ?Subroutine12 & 0xFFFF
??CrossCallReturnLabel_40:
        MOV     DPTR,#aSceneSelectorEndpoint2_GroupID
        LCALL   ??Subroutine24_0 & 0xFFFF
// 1371 		osal_nv_write(ADD_SCENESELECTOR_NV_ITEM_ID_ENDPOINT2_GROUPID, 0, 2, &aSceneSelectorEndpoint2_GroupID);
??CrossCallReturnLabel_45:
        ; Setup parameters for call to function osal_nv_write
        MOV     ?V0,#aSceneSelectorEndpoint2_GroupID & 0xff
        MOV     ?V1,#(aSceneSelectorEndpoint2_GroupID >> 8) & 0xff
        MOV     R0,#?V0
        LCALL   ?PUSH_XSTACK_I_TWO
          CFI CFA_XSP16 add(XSP16, 12)
        MOV     ?V0,#0x2
        MOV     ?V1,#0x0
        MOV     R0,#?V0
        LCALL   ?PUSH_XSTACK_I_TWO
          CFI CFA_XSP16 add(XSP16, 14)
        MOV     R4,#0x0
        MOV     R5,#0x0
        MOV     R2,#-0x7d
        SJMP    ??addSceneSelector_setGroupID_1
          CFI CFA_XSP16 add(XSP16, 10)
// 1372 	} else if (endPoint == SCENESELECTOR_ENDPOINT3)
??addSceneSelector_setGroupID_2:
        MOV     A,#0x3
        XRL     A,R6
        JNZ     ??addSceneSelector_setGroupID_3
// 1373 	{
// 1374 		aSceneSelectorEndpoint3_GroupID = group->ID;
        LCALL   ?Subroutine12 & 0xFFFF
??CrossCallReturnLabel_41:
        MOV     DPTR,#aSceneSelectorEndpoint3_GroupID
        LCALL   ??Subroutine24_0 & 0xFFFF
// 1375 		osal_nv_write(ADD_SCENESELECTOR_NV_ITEM_ID_ENDPOINT3_GROUPID, 0, 2, &aSceneSelectorEndpoint3_GroupID);
??CrossCallReturnLabel_46:
        ; Setup parameters for call to function osal_nv_write
        MOV     ?V0,#aSceneSelectorEndpoint3_GroupID & 0xff
        MOV     ?V1,#(aSceneSelectorEndpoint3_GroupID >> 8) & 0xff
        MOV     R0,#?V0
        LCALL   ?PUSH_XSTACK_I_TWO
          CFI CFA_XSP16 add(XSP16, 12)
        MOV     ?V0,#0x2
        MOV     ?V1,#0x0
        MOV     R0,#?V0
        LCALL   ?PUSH_XSTACK_I_TWO
          CFI CFA_XSP16 add(XSP16, 14)
        MOV     R4,#0x0
        MOV     R5,#0x0
        MOV     R2,#-0x7b
        SJMP    ??addSceneSelector_setGroupID_1
          CFI CFA_XSP16 add(XSP16, 10)
// 1376 	} else if (endPoint == SCENESELECTOR_ENDPOINT4)
??addSceneSelector_setGroupID_3:
        MOV     A,#0x4
        XRL     A,R6
        JNZ     ??addSceneSelector_setGroupID_4
// 1377 	{
// 1378 		aSceneSelectorEndpoint4_GroupID = group->ID;
        LCALL   ?Subroutine12 & 0xFFFF
??CrossCallReturnLabel_42:
        MOV     DPTR,#aSceneSelectorEndpoint4_GroupID
        LCALL   ??Subroutine24_0 & 0xFFFF
// 1379 		osal_nv_write(ADD_SCENESELECTOR_NV_ITEM_ID_ENDPOINT4_GROUPID, 0, 2, &aSceneSelectorEndpoint4_GroupID);
??CrossCallReturnLabel_47:
        ; Setup parameters for call to function osal_nv_write
        MOV     ?V0,#aSceneSelectorEndpoint4_GroupID & 0xff
        MOV     ?V1,#(aSceneSelectorEndpoint4_GroupID >> 8) & 0xff
        MOV     R0,#?V0
        LCALL   ?PUSH_XSTACK_I_TWO
          CFI CFA_XSP16 add(XSP16, 12)
        MOV     ?V0,#0x2
        MOV     ?V1,#0x0
        MOV     R0,#?V0
        LCALL   ?PUSH_XSTACK_I_TWO
          CFI CFA_XSP16 add(XSP16, 14)
        MOV     R4,#0x0
        MOV     R5,#0x0
        MOV     R2,#-0x79
??addSceneSelector_setGroupID_1:
        MOV     R3,#0x5
        LCALL   ??osal_nv_write?relay; Banked call to: osal_nv_write
        MOV     A,#0x4
        LCALL   ?DEALLOC_XSTACK8
          CFI CFA_XSP16 add(XSP16, 10)
// 1380 	}
// 1381 }
??addSceneSelector_setGroupID_4:
        LJMP    ?Subroutine2 & 0xFFFF
          CFI EndBlock cfiBlock96

        RSEG BANKED_CODE:CODE:NOROOT(0)
?Subroutine12:
          CFI Block cfiCond97 Using cfiCommon0
          CFI Function addSceneSelector_setGroupID
          CFI Conditional ??CrossCallReturnLabel_39
          CFI R6 load(1, XDATA, add(CFA_XSP16, literal(-10)))
          CFI VB load(1, XDATA, add(CFA_XSP16, literal(-9)))
          CFI V0 load(1, XDATA, add(CFA_XSP16, literal(-8)))
          CFI V1 load(1, XDATA, add(CFA_XSP16, literal(-7)))
          CFI R7 load(1, XDATA, add(CFA_XSP16, literal(-6)))
          CFI ?RET_LOW load(1, XDATA, add(CFA_XSP16, literal(-5)))
          CFI ?RET_HIGH load(1, XDATA, add(CFA_XSP16, literal(-4)))
          CFI ?BRET_EXT load(1, XDATA, add(CFA_XSP16, literal(-3)))
          CFI DPL0 load(1, XDATA, add(CFA_XSP16, literal(-2)))
          CFI DPH0 load(1, XDATA, add(CFA_XSP16, literal(-1)))
          CFI CFA_SP SP+-2
          CFI CFA_XSP16 add(XSP16, 10)
          CFI Block cfiCond98 Using cfiCommon0
          CFI (cfiCond98) Function addSceneSelector_setGroupID
          CFI (cfiCond98) Conditional ??CrossCallReturnLabel_40
          CFI (cfiCond98) R6 load(1, XDATA, add(CFA_XSP16, literal(-10)))
          CFI (cfiCond98) VB load(1, XDATA, add(CFA_XSP16, literal(-9)))
          CFI (cfiCond98) V0 load(1, XDATA, add(CFA_XSP16, literal(-8)))
          CFI (cfiCond98) V1 load(1, XDATA, add(CFA_XSP16, literal(-7)))
          CFI (cfiCond98) R7 load(1, XDATA, add(CFA_XSP16, literal(-6)))
          CFI (cfiCond98) ?RET_LOW load(1, XDATA, add(CFA_XSP16, literal(-5)))
          CFI (cfiCond98) ?RET_HIGH load(1, XDATA, add(CFA_XSP16, literal(-4)))
          CFI (cfiCond98) ?BRET_EXT load(1, XDATA, add(CFA_XSP16, literal(-3)))
          CFI (cfiCond98) DPL0 load(1, XDATA, add(CFA_XSP16, literal(-2)))
          CFI (cfiCond98) DPH0 load(1, XDATA, add(CFA_XSP16, literal(-1)))
          CFI (cfiCond98) CFA_SP SP+-2
          CFI (cfiCond98) CFA_XSP16 add(XSP16, 10)
          CFI Block cfiCond99 Using cfiCommon0
          CFI (cfiCond99) Function addSceneSelector_setGroupID
          CFI (cfiCond99) Conditional ??CrossCallReturnLabel_41
          CFI (cfiCond99) R6 load(1, XDATA, add(CFA_XSP16, literal(-10)))
          CFI (cfiCond99) VB load(1, XDATA, add(CFA_XSP16, literal(-9)))
          CFI (cfiCond99) V0 load(1, XDATA, add(CFA_XSP16, literal(-8)))
          CFI (cfiCond99) V1 load(1, XDATA, add(CFA_XSP16, literal(-7)))
          CFI (cfiCond99) R7 load(1, XDATA, add(CFA_XSP16, literal(-6)))
          CFI (cfiCond99) ?RET_LOW load(1, XDATA, add(CFA_XSP16, literal(-5)))
          CFI (cfiCond99) ?RET_HIGH load(1, XDATA, add(CFA_XSP16, literal(-4)))
          CFI (cfiCond99) ?BRET_EXT load(1, XDATA, add(CFA_XSP16, literal(-3)))
          CFI (cfiCond99) DPL0 load(1, XDATA, add(CFA_XSP16, literal(-2)))
          CFI (cfiCond99) DPH0 load(1, XDATA, add(CFA_XSP16, literal(-1)))
          CFI (cfiCond99) CFA_SP SP+-2
          CFI (cfiCond99) CFA_XSP16 add(XSP16, 10)
          CFI Block cfiCond100 Using cfiCommon0
          CFI (cfiCond100) Function addSceneSelector_setGroupID
          CFI (cfiCond100) Conditional ??CrossCallReturnLabel_42
          CFI (cfiCond100) R6 load(1, XDATA, add(CFA_XSP16, literal(-10)))
          CFI (cfiCond100) VB load(1, XDATA, add(CFA_XSP16, literal(-9)))
          CFI (cfiCond100) V0 load(1, XDATA, add(CFA_XSP16, literal(-8)))
          CFI (cfiCond100) V1 load(1, XDATA, add(CFA_XSP16, literal(-7)))
          CFI (cfiCond100) R7 load(1, XDATA, add(CFA_XSP16, literal(-6)))
          CFI (cfiCond100) ?RET_LOW load(1, XDATA, add(CFA_XSP16, literal(-5)))
          CFI (cfiCond100) ?RET_HIGH load(1, XDATA, add(CFA_XSP16, literal(-4)))
          CFI (cfiCond100) ?BRET_EXT load(1, XDATA, add(CFA_XSP16, literal(-3)))
          CFI (cfiCond100) DPL0 load(1, XDATA, add(CFA_XSP16, literal(-2)))
          CFI (cfiCond100) DPH0 load(1, XDATA, add(CFA_XSP16, literal(-1)))
          CFI (cfiCond100) CFA_SP SP+-2
          CFI (cfiCond100) CFA_XSP16 add(XSP16, 10)
          CFI Block cfiPicker101 Using cfiCommon1
          CFI (cfiPicker101) NoFunction
          CFI (cfiPicker101) Picker
        MOV     DPL,R2
        MOV     DPH,R3
          CFI EndBlock cfiCond97
          CFI EndBlock cfiCond98
          CFI EndBlock cfiCond99
          CFI EndBlock cfiCond100
          CFI EndBlock cfiPicker101
        REQUIRE ??Subroutine23_0
        ; // Fall through to label ??Subroutine23_0

        RSEG BANKED_CODE:CODE:NOROOT(0)
??Subroutine23_0:
          CFI Block cfiCond102 Using cfiCommon0
          CFI Function addSceneSelector_isrPort2
          CFI Conditional ??CrossCallReturnLabel_38
          CFI R6 load(1, XDATA, add(CFA_XSP16, literal(-9)))
          CFI VB load(1, XDATA, add(CFA_XSP16, literal(-8)))
          CFI V0 load(1, XDATA, add(CFA_XSP16, literal(-7)))
          CFI R7 load(1, XDATA, add(CFA_XSP16, literal(-6)))
          CFI ?RET_LOW load(1, XDATA, add(CFA_XSP16, literal(-5)))
          CFI ?RET_HIGH load(1, XDATA, add(CFA_XSP16, literal(-4)))
          CFI ?BRET_EXT load(1, XDATA, add(CFA_XSP16, literal(-3)))
          CFI DPL0 load(1, XDATA, add(CFA_XSP16, literal(-2)))
          CFI DPH0 load(1, XDATA, add(CFA_XSP16, literal(-1)))
          CFI CFA_SP SP+-2
          CFI CFA_XSP16 add(XSP16, 9)
          CFI Block cfiCond103 Using cfiCommon0
          CFI (cfiCond103) Function addSceneSelector_setGroupID
          CFI (cfiCond103) Conditional ??CrossCallReturnLabel_39
          CFI (cfiCond103) R6 load(1, XDATA, add(CFA_XSP16, literal(-10)))
          CFI (cfiCond103) VB load(1, XDATA, add(CFA_XSP16, literal(-9)))
          CFI (cfiCond103) V0 load(1, XDATA, add(CFA_XSP16, literal(-8)))
          CFI (cfiCond103) V1 load(1, XDATA, add(CFA_XSP16, literal(-7)))
          CFI (cfiCond103) R7 load(1, XDATA, add(CFA_XSP16, literal(-6)))
          CFI (cfiCond103) ?RET_LOW load(1, XDATA, add(CFA_XSP16, literal(-5)))
          CFI (cfiCond103) ?RET_HIGH load(1, XDATA, add(CFA_XSP16, literal(-4)))
          CFI (cfiCond103) ?BRET_EXT load(1, XDATA, add(CFA_XSP16, literal(-3)))
          CFI (cfiCond103) DPL0 load(1, XDATA, add(CFA_XSP16, literal(-2)))
          CFI (cfiCond103) DPH0 load(1, XDATA, add(CFA_XSP16, literal(-1)))
          CFI (cfiCond103) CFA_SP SP+-2
          CFI (cfiCond103) CFA_XSP16 add(XSP16, 10)
          CFI Block cfiCond104 Using cfiCommon0
          CFI (cfiCond104) Function addSceneSelector_setGroupID
          CFI (cfiCond104) Conditional ??CrossCallReturnLabel_40
          CFI (cfiCond104) R6 load(1, XDATA, add(CFA_XSP16, literal(-10)))
          CFI (cfiCond104) VB load(1, XDATA, add(CFA_XSP16, literal(-9)))
          CFI (cfiCond104) V0 load(1, XDATA, add(CFA_XSP16, literal(-8)))
          CFI (cfiCond104) V1 load(1, XDATA, add(CFA_XSP16, literal(-7)))
          CFI (cfiCond104) R7 load(1, XDATA, add(CFA_XSP16, literal(-6)))
          CFI (cfiCond104) ?RET_LOW load(1, XDATA, add(CFA_XSP16, literal(-5)))
          CFI (cfiCond104) ?RET_HIGH load(1, XDATA, add(CFA_XSP16, literal(-4)))
          CFI (cfiCond104) ?BRET_EXT load(1, XDATA, add(CFA_XSP16, literal(-3)))
          CFI (cfiCond104) DPL0 load(1, XDATA, add(CFA_XSP16, literal(-2)))
          CFI (cfiCond104) DPH0 load(1, XDATA, add(CFA_XSP16, literal(-1)))
          CFI (cfiCond104) CFA_SP SP+-2
          CFI (cfiCond104) CFA_XSP16 add(XSP16, 10)
          CFI Block cfiCond105 Using cfiCommon0
          CFI (cfiCond105) Function addSceneSelector_setGroupID
          CFI (cfiCond105) Conditional ??CrossCallReturnLabel_41
          CFI (cfiCond105) R6 load(1, XDATA, add(CFA_XSP16, literal(-10)))
          CFI (cfiCond105) VB load(1, XDATA, add(CFA_XSP16, literal(-9)))
          CFI (cfiCond105) V0 load(1, XDATA, add(CFA_XSP16, literal(-8)))
          CFI (cfiCond105) V1 load(1, XDATA, add(CFA_XSP16, literal(-7)))
          CFI (cfiCond105) R7 load(1, XDATA, add(CFA_XSP16, literal(-6)))
          CFI (cfiCond105) ?RET_LOW load(1, XDATA, add(CFA_XSP16, literal(-5)))
          CFI (cfiCond105) ?RET_HIGH load(1, XDATA, add(CFA_XSP16, literal(-4)))
          CFI (cfiCond105) ?BRET_EXT load(1, XDATA, add(CFA_XSP16, literal(-3)))
          CFI (cfiCond105) DPL0 load(1, XDATA, add(CFA_XSP16, literal(-2)))
          CFI (cfiCond105) DPH0 load(1, XDATA, add(CFA_XSP16, literal(-1)))
          CFI (cfiCond105) CFA_SP SP+-2
          CFI (cfiCond105) CFA_XSP16 add(XSP16, 10)
          CFI Block cfiCond106 Using cfiCommon0
          CFI (cfiCond106) Function addSceneSelector_setGroupID
          CFI (cfiCond106) Conditional ??CrossCallReturnLabel_42
          CFI (cfiCond106) R6 load(1, XDATA, add(CFA_XSP16, literal(-10)))
          CFI (cfiCond106) VB load(1, XDATA, add(CFA_XSP16, literal(-9)))
          CFI (cfiCond106) V0 load(1, XDATA, add(CFA_XSP16, literal(-8)))
          CFI (cfiCond106) V1 load(1, XDATA, add(CFA_XSP16, literal(-7)))
          CFI (cfiCond106) R7 load(1, XDATA, add(CFA_XSP16, literal(-6)))
          CFI (cfiCond106) ?RET_LOW load(1, XDATA, add(CFA_XSP16, literal(-5)))
          CFI (cfiCond106) ?RET_HIGH load(1, XDATA, add(CFA_XSP16, literal(-4)))
          CFI (cfiCond106) ?BRET_EXT load(1, XDATA, add(CFA_XSP16, literal(-3)))
          CFI (cfiCond106) DPL0 load(1, XDATA, add(CFA_XSP16, literal(-2)))
          CFI (cfiCond106) DPH0 load(1, XDATA, add(CFA_XSP16, literal(-1)))
          CFI (cfiCond106) CFA_SP SP+-2
          CFI (cfiCond106) CFA_XSP16 add(XSP16, 10)
          CFI Block cfiPicker107 Using cfiCommon1
          CFI (cfiPicker107) NoFunction
          CFI (cfiPicker107) Picker
        MOVX    A,@DPTR
        MOV     R0,A
        INC     DPTR
        MOVX    A,@DPTR
        MOV     R1,A
        RET
          CFI EndBlock cfiCond102
          CFI EndBlock cfiCond103
          CFI EndBlock cfiCond104
          CFI EndBlock cfiCond105
          CFI EndBlock cfiCond106
          CFI EndBlock cfiPicker107

        RSEG BANKED_CODE:CODE:NOROOT(0)
?Subroutine3:
          CFI Block cfiCond108 Using cfiCommon0
          CFI Function addSceneSelector_isrPort2
          CFI Conditional ??CrossCallReturnLabel_48
          CFI R6 load(1, XDATA, add(CFA_XSP16, literal(-9)))
          CFI VB load(1, XDATA, add(CFA_XSP16, literal(-8)))
          CFI V0 load(1, XDATA, add(CFA_XSP16, literal(-7)))
          CFI R7 load(1, XDATA, add(CFA_XSP16, literal(-6)))
          CFI ?RET_LOW load(1, XDATA, add(CFA_XSP16, literal(-5)))
          CFI ?RET_HIGH load(1, XDATA, add(CFA_XSP16, literal(-4)))
          CFI ?BRET_EXT load(1, XDATA, add(CFA_XSP16, literal(-3)))
          CFI DPL0 load(1, XDATA, add(CFA_XSP16, literal(-2)))
          CFI DPH0 load(1, XDATA, add(CFA_XSP16, literal(-1)))
          CFI CFA_SP SP+-2
          CFI CFA_XSP16 add(XSP16, 9)
          CFI Block cfiCond109 Using cfiCommon0
          CFI (cfiCond109) Function addSceneSelector_isrPort2
          CFI (cfiCond109) Conditional ??CrossCallReturnLabel_49
          CFI (cfiCond109) R6 load(1, XDATA, add(CFA_XSP16, literal(-9)))
          CFI (cfiCond109) VB load(1, XDATA, add(CFA_XSP16, literal(-8)))
          CFI (cfiCond109) V0 load(1, XDATA, add(CFA_XSP16, literal(-7)))
          CFI (cfiCond109) R7 load(1, XDATA, add(CFA_XSP16, literal(-6)))
          CFI (cfiCond109) ?RET_LOW load(1, XDATA, add(CFA_XSP16, literal(-5)))
          CFI (cfiCond109) ?RET_HIGH load(1, XDATA, add(CFA_XSP16, literal(-4)))
          CFI (cfiCond109) ?BRET_EXT load(1, XDATA, add(CFA_XSP16, literal(-3)))
          CFI (cfiCond109) DPL0 load(1, XDATA, add(CFA_XSP16, literal(-2)))
          CFI (cfiCond109) DPH0 load(1, XDATA, add(CFA_XSP16, literal(-1)))
          CFI (cfiCond109) CFA_SP SP+-2
          CFI (cfiCond109) CFA_XSP16 add(XSP16, 9)
          CFI Block cfiPicker110 Using cfiCommon1
          CFI (cfiPicker110) NoFunction
          CFI (cfiPicker110) Picker
        MOV     A,R1
        MOV     R0,A
        MOV     A,R7
        MOV     R1,A
        MOV     DPTR,#aSceneSelectorApt8l08_16bitKeyMap
          CFI EndBlock cfiCond108
          CFI EndBlock cfiCond109
          CFI EndBlock cfiPicker110
        REQUIRE ??Subroutine24_0
        ; // Fall through to label ??Subroutine24_0

        RSEG BANKED_CODE:CODE:NOROOT(0)
??Subroutine24_0:
          CFI Block cfiCond111 Using cfiCommon0
          CFI Function addSceneSelector_isrPort2
          CFI Conditional ??CrossCallReturnLabel_43
          CFI R6 load(1, XDATA, add(CFA_XSP16, literal(-9)))
          CFI VB load(1, XDATA, add(CFA_XSP16, literal(-8)))
          CFI V0 load(1, XDATA, add(CFA_XSP16, literal(-7)))
          CFI R7 load(1, XDATA, add(CFA_XSP16, literal(-6)))
          CFI ?RET_LOW load(1, XDATA, add(CFA_XSP16, literal(-5)))
          CFI ?RET_HIGH load(1, XDATA, add(CFA_XSP16, literal(-4)))
          CFI ?BRET_EXT load(1, XDATA, add(CFA_XSP16, literal(-3)))
          CFI DPL0 load(1, XDATA, add(CFA_XSP16, literal(-2)))
          CFI DPH0 load(1, XDATA, add(CFA_XSP16, literal(-1)))
          CFI CFA_SP SP+-2
          CFI CFA_XSP16 add(XSP16, 9)
          CFI Block cfiCond112 Using cfiCommon0
          CFI (cfiCond112) Function addSceneSelector_setGroupID
          CFI (cfiCond112) Conditional ??CrossCallReturnLabel_44
          CFI (cfiCond112) R6 load(1, XDATA, add(CFA_XSP16, literal(-10)))
          CFI (cfiCond112) VB load(1, XDATA, add(CFA_XSP16, literal(-9)))
          CFI (cfiCond112) V0 load(1, XDATA, add(CFA_XSP16, literal(-8)))
          CFI (cfiCond112) V1 load(1, XDATA, add(CFA_XSP16, literal(-7)))
          CFI (cfiCond112) R7 load(1, XDATA, add(CFA_XSP16, literal(-6)))
          CFI (cfiCond112) ?RET_LOW load(1, XDATA, add(CFA_XSP16, literal(-5)))
          CFI (cfiCond112) ?RET_HIGH load(1, XDATA, add(CFA_XSP16, literal(-4)))
          CFI (cfiCond112) ?BRET_EXT load(1, XDATA, add(CFA_XSP16, literal(-3)))
          CFI (cfiCond112) DPL0 load(1, XDATA, add(CFA_XSP16, literal(-2)))
          CFI (cfiCond112) DPH0 load(1, XDATA, add(CFA_XSP16, literal(-1)))
          CFI (cfiCond112) CFA_SP SP+-2
          CFI (cfiCond112) CFA_XSP16 add(XSP16, 10)
          CFI Block cfiCond113 Using cfiCommon0
          CFI (cfiCond113) Function addSceneSelector_setGroupID
          CFI (cfiCond113) Conditional ??CrossCallReturnLabel_45
          CFI (cfiCond113) R6 load(1, XDATA, add(CFA_XSP16, literal(-10)))
          CFI (cfiCond113) VB load(1, XDATA, add(CFA_XSP16, literal(-9)))
          CFI (cfiCond113) V0 load(1, XDATA, add(CFA_XSP16, literal(-8)))
          CFI (cfiCond113) V1 load(1, XDATA, add(CFA_XSP16, literal(-7)))
          CFI (cfiCond113) R7 load(1, XDATA, add(CFA_XSP16, literal(-6)))
          CFI (cfiCond113) ?RET_LOW load(1, XDATA, add(CFA_XSP16, literal(-5)))
          CFI (cfiCond113) ?RET_HIGH load(1, XDATA, add(CFA_XSP16, literal(-4)))
          CFI (cfiCond113) ?BRET_EXT load(1, XDATA, add(CFA_XSP16, literal(-3)))
          CFI (cfiCond113) DPL0 load(1, XDATA, add(CFA_XSP16, literal(-2)))
          CFI (cfiCond113) DPH0 load(1, XDATA, add(CFA_XSP16, literal(-1)))
          CFI (cfiCond113) CFA_SP SP+-2
          CFI (cfiCond113) CFA_XSP16 add(XSP16, 10)
          CFI Block cfiCond114 Using cfiCommon0
          CFI (cfiCond114) Function addSceneSelector_setGroupID
          CFI (cfiCond114) Conditional ??CrossCallReturnLabel_46
          CFI (cfiCond114) R6 load(1, XDATA, add(CFA_XSP16, literal(-10)))
          CFI (cfiCond114) VB load(1, XDATA, add(CFA_XSP16, literal(-9)))
          CFI (cfiCond114) V0 load(1, XDATA, add(CFA_XSP16, literal(-8)))
          CFI (cfiCond114) V1 load(1, XDATA, add(CFA_XSP16, literal(-7)))
          CFI (cfiCond114) R7 load(1, XDATA, add(CFA_XSP16, literal(-6)))
          CFI (cfiCond114) ?RET_LOW load(1, XDATA, add(CFA_XSP16, literal(-5)))
          CFI (cfiCond114) ?RET_HIGH load(1, XDATA, add(CFA_XSP16, literal(-4)))
          CFI (cfiCond114) ?BRET_EXT load(1, XDATA, add(CFA_XSP16, literal(-3)))
          CFI (cfiCond114) DPL0 load(1, XDATA, add(CFA_XSP16, literal(-2)))
          CFI (cfiCond114) DPH0 load(1, XDATA, add(CFA_XSP16, literal(-1)))
          CFI (cfiCond114) CFA_SP SP+-2
          CFI (cfiCond114) CFA_XSP16 add(XSP16, 10)
          CFI Block cfiCond115 Using cfiCommon0
          CFI (cfiCond115) Function addSceneSelector_setGroupID
          CFI (cfiCond115) Conditional ??CrossCallReturnLabel_47
          CFI (cfiCond115) R6 load(1, XDATA, add(CFA_XSP16, literal(-10)))
          CFI (cfiCond115) VB load(1, XDATA, add(CFA_XSP16, literal(-9)))
          CFI (cfiCond115) V0 load(1, XDATA, add(CFA_XSP16, literal(-8)))
          CFI (cfiCond115) V1 load(1, XDATA, add(CFA_XSP16, literal(-7)))
          CFI (cfiCond115) R7 load(1, XDATA, add(CFA_XSP16, literal(-6)))
          CFI (cfiCond115) ?RET_LOW load(1, XDATA, add(CFA_XSP16, literal(-5)))
          CFI (cfiCond115) ?RET_HIGH load(1, XDATA, add(CFA_XSP16, literal(-4)))
          CFI (cfiCond115) ?BRET_EXT load(1, XDATA, add(CFA_XSP16, literal(-3)))
          CFI (cfiCond115) DPL0 load(1, XDATA, add(CFA_XSP16, literal(-2)))
          CFI (cfiCond115) DPH0 load(1, XDATA, add(CFA_XSP16, literal(-1)))
          CFI (cfiCond115) CFA_SP SP+-2
          CFI (cfiCond115) CFA_XSP16 add(XSP16, 10)
          CFI Block cfiCond116 Using cfiCommon0
          CFI (cfiCond116) Function addSceneSelector_isrPort2
          CFI (cfiCond116) Conditional ??CrossCallReturnLabel_48
          CFI (cfiCond116) R6 load(1, XDATA, add(CFA_XSP16, literal(-9)))
          CFI (cfiCond116) VB load(1, XDATA, add(CFA_XSP16, literal(-8)))
          CFI (cfiCond116) V0 load(1, XDATA, add(CFA_XSP16, literal(-7)))
          CFI (cfiCond116) R7 load(1, XDATA, add(CFA_XSP16, literal(-6)))
          CFI (cfiCond116) ?RET_LOW load(1, XDATA, add(CFA_XSP16, literal(-5)))
          CFI (cfiCond116) ?RET_HIGH load(1, XDATA, add(CFA_XSP16, literal(-4)))
          CFI (cfiCond116) ?BRET_EXT load(1, XDATA, add(CFA_XSP16, literal(-3)))
          CFI (cfiCond116) DPL0 load(1, XDATA, add(CFA_XSP16, literal(-2)))
          CFI (cfiCond116) DPH0 load(1, XDATA, add(CFA_XSP16, literal(-1)))
          CFI (cfiCond116) CFA_SP SP+-2
          CFI (cfiCond116) CFA_XSP16 add(XSP16, 9)
          CFI Block cfiCond117 Using cfiCommon0
          CFI (cfiCond117) Function addSceneSelector_isrPort2
          CFI (cfiCond117) Conditional ??CrossCallReturnLabel_49
          CFI (cfiCond117) R6 load(1, XDATA, add(CFA_XSP16, literal(-9)))
          CFI (cfiCond117) VB load(1, XDATA, add(CFA_XSP16, literal(-8)))
          CFI (cfiCond117) V0 load(1, XDATA, add(CFA_XSP16, literal(-7)))
          CFI (cfiCond117) R7 load(1, XDATA, add(CFA_XSP16, literal(-6)))
          CFI (cfiCond117) ?RET_LOW load(1, XDATA, add(CFA_XSP16, literal(-5)))
          CFI (cfiCond117) ?RET_HIGH load(1, XDATA, add(CFA_XSP16, literal(-4)))
          CFI (cfiCond117) ?BRET_EXT load(1, XDATA, add(CFA_XSP16, literal(-3)))
          CFI (cfiCond117) DPL0 load(1, XDATA, add(CFA_XSP16, literal(-2)))
          CFI (cfiCond117) DPH0 load(1, XDATA, add(CFA_XSP16, literal(-1)))
          CFI (cfiCond117) CFA_SP SP+-2
          CFI (cfiCond117) CFA_XSP16 add(XSP16, 9)
          CFI Block cfiPicker118 Using cfiCommon1
          CFI (cfiPicker118) NoFunction
          CFI (cfiPicker118) Picker
        MOV     A,R0
        MOVX    @DPTR,A
        INC     DPTR
        MOV     A,R1
        MOVX    @DPTR,A
        RET
          CFI EndBlock cfiCond111
          CFI EndBlock cfiCond112
          CFI EndBlock cfiCond113
          CFI EndBlock cfiCond114
          CFI EndBlock cfiCond115
          CFI EndBlock cfiCond116
          CFI EndBlock cfiCond117
          CFI EndBlock cfiPicker118
// 1382 
// 1383 /*********************************************************************
// 1384  * @fn      addSceneSelector_setSceneID
// 1385  *
// 1386  * @brief   Scene selector.
// 1387  *
// 1388  * @param   none
// 1389  *
// 1390  * @return  none
// 1391  */

        RSEG BANKED_CODE:CODE:NOROOT(0)
// 1392 void addSceneSelector_setSceneID(uint8 endPoint, zclGeneral_Scene_t *scene)
addSceneSelector_setSceneID:
          CFI Block cfiBlock119 Using cfiCommon0
          CFI Function addSceneSelector_setSceneID
        CODE
// 1393 {
        FUNCALL addSceneSelector_setSceneID, osal_nv_write
        LOCFRAME ISTACK, 0, STACK
        LOCFRAME PSTACK, 0, STACK
        LOCFRAME XSTACK, 14, STACK
        LOCFRAME IOVERLAY, 0, STATIC
        LOCFRAME DOVERLAY, 0, STATIC
        ARGFRAME ISTACK, 0, STACK
        ARGFRAME PSTACK, 0, STACK
        ARGFRAME XSTACK, 14, STACK
        ARGFRAME IOVERLAY, 0, STATIC
        ARGFRAME DOVERLAY, 0, STATIC
        FUNCALL addSceneSelector_setSceneID, osal_nv_write
        LOCFRAME ISTACK, 0, STACK
        LOCFRAME PSTACK, 0, STACK
        LOCFRAME XSTACK, 14, STACK
        LOCFRAME IOVERLAY, 0, STATIC
        LOCFRAME DOVERLAY, 0, STATIC
        ARGFRAME ISTACK, 0, STACK
        ARGFRAME PSTACK, 0, STACK
        ARGFRAME XSTACK, 14, STACK
        ARGFRAME IOVERLAY, 0, STATIC
        ARGFRAME DOVERLAY, 0, STATIC
        FUNCALL addSceneSelector_setSceneID, osal_nv_write
        LOCFRAME ISTACK, 0, STACK
        LOCFRAME PSTACK, 0, STACK
        LOCFRAME XSTACK, 14, STACK
        LOCFRAME IOVERLAY, 0, STATIC
        LOCFRAME DOVERLAY, 0, STATIC
        ARGFRAME ISTACK, 0, STACK
        ARGFRAME PSTACK, 0, STACK
        ARGFRAME XSTACK, 14, STACK
        ARGFRAME IOVERLAY, 0, STATIC
        ARGFRAME DOVERLAY, 0, STATIC
        FUNCALL addSceneSelector_setSceneID, osal_nv_write
        LOCFRAME ISTACK, 0, STACK
        LOCFRAME PSTACK, 0, STACK
        LOCFRAME XSTACK, 14, STACK
        LOCFRAME IOVERLAY, 0, STATIC
        LOCFRAME DOVERLAY, 0, STATIC
        ARGFRAME ISTACK, 0, STACK
        ARGFRAME PSTACK, 0, STACK
        ARGFRAME XSTACK, 14, STACK
        ARGFRAME IOVERLAY, 0, STATIC
        ARGFRAME DOVERLAY, 0, STATIC
        REQUIRE ?V0
        REQUIRE ?V1
        MOV     A,#-0xa
        LCALL   ?BANKED_ENTER_XDATA
          CFI DPH0 load(1, XDATA, add(CFA_XSP16, literal(-1)))
          CFI DPL0 load(1, XDATA, add(CFA_XSP16, literal(-2)))
          CFI ?BRET_EXT load(1, XDATA, add(CFA_XSP16, literal(-3)))
          CFI ?RET_HIGH load(1, XDATA, add(CFA_XSP16, literal(-4)))
          CFI ?RET_LOW load(1, XDATA, add(CFA_XSP16, literal(-5)))
          CFI R7 load(1, XDATA, add(CFA_XSP16, literal(-6)))
          CFI V1 load(1, XDATA, add(CFA_XSP16, literal(-7)))
          CFI V0 load(1, XDATA, add(CFA_XSP16, literal(-8)))
          CFI VB load(1, XDATA, add(CFA_XSP16, literal(-9)))
          CFI R6 load(1, XDATA, add(CFA_XSP16, literal(-10)))
          CFI CFA_SP SP+0
          CFI CFA_XSP16 add(XSP16, 10)
        ; Saved register size: 10
        ; Auto size: 0
        MOV     A,R1
        MOV     R6,A
// 1394 	if (endPoint == SCENESELECTOR_ENDPOINT1)
        MOV     A,#0x1
        XRL     A,R6
        JNZ     ??addSceneSelector_setSceneID_0
// 1395 	{
// 1396 		aSceneSelectorEndpoint1_SceneID = scene->ID;
        MOV     DPL,R2
        MOV     DPH,R3
        INC     DPTR
        INC     DPTR
        MOVX    A,@DPTR
        MOV     DPTR,#aSceneSelectorEndpoint1_SceneID
        MOVX    @DPTR,A
        INC     DPTR
        CLR     A
        MOVX    @DPTR,A
// 1397 		osal_nv_write(ADD_SCENESELECTOR_NV_ITEM_ID_ENDPOINT1_SCENEID, 0, 2, &aSceneSelectorEndpoint1_SceneID);
        ; Setup parameters for call to function osal_nv_write
        MOV     ?V0,#aSceneSelectorEndpoint1_SceneID & 0xff
        MOV     ?V1,#(aSceneSelectorEndpoint1_SceneID >> 8) & 0xff
        MOV     R0,#?V0
        LCALL   ?PUSH_XSTACK_I_TWO
          CFI CFA_XSP16 add(XSP16, 12)
        MOV     ?V0,#0x2
        MOV     ?V1,#0x0
        MOV     R0,#?V0
        LCALL   ?PUSH_XSTACK_I_TWO
          CFI CFA_XSP16 add(XSP16, 14)
        MOV     R4,#0x0
        MOV     R5,#0x0
        MOV     R2,#0x1
        LJMP    ??addSceneSelector_setSceneID_1 & 0xFFFF
          CFI CFA_XSP16 add(XSP16, 10)
// 1398 	} else if (endPoint == SCENESELECTOR_ENDPOINT2)
??addSceneSelector_setSceneID_0:
        MOV     A,#0x2
        XRL     A,R6
        JNZ     ??addSceneSelector_setSceneID_2
// 1399 	{
// 1400 		aSceneSelectorEndpoint2_SceneID = scene->ID;
        MOV     DPL,R2
        MOV     DPH,R3
        INC     DPTR
        INC     DPTR
        MOVX    A,@DPTR
        MOV     DPTR,#aSceneSelectorEndpoint2_SceneID
        MOVX    @DPTR,A
        INC     DPTR
        CLR     A
        MOVX    @DPTR,A
// 1401 		osal_nv_write(ADD_SCENESELECTOR_NV_ITEM_ID_ENDPOINT2_SCENEID, 0, 2, &aSceneSelectorEndpoint2_SceneID);
        ; Setup parameters for call to function osal_nv_write
        MOV     ?V0,#aSceneSelectorEndpoint2_SceneID & 0xff
        MOV     ?V1,#(aSceneSelectorEndpoint2_SceneID >> 8) & 0xff
        MOV     R0,#?V0
        LCALL   ?PUSH_XSTACK_I_TWO
          CFI CFA_XSP16 add(XSP16, 12)
        MOV     ?V0,#0x2
        MOV     ?V1,#0x0
        MOV     R0,#?V0
        LCALL   ?PUSH_XSTACK_I_TWO
          CFI CFA_XSP16 add(XSP16, 14)
        MOV     R4,#0x0
        MOV     R5,#0x0
        MOV     R2,#0x3
        SJMP    ??addSceneSelector_setSceneID_1
          CFI CFA_XSP16 add(XSP16, 10)
// 1402 	} else if (endPoint == SCENESELECTOR_ENDPOINT3)
??addSceneSelector_setSceneID_2:
        MOV     A,#0x3
        XRL     A,R6
        JNZ     ??addSceneSelector_setSceneID_3
// 1403 	{
// 1404 		aSceneSelectorEndpoint3_SceneID = scene->ID;
        MOV     DPL,R2
        MOV     DPH,R3
        INC     DPTR
        INC     DPTR
        MOVX    A,@DPTR
        MOV     DPTR,#aSceneSelectorEndpoint3_SceneID
        MOVX    @DPTR,A
        INC     DPTR
        CLR     A
        MOVX    @DPTR,A
// 1405 		osal_nv_write(ADD_SCENESELECTOR_NV_ITEM_ID_ENDPOINT3_SCENEID, 0, 2, &aSceneSelectorEndpoint3_SceneID);
        ; Setup parameters for call to function osal_nv_write
        MOV     ?V0,#aSceneSelectorEndpoint3_SceneID & 0xff
        MOV     ?V1,#(aSceneSelectorEndpoint3_SceneID >> 8) & 0xff
        MOV     R0,#?V0
        LCALL   ?PUSH_XSTACK_I_TWO
          CFI CFA_XSP16 add(XSP16, 12)
        MOV     ?V0,#0x2
        MOV     ?V1,#0x0
        MOV     R0,#?V0
        LCALL   ?PUSH_XSTACK_I_TWO
          CFI CFA_XSP16 add(XSP16, 14)
        MOV     R4,#0x0
        MOV     R5,#0x0
        MOV     R2,#0x5
        SJMP    ??addSceneSelector_setSceneID_1
          CFI CFA_XSP16 add(XSP16, 10)
// 1406 	} else if (endPoint == SCENESELECTOR_ENDPOINT4)
??addSceneSelector_setSceneID_3:
        MOV     A,#0x4
        XRL     A,R6
        JNZ     ??addSceneSelector_setSceneID_4
// 1407 	{
// 1408 		aSceneSelectorEndpoint4_SceneID = scene->ID;
        MOV     DPL,R2
        MOV     DPH,R3
        INC     DPTR
        INC     DPTR
        MOVX    A,@DPTR
        MOV     DPTR,#aSceneSelectorEndpoint4_SceneID
        MOVX    @DPTR,A
        INC     DPTR
        CLR     A
        MOVX    @DPTR,A
// 1409 		osal_nv_write(ADD_SCENESELECTOR_NV_ITEM_ID_ENDPOINT4_SCENEID, 0, 2, &aSceneSelectorEndpoint4_SceneID);
        ; Setup parameters for call to function osal_nv_write
        MOV     ?V0,#aSceneSelectorEndpoint4_SceneID & 0xff
        MOV     ?V1,#(aSceneSelectorEndpoint4_SceneID >> 8) & 0xff
        MOV     R0,#?V0
        LCALL   ?PUSH_XSTACK_I_TWO
          CFI CFA_XSP16 add(XSP16, 12)
        MOV     ?V0,#0x2
        MOV     ?V1,#0x0
        MOV     R0,#?V0
        LCALL   ?PUSH_XSTACK_I_TWO
          CFI CFA_XSP16 add(XSP16, 14)
        MOV     R4,#0x0
        MOV     R5,#0x0
        MOV     R2,#0x7
??addSceneSelector_setSceneID_1:
        MOV     R3,#0x5
        LCALL   ??osal_nv_write?relay; Banked call to: osal_nv_write
        MOV     A,#0x4
        LCALL   ?DEALLOC_XSTACK8
          CFI CFA_XSP16 add(XSP16, 10)
          CFI EndBlock cfiBlock119
// 1410 	}
// 1411 }
??addSceneSelector_setSceneID_4:
        REQUIRE ?Subroutine2
        ; // Fall through to label ?Subroutine2

        RSEG BANKED_CODE:CODE:NOROOT(0)
?Subroutine2:
          CFI Block cfiBlock120 Using cfiCommon0
          CFI NoFunction
          CFI CFA_SP SP+0
          CFI CFA_XSP16 add(XSP16, 10)
          CFI VB load(1, XDATA, add(CFA_XSP16, literal(-9)))
          CFI DPL0 load(1, XDATA, add(CFA_XSP16, literal(-2)))
          CFI DPH0 load(1, XDATA, add(CFA_XSP16, literal(-1)))
          CFI R6 load(1, XDATA, add(CFA_XSP16, literal(-10)))
          CFI R7 load(1, XDATA, add(CFA_XSP16, literal(-6)))
          CFI V0 load(1, XDATA, add(CFA_XSP16, literal(-8)))
          CFI V1 load(1, XDATA, add(CFA_XSP16, literal(-7)))
          CFI ?BRET_EXT load(1, XDATA, add(CFA_XSP16, literal(-3)))
          CFI ?RET_HIGH load(1, XDATA, add(CFA_XSP16, literal(-4)))
          CFI ?RET_LOW load(1, XDATA, add(CFA_XSP16, literal(-5)))
        MOV     R7,#0x2
        LJMP    ?BANKED_LEAVE_XDATA
          CFI EndBlock cfiBlock120
// 1412 
// 1413 #if defined(SCENE_SELECTOR)	
// 1414 #elif defined(SCENE_SELECTOR_TOUCHKEY)
// 1415 
// 1416 /*********************************************************************
// 1417  * @fn      addSceneSelector_APT8L08_init
// 1418  *
// 1419  * @brief   APT8L08 initial.
// 1420  *
// 1421  * @param   none
// 1422  *
// 1423  * @return  none
// 1424  */

        RSEG BANKED_CODE:CODE:NOROOT(0)
// 1425 void addSceneSelector_APT8L08_init(void)
addSceneSelector_APT8L08_init:
          CFI Block cfiBlock121 Using cfiCommon0
          CFI Function addSceneSelector_APT8L08_init
        CODE
// 1426 {	
        FUNCALL addSceneSelector_APT8L08_init, addSceneSelector_APT8L08_initHal
        LOCFRAME ISTACK, 2, STACK
        LOCFRAME PSTACK, 0, STACK
        LOCFRAME XSTACK, 0, STACK
        LOCFRAME IOVERLAY, 0, STATIC
        LOCFRAME DOVERLAY, 0, STATIC
        ARGFRAME ISTACK, 2, STACK
        ARGFRAME PSTACK, 0, STACK
        ARGFRAME XSTACK, 0, STACK
        ARGFRAME IOVERLAY, 0, STATIC
        ARGFRAME DOVERLAY, 0, STATIC
        FUNCALL addSceneSelector_APT8L08_init, addCommon_delayMS
        LOCFRAME ISTACK, 2, STACK
        LOCFRAME PSTACK, 0, STACK
        LOCFRAME XSTACK, 0, STACK
        LOCFRAME IOVERLAY, 0, STATIC
        LOCFRAME DOVERLAY, 0, STATIC
        ARGFRAME ISTACK, 2, STACK
        ARGFRAME PSTACK, 0, STACK
        ARGFRAME XSTACK, 0, STACK
        ARGFRAME IOVERLAY, 0, STATIC
        ARGFRAME DOVERLAY, 0, STATIC
        FUNCALL addSceneSelector_APT8L08_init, addSceneSelector_APT8L08_initAl
        LOCFRAME ISTACK, 2, STACK
        LOCFRAME PSTACK, 0, STACK
        LOCFRAME XSTACK, 0, STACK
        LOCFRAME IOVERLAY, 0, STATIC
        LOCFRAME DOVERLAY, 0, STATIC
        ARGFRAME ISTACK, 2, STACK
        ARGFRAME PSTACK, 0, STACK
        ARGFRAME XSTACK, 0, STACK
        ARGFRAME IOVERLAY, 0, STATIC
        ARGFRAME DOVERLAY, 0, STATIC
        PUSH    DPL
          CFI DPL0 Frame(CFA_SP, 4)
          CFI CFA_SP SP+-4
        PUSH    DPH
          CFI DPH0 Frame(CFA_SP, 5)
          CFI CFA_SP SP+-5
        ; Saved register size: 2
        ; Auto size: 0
// 1427 	addSceneSelector_APT8L08_initHal();
        ; Setup parameters for call to function addSceneSelector_APT8L08_initHal
        LCALL   ??addSceneSelector_APT8L08_initHal?relay; Banked call to: addSceneSelector_APT8L08_initHal
// 1428 	addCommon_delayMS(500);
        ; Setup parameters for call to function addCommon_delayMS
        MOV     R2,#-0xc
        MOV     R3,#0x1
        LCALL   ??addCommon_delayMS?relay; Banked call to: addCommon_delayMS
// 1429 	addSceneSelector_APT8L08_initAl();
        ; Setup parameters for call to function addSceneSelector_APT8L08_initAl
        LCALL   ??addSceneSelector_APT8L08_initAl?relay; Banked call to: addSceneSelector_APT8L08_initAl
// 1430 }
        LJMP    ??Subroutine22_0 & 0xFFFF
          CFI EndBlock cfiBlock121
// 1431 
// 1432 /*********************************************************************
// 1433  * @fn      addSceneSelector_APT8L08_initHal
// 1434  *
// 1435  * @brief   APT8L08 initial hardware abstract layer.
// 1436  *
// 1437  * @param   none
// 1438  *
// 1439  * @return  none
// 1440  */

        RSEG BANKED_CODE:CODE:NOROOT(0)
// 1441 static void addSceneSelector_APT8L08_initHal(void)
addSceneSelector_APT8L08_initHal:
          CFI Block cfiBlock122 Using cfiCommon0
          CFI Function addSceneSelector_APT8L08_initHal
        CODE
// 1442 {	
        FUNCALL addSceneSelector_APT8L08_initHal, Onboard_wait
        LOCFRAME ISTACK, 2, STACK
        LOCFRAME PSTACK, 0, STACK
        LOCFRAME XSTACK, 0, STACK
        LOCFRAME IOVERLAY, 0, STATIC
        LOCFRAME DOVERLAY, 0, STATIC
        ARGFRAME ISTACK, 2, STACK
        ARGFRAME PSTACK, 0, STACK
        ARGFRAME XSTACK, 0, STACK
        ARGFRAME IOVERLAY, 0, STATIC
        ARGFRAME DOVERLAY, 0, STATIC
        FUNCALL addSceneSelector_APT8L08_initHal, Onboard_wait
        LOCFRAME ISTACK, 2, STACK
        LOCFRAME PSTACK, 0, STACK
        LOCFRAME XSTACK, 0, STACK
        LOCFRAME IOVERLAY, 0, STATIC
        LOCFRAME DOVERLAY, 0, STATIC
        ARGFRAME ISTACK, 2, STACK
        ARGFRAME PSTACK, 0, STACK
        ARGFRAME XSTACK, 0, STACK
        ARGFRAME IOVERLAY, 0, STATIC
        ARGFRAME DOVERLAY, 0, STATIC
        PUSH    DPL
          CFI DPL0 Frame(CFA_SP, 4)
          CFI CFA_SP SP+-4
        PUSH    DPH
          CFI DPH0 Frame(CFA_SP, 5)
          CFI CFA_SP SP+-5
        ; Saved register size: 2
        ; Auto size: 0
// 1443 	APCFG &= ~0x30; // SDA on P0_4, SCL on P0_5
        ANL     0xf2,#0xcf
// 1444 	P0SEL &= ~0x30; 
        ANL     0xf3,#0xcf
// 1445 	P0DIR |= 0x30;
        ORL     0xfd,#0x30
// 1446 	P2INP &= ~0x20; // port0 all pull up
        ANL     0xf7,#0xdf
// 1447 	P0INP |= 0x30;
        ORL     0x8f,#0x30
// 1448 	
// 1449 	P2SEL &= ~0x01; // TP_INT on port P2_0
        ANL     0xf5,#0xfe
// 1450 	P2DIR &= ~0x01;
        ANL     0xff,#0xfe
// 1451 	P2INP &= ~0x80; // port2 all pull up
        ANL     0xf7,#0x7f
// 1452 	P2INP &= ~0x01;
        ANL     0xf7,#0xfe
// 1453 
// 1454 	EA = 0;
        CLR     0xa8.7
// 1455 	
// 1456 	MicroWait(50000);
        ; Setup parameters for call to function Onboard_wait
        MOV     R2,#0x50
        MOV     R3,#-0x3d
        LCALL   ??Onboard_wait?relay ; Banked call to: Onboard_wait
// 1457 	MicroWait(50000);
        ; Setup parameters for call to function Onboard_wait
        MOV     R2,#0x50
        MOV     R3,#-0x3d
        LCALL   ??Onboard_wait?relay ; Banked call to: Onboard_wait
// 1458 
// 1459 	P2IEN |= 0x01; // P2_0 interrupt enable
        ORL     0xac,#0x1
// 1460 	PICTL |= 0x08; // fall edge
        ORL     0x8c,#0x8
// 1461 	P2IFG &= ~0x01; // clear interrupt flag
        ANL     0x8b,#0xfe
// 1462 	IEN2 |= 0x02; // port2 interrupt enable
        ORL     0x9a,#0x2
// 1463 	
// 1464 	IP0 |= (1 << 1); // set port2 interrupt highest priority
        ORL     0xa9,#0x2
// 1465 	IP1 |= (1 << 1);
        ORL     0xb9,#0x2
// 1466 	
// 1467 	EA = 1;
        SETB    0xa8.7
// 1468 
// 1469 	ADD_SCENESELECTOR_APT8L08_SDA = 1;
        SETB    0x80.4
// 1470 	ADD_SCENESELECTOR_APT8L08_SCL = 1;
        SETB    0x80.5
// 1471 }
        LJMP    ??Subroutine22_0 & 0xFFFF
          CFI EndBlock cfiBlock122
        REQUIRE APCFG
        REQUIRE P0SEL
        REQUIRE P0DIR
        REQUIRE P2INP
        REQUIRE P0INP
        REQUIRE P2SEL
        REQUIRE P2DIR
        REQUIRE _A_IEN0
        REQUIRE P2IEN
        REQUIRE PICTL
        REQUIRE P2IFG
        REQUIRE IEN2
        REQUIRE IP0
        REQUIRE IP1
        REQUIRE _A_P0
// 1472 
// 1473 /*********************************************************************
// 1474  * @fn      addSceneSelector_APT8L08_initAl
// 1475  *
// 1476  * @brief   APT8L08 initial application layer.
// 1477  *
// 1478  * @param   none
// 1479  *
// 1480  * @return  none
// 1481  */

        RSEG BANKED_CODE:CODE:NOROOT(0)
// 1482 static void addSceneSelector_APT8L08_initAl(void)
addSceneSelector_APT8L08_initAl:
          CFI Block cfiBlock123 Using cfiCommon0
          CFI Function addSceneSelector_APT8L08_initAl
        CODE
// 1483 {
        FUNCALL addSceneSelector_APT8L08_initAl, addCommon_delayMS
        LOCFRAME ISTACK, 0, STACK
        LOCFRAME PSTACK, 0, STACK
        LOCFRAME XSTACK, 9, STACK
        LOCFRAME IOVERLAY, 0, STATIC
        LOCFRAME DOVERLAY, 0, STATIC
        ARGFRAME ISTACK, 0, STACK
        ARGFRAME PSTACK, 0, STACK
        ARGFRAME XSTACK, 9, STACK
        ARGFRAME IOVERLAY, 0, STATIC
        ARGFRAME DOVERLAY, 0, STATIC
        FUNCALL addSceneSelector_APT8L08_initAl, addSceneSelector_APT8L08_I2C_writeRegister
        LOCFRAME ISTACK, 0, STACK
        LOCFRAME PSTACK, 0, STACK
        LOCFRAME XSTACK, 9, STACK
        LOCFRAME IOVERLAY, 0, STATIC
        LOCFRAME DOVERLAY, 0, STATIC
        ARGFRAME ISTACK, 0, STACK
        ARGFRAME PSTACK, 0, STACK
        ARGFRAME XSTACK, 9, STACK
        ARGFRAME IOVERLAY, 0, STATIC
        ARGFRAME DOVERLAY, 0, STATIC
        FUNCALL addSceneSelector_APT8L08_initAl, addCommon_delayMS
        LOCFRAME ISTACK, 0, STACK
        LOCFRAME PSTACK, 0, STACK
        LOCFRAME XSTACK, 9, STACK
        LOCFRAME IOVERLAY, 0, STATIC
        LOCFRAME DOVERLAY, 0, STATIC
        ARGFRAME ISTACK, 0, STACK
        ARGFRAME PSTACK, 0, STACK
        ARGFRAME XSTACK, 9, STACK
        ARGFRAME IOVERLAY, 0, STATIC
        ARGFRAME DOVERLAY, 0, STATIC
        FUNCALL addSceneSelector_APT8L08_initAl, addSceneSelector_APT8L08_I2C_writeRegister
        LOCFRAME ISTACK, 0, STACK
        LOCFRAME PSTACK, 0, STACK
        LOCFRAME XSTACK, 9, STACK
        LOCFRAME IOVERLAY, 0, STATIC
        LOCFRAME DOVERLAY, 0, STATIC
        ARGFRAME ISTACK, 0, STACK
        ARGFRAME PSTACK, 0, STACK
        ARGFRAME XSTACK, 9, STACK
        ARGFRAME IOVERLAY, 0, STATIC
        ARGFRAME DOVERLAY, 0, STATIC
        FUNCALL addSceneSelector_APT8L08_initAl, addCommon_delayMS
        LOCFRAME ISTACK, 0, STACK
        LOCFRAME PSTACK, 0, STACK
        LOCFRAME XSTACK, 9, STACK
        LOCFRAME IOVERLAY, 0, STATIC
        LOCFRAME DOVERLAY, 0, STATIC
        ARGFRAME ISTACK, 0, STACK
        ARGFRAME PSTACK, 0, STACK
        ARGFRAME XSTACK, 9, STACK
        ARGFRAME IOVERLAY, 0, STATIC
        ARGFRAME DOVERLAY, 0, STATIC
        FUNCALL addSceneSelector_APT8L08_initAl, addSceneSelector_APT8L08_I2C_writeRegister
        LOCFRAME ISTACK, 0, STACK
        LOCFRAME PSTACK, 0, STACK
        LOCFRAME XSTACK, 9, STACK
        LOCFRAME IOVERLAY, 0, STATIC
        LOCFRAME DOVERLAY, 0, STATIC
        ARGFRAME ISTACK, 0, STACK
        ARGFRAME PSTACK, 0, STACK
        ARGFRAME XSTACK, 9, STACK
        ARGFRAME IOVERLAY, 0, STATIC
        ARGFRAME DOVERLAY, 0, STATIC
        FUNCALL addSceneSelector_APT8L08_initAl, addCommon_delayMS
        LOCFRAME ISTACK, 0, STACK
        LOCFRAME PSTACK, 0, STACK
        LOCFRAME XSTACK, 9, STACK
        LOCFRAME IOVERLAY, 0, STATIC
        LOCFRAME DOVERLAY, 0, STATIC
        ARGFRAME ISTACK, 0, STACK
        ARGFRAME PSTACK, 0, STACK
        ARGFRAME XSTACK, 9, STACK
        ARGFRAME IOVERLAY, 0, STATIC
        ARGFRAME DOVERLAY, 0, STATIC
        FUNCALL addSceneSelector_APT8L08_initAl, addSceneSelector_APT8L08_I2C_writeRegister
        LOCFRAME ISTACK, 0, STACK
        LOCFRAME PSTACK, 0, STACK
        LOCFRAME XSTACK, 9, STACK
        LOCFRAME IOVERLAY, 0, STATIC
        LOCFRAME DOVERLAY, 0, STATIC
        ARGFRAME ISTACK, 0, STACK
        ARGFRAME PSTACK, 0, STACK
        ARGFRAME XSTACK, 9, STACK
        ARGFRAME IOVERLAY, 0, STATIC
        ARGFRAME DOVERLAY, 0, STATIC
        FUNCALL addSceneSelector_APT8L08_initAl, addSceneSelector_APT8L08_I2C_writeRegister
        LOCFRAME ISTACK, 0, STACK
        LOCFRAME PSTACK, 0, STACK
        LOCFRAME XSTACK, 9, STACK
        LOCFRAME IOVERLAY, 0, STATIC
        LOCFRAME DOVERLAY, 0, STATIC
        ARGFRAME ISTACK, 0, STACK
        ARGFRAME PSTACK, 0, STACK
        ARGFRAME XSTACK, 9, STACK
        ARGFRAME IOVERLAY, 0, STATIC
        ARGFRAME DOVERLAY, 0, STATIC
        FUNCALL addSceneSelector_APT8L08_initAl, addCommon_delayMS
        LOCFRAME ISTACK, 0, STACK
        LOCFRAME PSTACK, 0, STACK
        LOCFRAME XSTACK, 9, STACK
        LOCFRAME IOVERLAY, 0, STATIC
        LOCFRAME DOVERLAY, 0, STATIC
        ARGFRAME ISTACK, 0, STACK
        ARGFRAME PSTACK, 0, STACK
        ARGFRAME XSTACK, 9, STACK
        ARGFRAME IOVERLAY, 0, STATIC
        ARGFRAME DOVERLAY, 0, STATIC
        FUNCALL addSceneSelector_APT8L08_initAl, addSceneSelector_APT8L08_I2C_writeRegister
        LOCFRAME ISTACK, 0, STACK
        LOCFRAME PSTACK, 0, STACK
        LOCFRAME XSTACK, 9, STACK
        LOCFRAME IOVERLAY, 0, STATIC
        LOCFRAME DOVERLAY, 0, STATIC
        ARGFRAME ISTACK, 0, STACK
        ARGFRAME PSTACK, 0, STACK
        ARGFRAME XSTACK, 9, STACK
        ARGFRAME IOVERLAY, 0, STATIC
        ARGFRAME DOVERLAY, 0, STATIC
        FUNCALL addSceneSelector_APT8L08_initAl, addCommon_delayMS
        LOCFRAME ISTACK, 0, STACK
        LOCFRAME PSTACK, 0, STACK
        LOCFRAME XSTACK, 9, STACK
        LOCFRAME IOVERLAY, 0, STATIC
        LOCFRAME DOVERLAY, 0, STATIC
        ARGFRAME ISTACK, 0, STACK
        ARGFRAME PSTACK, 0, STACK
        ARGFRAME XSTACK, 9, STACK
        ARGFRAME IOVERLAY, 0, STATIC
        ARGFRAME DOVERLAY, 0, STATIC
        FUNCALL addSceneSelector_APT8L08_initAl, addSceneSelector_APT8L08_I2C_writeRegister
        LOCFRAME ISTACK, 0, STACK
        LOCFRAME PSTACK, 0, STACK
        LOCFRAME XSTACK, 9, STACK
        LOCFRAME IOVERLAY, 0, STATIC
        LOCFRAME DOVERLAY, 0, STATIC
        ARGFRAME ISTACK, 0, STACK
        ARGFRAME PSTACK, 0, STACK
        ARGFRAME XSTACK, 9, STACK
        ARGFRAME IOVERLAY, 0, STATIC
        ARGFRAME DOVERLAY, 0, STATIC
        FUNCALL addSceneSelector_APT8L08_initAl, addCommon_delayMS
        LOCFRAME ISTACK, 0, STACK
        LOCFRAME PSTACK, 0, STACK
        LOCFRAME XSTACK, 9, STACK
        LOCFRAME IOVERLAY, 0, STATIC
        LOCFRAME DOVERLAY, 0, STATIC
        ARGFRAME ISTACK, 0, STACK
        ARGFRAME PSTACK, 0, STACK
        ARGFRAME XSTACK, 9, STACK
        ARGFRAME IOVERLAY, 0, STATIC
        ARGFRAME DOVERLAY, 0, STATIC
        FUNCALL addSceneSelector_APT8L08_initAl, addSceneSelector_APT8L08_I2C_writeRegister
        LOCFRAME ISTACK, 0, STACK
        LOCFRAME PSTACK, 0, STACK
        LOCFRAME XSTACK, 9, STACK
        LOCFRAME IOVERLAY, 0, STATIC
        LOCFRAME DOVERLAY, 0, STATIC
        ARGFRAME ISTACK, 0, STACK
        ARGFRAME PSTACK, 0, STACK
        ARGFRAME XSTACK, 9, STACK
        ARGFRAME IOVERLAY, 0, STATIC
        ARGFRAME DOVERLAY, 0, STATIC
        FUNCALL addSceneSelector_APT8L08_initAl, addCommon_delayMS
        LOCFRAME ISTACK, 0, STACK
        LOCFRAME PSTACK, 0, STACK
        LOCFRAME XSTACK, 9, STACK
        LOCFRAME IOVERLAY, 0, STATIC
        LOCFRAME DOVERLAY, 0, STATIC
        ARGFRAME ISTACK, 0, STACK
        ARGFRAME PSTACK, 0, STACK
        ARGFRAME XSTACK, 9, STACK
        ARGFRAME IOVERLAY, 0, STATIC
        ARGFRAME DOVERLAY, 0, STATIC
        FUNCALL addSceneSelector_APT8L08_initAl, addSceneSelector_APT8L08_I2C_writeRegister
        LOCFRAME ISTACK, 0, STACK
        LOCFRAME PSTACK, 0, STACK
        LOCFRAME XSTACK, 9, STACK
        LOCFRAME IOVERLAY, 0, STATIC
        LOCFRAME DOVERLAY, 0, STATIC
        ARGFRAME ISTACK, 0, STACK
        ARGFRAME PSTACK, 0, STACK
        ARGFRAME XSTACK, 9, STACK
        ARGFRAME IOVERLAY, 0, STATIC
        ARGFRAME DOVERLAY, 0, STATIC
        FUNCALL addSceneSelector_APT8L08_initAl, addCommon_delayMS
        LOCFRAME ISTACK, 0, STACK
        LOCFRAME PSTACK, 0, STACK
        LOCFRAME XSTACK, 9, STACK
        LOCFRAME IOVERLAY, 0, STATIC
        LOCFRAME DOVERLAY, 0, STATIC
        ARGFRAME ISTACK, 0, STACK
        ARGFRAME PSTACK, 0, STACK
        ARGFRAME XSTACK, 9, STACK
        ARGFRAME IOVERLAY, 0, STATIC
        ARGFRAME DOVERLAY, 0, STATIC
        FUNCALL addSceneSelector_APT8L08_initAl, addSceneSelector_APT8L08_I2C_writeRegister
        LOCFRAME ISTACK, 0, STACK
        LOCFRAME PSTACK, 0, STACK
        LOCFRAME XSTACK, 9, STACK
        LOCFRAME IOVERLAY, 0, STATIC
        LOCFRAME DOVERLAY, 0, STATIC
        ARGFRAME ISTACK, 0, STACK
        ARGFRAME PSTACK, 0, STACK
        ARGFRAME XSTACK, 9, STACK
        ARGFRAME IOVERLAY, 0, STATIC
        ARGFRAME DOVERLAY, 0, STATIC
        FUNCALL addSceneSelector_APT8L08_initAl, addCommon_delayMS
        LOCFRAME ISTACK, 0, STACK
        LOCFRAME PSTACK, 0, STACK
        LOCFRAME XSTACK, 9, STACK
        LOCFRAME IOVERLAY, 0, STATIC
        LOCFRAME DOVERLAY, 0, STATIC
        ARGFRAME ISTACK, 0, STACK
        ARGFRAME PSTACK, 0, STACK
        ARGFRAME XSTACK, 9, STACK
        ARGFRAME IOVERLAY, 0, STATIC
        ARGFRAME DOVERLAY, 0, STATIC
        FUNCALL addSceneSelector_APT8L08_initAl, addSceneSelector_APT8L08_I2C_writeRegister
        LOCFRAME ISTACK, 0, STACK
        LOCFRAME PSTACK, 0, STACK
        LOCFRAME XSTACK, 9, STACK
        LOCFRAME IOVERLAY, 0, STATIC
        LOCFRAME DOVERLAY, 0, STATIC
        ARGFRAME ISTACK, 0, STACK
        ARGFRAME PSTACK, 0, STACK
        ARGFRAME XSTACK, 9, STACK
        ARGFRAME IOVERLAY, 0, STATIC
        ARGFRAME DOVERLAY, 0, STATIC
        FUNCALL addSceneSelector_APT8L08_initAl, addCommon_delayMS
        LOCFRAME ISTACK, 0, STACK
        LOCFRAME PSTACK, 0, STACK
        LOCFRAME XSTACK, 9, STACK
        LOCFRAME IOVERLAY, 0, STATIC
        LOCFRAME DOVERLAY, 0, STATIC
        ARGFRAME ISTACK, 0, STACK
        ARGFRAME PSTACK, 0, STACK
        ARGFRAME XSTACK, 9, STACK
        ARGFRAME IOVERLAY, 0, STATIC
        ARGFRAME DOVERLAY, 0, STATIC
        FUNCALL addSceneSelector_APT8L08_initAl, addSceneSelector_APT8L08_I2C_writeRegister
        LOCFRAME ISTACK, 0, STACK
        LOCFRAME PSTACK, 0, STACK
        LOCFRAME XSTACK, 9, STACK
        LOCFRAME IOVERLAY, 0, STATIC
        LOCFRAME DOVERLAY, 0, STATIC
        ARGFRAME ISTACK, 0, STACK
        ARGFRAME PSTACK, 0, STACK
        ARGFRAME XSTACK, 9, STACK
        ARGFRAME IOVERLAY, 0, STATIC
        ARGFRAME DOVERLAY, 0, STATIC
        FUNCALL addSceneSelector_APT8L08_initAl, addCommon_delayMS
        LOCFRAME ISTACK, 0, STACK
        LOCFRAME PSTACK, 0, STACK
        LOCFRAME XSTACK, 9, STACK
        LOCFRAME IOVERLAY, 0, STATIC
        LOCFRAME DOVERLAY, 0, STATIC
        ARGFRAME ISTACK, 0, STACK
        ARGFRAME PSTACK, 0, STACK
        ARGFRAME XSTACK, 9, STACK
        ARGFRAME IOVERLAY, 0, STATIC
        ARGFRAME DOVERLAY, 0, STATIC
        FUNCALL addSceneSelector_APT8L08_initAl, addSceneSelector_APT8L08_I2C_writeRegister
        LOCFRAME ISTACK, 0, STACK
        LOCFRAME PSTACK, 0, STACK
        LOCFRAME XSTACK, 9, STACK
        LOCFRAME IOVERLAY, 0, STATIC
        LOCFRAME DOVERLAY, 0, STATIC
        ARGFRAME ISTACK, 0, STACK
        ARGFRAME PSTACK, 0, STACK
        ARGFRAME XSTACK, 9, STACK
        ARGFRAME IOVERLAY, 0, STATIC
        ARGFRAME DOVERLAY, 0, STATIC
        FUNCALL addSceneSelector_APT8L08_initAl, addCommon_delayMS
        LOCFRAME ISTACK, 0, STACK
        LOCFRAME PSTACK, 0, STACK
        LOCFRAME XSTACK, 9, STACK
        LOCFRAME IOVERLAY, 0, STATIC
        LOCFRAME DOVERLAY, 0, STATIC
        ARGFRAME ISTACK, 0, STACK
        ARGFRAME PSTACK, 0, STACK
        ARGFRAME XSTACK, 9, STACK
        ARGFRAME IOVERLAY, 0, STATIC
        ARGFRAME DOVERLAY, 0, STATIC
        FUNCALL addSceneSelector_APT8L08_initAl, addSceneSelector_APT8L08_I2C_writeRegister
        LOCFRAME ISTACK, 0, STACK
        LOCFRAME PSTACK, 0, STACK
        LOCFRAME XSTACK, 9, STACK
        LOCFRAME IOVERLAY, 0, STATIC
        LOCFRAME DOVERLAY, 0, STATIC
        ARGFRAME ISTACK, 0, STACK
        ARGFRAME PSTACK, 0, STACK
        ARGFRAME XSTACK, 9, STACK
        ARGFRAME IOVERLAY, 0, STATIC
        ARGFRAME DOVERLAY, 0, STATIC
        FUNCALL addSceneSelector_APT8L08_initAl, addCommon_delayMS
        LOCFRAME ISTACK, 0, STACK
        LOCFRAME PSTACK, 0, STACK
        LOCFRAME XSTACK, 9, STACK
        LOCFRAME IOVERLAY, 0, STATIC
        LOCFRAME DOVERLAY, 0, STATIC
        ARGFRAME ISTACK, 0, STACK
        ARGFRAME PSTACK, 0, STACK
        ARGFRAME XSTACK, 9, STACK
        ARGFRAME IOVERLAY, 0, STATIC
        ARGFRAME DOVERLAY, 0, STATIC
        FUNCALL addSceneSelector_APT8L08_initAl, addSceneSelector_APT8L08_I2C_writeRegister
        LOCFRAME ISTACK, 0, STACK
        LOCFRAME PSTACK, 0, STACK
        LOCFRAME XSTACK, 9, STACK
        LOCFRAME IOVERLAY, 0, STATIC
        LOCFRAME DOVERLAY, 0, STATIC
        ARGFRAME ISTACK, 0, STACK
        ARGFRAME PSTACK, 0, STACK
        ARGFRAME XSTACK, 9, STACK
        ARGFRAME IOVERLAY, 0, STATIC
        ARGFRAME DOVERLAY, 0, STATIC
        FUNCALL addSceneSelector_APT8L08_initAl, addCommon_delayMS
        LOCFRAME ISTACK, 0, STACK
        LOCFRAME PSTACK, 0, STACK
        LOCFRAME XSTACK, 9, STACK
        LOCFRAME IOVERLAY, 0, STATIC
        LOCFRAME DOVERLAY, 0, STATIC
        ARGFRAME ISTACK, 0, STACK
        ARGFRAME PSTACK, 0, STACK
        ARGFRAME XSTACK, 9, STACK
        ARGFRAME IOVERLAY, 0, STATIC
        ARGFRAME DOVERLAY, 0, STATIC
        FUNCALL addSceneSelector_APT8L08_initAl, addCommon_delayMS
        LOCFRAME ISTACK, 0, STACK
        LOCFRAME PSTACK, 0, STACK
        LOCFRAME XSTACK, 9, STACK
        LOCFRAME IOVERLAY, 0, STATIC
        LOCFRAME DOVERLAY, 0, STATIC
        ARGFRAME ISTACK, 0, STACK
        ARGFRAME PSTACK, 0, STACK
        ARGFRAME XSTACK, 9, STACK
        ARGFRAME IOVERLAY, 0, STATIC
        ARGFRAME DOVERLAY, 0, STATIC
        MOV     A,#-0x9
        LCALL   ?BANKED_ENTER_XDATA
          CFI DPH0 load(1, XDATA, add(CFA_XSP16, literal(-1)))
          CFI DPL0 load(1, XDATA, add(CFA_XSP16, literal(-2)))
          CFI ?BRET_EXT load(1, XDATA, add(CFA_XSP16, literal(-3)))
          CFI ?RET_HIGH load(1, XDATA, add(CFA_XSP16, literal(-4)))
          CFI ?RET_LOW load(1, XDATA, add(CFA_XSP16, literal(-5)))
          CFI R7 load(1, XDATA, add(CFA_XSP16, literal(-6)))
          CFI V0 load(1, XDATA, add(CFA_XSP16, literal(-7)))
          CFI VB load(1, XDATA, add(CFA_XSP16, literal(-8)))
          CFI R6 load(1, XDATA, add(CFA_XSP16, literal(-9)))
          CFI CFA_SP SP+0
          CFI CFA_XSP16 add(XSP16, 9)
        ; Saved register size: 9
        ; Auto size: 0
// 1484 	addCommon_delayMS(ADD_SCENESELECTOR_APT8L08_POWERON_DELAY);
        ; Setup parameters for call to function addCommon_delayMS
        MOV     R2,#0x32
        MOV     R3,#0x0
        LCALL   ??addCommon_delayMS?relay; Banked call to: addCommon_delayMS
// 1485 
// 1486 	addSceneSelector_APT8L08_I2C_writeRegister(
// 1487 		ADD_SCENESELECTOR_APT8L08_REGISTER_ADDRESS_SYSCON, ADD_SCENESELECTOR_APT8L08_MODE_CONFIGURE);
        ; Setup parameters for call to function addSceneSelector_APT8L08_I2C_writeRegister
        MOV     R2,#0x5a
        MOV     R1,#0x3a
        LCALL   ??addSceneSelector_APT8L08_I2C_writeRegister?re; Banked call to: addSceneSelector_APT8L08_I2C_writeRegister
// 1488 	addCommon_delayMS(10);
        ; Setup parameters for call to function addCommon_delayMS
        MOV     R2,#0xa
        MOV     R3,#0x0
        LCALL   ??addCommon_delayMS?relay; Banked call to: addCommon_delayMS
// 1489 	addSceneSelector_APT8L08_I2C_writeRegister(
// 1490 		ADD_SCENESELECTOR_APT8L08_REGISTER_ADDRESS_SYSCON, ADD_SCENESELECTOR_APT8L08_MODE_NORMAL);
        ; Setup parameters for call to function addSceneSelector_APT8L08_I2C_writeRegister
        MOV     R2,#0x0
        MOV     R1,#0x3a
        LCALL   ??addSceneSelector_APT8L08_I2C_writeRegister?re; Banked call to: addSceneSelector_APT8L08_I2C_writeRegister
// 1491 	addCommon_delayMS(10);
        ; Setup parameters for call to function addCommon_delayMS
        MOV     R2,#0xa
        MOV     R3,#0x0
        LCALL   ??addCommon_delayMS?relay; Banked call to: addCommon_delayMS
// 1492 	addSceneSelector_APT8L08_I2C_writeRegister(
// 1493 		ADD_SCENESELECTOR_APT8L08_REGISTER_ADDRESS_SYSCON, ADD_SCENESELECTOR_APT8L08_MODE_CONFIGURE);
        ; Setup parameters for call to function addSceneSelector_APT8L08_I2C_writeRegister
        MOV     R2,#0x5a
        MOV     R1,#0x3a
        LCALL   ??addSceneSelector_APT8L08_I2C_writeRegister?re; Banked call to: addSceneSelector_APT8L08_I2C_writeRegister
// 1494 	addCommon_delayMS(10);
        ; Setup parameters for call to function addCommon_delayMS
        MOV     R2,#0xa
        MOV     R3,#0x0
        LCALL   ??addCommon_delayMS?relay; Banked call to: addCommon_delayMS
// 1495 	
// 1496 	for (uint8 i = 0; i < 16; i++)
        MOV     R6,#0x0
// 1497 	{
// 1498 		addSceneSelector_APT8L08_I2C_writeRegister(
// 1499 			aSceneSelectorApt8l08_registerAddress[i], aSceneSelectorApt8l08_registerData[i]);
??addSceneSelector_APT8L08_initAl_0:
        MOV     A,R6
        MOV     R0,A
        ; Setup parameters for call to function addSceneSelector_APT8L08_I2C_writeRegister
        MOV     A,#aSceneSelectorApt8l08_registerData & 0xff
        ADD     A,R0
        MOV     DPL,A
        CLR     A
        ADDC    A,#(aSceneSelectorApt8l08_registerData >> 8) & 0xff
        MOV     DPH,A
        MOVX    A,@DPTR
        MOV     R2,A
        MOV     A,#aSceneSelectorApt8l08_registerAddress & 0xff
        ADD     A,R0
        MOV     DPL,A
        CLR     A
        ADDC    A,#(aSceneSelectorApt8l08_registerAddress >> 8) & 0xff
        MOV     DPH,A
        MOVX    A,@DPTR
        MOV     R1,A
        LCALL   ??addSceneSelector_APT8L08_I2C_writeRegister?re; Banked call to: addSceneSelector_APT8L08_I2C_writeRegister
// 1500 	}
        INC     R6
        MOV     A,R6
        CLR     C
        SUBB    A,#0x10
        JC      ??addSceneSelector_APT8L08_initAl_0
// 1501 	
// 1502 	addSceneSelector_APT8L08_I2C_writeRegister(
// 1503 		ADD_SCENESELECTOR_APT8L08_REGISTER_ADDRESS_GSR, ADD_SCENESELECTOR_APT8L08_REGISTER_DATA_GSR); //gsr
        ; Setup parameters for call to function addSceneSelector_APT8L08_I2C_writeRegister
        MOV     R2,#0x4
        MOV     R1,#0x20
        LCALL   ??addSceneSelector_APT8L08_I2C_writeRegister?re; Banked call to: addSceneSelector_APT8L08_I2C_writeRegister
// 1504 	addCommon_delayMS(10);
        ; Setup parameters for call to function addCommon_delayMS
        MOV     R2,#0xa
        MOV     R3,#0x0
        LCALL   ??addCommon_delayMS?relay; Banked call to: addCommon_delayMS
// 1505 	addSceneSelector_APT8L08_I2C_writeRegister(
// 1506 		ADD_SCENESELECTOR_APT8L08_REGISTER_ADDRESS_MCON, ADD_SCENESELECTOR_APT8L08_REGISTER_DATA_MCON); //mcon 当使用AT8L08时,高4位一定要配置为“5";当使用AT8L16时,高4位配置为“0”
        ; Setup parameters for call to function addSceneSelector_APT8L08_I2C_writeRegister
        MOV     R2,#0x54
        MOV     R1,#0x21
        LCALL   ??addSceneSelector_APT8L08_I2C_writeRegister?re; Banked call to: addSceneSelector_APT8L08_I2C_writeRegister
// 1507 	addCommon_delayMS(10);
        ; Setup parameters for call to function addCommon_delayMS
        MOV     R2,#0xa
        MOV     R3,#0x0
        LCALL   ??addCommon_delayMS?relay; Banked call to: addCommon_delayMS
// 1508 	addSceneSelector_APT8L08_I2C_writeRegister(
// 1509 		ADD_SCENESELECTOR_APT8L08_REGISTER_ADDRESS_K0_ENB, ADD_SCENESELECTOR_APT8L08_REGISTER_DATA_K0_ENB); //K0_CON
        ; Setup parameters for call to function addSceneSelector_APT8L08_I2C_writeRegister
        MOV     R2,#0x3
        MOV     R1,#0x23
        LCALL   ??addSceneSelector_APT8L08_I2C_writeRegister?re; Banked call to: addSceneSelector_APT8L08_I2C_writeRegister
// 1510 	addCommon_delayMS(10);
        ; Setup parameters for call to function addCommon_delayMS
        MOV     R2,#0xa
        MOV     R3,#0x0
        LCALL   ??addCommon_delayMS?relay; Banked call to: addCommon_delayMS
// 1511 	addSceneSelector_APT8L08_I2C_writeRegister(
// 1512 		ADD_SCENESELECTOR_APT8L08_REGISTER_ADDRESS_K1_ENB, ADD_SCENESELECTOR_APT8L08_REGISTER_DATA_K1_ENB); //K1_CON
        ; Setup parameters for call to function addSceneSelector_APT8L08_I2C_writeRegister
        MOV     R2,#-0x1
        MOV     R1,#0x24
        LCALL   ??addSceneSelector_APT8L08_I2C_writeRegister?re; Banked call to: addSceneSelector_APT8L08_I2C_writeRegister
// 1513 	addCommon_delayMS(10);
        ; Setup parameters for call to function addCommon_delayMS
        MOV     R2,#0xa
        MOV     R3,#0x0
        LCALL   ??addCommon_delayMS?relay; Banked call to: addCommon_delayMS
// 1514 
// 1515 	//addSceneSelector_APT8L08_I2C_writeRegister(
// 1516 	//		ADD_SCENESELECTOR_APT8L08_REGISTER_ADDRESS_KOR00, aSceneSelectorApt8l08_tkFin8bit[0]);
// 1517 	//	addCommon_delayMS(10);
// 1518 	for (uint8 i = 0; i < 16; i++)
        MOV     R6,#0x0
// 1519 	{
// 1520 		addSceneSelector_APT8L08_I2C_writeRegister(i, aSceneSelectorApt8l08_tkFin8bit[i]);
??addSceneSelector_APT8L08_initAl_1:
        ; Setup parameters for call to function addSceneSelector_APT8L08_I2C_writeRegister
        MOV     A,R6
        MOV     R0,A
        MOV     A,#aSceneSelectorApt8l08_tkFin8bit & 0xff
        ADD     A,R0
        MOV     DPL,A
        CLR     A
        ADDC    A,#(aSceneSelectorApt8l08_tkFin8bit >> 8) & 0xff
        MOV     DPH,A
        MOVX    A,@DPTR
        MOV     R2,A
        MOV     A,R6
        MOV     R1,A
        LCALL   ??addSceneSelector_APT8L08_I2C_writeRegister?re; Banked call to: addSceneSelector_APT8L08_I2C_writeRegister
// 1521 		addCommon_delayMS(10);
        ; Setup parameters for call to function addCommon_delayMS
        MOV     R2,#0xa
        MOV     R3,#0x0
        LCALL   ??addCommon_delayMS?relay; Banked call to: addCommon_delayMS
// 1522 	}
        INC     R6
        MOV     A,R6
        CLR     C
        SUBB    A,#0x10
        JC      ??addSceneSelector_APT8L08_initAl_1
// 1523 
// 1524 	addSceneSelector_APT8L08_I2C_writeRegister(
// 1525 		ADD_SCENESELECTOR_APT8L08_REGISTER_ADDRESS_FILTER0, 0xac); //FILTER<1:0>, 分别对应原始值0 1 2 3 阶滤波；FILTER<3:2>，分别对应参考值寄存器更新时间2 4 8 16 次有效后更新； FILTER<5:4>, 分别对应参考值0 1 2 3 阶滤波FILTER<6>按键键值更新不设高上限
        ; Setup parameters for call to function addSceneSelector_APT8L08_I2C_writeRegister
        MOV     R2,#-0x54
        MOV     R1,#0x22
        LCALL   ??addSceneSelector_APT8L08_I2C_writeRegister?re; Banked call to: addSceneSelector_APT8L08_I2C_writeRegister
// 1526 	addCommon_delayMS(10);
        ; Setup parameters for call to function addCommon_delayMS
        MOV     R2,#0xa
        MOV     R3,#0x0
        LCALL   ??addCommon_delayMS?relay; Banked call to: addCommon_delayMS
// 1527 	//addSceneSelector_APT8L08_I2C_writeRegister(
// 1528 	//	ADD_SCENESELECTOR_APT8L08_REGISTER_ADDRESS_SENSE_CON, 0x40);	//加快扫描速度
// 1529 	//addCommon_delayMS(10);
// 1530 	addSceneSelector_APT8L08_I2C_writeRegister(
// 1531 		ADD_SCENESELECTOR_APT8L08_REGISTER_ADDRESS_REF_UTH, 0x60); //参考寄存器更新阈值 
        ; Setup parameters for call to function addSceneSelector_APT8L08_I2C_writeRegister
        MOV     R2,#0x60
        MOV     R1,#0x29
        LCALL   ??addSceneSelector_APT8L08_I2C_writeRegister?re; Banked call to: addSceneSelector_APT8L08_I2C_writeRegister
// 1532 	addCommon_delayMS(10);
        ; Setup parameters for call to function addCommon_delayMS
        MOV     R2,#0xa
        MOV     R3,#0x0
        LCALL   ??addCommon_delayMS?relay; Banked call to: addCommon_delayMS
// 1533 	addSceneSelector_APT8L08_I2C_writeRegister(
// 1534 		ADD_SCENESELECTOR_APT8L08_REGISTER_ADDRESS_KEY_ATH, 0xff); //开发模式寄存器 直接触摸PAD设置“0XFF",默认“0X10”
        ; Setup parameters for call to function addSceneSelector_APT8L08_I2C_writeRegister
        MOV     R2,#-0x1
        MOV     R1,#0x2a
        LCALL   ??addSceneSelector_APT8L08_I2C_writeRegister?re; Banked call to: addSceneSelector_APT8L08_I2C_writeRegister
// 1535 	addCommon_delayMS(10);
        ; Setup parameters for call to function addCommon_delayMS
        MOV     R2,#0xa
        MOV     R3,#0x0
        LCALL   ??addCommon_delayMS?relay; Banked call to: addCommon_delayMS
// 1536 	addSceneSelector_APT8L08_I2C_writeRegister(
// 1537 		ADD_SCENESELECTOR_APT8L08_REGISTER_ADDRESS_MCONH, 0x42); //BIT 6 置“1” 去掉longpress 16s
        ; Setup parameters for call to function addSceneSelector_APT8L08_I2C_writeRegister
        MOV     R2,#0x42
        MOV     R1,#0x2c
        LCALL   ??addSceneSelector_APT8L08_I2C_writeRegister?re; Banked call to: addSceneSelector_APT8L08_I2C_writeRegister
// 1538 	addCommon_delayMS(10);
        ; Setup parameters for call to function addCommon_delayMS
        MOV     R2,#0xa
        MOV     R3,#0x0
        LCALL   ??addCommon_delayMS?relay; Banked call to: addCommon_delayMS
// 1539 	addSceneSelector_APT8L08_I2C_writeRegister(
// 1540 		ADD_SCENESELECTOR_APT8L08_REGISTER_ADDRESS_FILTER1, 0x00); //开发模式寄存器 直接触摸PAD设置“0X08",默认“0X00”
        ; Setup parameters for call to function addSceneSelector_APT8L08_I2C_writeRegister
        MOV     R2,#0x0
        MOV     R1,#0x2d
        LCALL   ??addSceneSelector_APT8L08_I2C_writeRegister?re; Banked call to: addSceneSelector_APT8L08_I2C_writeRegister
// 1541 	addCommon_delayMS(10);
        ; Setup parameters for call to function addCommon_delayMS
        MOV     R2,#0xa
        MOV     R3,#0x0
        LCALL   ??addCommon_delayMS?relay; Banked call to: addCommon_delayMS
// 1542 	addSceneSelector_APT8L08_I2C_writeRegister(
// 1543 		ADD_SCENESELECTOR_APT8L08_REGISTER_ADDRESS_SYSCON, ADD_SCENESELECTOR_APT8L08_MODE_NORMAL);
        ; Setup parameters for call to function addSceneSelector_APT8L08_I2C_writeRegister
        MOV     R2,#0x0
        MOV     R1,#0x3a
        LCALL   ??addSceneSelector_APT8L08_I2C_writeRegister?re; Banked call to: addSceneSelector_APT8L08_I2C_writeRegister
// 1544 	addCommon_delayMS(10);
        ; Setup parameters for call to function addCommon_delayMS
        MOV     R2,#0xa
        MOV     R3,#0x0
        LCALL   ??addCommon_delayMS?relay; Banked call to: addCommon_delayMS
// 1545 
// 1546 	addCommon_delayMS(500);	
        ; Setup parameters for call to function addCommon_delayMS
        MOV     R2,#-0xc
        MOV     R3,#0x1
        LCALL   ??addCommon_delayMS?relay; Banked call to: addCommon_delayMS
          CFI EndBlock cfiBlock123
// 1547 }
        REQUIRE ?Subroutine1
        ; // Fall through to label ?Subroutine1

        RSEG BANKED_CODE:CODE:NOROOT(0)
?Subroutine1:
          CFI Block cfiBlock124 Using cfiCommon0
          CFI NoFunction
          CFI CFA_SP SP+0
          CFI CFA_XSP16 add(XSP16, 9)
          CFI VB load(1, XDATA, add(CFA_XSP16, literal(-8)))
          CFI DPL0 load(1, XDATA, add(CFA_XSP16, literal(-2)))
          CFI DPH0 load(1, XDATA, add(CFA_XSP16, literal(-1)))
          CFI R6 load(1, XDATA, add(CFA_XSP16, literal(-9)))
          CFI R7 load(1, XDATA, add(CFA_XSP16, literal(-6)))
          CFI V0 load(1, XDATA, add(CFA_XSP16, literal(-7)))
          CFI ?BRET_EXT load(1, XDATA, add(CFA_XSP16, literal(-3)))
          CFI ?RET_HIGH load(1, XDATA, add(CFA_XSP16, literal(-4)))
          CFI ?RET_LOW load(1, XDATA, add(CFA_XSP16, literal(-5)))
        MOV     R7,#0x1
        LJMP    ?BANKED_LEAVE_XDATA
          CFI EndBlock cfiBlock124
// 1548 
// 1549 /*********************************************************************
// 1550  * @fn      addSceneSelector_APT8L08_I2C_start
// 1551  *
// 1552  * @brief   APT8L08 i2c start.
// 1553  *
// 1554  * @param   none
// 1555  *
// 1556  * @return  none
// 1557  */

        RSEG BANKED_CODE:CODE:NOROOT(0)
// 1558 static void addSceneSelector_APT8L08_I2C_start(void)
addSceneSelector_APT8L08_I2C_start:
          CFI Block cfiBlock125 Using cfiCommon0
          CFI Function addSceneSelector_APT8L08_I2C_start
        CODE
// 1559 {	
        FUNCALL addSceneSelector_APT8L08_I2C_start, Onboard_wait
        LOCFRAME ISTACK, 2, STACK
        LOCFRAME PSTACK, 0, STACK
        LOCFRAME XSTACK, 0, STACK
        LOCFRAME IOVERLAY, 0, STATIC
        LOCFRAME DOVERLAY, 0, STATIC
        ARGFRAME ISTACK, 2, STACK
        ARGFRAME PSTACK, 0, STACK
        ARGFRAME XSTACK, 0, STACK
        ARGFRAME IOVERLAY, 0, STATIC
        ARGFRAME DOVERLAY, 0, STATIC
        FUNCALL addSceneSelector_APT8L08_I2C_start, Onboard_wait
        LOCFRAME ISTACK, 2, STACK
        LOCFRAME PSTACK, 0, STACK
        LOCFRAME XSTACK, 0, STACK
        LOCFRAME IOVERLAY, 0, STATIC
        LOCFRAME DOVERLAY, 0, STATIC
        ARGFRAME ISTACK, 2, STACK
        ARGFRAME PSTACK, 0, STACK
        ARGFRAME XSTACK, 0, STACK
        ARGFRAME IOVERLAY, 0, STATIC
        ARGFRAME DOVERLAY, 0, STATIC
        FUNCALL addSceneSelector_APT8L08_I2C_start, Onboard_wait
        LOCFRAME ISTACK, 2, STACK
        LOCFRAME PSTACK, 0, STACK
        LOCFRAME XSTACK, 0, STACK
        LOCFRAME IOVERLAY, 0, STATIC
        LOCFRAME DOVERLAY, 0, STATIC
        ARGFRAME ISTACK, 2, STACK
        ARGFRAME PSTACK, 0, STACK
        ARGFRAME XSTACK, 0, STACK
        ARGFRAME IOVERLAY, 0, STATIC
        ARGFRAME DOVERLAY, 0, STATIC
        PUSH    DPL
          CFI DPL0 Frame(CFA_SP, 4)
          CFI CFA_SP SP+-4
        PUSH    DPH
          CFI DPH0 Frame(CFA_SP, 5)
          CFI CFA_SP SP+-5
        ; Saved register size: 2
        ; Auto size: 0
// 1560 	ADD_SCENESELECTOR_APT8L08_SDA = 1;
        SETB    0x80.4
// 1561 	MicroWait(5);
        ; Setup parameters for call to function Onboard_wait
        MOV     R2,#0x5
        MOV     R3,#0x0
        LCALL   ??Onboard_wait?relay ; Banked call to: Onboard_wait
// 1562 	ADD_SCENESELECTOR_APT8L08_SCL = 1;
        SETB    0x80.5
// 1563 	MicroWait(5);
        ; Setup parameters for call to function Onboard_wait
        MOV     R2,#0x5
        MOV     R3,#0x0
        LCALL   ??Onboard_wait?relay ; Banked call to: Onboard_wait
// 1564 	ADD_SCENESELECTOR_APT8L08_SDA = 0;
        CLR     0x80.4
// 1565 	MicroWait(5);	
        ; Setup parameters for call to function Onboard_wait
        LJMP    ?Subroutine0 & 0xFFFF
          CFI EndBlock cfiBlock125
        REQUIRE _A_P0
// 1566 }
// 1567 
// 1568 /*********************************************************************
// 1569  * @fn      addSceneSelector_APT8L08_I2C_stop
// 1570  *
// 1571  * @brief   APT8L08 i2c stop.
// 1572  *
// 1573  * @param   none
// 1574  *
// 1575  * @return  none
// 1576  */

        RSEG BANKED_CODE:CODE:NOROOT(0)
// 1577 static void addSceneSelector_APT8L08_I2C_stop(void)
addSceneSelector_APT8L08_I2C_stop:
          CFI Block cfiBlock126 Using cfiCommon0
          CFI Function addSceneSelector_APT8L08_I2C_stop
        CODE
// 1578 {	
        FUNCALL addSceneSelector_APT8L08_I2C_stop, Onboard_wait
        LOCFRAME ISTACK, 2, STACK
        LOCFRAME PSTACK, 0, STACK
        LOCFRAME XSTACK, 0, STACK
        LOCFRAME IOVERLAY, 0, STATIC
        LOCFRAME DOVERLAY, 0, STATIC
        ARGFRAME ISTACK, 2, STACK
        ARGFRAME PSTACK, 0, STACK
        ARGFRAME XSTACK, 0, STACK
        ARGFRAME IOVERLAY, 0, STATIC
        ARGFRAME DOVERLAY, 0, STATIC
        FUNCALL addSceneSelector_APT8L08_I2C_stop, Onboard_wait
        LOCFRAME ISTACK, 2, STACK
        LOCFRAME PSTACK, 0, STACK
        LOCFRAME XSTACK, 0, STACK
        LOCFRAME IOVERLAY, 0, STATIC
        LOCFRAME DOVERLAY, 0, STATIC
        ARGFRAME ISTACK, 2, STACK
        ARGFRAME PSTACK, 0, STACK
        ARGFRAME XSTACK, 0, STACK
        ARGFRAME IOVERLAY, 0, STATIC
        ARGFRAME DOVERLAY, 0, STATIC
        FUNCALL addSceneSelector_APT8L08_I2C_stop, Onboard_wait
        LOCFRAME ISTACK, 2, STACK
        LOCFRAME PSTACK, 0, STACK
        LOCFRAME XSTACK, 0, STACK
        LOCFRAME IOVERLAY, 0, STATIC
        LOCFRAME DOVERLAY, 0, STATIC
        ARGFRAME ISTACK, 2, STACK
        ARGFRAME PSTACK, 0, STACK
        ARGFRAME XSTACK, 0, STACK
        ARGFRAME IOVERLAY, 0, STATIC
        ARGFRAME DOVERLAY, 0, STATIC
        PUSH    DPL
          CFI DPL0 Frame(CFA_SP, 4)
          CFI CFA_SP SP+-4
        PUSH    DPH
          CFI DPH0 Frame(CFA_SP, 5)
          CFI CFA_SP SP+-5
        ; Saved register size: 2
        ; Auto size: 0
// 1579 	ADD_SCENESELECTOR_APT8L08_SDA = 0;
        CLR     0x80.4
// 1580 	MicroWait(5);
        ; Setup parameters for call to function Onboard_wait
        MOV     R2,#0x5
        MOV     R3,#0x0
        LCALL   ??Onboard_wait?relay ; Banked call to: Onboard_wait
// 1581 	ADD_SCENESELECTOR_APT8L08_SCL = 1;
        SETB    0x80.5
// 1582 	MicroWait(5);
        ; Setup parameters for call to function Onboard_wait
        MOV     R2,#0x5
        MOV     R3,#0x0
        LCALL   ??Onboard_wait?relay ; Banked call to: Onboard_wait
// 1583 	ADD_SCENESELECTOR_APT8L08_SDA = 1;
        SETB    0x80.4
// 1584 	MicroWait(5);	
        ; Setup parameters for call to function Onboard_wait
        LJMP    ?Subroutine0 & 0xFFFF
          CFI EndBlock cfiBlock126
        REQUIRE _A_P0
// 1585 }
// 1586 
// 1587 /*********************************************************************
// 1588  * @fn      addSceneSelector_APT8L08_I2C_waitACK
// 1589  *
// 1590  * @brief   APT8L08 i2c wait ACK.
// 1591  *
// 1592  * @param   none
// 1593  *
// 1594  * @return  none
// 1595  */

        RSEG BANKED_CODE:CODE:NOROOT(0)
// 1596 static void addSceneSelector_APT8L08_I2C_waitACK(void)
addSceneSelector_APT8L08_I2C_waitACK:
          CFI Block cfiBlock127 Using cfiCommon0
          CFI Function addSceneSelector_APT8L08_I2C_waitACK
        CODE
// 1597 {
        FUNCALL addSceneSelector_APT8L08_I2C_waitACK, Onboard_wait
        LOCFRAME ISTACK, 2, STACK
        LOCFRAME PSTACK, 0, STACK
        LOCFRAME XSTACK, 0, STACK
        LOCFRAME IOVERLAY, 0, STATIC
        LOCFRAME DOVERLAY, 0, STATIC
        ARGFRAME ISTACK, 2, STACK
        ARGFRAME PSTACK, 0, STACK
        ARGFRAME XSTACK, 0, STACK
        ARGFRAME IOVERLAY, 0, STATIC
        ARGFRAME DOVERLAY, 0, STATIC
        PUSH    DPL
          CFI DPL0 Frame(CFA_SP, 4)
          CFI CFA_SP SP+-4
        PUSH    DPH
          CFI DPH0 Frame(CFA_SP, 5)
          CFI CFA_SP SP+-5
        ; Saved register size: 2
        ; Auto size: 0
// 1598 	uint8 bTemp;
// 1599 
// 1600 	ADD_SCENESELECTOR_APT8L08_SCL = 1;
        SETB    0x80.5
// 1601 	ADD_SCENESELECTOR_APT8L08_SDA_DIR(ADD_SCENESELECTOR_INPUT);
        ANL     0xfd,#0xef
// 1602 	for (bTemp = 0; bTemp <= 250; bTemp++)
        MOV     R0,#0x0
// 1603 	{
// 1604 		if (ADD_SCENESELECTOR_APT8L08_SDA)
??addSceneSelector_APT8L08_I2C_waitACK_0:
        MOV     C,0x80.4
        JNC     ??addSceneSelector_APT8L08_I2C_waitACK_1
// 1605 		{
// 1606 			// no operation
// 1607 		} else 
// 1608 		{
// 1609 			break;
// 1610 		}
// 1611 	}
        INC     R0
        MOV     A,R0
        CLR     C
        SUBB    A,#-0x5
        JC      ??addSceneSelector_APT8L08_I2C_waitACK_0
// 1612 
// 1613 	if (bTemp >= 250)
??addSceneSelector_APT8L08_I2C_waitACK_1:
        MOV     A,R0
        CLR     C
        SUBB    A,#-0x6
        JC      ??addSceneSelector_APT8L08_I2C_waitACK_2
// 1614 	{
// 1615 		aSceneSelectorApt8l08_i2cWaitStatus = 0x0a;
        MOV     DPTR,#aSceneSelectorApt8l08_i2cWaitStatus
        MOV     A,#0xa
        MOVX    @DPTR,A
// 1616 	}
// 1617 	ADD_SCENESELECTOR_APT8L08_SCL = 0;
??addSceneSelector_APT8L08_I2C_waitACK_2:
        CLR     0x80.5
// 1618 	ADD_SCENESELECTOR_APT8L08_SDA_DIR(ADD_SCENESELECTOR_OUTPUT);
        ORL     0xfd,#0x10
// 1619 	MicroWait(5);
        ; Setup parameters for call to function Onboard_wait
        LJMP    ?Subroutine0 & 0xFFFF
          CFI EndBlock cfiBlock127
        REQUIRE _A_P0
        REQUIRE P0DIR
// 1620 }
// 1621 
// 1622 /*********************************************************************
// 1623  * @fn      addSceneSelector_APT8L08_I2C_noACK
// 1624  *
// 1625  * @brief   APT8L08 i2c no ACK.
// 1626  *
// 1627  * @param   none
// 1628  *
// 1629  * @return  none
// 1630  */
// 1631 static void addSceneSelector_APT8L08_I2C_noACK(void)
// 1632 {
// 1633 	ADD_SCENESELECTOR_APT8L08_SDA = 1;
// 1634 	MicroWait(5);
// 1635 	ADD_SCENESELECTOR_APT8L08_SCL = 1;
// 1636 	MicroWait(5);
// 1637 	ADD_SCENESELECTOR_APT8L08_SCL = 0;
// 1638 	MicroWait(5);
// 1639 	ADD_SCENESELECTOR_APT8L08_SDA = 0;
// 1640 	MicroWait(5);
// 1641 }
// 1642 
// 1643 /*********************************************************************
// 1644  * @fn      addSceneSelector_APT8L08_I2C_ACK
// 1645  *
// 1646  * @brief   APT8L08 i2c ACK.
// 1647  *
// 1648  * @param   none
// 1649  *
// 1650  * @return  none
// 1651  */
// 1652 static void addSceneSelector_APT8L08_I2C_ACK(void)
// 1653 {
// 1654 	ADD_SCENESELECTOR_APT8L08_SDA = 0;
// 1655 	MicroWait(5);
// 1656 	ADD_SCENESELECTOR_APT8L08_SCL = 1;
// 1657 	MicroWait(5);
// 1658 	ADD_SCENESELECTOR_APT8L08_SCL = 0;
// 1659 	MicroWait(5);
// 1660 	ADD_SCENESELECTOR_APT8L08_SDA = 1;
// 1661 	MicroWait(5);
// 1662 }
// 1663 
// 1664 /*********************************************************************
// 1665  * @fn      addSceneSelector_APT8L08_I2C_write8bit
// 1666  *
// 1667  * @brief   APT8L08 i2c write 8 bit.
// 1668  *
// 1669  * @param   none
// 1670  *
// 1671  * @return  none
// 1672  */

        RSEG BANKED_CODE:CODE:NOROOT(0)
// 1673 static void addSceneSelector_APT8L08_I2C_write8bit(uint8 dataWrite)
addSceneSelector_APT8L08_I2C_write8bit:
          CFI Block cfiBlock128 Using cfiCommon0
          CFI Function addSceneSelector_APT8L08_I2C_write8bit
        CODE
// 1674 {
        FUNCALL addSceneSelector_APT8L08_I2C_write8bit, Onboard_wait
        LOCFRAME ISTACK, 0, STACK
        LOCFRAME PSTACK, 0, STACK
        LOCFRAME XSTACK, 10, STACK
        LOCFRAME IOVERLAY, 0, STATIC
        LOCFRAME DOVERLAY, 0, STATIC
        ARGFRAME ISTACK, 0, STACK
        ARGFRAME PSTACK, 0, STACK
        ARGFRAME XSTACK, 10, STACK
        ARGFRAME IOVERLAY, 0, STATIC
        ARGFRAME DOVERLAY, 0, STATIC
        FUNCALL addSceneSelector_APT8L08_I2C_write8bit, Onboard_wait
        LOCFRAME ISTACK, 0, STACK
        LOCFRAME PSTACK, 0, STACK
        LOCFRAME XSTACK, 10, STACK
        LOCFRAME IOVERLAY, 0, STATIC
        LOCFRAME DOVERLAY, 0, STATIC
        ARGFRAME ISTACK, 0, STACK
        ARGFRAME PSTACK, 0, STACK
        ARGFRAME XSTACK, 10, STACK
        ARGFRAME IOVERLAY, 0, STATIC
        ARGFRAME DOVERLAY, 0, STATIC
        FUNCALL addSceneSelector_APT8L08_I2C_write8bit, Onboard_wait
        LOCFRAME ISTACK, 0, STACK
        LOCFRAME PSTACK, 0, STACK
        LOCFRAME XSTACK, 10, STACK
        LOCFRAME IOVERLAY, 0, STATIC
        LOCFRAME DOVERLAY, 0, STATIC
        ARGFRAME ISTACK, 0, STACK
        ARGFRAME PSTACK, 0, STACK
        ARGFRAME XSTACK, 10, STACK
        ARGFRAME IOVERLAY, 0, STATIC
        ARGFRAME DOVERLAY, 0, STATIC
        FUNCALL addSceneSelector_APT8L08_I2C_write8bit, Onboard_wait
        LOCFRAME ISTACK, 0, STACK
        LOCFRAME PSTACK, 0, STACK
        LOCFRAME XSTACK, 10, STACK
        LOCFRAME IOVERLAY, 0, STATIC
        LOCFRAME DOVERLAY, 0, STATIC
        ARGFRAME ISTACK, 0, STACK
        ARGFRAME PSTACK, 0, STACK
        ARGFRAME XSTACK, 10, STACK
        ARGFRAME IOVERLAY, 0, STATIC
        ARGFRAME DOVERLAY, 0, STATIC
        FUNCALL addSceneSelector_APT8L08_I2C_write8bit, Onboard_wait
        LOCFRAME ISTACK, 0, STACK
        LOCFRAME PSTACK, 0, STACK
        LOCFRAME XSTACK, 10, STACK
        LOCFRAME IOVERLAY, 0, STATIC
        LOCFRAME DOVERLAY, 0, STATIC
        ARGFRAME ISTACK, 0, STACK
        ARGFRAME PSTACK, 0, STACK
        ARGFRAME XSTACK, 10, STACK
        ARGFRAME IOVERLAY, 0, STATIC
        ARGFRAME DOVERLAY, 0, STATIC
        FUNCALL addSceneSelector_APT8L08_I2C_write8bit, Onboard_wait
        LOCFRAME ISTACK, 0, STACK
        LOCFRAME PSTACK, 0, STACK
        LOCFRAME XSTACK, 10, STACK
        LOCFRAME IOVERLAY, 0, STATIC
        LOCFRAME DOVERLAY, 0, STATIC
        ARGFRAME ISTACK, 0, STACK
        ARGFRAME PSTACK, 0, STACK
        ARGFRAME XSTACK, 10, STACK
        ARGFRAME IOVERLAY, 0, STATIC
        ARGFRAME DOVERLAY, 0, STATIC
        REQUIRE ?V0
        REQUIRE ?V1
        MOV     A,#-0xa
        LCALL   ?BANKED_ENTER_XDATA
          CFI DPH0 load(1, XDATA, add(CFA_XSP16, literal(-1)))
          CFI DPL0 load(1, XDATA, add(CFA_XSP16, literal(-2)))
          CFI ?BRET_EXT load(1, XDATA, add(CFA_XSP16, literal(-3)))
          CFI ?RET_HIGH load(1, XDATA, add(CFA_XSP16, literal(-4)))
          CFI ?RET_LOW load(1, XDATA, add(CFA_XSP16, literal(-5)))
          CFI R7 load(1, XDATA, add(CFA_XSP16, literal(-6)))
          CFI V1 load(1, XDATA, add(CFA_XSP16, literal(-7)))
          CFI V0 load(1, XDATA, add(CFA_XSP16, literal(-8)))
          CFI VB load(1, XDATA, add(CFA_XSP16, literal(-9)))
          CFI R6 load(1, XDATA, add(CFA_XSP16, literal(-10)))
          CFI CFA_SP SP+0
          CFI CFA_XSP16 add(XSP16, 10)
        ; Saved register size: 10
        ; Auto size: 0
        MOV     A,R1
        MOV     R7,A
// 1675 	ADD_SCENESELECTOR_APT8L08_SCL = 0;
        CLR     0x80.5
// 1676 	MicroWait(5);
        ; Setup parameters for call to function Onboard_wait
        MOV     R2,#0x5
        MOV     R3,#0x0
        LCALL   ??Onboard_wait?relay ; Banked call to: Onboard_wait
// 1677 	for (uint8 i = 0; i < 8; i++)
        MOV     R6,#0x0
// 1678 	{
// 1679 		if ((dataWrite << i) & 0x80)
??addSceneSelector_APT8L08_I2C_write8bit_0:
        MOV     ?V0,R7
        MOV     ?V1,#0x0
        MOV     A,R6
        MOV     R0,#?V0
        LCALL   ?S_SHL
        MOV     A,?V0
        ANL     A,#0x80
        JZ      ??addSceneSelector_APT8L08_I2C_write8bit_1
// 1680 			ADD_SCENESELECTOR_APT8L08_SDA = 1;
        SETB    0x80.4
        SJMP    ??addSceneSelector_APT8L08_I2C_write8bit_2
// 1681 		else			
// 1682 			ADD_SCENESELECTOR_APT8L08_SDA = 0;
??addSceneSelector_APT8L08_I2C_write8bit_1:
        CLR     0x80.4
// 1683 		MicroWait(5);
??addSceneSelector_APT8L08_I2C_write8bit_2:
        ; Setup parameters for call to function Onboard_wait
        MOV     R2,#0x5
        MOV     R3,#0x0
        LCALL   ??Onboard_wait?relay ; Banked call to: Onboard_wait
// 1684 		ADD_SCENESELECTOR_APT8L08_SCL = 1;
        SETB    0x80.5
// 1685 		MicroWait(5);
        ; Setup parameters for call to function Onboard_wait
        MOV     R2,#0x5
        MOV     R3,#0x0
        LCALL   ??Onboard_wait?relay ; Banked call to: Onboard_wait
// 1686 		ADD_SCENESELECTOR_APT8L08_SCL = 0;
        CLR     0x80.5
// 1687 		MicroWait(5);		
        ; Setup parameters for call to function Onboard_wait
        MOV     R2,#0x5
        MOV     R3,#0x0
        LCALL   ??Onboard_wait?relay ; Banked call to: Onboard_wait
// 1688 	}
        INC     R6
        MOV     A,R6
        CLR     C
        SUBB    A,#0x8
        JC      ??addSceneSelector_APT8L08_I2C_write8bit_0
// 1689 	ADD_SCENESELECTOR_APT8L08_SCL = 0;
        CLR     0x80.5
// 1690 	MicroWait(5);
        ; Setup parameters for call to function Onboard_wait
        MOV     R2,#0x5
        MOV     R3,#0x0
        LCALL   ??Onboard_wait?relay ; Banked call to: Onboard_wait
// 1691 	ADD_SCENESELECTOR_APT8L08_SDA = 1;
        SETB    0x80.4
// 1692 	MicroWait(5);	
        ; Setup parameters for call to function Onboard_wait
        MOV     R2,#0x5
        MOV     R3,#0x0
        LCALL   ??Onboard_wait?relay ; Banked call to: Onboard_wait
// 1693 }
        LJMP    ?Subroutine2 & 0xFFFF
          CFI EndBlock cfiBlock128
        REQUIRE _A_P0
// 1694 
// 1695 /*********************************************************************
// 1696  * @fn      addSceneSelector_APT8L08_I2C_read8bit
// 1697  *
// 1698  * @brief   APT8L08 i2c read 8 bit.
// 1699  *
// 1700  * @param   none
// 1701  *
// 1702  * @return  none
// 1703  */
// 1704 static uint8 addSceneSelector_APT8L08_I2C_read8bit(void)
// 1705 {	
// 1706 	uint8 dataReceive;
// 1707 
// 1708 	ADD_SCENESELECTOR_APT8L08_SDA_DIR(ADD_SCENESELECTOR_INPUT);
// 1709 	for (uint8 i = 0; i < 8; i++)
// 1710 	{
// 1711 		dataReceive = dataReceive << 1;
// 1712 		ADD_SCENESELECTOR_APT8L08_SCL = 1;
// 1713 		MicroWait(5);
// 1714 		if (ADD_SCENESELECTOR_APT8L08_SDA)
// 1715 			dataReceive = dataReceive | 0x01;
// 1716 		ADD_SCENESELECTOR_APT8L08_SCL = 0;
// 1717 		MicroWait(5);		
// 1718 	}
// 1719 	ADD_SCENESELECTOR_APT8L08_SDA_DIR(ADD_SCENESELECTOR_OUTPUT);
// 1720 	ADD_SCENESELECTOR_APT8L08_SCL = 0;
// 1721 	ADD_SCENESELECTOR_APT8L08_SDA = 1;
// 1722 	MicroWait(5);
// 1723 
// 1724 	return dataReceive;
// 1725 }
// 1726 
// 1727 /*********************************************************************
// 1728  * @fn      addSceneSelector_APT8L08_I2C_writeByte
// 1729  *
// 1730  * @brief   APT8L08 i2c write byte.
// 1731  *
// 1732  * @param   none
// 1733  *
// 1734  * @return  none
// 1735  */
// 1736 static void addSceneSelector_APT8L08_I2C_writeByte(uint8 address, uint8 dataWrite)
// 1737 {
// 1738 	addSceneSelector_APT8L08_I2C_start();
// 1739 
// 1740 	addSceneSelector_APT8L08_I2C_write8bit(0xac);
// 1741 	addSceneSelector_APT8L08_I2C_waitACK();
// 1742 	addSceneSelector_APT8L08_I2C_write8bit(address);
// 1743 	addSceneSelector_APT8L08_I2C_waitACK();
// 1744 
// 1745 	addSceneSelector_APT8L08_I2C_write8bit(dataWrite);
// 1746 	addSceneSelector_APT8L08_I2C_waitACK();
// 1747 
// 1748 	addSceneSelector_APT8L08_I2C_stop();
// 1749 }
// 1750 
// 1751 /*********************************************************************
// 1752  * @fn      addSceneSelector_APT8L08_I2C_readByte
// 1753  *
// 1754  * @brief   APT8L08 i2c read byte.
// 1755  *
// 1756  * @param   none
// 1757  *
// 1758  * @return  none
// 1759  */

        RSEG BANKED_CODE:CODE:NOROOT(0)
// 1760 static uint8 addSceneSelector_APT8L08_I2C_readByte(uint8 address)
addSceneSelector_APT8L08_I2C_readByte:
          CFI Block cfiBlock129 Using cfiCommon0
          CFI Function addSceneSelector_APT8L08_I2C_readByte
        CODE
// 1761 {
        FUNCALL addSceneSelector_APT8L08_I2C_readByte, addSceneSelector_APT8L08_I2C_start
        LOCFRAME ISTACK, 0, STACK
        LOCFRAME PSTACK, 0, STACK
        LOCFRAME XSTACK, 9, STACK
        LOCFRAME IOVERLAY, 0, STATIC
        LOCFRAME DOVERLAY, 0, STATIC
        ARGFRAME ISTACK, 0, STACK
        ARGFRAME PSTACK, 0, STACK
        ARGFRAME XSTACK, 9, STACK
        ARGFRAME IOVERLAY, 0, STATIC
        ARGFRAME DOVERLAY, 0, STATIC
        FUNCALL addSceneSelector_APT8L08_I2C_readByte, addSceneSelector_APT8L08_I2C_write8bit
        LOCFRAME ISTACK, 0, STACK
        LOCFRAME PSTACK, 0, STACK
        LOCFRAME XSTACK, 9, STACK
        LOCFRAME IOVERLAY, 0, STATIC
        LOCFRAME DOVERLAY, 0, STATIC
        ARGFRAME ISTACK, 0, STACK
        ARGFRAME PSTACK, 0, STACK
        ARGFRAME XSTACK, 9, STACK
        ARGFRAME IOVERLAY, 0, STATIC
        ARGFRAME DOVERLAY, 0, STATIC
        FUNCALL addSceneSelector_APT8L08_I2C_readByte, addSceneSelector_APT8L08_I2C_waitACK
        LOCFRAME ISTACK, 0, STACK
        LOCFRAME PSTACK, 0, STACK
        LOCFRAME XSTACK, 9, STACK
        LOCFRAME IOVERLAY, 0, STATIC
        LOCFRAME DOVERLAY, 0, STATIC
        ARGFRAME ISTACK, 0, STACK
        ARGFRAME PSTACK, 0, STACK
        ARGFRAME XSTACK, 9, STACK
        ARGFRAME IOVERLAY, 0, STATIC
        ARGFRAME DOVERLAY, 0, STATIC
        FUNCALL addSceneSelector_APT8L08_I2C_readByte, addSceneSelector_APT8L08_I2C_write8bit
        LOCFRAME ISTACK, 0, STACK
        LOCFRAME PSTACK, 0, STACK
        LOCFRAME XSTACK, 9, STACK
        LOCFRAME IOVERLAY, 0, STATIC
        LOCFRAME DOVERLAY, 0, STATIC
        ARGFRAME ISTACK, 0, STACK
        ARGFRAME PSTACK, 0, STACK
        ARGFRAME XSTACK, 9, STACK
        ARGFRAME IOVERLAY, 0, STATIC
        ARGFRAME DOVERLAY, 0, STATIC
        FUNCALL addSceneSelector_APT8L08_I2C_readByte, addSceneSelector_APT8L08_I2C_waitACK
        LOCFRAME ISTACK, 0, STACK
        LOCFRAME PSTACK, 0, STACK
        LOCFRAME XSTACK, 9, STACK
        LOCFRAME IOVERLAY, 0, STATIC
        LOCFRAME DOVERLAY, 0, STATIC
        ARGFRAME ISTACK, 0, STACK
        ARGFRAME PSTACK, 0, STACK
        ARGFRAME XSTACK, 9, STACK
        ARGFRAME IOVERLAY, 0, STATIC
        ARGFRAME DOVERLAY, 0, STATIC
        FUNCALL addSceneSelector_APT8L08_I2C_readByte, addSceneSelector_APT8L08_I2C_start
        LOCFRAME ISTACK, 0, STACK
        LOCFRAME PSTACK, 0, STACK
        LOCFRAME XSTACK, 9, STACK
        LOCFRAME IOVERLAY, 0, STATIC
        LOCFRAME DOVERLAY, 0, STATIC
        ARGFRAME ISTACK, 0, STACK
        ARGFRAME PSTACK, 0, STACK
        ARGFRAME XSTACK, 9, STACK
        ARGFRAME IOVERLAY, 0, STATIC
        ARGFRAME DOVERLAY, 0, STATIC
        FUNCALL addSceneSelector_APT8L08_I2C_readByte, addSceneSelector_APT8L08_I2C_write8bit
        LOCFRAME ISTACK, 0, STACK
        LOCFRAME PSTACK, 0, STACK
        LOCFRAME XSTACK, 9, STACK
        LOCFRAME IOVERLAY, 0, STATIC
        LOCFRAME DOVERLAY, 0, STATIC
        ARGFRAME ISTACK, 0, STACK
        ARGFRAME PSTACK, 0, STACK
        ARGFRAME XSTACK, 9, STACK
        ARGFRAME IOVERLAY, 0, STATIC
        ARGFRAME DOVERLAY, 0, STATIC
        FUNCALL addSceneSelector_APT8L08_I2C_readByte, addSceneSelector_APT8L08_I2C_waitACK
        LOCFRAME ISTACK, 0, STACK
        LOCFRAME PSTACK, 0, STACK
        LOCFRAME XSTACK, 9, STACK
        LOCFRAME IOVERLAY, 0, STATIC
        LOCFRAME DOVERLAY, 0, STATIC
        ARGFRAME ISTACK, 0, STACK
        ARGFRAME PSTACK, 0, STACK
        ARGFRAME XSTACK, 9, STACK
        ARGFRAME IOVERLAY, 0, STATIC
        ARGFRAME DOVERLAY, 0, STATIC
        FUNCALL addSceneSelector_APT8L08_I2C_readByte, Onboard_wait
        LOCFRAME ISTACK, 0, STACK
        LOCFRAME PSTACK, 0, STACK
        LOCFRAME XSTACK, 9, STACK
        LOCFRAME IOVERLAY, 0, STATIC
        LOCFRAME DOVERLAY, 0, STATIC
        ARGFRAME ISTACK, 0, STACK
        ARGFRAME PSTACK, 0, STACK
        ARGFRAME XSTACK, 9, STACK
        ARGFRAME IOVERLAY, 0, STATIC
        ARGFRAME DOVERLAY, 0, STATIC
        FUNCALL addSceneSelector_APT8L08_I2C_readByte, Onboard_wait
        LOCFRAME ISTACK, 0, STACK
        LOCFRAME PSTACK, 0, STACK
        LOCFRAME XSTACK, 9, STACK
        LOCFRAME IOVERLAY, 0, STATIC
        LOCFRAME DOVERLAY, 0, STATIC
        ARGFRAME ISTACK, 0, STACK
        ARGFRAME PSTACK, 0, STACK
        ARGFRAME XSTACK, 9, STACK
        ARGFRAME IOVERLAY, 0, STATIC
        ARGFRAME DOVERLAY, 0, STATIC
        FUNCALL addSceneSelector_APT8L08_I2C_readByte, Onboard_wait
        LOCFRAME ISTACK, 0, STACK
        LOCFRAME PSTACK, 0, STACK
        LOCFRAME XSTACK, 9, STACK
        LOCFRAME IOVERLAY, 0, STATIC
        LOCFRAME DOVERLAY, 0, STATIC
        ARGFRAME ISTACK, 0, STACK
        ARGFRAME PSTACK, 0, STACK
        ARGFRAME XSTACK, 9, STACK
        ARGFRAME IOVERLAY, 0, STATIC
        ARGFRAME DOVERLAY, 0, STATIC
        FUNCALL addSceneSelector_APT8L08_I2C_readByte, Onboard_wait
        LOCFRAME ISTACK, 0, STACK
        LOCFRAME PSTACK, 0, STACK
        LOCFRAME XSTACK, 9, STACK
        LOCFRAME IOVERLAY, 0, STATIC
        LOCFRAME DOVERLAY, 0, STATIC
        ARGFRAME ISTACK, 0, STACK
        ARGFRAME PSTACK, 0, STACK
        ARGFRAME XSTACK, 9, STACK
        ARGFRAME IOVERLAY, 0, STATIC
        ARGFRAME DOVERLAY, 0, STATIC
        FUNCALL addSceneSelector_APT8L08_I2C_readByte, Onboard_wait
        LOCFRAME ISTACK, 0, STACK
        LOCFRAME PSTACK, 0, STACK
        LOCFRAME XSTACK, 9, STACK
        LOCFRAME IOVERLAY, 0, STATIC
        LOCFRAME DOVERLAY, 0, STATIC
        ARGFRAME ISTACK, 0, STACK
        ARGFRAME PSTACK, 0, STACK
        ARGFRAME XSTACK, 9, STACK
        ARGFRAME IOVERLAY, 0, STATIC
        ARGFRAME DOVERLAY, 0, STATIC
        FUNCALL addSceneSelector_APT8L08_I2C_readByte, Onboard_wait
        LOCFRAME ISTACK, 0, STACK
        LOCFRAME PSTACK, 0, STACK
        LOCFRAME XSTACK, 9, STACK
        LOCFRAME IOVERLAY, 0, STATIC
        LOCFRAME DOVERLAY, 0, STATIC
        ARGFRAME ISTACK, 0, STACK
        ARGFRAME PSTACK, 0, STACK
        ARGFRAME XSTACK, 9, STACK
        ARGFRAME IOVERLAY, 0, STATIC
        ARGFRAME DOVERLAY, 0, STATIC
        FUNCALL addSceneSelector_APT8L08_I2C_readByte, Onboard_wait
        LOCFRAME ISTACK, 0, STACK
        LOCFRAME PSTACK, 0, STACK
        LOCFRAME XSTACK, 9, STACK
        LOCFRAME IOVERLAY, 0, STATIC
        LOCFRAME DOVERLAY, 0, STATIC
        ARGFRAME ISTACK, 0, STACK
        ARGFRAME PSTACK, 0, STACK
        ARGFRAME XSTACK, 9, STACK
        ARGFRAME IOVERLAY, 0, STATIC
        ARGFRAME DOVERLAY, 0, STATIC
        FUNCALL addSceneSelector_APT8L08_I2C_readByte, addSceneSelector_APT8L08_I2C_stop
        LOCFRAME ISTACK, 0, STACK
        LOCFRAME PSTACK, 0, STACK
        LOCFRAME XSTACK, 9, STACK
        LOCFRAME IOVERLAY, 0, STATIC
        LOCFRAME DOVERLAY, 0, STATIC
        ARGFRAME ISTACK, 0, STACK
        ARGFRAME PSTACK, 0, STACK
        ARGFRAME XSTACK, 9, STACK
        ARGFRAME IOVERLAY, 0, STATIC
        ARGFRAME DOVERLAY, 0, STATIC
        REQUIRE ?V0
        MOV     A,#-0x9
        LCALL   ?BANKED_ENTER_XDATA
          CFI DPH0 load(1, XDATA, add(CFA_XSP16, literal(-1)))
          CFI DPL0 load(1, XDATA, add(CFA_XSP16, literal(-2)))
          CFI ?BRET_EXT load(1, XDATA, add(CFA_XSP16, literal(-3)))
          CFI ?RET_HIGH load(1, XDATA, add(CFA_XSP16, literal(-4)))
          CFI ?RET_LOW load(1, XDATA, add(CFA_XSP16, literal(-5)))
          CFI R7 load(1, XDATA, add(CFA_XSP16, literal(-6)))
          CFI V0 load(1, XDATA, add(CFA_XSP16, literal(-7)))
          CFI VB load(1, XDATA, add(CFA_XSP16, literal(-8)))
          CFI R6 load(1, XDATA, add(CFA_XSP16, literal(-9)))
          CFI CFA_SP SP+0
          CFI CFA_XSP16 add(XSP16, 9)
        ; Saved register size: 9
        ; Auto size: 0
        MOV     ?V0,R1
// 1762 	uint8 dataReceive;
// 1763 	
// 1764 	addSceneSelector_APT8L08_I2C_start();
        ; Setup parameters for call to function addSceneSelector_APT8L08_I2C_start
        LCALL   ??addSceneSelector_APT8L08_I2C_start?relay; Banked call to: addSceneSelector_APT8L08_I2C_start
// 1765 
// 1766 	addSceneSelector_APT8L08_I2C_write8bit(0xac);
        ; Setup parameters for call to function addSceneSelector_APT8L08_I2C_write8bit
        MOV     R1,#-0x54
        LCALL   ??addSceneSelector_APT8L08_I2C_write8bit?relay; Banked call to: addSceneSelector_APT8L08_I2C_write8bit
// 1767 	addSceneSelector_APT8L08_I2C_waitACK();
        ; Setup parameters for call to function addSceneSelector_APT8L08_I2C_waitACK
        LCALL   ??addSceneSelector_APT8L08_I2C_waitACK?relay; Banked call to: addSceneSelector_APT8L08_I2C_waitACK
// 1768 	addSceneSelector_APT8L08_I2C_write8bit(address);
        ; Setup parameters for call to function addSceneSelector_APT8L08_I2C_write8bit
        MOV     R1,?V0
        LCALL   ??addSceneSelector_APT8L08_I2C_write8bit?relay; Banked call to: addSceneSelector_APT8L08_I2C_write8bit
// 1769 	addSceneSelector_APT8L08_I2C_waitACK();
        ; Setup parameters for call to function addSceneSelector_APT8L08_I2C_waitACK
        LCALL   ??addSceneSelector_APT8L08_I2C_waitACK?relay; Banked call to: addSceneSelector_APT8L08_I2C_waitACK
// 1770 
// 1771 	addSceneSelector_APT8L08_I2C_start();
        ; Setup parameters for call to function addSceneSelector_APT8L08_I2C_start
        LCALL   ??addSceneSelector_APT8L08_I2C_start?relay; Banked call to: addSceneSelector_APT8L08_I2C_start
// 1772 
// 1773 	addSceneSelector_APT8L08_I2C_write8bit(0xad);
        ; Setup parameters for call to function addSceneSelector_APT8L08_I2C_write8bit
        MOV     R1,#-0x53
        LCALL   ??addSceneSelector_APT8L08_I2C_write8bit?relay; Banked call to: addSceneSelector_APT8L08_I2C_write8bit
// 1774 	addSceneSelector_APT8L08_I2C_waitACK();
        ; Setup parameters for call to function addSceneSelector_APT8L08_I2C_waitACK
        LCALL   ??addSceneSelector_APT8L08_I2C_waitACK?relay; Banked call to: addSceneSelector_APT8L08_I2C_waitACK
// 1775 
// 1776 	dataReceive = addSceneSelector_APT8L08_I2C_read8bit();
        ANL     0xfd,#0xef
        MOV     R7,#0x8
??addSceneSelector_APT8L08_I2C_readByte_0:
        MOV     A,R6
        CLR     C
        RLC     A
        MOV     R6,A
        SETB    0x80.5
        ; Setup parameters for call to function Onboard_wait
        MOV     R2,#0x5
        MOV     R3,#0x0
        LCALL   ??Onboard_wait?relay ; Banked call to: Onboard_wait
        MOV     C,0x80.4
        JNC     ??addSceneSelector_APT8L08_I2C_readByte_1
        MOV     A,R6
        SETB    0xE0 /* A   */.0
        MOV     R6,A
??addSceneSelector_APT8L08_I2C_readByte_1:
        CLR     0x80.5
        ; Setup parameters for call to function Onboard_wait
        MOV     R2,#0x5
        MOV     R3,#0x0
        LCALL   ??Onboard_wait?relay ; Banked call to: Onboard_wait
        DEC     R7
        MOV     A,R7
        JNZ     ??addSceneSelector_APT8L08_I2C_readByte_0
        ORL     0xfd,#0x10
        CLR     0x80.5
        SETB    0x80.4
        ; Setup parameters for call to function Onboard_wait
        MOV     R2,#0x5
        MOV     R3,#0x0
        LCALL   ??Onboard_wait?relay ; Banked call to: Onboard_wait
// 1777 	addSceneSelector_APT8L08_I2C_noACK();
        SETB    0x80.4
        ; Setup parameters for call to function Onboard_wait
        MOV     R2,#0x5
        MOV     R3,#0x0
        LCALL   ??Onboard_wait?relay ; Banked call to: Onboard_wait
        SETB    0x80.5
        ; Setup parameters for call to function Onboard_wait
        MOV     R2,#0x5
        MOV     R3,#0x0
        LCALL   ??Onboard_wait?relay ; Banked call to: Onboard_wait
        CLR     0x80.5
        ; Setup parameters for call to function Onboard_wait
        MOV     R2,#0x5
        MOV     R3,#0x0
        LCALL   ??Onboard_wait?relay ; Banked call to: Onboard_wait
        CLR     0x80.4
        ; Setup parameters for call to function Onboard_wait
        MOV     R2,#0x5
        MOV     R3,#0x0
        LCALL   ??Onboard_wait?relay ; Banked call to: Onboard_wait
// 1778 	
// 1779 	addSceneSelector_APT8L08_I2C_stop();
        ; Setup parameters for call to function addSceneSelector_APT8L08_I2C_stop
        LCALL   ??addSceneSelector_APT8L08_I2C_stop?relay; Banked call to: addSceneSelector_APT8L08_I2C_stop
// 1780 
// 1781 	return dataReceive;
        MOV     A,R6
        MOV     R1,A
        LJMP    ?Subroutine1 & 0xFFFF
          CFI EndBlock cfiBlock129
        REQUIRE _A_P0
        REQUIRE P0DIR
// 1782 }
// 1783 
// 1784 /*********************************************************************
// 1785  * @fn      addSceneSelector_APT8L08_I2C_writeRegister
// 1786  *
// 1787  * @brief   APT8L08 i2c write register.
// 1788  *
// 1789  * @param   none
// 1790  *
// 1791  * @return  none
// 1792  */

        RSEG BANKED_CODE:CODE:NOROOT(0)
// 1793 static void addSceneSelector_APT8L08_I2C_writeRegister(uint8 address, uint8 dataWrite)
addSceneSelector_APT8L08_I2C_writeRegister:
          CFI Block cfiBlock130 Using cfiCommon0
          CFI Function addSceneSelector_APT8L08_I2C_writeRegister
        CODE
// 1794 {
        FUNCALL addSceneSelector_APT8L08_I2C_writeRegister, addSceneSelector_APT8L08_I2C_start
        LOCFRAME ISTACK, 0, STACK
        LOCFRAME PSTACK, 0, STACK
        LOCFRAME XSTACK, 9, STACK
        LOCFRAME IOVERLAY, 0, STATIC
        LOCFRAME DOVERLAY, 0, STATIC
        ARGFRAME ISTACK, 0, STACK
        ARGFRAME PSTACK, 0, STACK
        ARGFRAME XSTACK, 9, STACK
        ARGFRAME IOVERLAY, 0, STATIC
        ARGFRAME DOVERLAY, 0, STATIC
        FUNCALL addSceneSelector_APT8L08_I2C_writeRegister, addSceneSelector_APT8L08_I2C_write8bit
        LOCFRAME ISTACK, 0, STACK
        LOCFRAME PSTACK, 0, STACK
        LOCFRAME XSTACK, 9, STACK
        LOCFRAME IOVERLAY, 0, STATIC
        LOCFRAME DOVERLAY, 0, STATIC
        ARGFRAME ISTACK, 0, STACK
        ARGFRAME PSTACK, 0, STACK
        ARGFRAME XSTACK, 9, STACK
        ARGFRAME IOVERLAY, 0, STATIC
        ARGFRAME DOVERLAY, 0, STATIC
        FUNCALL addSceneSelector_APT8L08_I2C_writeRegister, addSceneSelector_APT8L08_I2C_waitACK
        LOCFRAME ISTACK, 0, STACK
        LOCFRAME PSTACK, 0, STACK
        LOCFRAME XSTACK, 9, STACK
        LOCFRAME IOVERLAY, 0, STATIC
        LOCFRAME DOVERLAY, 0, STATIC
        ARGFRAME ISTACK, 0, STACK
        ARGFRAME PSTACK, 0, STACK
        ARGFRAME XSTACK, 9, STACK
        ARGFRAME IOVERLAY, 0, STATIC
        ARGFRAME DOVERLAY, 0, STATIC
        FUNCALL addSceneSelector_APT8L08_I2C_writeRegister, addSceneSelector_APT8L08_I2C_write8bit
        LOCFRAME ISTACK, 0, STACK
        LOCFRAME PSTACK, 0, STACK
        LOCFRAME XSTACK, 9, STACK
        LOCFRAME IOVERLAY, 0, STATIC
        LOCFRAME DOVERLAY, 0, STATIC
        ARGFRAME ISTACK, 0, STACK
        ARGFRAME PSTACK, 0, STACK
        ARGFRAME XSTACK, 9, STACK
        ARGFRAME IOVERLAY, 0, STATIC
        ARGFRAME DOVERLAY, 0, STATIC
        FUNCALL addSceneSelector_APT8L08_I2C_writeRegister, addSceneSelector_APT8L08_I2C_waitACK
        LOCFRAME ISTACK, 0, STACK
        LOCFRAME PSTACK, 0, STACK
        LOCFRAME XSTACK, 9, STACK
        LOCFRAME IOVERLAY, 0, STATIC
        LOCFRAME DOVERLAY, 0, STATIC
        ARGFRAME ISTACK, 0, STACK
        ARGFRAME PSTACK, 0, STACK
        ARGFRAME XSTACK, 9, STACK
        ARGFRAME IOVERLAY, 0, STATIC
        ARGFRAME DOVERLAY, 0, STATIC
        FUNCALL addSceneSelector_APT8L08_I2C_writeRegister, addSceneSelector_APT8L08_I2C_write8bit
        LOCFRAME ISTACK, 0, STACK
        LOCFRAME PSTACK, 0, STACK
        LOCFRAME XSTACK, 9, STACK
        LOCFRAME IOVERLAY, 0, STATIC
        LOCFRAME DOVERLAY, 0, STATIC
        ARGFRAME ISTACK, 0, STACK
        ARGFRAME PSTACK, 0, STACK
        ARGFRAME XSTACK, 9, STACK
        ARGFRAME IOVERLAY, 0, STATIC
        ARGFRAME DOVERLAY, 0, STATIC
        FUNCALL addSceneSelector_APT8L08_I2C_writeRegister, addSceneSelector_APT8L08_I2C_waitACK
        LOCFRAME ISTACK, 0, STACK
        LOCFRAME PSTACK, 0, STACK
        LOCFRAME XSTACK, 9, STACK
        LOCFRAME IOVERLAY, 0, STATIC
        LOCFRAME DOVERLAY, 0, STATIC
        ARGFRAME ISTACK, 0, STACK
        ARGFRAME PSTACK, 0, STACK
        ARGFRAME XSTACK, 9, STACK
        ARGFRAME IOVERLAY, 0, STATIC
        ARGFRAME DOVERLAY, 0, STATIC
        FUNCALL addSceneSelector_APT8L08_I2C_writeRegister, addSceneSelector_APT8L08_I2C_stop
        LOCFRAME ISTACK, 0, STACK
        LOCFRAME PSTACK, 0, STACK
        LOCFRAME XSTACK, 9, STACK
        LOCFRAME IOVERLAY, 0, STATIC
        LOCFRAME DOVERLAY, 0, STATIC
        ARGFRAME ISTACK, 0, STACK
        ARGFRAME PSTACK, 0, STACK
        ARGFRAME XSTACK, 9, STACK
        ARGFRAME IOVERLAY, 0, STATIC
        ARGFRAME DOVERLAY, 0, STATIC
        FUNCALL addSceneSelector_APT8L08_I2C_writeRegister, addSceneSelector_APT8L08_I2C_readByte
        LOCFRAME ISTACK, 0, STACK
        LOCFRAME PSTACK, 0, STACK
        LOCFRAME XSTACK, 9, STACK
        LOCFRAME IOVERLAY, 0, STATIC
        LOCFRAME DOVERLAY, 0, STATIC
        ARGFRAME ISTACK, 0, STACK
        ARGFRAME PSTACK, 0, STACK
        ARGFRAME XSTACK, 9, STACK
        ARGFRAME IOVERLAY, 0, STATIC
        ARGFRAME DOVERLAY, 0, STATIC
        MOV     A,#-0x9
        LCALL   ?BANKED_ENTER_XDATA
          CFI DPH0 load(1, XDATA, add(CFA_XSP16, literal(-1)))
          CFI DPL0 load(1, XDATA, add(CFA_XSP16, literal(-2)))
          CFI ?BRET_EXT load(1, XDATA, add(CFA_XSP16, literal(-3)))
          CFI ?RET_HIGH load(1, XDATA, add(CFA_XSP16, literal(-4)))
          CFI ?RET_LOW load(1, XDATA, add(CFA_XSP16, literal(-5)))
          CFI R7 load(1, XDATA, add(CFA_XSP16, literal(-6)))
          CFI V0 load(1, XDATA, add(CFA_XSP16, literal(-7)))
          CFI VB load(1, XDATA, add(CFA_XSP16, literal(-8)))
          CFI R6 load(1, XDATA, add(CFA_XSP16, literal(-9)))
          CFI CFA_SP SP+0
          CFI CFA_XSP16 add(XSP16, 9)
        ; Saved register size: 9
        ; Auto size: 0
        MOV     A,R1
        MOV     R6,A
        MOV     A,R2
        MOV     R7,A
// 1795 	do
// 1796 	{
// 1797 		addSceneSelector_APT8L08_I2C_writeByte(address, dataWrite);
??addSceneSelector_APT8L08_I2C_writeRegister_0:
        ; Setup parameters for call to function addSceneSelector_APT8L08_I2C_start
        LCALL   ??addSceneSelector_APT8L08_I2C_start?relay; Banked call to: addSceneSelector_APT8L08_I2C_start
        ; Setup parameters for call to function addSceneSelector_APT8L08_I2C_write8bit
        MOV     R1,#-0x54
        LCALL   ??addSceneSelector_APT8L08_I2C_write8bit?relay; Banked call to: addSceneSelector_APT8L08_I2C_write8bit
        ; Setup parameters for call to function addSceneSelector_APT8L08_I2C_waitACK
        LCALL   ??addSceneSelector_APT8L08_I2C_waitACK?relay; Banked call to: addSceneSelector_APT8L08_I2C_waitACK
        ; Setup parameters for call to function addSceneSelector_APT8L08_I2C_write8bit
        MOV     A,R6
        MOV     R1,A
        LCALL   ??addSceneSelector_APT8L08_I2C_write8bit?relay; Banked call to: addSceneSelector_APT8L08_I2C_write8bit
        ; Setup parameters for call to function addSceneSelector_APT8L08_I2C_waitACK
        LCALL   ??addSceneSelector_APT8L08_I2C_waitACK?relay; Banked call to: addSceneSelector_APT8L08_I2C_waitACK
        ; Setup parameters for call to function addSceneSelector_APT8L08_I2C_write8bit
        MOV     A,R7
        MOV     R1,A
        LCALL   ??addSceneSelector_APT8L08_I2C_write8bit?relay; Banked call to: addSceneSelector_APT8L08_I2C_write8bit
        ; Setup parameters for call to function addSceneSelector_APT8L08_I2C_waitACK
        LCALL   ??addSceneSelector_APT8L08_I2C_waitACK?relay; Banked call to: addSceneSelector_APT8L08_I2C_waitACK
        ; Setup parameters for call to function addSceneSelector_APT8L08_I2C_stop
        LCALL   ??addSceneSelector_APT8L08_I2C_stop?relay; Banked call to: addSceneSelector_APT8L08_I2C_stop
// 1798 	} while (dataWrite != addSceneSelector_APT8L08_I2C_readByte(address));
        ; Setup parameters for call to function addSceneSelector_APT8L08_I2C_readByte
        MOV     A,R6
        MOV     R1,A
        LCALL   ??addSceneSelector_APT8L08_I2C_readByte?relay; Banked call to: addSceneSelector_APT8L08_I2C_readByte
        MOV     A,R1
        XRL     A,R7
        JNZ     ??addSceneSelector_APT8L08_I2C_writeRegister_0
// 1799 }
        LJMP    ?Subroutine1 & 0xFFFF
          CFI EndBlock cfiBlock130

        RSEG XDATA_ID:CODE:NOROOT(0)
`?<Initializer for aSceneSelectorEndpoint1_Scen`:
        DATA16
        DW 1

        RSEG XDATA_ID:CODE:NOROOT(0)
`?<Initializer for aSceneSelectorEndpoint2_Scen`:
        DATA16
        DW 2

        RSEG XDATA_ID:CODE:NOROOT(0)
`?<Initializer for aSceneSelectorEndpoint3_Scen`:
        DATA16
        DW 3

        RSEG XDATA_ID:CODE:NOROOT(0)
`?<Initializer for aSceneSelectorEndpoint4_Scen`:
        DATA16
        DW 4

        RSEG XDATA_ID:CODE:NOROOT(0)
`?<Initializer for aSceneSelectorEndpoint1_Grou`:
        DATA16
        DW 1

        RSEG XDATA_ID:CODE:NOROOT(0)
`?<Initializer for aSceneSelectorEndpoint2_Grou`:
        DATA16
        DW 2

        RSEG XDATA_ID:CODE:NOROOT(0)
`?<Initializer for aSceneSelectorEndpoint3_Grou`:
        DATA16
        DW 3

        RSEG XDATA_ID:CODE:NOROOT(0)
`?<Initializer for aSceneSelectorEndpoint4_Grou`:
        DATA16
        DW 4

        RSEG XDATA_ID:CODE:NOROOT(0)
`?<Initializer for aSceneSelectorCurrentEndpoin`:
        DATA8
        DB 1

        RSEG XDATA_ROM_C:CONST:REORDER:NOROOT(0)
        DATA32
__Constant_1388:
        DD 5000

        RSEG XDATA_ROM_C:CONST:REORDER:NOROOT(0)
        DATA32
__Constant_3e8:
        DD 1000

        RSEG BANK_RELAYS:CODE:REORDER:NOROOT(0)
??addSceneSelector_init?relay:
        CODE
        LCALL   ?BDISPATCH
        DATA24
        DC24    addSceneSelector_init

        RSEG BANK_RELAYS:CODE:REORDER:NOROOT(0)
??addSceneSelector_eventLoop?relay:
        CODE
        LCALL   ?BDISPATCH
        DATA24
        DC24    addSceneSelector_eventLoop

        RSEG BANK_RELAYS:CODE:REORDER:NOROOT(0)
??addSceneSelector_handleOneTime?relay:
        CODE
        LCALL   ?BDISPATCH
        DATA24
        DC24    addSceneSelector_handleOneTime

        RSEG BANK_RELAYS:CODE:REORDER:NOROOT(0)
??addSceneSelector_isrPort0?relay:
        CODE
        LCALL   ?BDISPATCH
        DATA24
        DC24    addSceneSelector_isrPort0

        RSEG BANK_RELAYS:CODE:REORDER:NOROOT(0)
??addSceneSelector_isrPort1?relay:
        CODE
        LCALL   ?BDISPATCH
        DATA24
        DC24    addSceneSelector_isrPort1

        RSEG BANK_RELAYS:CODE:REORDER:NOROOT(0)
??addSceneSelector_isrPort2?relay:
        CODE
        LCALL   ?BDISPATCH
        DATA24
        DC24    addSceneSelector_isrPort2

        RSEG BANK_RELAYS:CODE:REORDER:NOROOT(0)
??addSceneSelector_sendDestinationAddressConfig:
        CODE
        LCALL   ?BDISPATCH
        DATA24
        DC24    addSceneSelector_sendDestinationAddressConfigure

        RSEG BANK_RELAYS:CODE:REORDER:NOROOT(0)
??addSceneSelector_sendLevelControlMove?relay:
        CODE
        LCALL   ?BDISPATCH
        DATA24
        DC24    addSceneSelector_sendLevelControlMove

        RSEG BANK_RELAYS:CODE:REORDER:NOROOT(0)
??addSceneSelector_clearKeyData?relay:
        CODE
        LCALL   ?BDISPATCH
        DATA24
        DC24    addSceneSelector_clearKeyData

        RSEG BANK_RELAYS:CODE:REORDER:NOROOT(0)
??addSceneSelector_factoryResetCheck?relay:
        CODE
        LCALL   ?BDISPATCH
        DATA24
        DC24    addSceneSelector_factoryResetCheck

        RSEG BANK_RELAYS:CODE:REORDER:NOROOT(0)
??addSceneSelector_wakeupCheck?relay:
        CODE
        LCALL   ?BDISPATCH
        DATA24
        DC24    addSceneSelector_wakeupCheck

        RSEG BANK_RELAYS:CODE:REORDER:NOROOT(0)
??addSceneSelector_setGroupID?relay:
        CODE
        LCALL   ?BDISPATCH
        DATA24
        DC24    addSceneSelector_setGroupID

        RSEG BANK_RELAYS:CODE:REORDER:NOROOT(0)
??addSceneSelector_setSceneID?relay:
        CODE
        LCALL   ?BDISPATCH
        DATA24
        DC24    addSceneSelector_setSceneID

        RSEG BANK_RELAYS:CODE:REORDER:NOROOT(0)
??addSceneSelector_APT8L08_init?relay:
        CODE
        LCALL   ?BDISPATCH
        DATA24
        DC24    addSceneSelector_APT8L08_init

        RSEG BANK_RELAYS:CODE:REORDER:NOROOT(0)
??addSceneSelector_APT8L08_initHal?relay:
        CODE
        LCALL   ?BDISPATCH
        DATA24
        DC24    addSceneSelector_APT8L08_initHal

        RSEG BANK_RELAYS:CODE:REORDER:NOROOT(0)
??addSceneSelector_APT8L08_initAl?relay:
        CODE
        LCALL   ?BDISPATCH
        DATA24
        DC24    addSceneSelector_APT8L08_initAl

        RSEG BANK_RELAYS:CODE:REORDER:NOROOT(0)
??addSceneSelector_APT8L08_I2C_start?relay:
        CODE
        LCALL   ?BDISPATCH
        DATA24
        DC24    addSceneSelector_APT8L08_I2C_start

        RSEG BANK_RELAYS:CODE:REORDER:NOROOT(0)
??addSceneSelector_APT8L08_I2C_stop?relay:
        CODE
        LCALL   ?BDISPATCH
        DATA24
        DC24    addSceneSelector_APT8L08_I2C_stop

        RSEG BANK_RELAYS:CODE:REORDER:NOROOT(0)
??addSceneSelector_APT8L08_I2C_waitACK?relay:
        CODE
        LCALL   ?BDISPATCH
        DATA24
        DC24    addSceneSelector_APT8L08_I2C_waitACK

        RSEG BANK_RELAYS:CODE:REORDER:NOROOT(0)
??addSceneSelector_APT8L08_I2C_write8bit?relay:
        CODE
        LCALL   ?BDISPATCH
        DATA24
        DC24    addSceneSelector_APT8L08_I2C_write8bit

        RSEG BANK_RELAYS:CODE:REORDER:NOROOT(0)
??addSceneSelector_APT8L08_I2C_readByte?relay:
        CODE
        LCALL   ?BDISPATCH
        DATA24
        DC24    addSceneSelector_APT8L08_I2C_readByte

        RSEG BANK_RELAYS:CODE:REORDER:NOROOT(0)
??addSceneSelector_APT8L08_I2C_writeRegister?re:
        CODE
        LCALL   ?BDISPATCH
        DATA24
        DC24    addSceneSelector_APT8L08_I2C_writeRegister

        END
// 1800 	
// 1801 #else
// 1802 #endif
// 1803 
// 
// 3 424 bytes in segment BANKED_CODE
//   132 bytes in segment BANK_RELAYS
//    17 bytes in segment SFR_AN
//    17 bytes in segment XDATA_I
//    17 bytes in segment XDATA_ID
//    56 bytes in segment XDATA_ROM_C
//    13 bytes in segment XDATA_Z
// 
// 3 573 bytes of CODE  memory
//    48 bytes of CONST memory (+  8 bytes shared)
//     0 bytes of DATA  memory (+ 17 bytes shared)
//    30 bytes of XDATA memory
//
//Errors: none
//Warnings: 3
