###############################################################################
#
# IAR C/C++ Compiler V9.10.1.2146 for 8051                19/Jan/2018  11:01:01
# Copyright 2004-2014 IAR Systems AB.
# Standalone license - IAR Embedded Workbench for 8051
#
#    Core               =  plain
#    Code model         =  banked
#    Data model         =  large
#    Calling convention =  xdata reentrant
#    Constant location  =  data_rom
#    Dptr setup         =  1,16
#                          
#    Source file        =  
#        C:\Users\JC_liang\Desktop\LIFUD\面板Z-Stack Home
#        1.2.2a.44539\Projects\zstack\HomeAutomation\Add\AddSceneSelector\add_sceneselector.c
#    Command line       =  
#        -f "C:\Users\JC_liang\Desktop\LIFUD\面板Z-Stack Home
#        1.2.2a.44539\Projects\zstack\HomeAutomation\SceneSelector\CC2530DB\..\..\..\Tools\CC2530DB\f8wEndev.cfg"
#        (-DCPU32MHZ -DROOT=__near_func -DMAC_CFG_TX_DATA_MAX=3
#        -DMAC_CFG_TX_MAX=6 -DMAC_CFG_RX_MAX=3) -f
#        "C:\Users\JC_liang\Desktop\LIFUD\面板Z-Stack Home
#        1.2.2a.44539\Projects\zstack\HomeAutomation\SceneSelector\CC2530DB\..\..\..\Tools\CC2530DB\f8wConfig.cfg"
#        (-DZIGBEEPRO -DSECURE=1 -DZG_SECURE_DYNAMIC=0 -DREFLECTOR
#        -DDEFAULT_CHANLIST=0x07FFF800 -DZDAPP_CONFIG_PAN_ID=0xFFFF
#        -DNWK_START_DELAY=100 -DEXTENDED_JOINING_RANDOM_MASK=0x007F
#        -DBEACON_REQUEST_DELAY=100 -DBEACON_REQ_DELAY_MASK=0x00FF
#        -DLINK_STATUS_JITTER_MASK=0x007F -DROUTE_EXPIRY_TIME=30
#        -DAPSC_ACK_WAIT_DURATION_POLLED=3000 -DNWK_INDIRECT_MSG_TIMEOUT=7
#        -DMAX_RREQ_ENTRIES=8 -DAPSC_MAX_FRAME_RETRIES=3
#        -DNWK_MAX_DATA_RETRIES=2 -DMAX_POLL_FAILURE_RETRIES=2 -DMAX_BCAST=9
#        -DAPS_MAX_GROUPS=16 -DMAX_RTG_ENTRIES=40 -DNWK_MAX_BINDING_ENTRIES=4
#        -DMAX_BINDING_CLUSTER_IDS=4 "-DDEFAULT_KEY={0x01, 0x03, 0x05, 0x07,
#        0x09, 0x0B, 0x0D, 0x0F, 0x00, 0x02, 0x04, 0x06, 0x08, 0x0A, 0x0C,
#        0x0D}" -DMAC_MAX_FRAME_SIZE=116 -DZDNWKMGR_MIN_TRANSMISSIONS=20
#        "-DCONST=const __code" -DGENERIC=__generic -DRFD_RCVC_ALWAYS_ON=FALSE
#        -DPOLL_RATE=120000 -DQUEUED_POLL_RATE=100 -DRESPONSE_POLL_RATE=100
#        -DREJOIN_POLL_RATE=440 -DREJOIN_BACKOFF=900000 -DREJOIN_SCAN=60000) -f
#        "C:\Users\JC_liang\Desktop\LIFUD\面板Z-Stack Home
#        1.2.2a.44539\Projects\zstack\HomeAutomation\SceneSelector\CC2530DB\..\..\..\Tools\CC2530DB\f8wZCL.cfg"
#        "C:\Users\JC_liang\Desktop\LIFUD\面板Z-Stack Home
#        1.2.2a.44539\Projects\zstack\HomeAutomation\Add\AddSceneSelector\add_sceneselector.c"
#        -D SCENE_SELECTOR_TOUCHKEY -D xSCENE_SELECTOR -D ISR_KEYINTERRUPT -D
#        OSC32K_CRYSTAL_INSTALLED=FALSE -D xxHAL_PA_LNA -D SECURE=1 -D
#        TC_LINKKEY_JOIN -D NV_INIT -D NV_RESTORE -D POWER_SAVING -D
#        NWK_AUTO_POLL -D xHOLD_AUTO_START -D xZTOOL_P1 -D MT_TASK -D
#        MT_APP_FUNC -D MT_SYS_FUNC -D MT_ZDO_FUNC -D xLCD_SUPPORTED=DEBUG -D
#        MULTICAST_ENABLED=FALSE -D ZCL_READ -D ZCL_WRITE -D ZCL_REPORT -D
#        xZCL_EZMODE -D ZCL_BASIC -D ZCL_IDENTIFY -D ZCL_GROUPS -D ZCL_SCENES
#        -D ZCL_ON_OFF -D ZCL_LEVEL_CTRL -D ZCL_DIAGNOSTIC -D
#        FEATURE_SYSTEM_STATS -lC "C:\Users\JC_liang\Desktop\LIFUD\面板Z-Stack
#        Home
#        1.2.2a.44539\Projects\zstack\HomeAutomation\SceneSelector\CC2530DB\EndDeviceEB\List\"
#        -lA "C:\Users\JC_liang\Desktop\LIFUD\面板Z-Stack Home
#        1.2.2a.44539\Projects\zstack\HomeAutomation\SceneSelector\CC2530DB\EndDeviceEB\List\"
#        --diag_suppress Pe001,Pa010 -o
#        "C:\Users\JC_liang\Desktop\LIFUD\面板Z-Stack Home
#        1.2.2a.44539\Projects\zstack\HomeAutomation\SceneSelector\CC2530DB\EndDeviceEB\Obj\"
#        -e --debug --core=plain --dptr=16,1 --data_model=large
#        --code_model=banked --calling_convention=xdata_reentrant
#        --place_constants=data_rom --nr_virtual_regs 16 -I
#        "C:\Users\JC_liang\Desktop\LIFUD\面板Z-Stack Home
#        1.2.2a.44539\Projects\zstack\HomeAutomation\SceneSelector\CC2530DB\..\..\Add\AddSceneSelector\"
#        -I "C:\Users\JC_liang\Desktop\LIFUD\面板Z-Stack Home
#        1.2.2a.44539\Projects\zstack\HomeAutomation\SceneSelector\CC2530DB\..\..\Add\AddCommon\"
#        -I "C:\Users\JC_liang\Desktop\LIFUD\面板Z-Stack Home
#        1.2.2a.44539\Projects\zstack\HomeAutomation\SceneSelector\CC2530DB\..\..\Add\"
#        -I "C:\Users\JC_liang\Desktop\LIFUD\面板Z-Stack Home
#        1.2.2a.44539\Projects\zstack\HomeAutomation\SceneSelector\CC2530DB\"
#        -I "C:\Users\JC_liang\Desktop\LIFUD\面板Z-Stack Home
#        1.2.2a.44539\Projects\zstack\HomeAutomation\SceneSelector\CC2530DB\..\Source\"
#        -I "C:\Users\JC_liang\Desktop\LIFUD\面板Z-Stack Home
#        1.2.2a.44539\Projects\zstack\HomeAutomation\SceneSelector\CC2530DB\..\..\Source\"
#        -I "C:\Users\JC_liang\Desktop\LIFUD\面板Z-Stack Home
#        1.2.2a.44539\Projects\zstack\HomeAutomation\SceneSelector\CC2530DB\..\..\..\ZMain\TI2530DB\"
#        -I "C:\Users\JC_liang\Desktop\LIFUD\面板Z-Stack Home
#        1.2.2a.44539\Projects\zstack\HomeAutomation\SceneSelector\CC2530DB\..\..\..\..\..\Components\hal\include\"
#        -I "C:\Users\JC_liang\Desktop\LIFUD\面板Z-Stack Home
#        1.2.2a.44539\Projects\zstack\HomeAutomation\SceneSelector\CC2530DB\..\..\..\..\..\Components\hal\target\CC2530EB\"
#        -I "C:\Users\JC_liang\Desktop\LIFUD\面板Z-Stack Home
#        1.2.2a.44539\Projects\zstack\HomeAutomation\SceneSelector\CC2530DB\..\..\..\..\..\Components\mac\include\"
#        -I "C:\Users\JC_liang\Desktop\LIFUD\面板Z-Stack Home
#        1.2.2a.44539\Projects\zstack\HomeAutomation\SceneSelector\CC2530DB\..\..\..\..\..\Components\mac\high_level\"
#        -I "C:\Users\JC_liang\Desktop\LIFUD\面板Z-Stack Home
#        1.2.2a.44539\Projects\zstack\HomeAutomation\SceneSelector\CC2530DB\..\..\..\..\..\Components\mac\low_level\srf04\"
#        -I "C:\Users\JC_liang\Desktop\LIFUD\面板Z-Stack Home
#        1.2.2a.44539\Projects\zstack\HomeAutomation\SceneSelector\CC2530DB\..\..\..\..\..\Components\mac\low_level\srf04\single_chip\"
#        -I "C:\Users\JC_liang\Desktop\LIFUD\面板Z-Stack Home
#        1.2.2a.44539\Projects\zstack\HomeAutomation\SceneSelector\CC2530DB\..\..\..\..\..\Components\mt\"
#        -I "C:\Users\JC_liang\Desktop\LIFUD\面板Z-Stack Home
#        1.2.2a.44539\Projects\zstack\HomeAutomation\SceneSelector\CC2530DB\..\..\..\..\..\Components\osal\include\"
#        -I "C:\Users\JC_liang\Desktop\LIFUD\面板Z-Stack Home
#        1.2.2a.44539\Projects\zstack\HomeAutomation\SceneSelector\CC2530DB\..\..\..\..\..\Components\services\saddr\"
#        -I "C:\Users\JC_liang\Desktop\LIFUD\面板Z-Stack Home
#        1.2.2a.44539\Projects\zstack\HomeAutomation\SceneSelector\CC2530DB\..\..\..\..\..\Components\services\sdata\"
#        -I "C:\Users\JC_liang\Desktop\LIFUD\面板Z-Stack Home
#        1.2.2a.44539\Projects\zstack\HomeAutomation\SceneSelector\CC2530DB\..\..\..\..\..\Components\stack\af\"
#        -I "C:\Users\JC_liang\Desktop\LIFUD\面板Z-Stack Home
#        1.2.2a.44539\Projects\zstack\HomeAutomation\SceneSelector\CC2530DB\..\..\..\..\..\Components\stack\nwk\"
#        -I "C:\Users\JC_liang\Desktop\LIFUD\面板Z-Stack Home
#        1.2.2a.44539\Projects\zstack\HomeAutomation\SceneSelector\CC2530DB\..\..\..\..\..\Components\stack\sapi\"
#        -I "C:\Users\JC_liang\Desktop\LIFUD\面板Z-Stack Home
#        1.2.2a.44539\Projects\zstack\HomeAutomation\SceneSelector\CC2530DB\..\..\..\..\..\Components\stack\sec\"
#        -I "C:\Users\JC_liang\Desktop\LIFUD\面板Z-Stack Home
#        1.2.2a.44539\Projects\zstack\HomeAutomation\SceneSelector\CC2530DB\..\..\..\..\..\Components\stack\sys\"
#        -I "C:\Users\JC_liang\Desktop\LIFUD\面板Z-Stack Home
#        1.2.2a.44539\Projects\zstack\HomeAutomation\SceneSelector\CC2530DB\..\..\..\..\..\Components\stack\zcl\"
#        -I "C:\Users\JC_liang\Desktop\LIFUD\面板Z-Stack Home
#        1.2.2a.44539\Projects\zstack\HomeAutomation\SceneSelector\CC2530DB\..\..\..\..\..\Components\stack\zdo\"
#        -I "C:\Users\JC_liang\Desktop\LIFUD\面板Z-Stack Home
#        1.2.2a.44539\Projects\zstack\HomeAutomation\SceneSelector\CC2530DB\..\..\..\..\..\Components\zmac\"
#        -I "C:\Users\JC_liang\Desktop\LIFUD\面板Z-Stack Home
#        1.2.2a.44539\Projects\zstack\HomeAutomation\SceneSelector\CC2530DB\..\..\..\..\..\Components\zmac\f8w\"
#        -Ohz --require_prototypes
#    List file          =  
#        C:\Users\JC_liang\Desktop\LIFUD\面板Z-Stack Home
#        1.2.2a.44539\Projects\zstack\HomeAutomation\SceneSelector\CC2530DB\EndDeviceEB\List\add_sceneselector.lst
#    Object file        =  
#        C:\Users\JC_liang\Desktop\LIFUD\面板Z-Stack Home
#        1.2.2a.44539\Projects\zstack\HomeAutomation\SceneSelector\CC2530DB\EndDeviceEB\Obj\add_sceneselector.r51
#
###############################################################################

C:\Users\JC_liang\Desktop\LIFUD\面板Z-Stack Home 1.2.2a.44539\Projects\zstack\HomeAutomation\Add\AddSceneSelector\add_sceneselector.c
      1          /*********************************************************************
      2           * INCLUDES
      3           */
      4          #include "add_sceneselector.h"

   \                                 In  segment SFR_AN, at 0x80
   \   union <unnamed> volatile __sfr _A_P0
   \                     _A_P0:
   \   000000                DS 1

   \                                 In  segment SFR_AN, at 0x8b
   \   unsigned char volatile __sfr P2IFG
   \                     P2IFG:
   \   000000                DS 1

   \                                 In  segment SFR_AN, at 0x8c
   \   unsigned char volatile __sfr PICTL
   \                     PICTL:
   \   000000                DS 1

   \                                 In  segment SFR_AN, at 0x8f
   \   unsigned char volatile __sfr P0INP
   \                     P0INP:
   \   000000                DS 1

   \                                 In  segment SFR_AN, at 0x9a
   \   unsigned char volatile __sfr IEN2
   \                     IEN2:
   \   000000                DS 1

   \                                 In  segment SFR_AN, at 0xa0
   \   union <unnamed> volatile __sfr _A_P2
   \                     _A_P2:
   \   000000                DS 1

   \                                 In  segment SFR_AN, at 0xa8
   \   union <unnamed> volatile __sfr _A_IEN0
   \                     _A_IEN0:
   \   000000                DS 1

   \                                 In  segment SFR_AN, at 0xa9
   \   unsigned char volatile __sfr IP0
   \                     IP0:
   \   000000                DS 1

   \                                 In  segment SFR_AN, at 0xac
   \   unsigned char volatile __sfr P2IEN
   \                     P2IEN:
   \   000000                DS 1

   \                                 In  segment SFR_AN, at 0xb9
   \   unsigned char volatile __sfr IP1
   \                     IP1:
   \   000000                DS 1

   \                                 In  segment SFR_AN, at 0xe8
   \   union <unnamed> volatile __sfr _A_IRCON2
   \                     _A_IRCON2:
   \   000000                DS 1

   \                                 In  segment SFR_AN, at 0xf2
   \   unsigned char volatile __sfr APCFG
   \                     APCFG:
   \   000000                DS 1

   \                                 In  segment SFR_AN, at 0xf3
   \   unsigned char volatile __sfr P0SEL
   \                     P0SEL:
   \   000000                DS 1

   \                                 In  segment SFR_AN, at 0xf5
   \   unsigned char volatile __sfr P2SEL
   \                     P2SEL:
   \   000000                DS 1

   \                                 In  segment SFR_AN, at 0xf7
   \   unsigned char volatile __sfr P2INP
   \                     P2INP:
   \   000000                DS 1

   \                                 In  segment SFR_AN, at 0xfd
   \   unsigned char volatile __sfr P0DIR
   \                     P0DIR:
   \   000000                DS 1

   \                                 In  segment SFR_AN, at 0xff
   \   unsigned char volatile __sfr P2DIR
   \                     P2DIR:
   \   000000                DS 1
      5          
      6          /*********************************************************************
      7           * LOCAL VARIABLES
      8           */

   \                                 In  segment XDATA_Z, align 1, keep-with-next
      9          volatile byte aSceneSelectorKeyScene1 = AC_KEY_NORMAL;
   \                     aSceneSelectorKeyScene1:
   \   000000                DS 1
   \   000001                REQUIRE __INIT_XDATA_Z

   \                                 In  segment XDATA_Z, align 1, keep-with-next
     10          volatile byte aSceneSelectorKeyScene2 = AC_KEY_NORMAL;
   \                     aSceneSelectorKeyScene2:
   \   000000                DS 1
   \   000001                REQUIRE __INIT_XDATA_Z

   \                                 In  segment XDATA_Z, align 1, keep-with-next
     11          volatile byte aSceneSelectorKeyScene3 = AC_KEY_NORMAL;
   \                     aSceneSelectorKeyScene3:
   \   000000                DS 1
   \   000001                REQUIRE __INIT_XDATA_Z

   \                                 In  segment XDATA_Z, align 1, keep-with-next
     12          volatile byte aSceneSelectorKeyScene4 = AC_KEY_NORMAL;
   \                     aSceneSelectorKeyScene4:
   \   000000                DS 1
   \   000001                REQUIRE __INIT_XDATA_Z

   \                                 In  segment XDATA_Z, align 1, keep-with-next
     13          volatile byte aSceneSelectorKeyDimmingUp = AC_KEY_NORMAL;
   \                     aSceneSelectorKeyDimmingUp:
   \   000000                DS 1
   \   000001                REQUIRE __INIT_XDATA_Z

   \                                 In  segment XDATA_Z, align 1, keep-with-next
     14          volatile byte aSceneSelectorKeyDimmingDown = AC_KEY_NORMAL;
   \                     aSceneSelectorKeyDimmingDown:
   \   000000                DS 1
   \   000001                REQUIRE __INIT_XDATA_Z
     15          

   \                                 In  segment XDATA_I, align 1, keep-with-next
     16          uint16 aSceneSelectorEndpoint1_SceneID = 1;
   \                     aSceneSelectorEndpoint1_SceneID:
   \   000000                DS 2
   \   000002                REQUIRE `?<Initializer for aSceneSelectorEndpoint1_Scen`
   \   000002                REQUIRE __INIT_XDATA_I

   \                                 In  segment XDATA_I, align 1, keep-with-next
     17          uint16 aSceneSelectorEndpoint2_SceneID = 2;
   \                     aSceneSelectorEndpoint2_SceneID:
   \   000000                DS 2
   \   000002                REQUIRE `?<Initializer for aSceneSelectorEndpoint2_Scen`
   \   000002                REQUIRE __INIT_XDATA_I

   \                                 In  segment XDATA_I, align 1, keep-with-next
     18          uint16 aSceneSelectorEndpoint3_SceneID = 3;
   \                     aSceneSelectorEndpoint3_SceneID:
   \   000000                DS 2
   \   000002                REQUIRE `?<Initializer for aSceneSelectorEndpoint3_Scen`
   \   000002                REQUIRE __INIT_XDATA_I

   \                                 In  segment XDATA_I, align 1, keep-with-next
     19          uint16 aSceneSelectorEndpoint4_SceneID = 4;
   \                     aSceneSelectorEndpoint4_SceneID:
   \   000000                DS 2
   \   000002                REQUIRE `?<Initializer for aSceneSelectorEndpoint4_Scen`
   \   000002                REQUIRE __INIT_XDATA_I
     20          

   \                                 In  segment XDATA_I, align 1, keep-with-next
     21          uint16 aSceneSelectorEndpoint1_GroupID = 1;
   \                     aSceneSelectorEndpoint1_GroupID:
   \   000000                DS 2
   \   000002                REQUIRE `?<Initializer for aSceneSelectorEndpoint1_Grou`
   \   000002                REQUIRE __INIT_XDATA_I

   \                                 In  segment XDATA_I, align 1, keep-with-next
     22          uint16 aSceneSelectorEndpoint2_GroupID = 2;
   \                     aSceneSelectorEndpoint2_GroupID:
   \   000000                DS 2
   \   000002                REQUIRE `?<Initializer for aSceneSelectorEndpoint2_Grou`
   \   000002                REQUIRE __INIT_XDATA_I

   \                                 In  segment XDATA_I, align 1, keep-with-next
     23          uint16 aSceneSelectorEndpoint3_GroupID = 3;
   \                     aSceneSelectorEndpoint3_GroupID:
   \   000000                DS 2
   \   000002                REQUIRE `?<Initializer for aSceneSelectorEndpoint3_Grou`
   \   000002                REQUIRE __INIT_XDATA_I

   \                                 In  segment XDATA_I, align 1, keep-with-next
     24          uint16 aSceneSelectorEndpoint4_GroupID = 4;
   \                     aSceneSelectorEndpoint4_GroupID:
   \   000000                DS 2
   \   000002                REQUIRE `?<Initializer for aSceneSelectorEndpoint4_Grou`
   \   000002                REQUIRE __INIT_XDATA_I
     25          

   \                                 In  segment XDATA_I, align 1, keep-with-next
     26          volatile uint8 aSceneSelectorCurrentEndpoint = SCENESELECTOR_ENDPOINT1;
   \                     aSceneSelectorCurrentEndpoint:
   \   000000                DS 1
   \   000001                REQUIRE `?<Initializer for aSceneSelectorCurrentEndpoin`
   \   000001                REQUIRE __INIT_XDATA_I
     27          

   \                                 In  segment XDATA_Z, align 1, keep-with-next
     28          volatile uint8 aSceneSelectorFactoryReset = ADD_SCENESELECTOR_FACTORYRESET_KEYNORMAL;
   \                     aSceneSelectorFactoryReset:
   \   000000                DS 1
   \   000001                REQUIRE __INIT_XDATA_Z

   \                                 In  segment XDATA_Z, align 1, keep-with-next
     29          volatile uint8 aSceneSelectorWakeup = ADD_SCENESELECTOR_WAKEUP_KEYNORMAL;
   \                     aSceneSelectorWakeup:
   \   000000                DS 1
   \   000001                REQUIRE __INIT_XDATA_Z
     30          
     31          #if defined(SCENE_SELECTOR)
     32          #elif defined(SCENE_SELECTOR_TOUCHKEY)

   \                                 In  segment XDATA_Z, align 1, keep-with-next
     33          uint8 aSceneSelectorApt8l08_i2cWaitStatus;
   \                     aSceneSelectorApt8l08_i2cWaitStatus:
   \   000000                DS 1
   \   000001                REQUIRE __INIT_XDATA_Z
     34          

   \                                 In  segment XDATA_ROM_C, align 1
     35          const uint8 aSceneSelectorApt8l08_registerAddress[16] = {
   \                     aSceneSelectorApt8l08_registerAddress:
   \   000000   20           DB 32
   \   000001   21           DB 33
   \   000002   22           DB 34
   \   000003   23           DB 35
   \   000004   24           DB 36
   \   000005   25           DB 37
   \   000006   26           DB 38
   \   000007   27           DB 39
   \   000008   28           DB 40
   \   000009   29           DB 41
   \   00000A   2A           DB 42
   \   00000B   2B           DB 43
   \   00000C   2C           DB 44
   \   00000D   2D           DB 45
   \   00000E   18           DB 24
   \   00000F   19           DB 25
     36          	ADD_SCENESELECTOR_APT8L08_REGISTER_ADDRESS_GSR,
     37          	ADD_SCENESELECTOR_APT8L08_REGISTER_ADDRESS_MCON,
     38          	ADD_SCENESELECTOR_APT8L08_REGISTER_ADDRESS_FILTER0,
     39          	ADD_SCENESELECTOR_APT8L08_REGISTER_ADDRESS_K0_ENB,
     40          	ADD_SCENESELECTOR_APT8L08_REGISTER_ADDRESS_K1_ENB,
     41          	ADD_SCENESELECTOR_APT8L08_REGISTER_ADDRESS_SENSE_CON,
     42          	ADD_SCENESELECTOR_APT8L08_REGISTER_ADDRESS_SENSE_S,
     43          	ADD_SCENESELECTOR_APT8L08_REGISTER_ADDRESS_GSR_K07,
     44          	ADD_SCENESELECTOR_APT8L08_REGISTER_ADDRESS_GSR_K17,
     45          	ADD_SCENESELECTOR_APT8L08_REGISTER_ADDRESS_REF_UTH,
     46          	ADD_SCENESELECTOR_APT8L08_REGISTER_ADDRESS_KEY_ATH,
     47          	ADD_SCENESELECTOR_APT8L08_REGISTER_ADDRESS_DSMIT,
     48          	ADD_SCENESELECTOR_APT8L08_REGISTER_ADDRESS_MCONH,
     49          	ADD_SCENESELECTOR_APT8L08_REGISTER_ADDRESS_FILTER1,
     50          	ADD_SCENESELECTOR_APT8L08_REGISTER_ADDRESS_K0_CON,
     51          	ADD_SCENESELECTOR_APT8L08_REGISTER_ADDRESS_K1_CON
     52          };
     53          

   \                                 In  segment XDATA_ROM_C, align 1
     54          const uint8 aSceneSelectorApt8l08_registerData[16] = {
   \                     aSceneSelectorApt8l08_registerData:
   \   000000   04           DB 4
   \   000001   54           DB 84
   \   000002   00           DB 0
   \   000003   03           DB 3
   \   000004   FF           DB 255
   \   000005   00           DB 0
   \   000006   08           DB 8
   \   000007   02           DB 2
   \   000008   02           DB 2
   \   000009   10           DB 16
   \   00000A   10           DB 16
   \   00000B   04           DB 4
   \   00000C   40           DB 64
   \   00000D   00           DB 0
   \   00000E   00           DB 0
   \   00000F   00           DB 0
     55          	ADD_SCENESELECTOR_APT8L08_REGISTER_DATA_GSR,
     56          	ADD_SCENESELECTOR_APT8L08_REGISTER_DATA_MCON,
     57          	ADD_SCENESELECTOR_APT8L08_REGISTER_DATA_FILTER0,
     58          	ADD_SCENESELECTOR_APT8L08_REGISTER_DATA_K0_ENB,
     59          	ADD_SCENESELECTOR_APT8L08_REGISTER_DATA_K1_ENB,
     60          	ADD_SCENESELECTOR_APT8L08_REGISTER_DATA_SENSE_CON,
     61          	ADD_SCENESELECTOR_APT8L08_REGISTER_DATA_SENSE_S,
     62          	ADD_SCENESELECTOR_APT8L08_REGISTER_DATA_GSR_K07,
     63          	ADD_SCENESELECTOR_APT8L08_REGISTER_DATA_GSR_K17,
     64          	ADD_SCENESELECTOR_APT8L08_REGISTER_DATA_REF_UTH,
     65          	ADD_SCENESELECTOR_APT8L08_REGISTER_DATA_KEY_ATH,
     66          	ADD_SCENESELECTOR_APT8L08_REGISTER_DATA_DSMIT,
     67          	ADD_SCENESELECTOR_APT8L08_REGISTER_DATA_MCONH,
     68          	ADD_SCENESELECTOR_APT8L08_REGISTER_DATA_FILTER1,
     69          	ADD_SCENESELECTOR_APT8L08_REGISTER_DATA_K0_CON,
     70          	ADD_SCENESELECTOR_APT8L08_REGISTER_DATA_K1_CON
     71          };
     72          

   \                                 In  segment XDATA_ROM_C, align 1
     73          const uint8 aSceneSelectorApt8l08_tkFin8bit[16] 
   \                     aSceneSelectorApt8l08_tkFin8bit:
   \   000000   04           DB 4
   \   000001   04           DB 4
   \   000002   04           DB 4
   \   000003   04           DB 4
   \   000004   04           DB 4
   \   000005   04           DB 4
   \   000006   04           DB 4
   \   000007   04           DB 4
   \   000008   FF           DB 255
   \   000009   FF           DB 255
   \   00000A   FF           DB 255
   \   00000B   FF           DB 255
   \   00000C   FF           DB 255
   \   00000D   FF           DB 255
   \   00000E   FF           DB 255
   \   00000F   FF           DB 255
     74          	= {0x04, 0x04, 0x04, 0x04, 0x04, 0x04, 0x04, 0x04, 0xff, 0xff, 0xff, 0xff, 0xff, 0xff, 0xff, 0xff};

   \                                 In  segment XDATA_Z, align 1, keep-with-next
     75          volatile uint16 aSceneSelectorApt8l08_16bitKeyMap = 0;
   \                     aSceneSelectorApt8l08_16bitKeyMap:
   \   000000                DS 2
   \   000002                REQUIRE __INIT_XDATA_Z

   \                                 In  segment XDATA_Z, align 1, keep-with-next
     76          volatile uint16 aSceneSelectorApt8l08_16bitKeyMap_saved = 0;
   \                     aSceneSelectorApt8l08_16bitKeyMap_saved:
   \   000000                DS 2
   \   000002                REQUIRE __INIT_XDATA_Z
     77          
     78          #else
     79          #endif
     80          
     81          /*********************************************************************
     82           * LOCAL FUNCTIONS
     83           */
     84          void addSceneSelector_init(void);
     85          static void addSceneSelector_initHal(void);
     86          static void addSceneSelector_initAl(void);
     87          static void addSceneSelector_initNvItemID(void);
     88          static void addSceneSelector_initNvData(void);
     89          uint16 addSceneSelector_eventLoop(uint8 task_id, uint16 events);
     90          static void addSceneSelector_polling(void);
     91          static void addSceneSelector_handleOneTime(void);
     92          void addSceneSelector_isrPort0(void);
     93          void addSceneSelector_isrPort1(void);
     94          void addSceneSelector_isrPort2(void);
     95          
     96          static void addSceneSelector_sendDestinationAddressConfigure(uint8 endPoint);
     97          void addSceneSelector_sendLevelControlMove(void);
     98          static void addSceneSelector_clearKeyData(void);
     99          void addSceneSelector_factoryResetCheck(void);
    100          void addSceneSelector_wakeupCheck(void);
    101          void addSceneSelector_setGroupID(uint8 endPoint, aps_Group_t *group);
    102          void addSceneSelector_setSceneID(uint8 endPoint, zclGeneral_Scene_t *scene);
    103          
    104          #if defined(SCENE_SELECTOR)	
    105          #elif defined(SCENE_SELECTOR_TOUCHKEY)
    106          void addSceneSelector_APT8L08_init(void);
    107          static void addSceneSelector_APT8L08_initHal(void);
    108          static void addSceneSelector_APT8L08_initAl(void);
    109          static void addSceneSelector_APT8L08_I2C_start(void);
    110          static void addSceneSelector_APT8L08_I2C_stop(void);
    111          static void addSceneSelector_APT8L08_I2C_waitACK(void);
    112          static void addSceneSelector_APT8L08_I2C_noACK(void);
    113          static void addSceneSelector_APT8L08_I2C_ACK(void);
    114          static void addSceneSelector_APT8L08_I2C_write8bit(uint8 dataWrite);
    115          static uint8 addSceneSelector_APT8L08_I2C_read8bit(void);
    116          static void addSceneSelector_APT8L08_I2C_writeByte(uint8 address, uint8 dataWrite);
    117          static uint8 addSceneSelector_APT8L08_I2C_readByte(uint8 address);
    118          static void addSceneSelector_APT8L08_I2C_writeRegister(uint8 address, uint8 dataWrite);
    119          	
    120          #else
    121          #endif
    122          
    123          /*********************************************************************
    124           * @fn      addSceneSelector_init
    125           *
    126           * @brief   Scene selector initial.
    127           *
    128           * @param   none
    129           *
    130           * @return  none
    131           */

   \                                 In  segment BANKED_CODE, align 1, keep-with-next
    132          void addSceneSelector_init(void)
   \                     addSceneSelector_init:
    133          {	
   \   000000   C082         PUSH    DPL
   \   000002   C083         PUSH    DPH
   \   000004                ; Saved register size: 2
   \   000004                ; Auto size: 0
    134          	addCommon_init();
   \   000004                ; Setup parameters for call to function addCommon_init
   \   000004   12....       LCALL   ??addCommon_init?relay; Banked call to: addCommon_init
    135          	
    136          #if defined(SCENE_SELECTOR)
    137          	addSceneSelector_initHal();
    138          	addCommon_delayMS(500);
    139          	addSceneSelector_initAl();
    140          	
    141          #elif defined(SCENE_SELECTOR_TOUCHKEY)
    142          	addSceneSelector_APT8L08_init();
   \   000007                ; Setup parameters for call to function addSceneSelector_APT8L08_init
   \   000007   12....       LCALL   ??addSceneSelector_APT8L08_init?relay; Banked call to: addSceneSelector_APT8L08_init
    143          	
    144          #else
    145          #endif
    146          
    147          	acPointer_NwkState = &zclSceneSelector_NwkState;
   \   00000A   90....       MOV     DPTR,#acPointer_NwkState
   \   00000D   74..         MOV     A,#zclSceneSelector_NwkState & 0xff
   \   00000F   F0           MOVX    @DPTR,A
   \   000010   A3           INC     DPTR
   \   000011   74..         MOV     A,#(zclSceneSelector_NwkState >> 8) & 0xff
   \   000013   F0           MOVX    @DPTR,A
    148          	acPointer_TaskID = &zclSceneSelector_TaskID;
   \   000014   90....       MOV     DPTR,#acPointer_TaskID
   \   000017   74..         MOV     A,#zclSceneSelector_TaskID & 0xff
   \   000019   F0           MOVX    @DPTR,A
   \   00001A   A3           INC     DPTR
   \   00001B   74..         MOV     A,#(zclSceneSelector_TaskID >> 8) & 0xff
   \   00001D   F0           MOVX    @DPTR,A
    149          
    150          	addCommon_wakeup();
   \   00001E                ; Setup parameters for call to function addCommon_wakeup
   \   00001E   12....       LCALL   ??addCommon_wakeup?relay; Banked call to: addCommon_wakeup
    151          }
   \   000021   02....       LJMP    ??Subroutine22_0 & 0xFFFF

   \                                 In  segment BANKED_CODE, align 1, keep-with-next
   \                     ??Subroutine22_0:
   \   000000   D083         POP     DPH
   \   000002   D082         POP     DPL
   \   000004   02....       LJMP    ?BRET
    152          
    153          /*********************************************************************
    154           * @fn      addSceneSelector_initHal
    155           *
    156           * @brief   Scene selector initial hardware abstract layer.
    157           *
    158           * @param   none
    159           *
    160           * @return  none
    161           */
    162          static void addSceneSelector_initHal(void)
                             ^
Warning[Pe177]: function "addSceneSelector_initHal" was declared but never
          referenced
    163          {
    164          	P2SEL &= ~0x01; // P2_0(key scene4)
    165          	P2DIR &= ~0x01;
    166          	P2INP &= ~0x80; // port2 all pull up
    167          	P2INP &= ~0x01;
    168          	
    169          	APCFG &= ~0x31; // P0_4(key scene1) P0_5(key scene2) P0_0(key scene3)
    170          	P0SEL &= ~0x31;
    171          	P0DIR &= ~0x31;
    172          	P2INP &= ~0x20; // port0 all pull up
    173          	P0INP &= ~0x31;
    174          	
    175          	P1SEL &= ~0xc0; // P1_6(key dimming up) P1_7(key dimming down)
    176          	P1DIR &= ~0xc0;
    177          	P2INP &= ~0x40; // port1 all pull up
    178          	P1INP &= ~0xc0;
    179          
    180          	EA = 0;
    181          	
    182          	MicroWait(50000);
    183          	MicroWait(50000);
    184          
    185          	P0IEN |= 0x31; // P0_4 P0_5 P0_0 interrupt enable
    186          	PICTL |= 0x01; // fall edge
    187          	P0IFG &= ~0x31; // clear interrupt flag
    188          	IEN1 |= 0x20; // port0 interrupt enable
    189          
    190          	P1IEN |= 0xc0; // P1_6 P1_7 interrupt enable
    191          	PICTL |= 0x06; // fall edge
    192          	P1IFG &= ~0xc0; // clear interrupt flag
    193          	IEN2 |= 0x10; // port1 interrupt enable
    194          
    195          	P2IEN |= 0x01; // P2_0 interrupt enable
    196          	PICTL |= 0x08; // fall edge
    197          	P2IFG &= ~0x01; // clear interrupt flag
    198          	IEN2 |= 0x02; // port2 interrupt enable
    199          	
    200          	IP0 |= (1 << 5); // set port0 interrupt highest priority
    201          	IP1 |= (1 << 5);
    202          	
    203          	IP0 |= (1 << 4); // set port1 interrupt highest priority
    204          	IP1 |= (1 << 4);
    205          	
    206          	IP0 |= (1 << 1); // set port2 interrupt highest priority
    207          	IP1 |= (1 << 1);
    208          	
    209          	EA = 1;	
    210          }
    211          
    212          /*********************************************************************
    213           * @fn      addSceneSelector_initAl
    214           *
    215           * @brief   Scene selector initial application layer.
    216           *
    217           * @param   none
    218           *
    219           * @return  none
    220           */
    221          static void addSceneSelector_initAl(void)
                             ^
Warning[Pe177]: function "addSceneSelector_initAl" was declared but never
          referenced
    222          {	
    223          	addSceneSelector_initNvItemID();
    224          	addSceneSelector_initNvData();
    225          }
    226          
    227          /*********************************************************************
    228           * @fn      addSceneSelector_initNvItemID
    229           *
    230           * @brief   Scene selector initial non-volatile flash item ID.
    231           *
    232           * @param   none
    233           *
    234           * @return  none
    235           */
    236          static void addSceneSelector_initNvItemID(void)
    237          {
    238          	osal_nv_item_init(ADD_SCENESELECTOR_NV_ITEM_ID_ENDPOINT1_SCENEID, 2, &aSceneSelectorEndpoint1_SceneID);
    239          	osal_nv_item_init(ADD_SCENESELECTOR_NV_ITEM_ID_ENDPOINT2_SCENEID, 2, &aSceneSelectorEndpoint2_SceneID);
    240          	osal_nv_item_init(ADD_SCENESELECTOR_NV_ITEM_ID_ENDPOINT3_SCENEID, 2, &aSceneSelectorEndpoint3_SceneID);
    241          	osal_nv_item_init(ADD_SCENESELECTOR_NV_ITEM_ID_ENDPOINT4_SCENEID, 2, &aSceneSelectorEndpoint4_SceneID);
    242          
    243          	osal_nv_item_init(ADD_SCENESELECTOR_NV_ITEM_ID_ENDPOINT1_GROUPID, 2, &aSceneSelectorEndpoint1_GroupID);
    244          	osal_nv_item_init(ADD_SCENESELECTOR_NV_ITEM_ID_ENDPOINT2_GROUPID, 2, &aSceneSelectorEndpoint2_GroupID);
    245          	osal_nv_item_init(ADD_SCENESELECTOR_NV_ITEM_ID_ENDPOINT3_GROUPID, 2, &aSceneSelectorEndpoint3_GroupID);
    246          	osal_nv_item_init(ADD_SCENESELECTOR_NV_ITEM_ID_ENDPOINT4_GROUPID, 2, &aSceneSelectorEndpoint4_GroupID);
    247          }
    248          
    249          /*********************************************************************
    250           * @fn      addSceneSelector_initNvData
    251           *
    252           * @brief   Scene selector initial non-volatile flash data.
    253           *
    254           * @param   none
    255           *
    256           * @return  none
    257           */
    258           static void addSceneSelector_initNvData(void)
    259          {
    260          	osal_nv_read(ADD_SCENESELECTOR_NV_ITEM_ID_ENDPOINT1_SCENEID, 0, 2, &aSceneSelectorEndpoint1_SceneID);
    261          	osal_nv_read(ADD_SCENESELECTOR_NV_ITEM_ID_ENDPOINT2_SCENEID, 0, 2, &aSceneSelectorEndpoint2_SceneID);
    262          	osal_nv_read(ADD_SCENESELECTOR_NV_ITEM_ID_ENDPOINT3_SCENEID, 0, 2, &aSceneSelectorEndpoint3_SceneID);
    263          	osal_nv_read(ADD_SCENESELECTOR_NV_ITEM_ID_ENDPOINT4_SCENEID, 0, 2, &aSceneSelectorEndpoint4_SceneID);
    264          	
    265          	osal_nv_read(ADD_SCENESELECTOR_NV_ITEM_ID_ENDPOINT1_GROUPID, 0, 2, &aSceneSelectorEndpoint1_GroupID);
    266          	osal_nv_read(ADD_SCENESELECTOR_NV_ITEM_ID_ENDPOINT2_GROUPID, 0, 2, &aSceneSelectorEndpoint2_GroupID);
    267          	osal_nv_read(ADD_SCENESELECTOR_NV_ITEM_ID_ENDPOINT3_GROUPID, 0, 2, &aSceneSelectorEndpoint3_GroupID);
    268          	osal_nv_read(ADD_SCENESELECTOR_NV_ITEM_ID_ENDPOINT4_GROUPID, 0, 2, &aSceneSelectorEndpoint4_GroupID);
    269          }
    270          
    271          /*********************************************************************
    272           * @fn      addSceneSelector_eventLoop
    273           *
    274           * @brief   Scene selector Event Loop Processor for zclGeneral.
    275           *
    276           * @param   uint8 task_id, uint16 events
    277           *
    278           * @return  uint16
    279           */

   \                                 In  segment BANKED_CODE, align 1, keep-with-next
    280          uint16 addSceneSelector_eventLoop(uint8 task_id, uint16 events)
   \                     addSceneSelector_eventLoop:
    281          {
   \   000000                REQUIRE ?V0
   \   000000   74F7         MOV     A,#-0x9
   \   000002   12....       LCALL   ?BANKED_ENTER_XDATA
   \   000005                ; Saved register size: 9
   \   000005                ; Auto size: 0
   \   000005   EA           MOV     A,R2
   \   000006   FE           MOV     R6,A
   \   000007   EB           MOV     A,R3
   \   000008   FF           MOV     R7,A
    282          	if (events & AC_EVENT_POLLING)//5S进一次事件
   \   000009   5401         ANL     A,#0x1
   \   00000B   6032         JZ      ??addSceneSelector_eventLoop_0
    283          	{
    284          		addSceneSelector_polling();
   \   00000D                ; Setup parameters for call to function addCommon_polling
   \   00000D   12....       LCALL   ??addCommon_polling?relay; Banked call to: addCommon_polling
    285          		
    286          		if (acDelayJoinNetwork != 0)//两分钟的控制
   \   000010   90....       MOV     DPTR,#acDelayJoinNetwork
   \   000013   E0           MOVX    A,@DPTR
   \   000014   6019         JZ      ??addSceneSelector_eventLoop_1
    287          		{
    288          			osal_stop_timerEx(*acPointer_TaskID, AC_EVENT_POLLING);
   \   000016                ; Setup parameters for call to function osal_stop_timerEx
   \   000016   12....       LCALL   ?Subroutine5 & 0xFFFF
   \                     ??CrossCallReturnLabel_10:
   \   000019   12....       LCALL   ??osal_stop_timerEx?relay; Banked call to: osal_stop_timerEx
    289          			osal_start_timerEx(*acPointer_TaskID, AC_EVENT_POLLING, AC_DELAY_POLLING);
   \   00001C                ; Setup parameters for call to function osal_start_timerEx
   \   00001C   90....       MOV     DPTR,#__Constant_1388
   \   00001F   12....       LCALL   ?PUSH_XSTACK8_X_FOUR
   \   000022   12....       LCALL   ?Subroutine5 & 0xFFFF
    290          		} else
   \                     ??CrossCallReturnLabel_11:
   \   000025   12....       LCALL   ??osal_start_timerEx?relay; Banked call to: osal_start_timerEx
   \   000028   7404         MOV     A,#0x4
   \   00002A   12....       LCALL   ?DEALLOC_XSTACK8
   \   00002D   8009         SJMP    ??addSceneSelector_eventLoop_2
    291          		{			
    292          #if defined(POWER_SAVING)
    293          			if (acSleepFlag == FALSE)
   \                     ??addSceneSelector_eventLoop_1:
   \   00002F   90....       MOV     DPTR,#acSleepFlag
   \   000032   E0           MOVX    A,@DPTR
   \   000033   7003         JNZ     ??addSceneSelector_eventLoop_2
    294          			{
    295          				addCommon_sleep();
   \   000035                ; Setup parameters for call to function addCommon_sleep
   \   000035   12....       LCALL   ??addCommon_sleep?relay; Banked call to: addCommon_sleep
    296          			}
    297          #else
    298          #endif
    299          		}
    300          		return ( events ^ AC_EVENT_POLLING );
   \                     ??addSceneSelector_eventLoop_2:
   \   000038   EE           MOV     A,R6
   \   000039   FA           MOV     R2,A
   \   00003A   EF           MOV     A,R7
   \   00003B   6401         XRL     A,#0x1
   \   00003D   8068         SJMP    ??addSceneSelector_eventLoop_3
    301          	}
    302          	
    303          	if (events & AC_EVENT_HANDLE_ONE_TIME)
   \                     ??addSceneSelector_eventLoop_0:
   \   00003F   EF           MOV     A,R7
   \   000040   5402         ANL     A,#0x2
   \   000042   6024         JZ      ??addSceneSelector_eventLoop_4
    304          	{
    305          		//add by jc按键按下，唤醒唤醒1秒，发送2次data request
    306          		addCommon_wakeup();
   \   000044                ; Setup parameters for call to function addCommon_wakeup
   \   000044   12....       LCALL   ??addCommon_wakeup?relay; Banked call to: addCommon_wakeup
    307          		acDelayJoinNetwork = 1;
   \   000047   90....       MOV     DPTR,#acDelayJoinNetwork
   \   00004A   7401         MOV     A,#0x1
   \   00004C   F0           MOVX    @DPTR,A
    308          		osal_start_timerEx(*acPointer_TaskID, AC_EVENT_POLLING, 1000);
   \   00004D                ; Setup parameters for call to function osal_start_timerEx
   \   00004D   90....       MOV     DPTR,#__Constant_3e8
   \   000050   12....       LCALL   ?PUSH_XSTACK8_X_FOUR
   \   000053   12....       LCALL   ?Subroutine5 & 0xFFFF
   \                     ??CrossCallReturnLabel_12:
   \   000056   12....       LCALL   ??osal_start_timerEx?relay; Banked call to: osal_start_timerEx
   \   000059   7404         MOV     A,#0x4
   \   00005B   12....       LCALL   ?DEALLOC_XSTACK8
    309          		//end of add by jc
    310          		addSceneSelector_handleOneTime();
   \   00005E                ; Setup parameters for call to function addSceneSelector_handleOneTime
   \   00005E   12....       LCALL   ??addSceneSelector_handleOneTime?relay; Banked call to: addSceneSelector_handleOneTime
    311          		return ( events ^ AC_EVENT_HANDLE_ONE_TIME);
   \   000061   EE           MOV     A,R6
   \   000062   FA           MOV     R2,A
   \   000063   EF           MOV     A,R7
   \   000064   6402         XRL     A,#0x2
   \   000066   803F         SJMP    ??addSceneSelector_eventLoop_3
    312          	}
    313          	
    314          	if (events & AC_EVENT_DOUBLE_CLICK_CHECK)
   \                     ??addSceneSelector_eventLoop_4:
   \   000068   EF           MOV     A,R7
   \   000069   5420         ANL     A,#0x20
   \   00006B   603D         JZ      ??addSceneSelector_eventLoop_5
    315          	{
    316          		//add by jc按键按下，唤醒唤醒5秒，发送2次data request
    317          		addCommon_wakeup();
   \   00006D                ; Setup parameters for call to function addCommon_wakeup
   \   00006D   12....       LCALL   ??addCommon_wakeup?relay; Banked call to: addCommon_wakeup
    318          		acDelayJoinNetwork = 1;
   \   000070   90....       MOV     DPTR,#acDelayJoinNetwork
   \   000073   7401         MOV     A,#0x1
   \   000075   F0           MOVX    @DPTR,A
    319          		osal_start_timerEx(*acPointer_TaskID, AC_EVENT_POLLING, 1000);
   \   000076                ; Setup parameters for call to function osal_start_timerEx
   \   000076   90....       MOV     DPTR,#__Constant_3e8
   \   000079   12....       LCALL   ?PUSH_XSTACK8_X_FOUR
   \   00007C   12....       LCALL   ?Subroutine5 & 0xFFFF
   \                     ??CrossCallReturnLabel_13:
   \   00007F   12....       LCALL   ??osal_start_timerEx?relay; Banked call to: osal_start_timerEx
   \   000082   7404         MOV     A,#0x4
   \   000084   12....       LCALL   ?DEALLOC_XSTACK8
    320          		//end of add by jc
    321          		if (acDoubleClickCounter_whenKeyDown >= 2)
   \   000087   90....       MOV     DPTR,#acDoubleClickCounter_whenKeyDown
   \   00008A   E0           MOVX    A,@DPTR
   \   00008B   C3           CLR     C
   \   00008C   9402         SUBB    A,#0x2
   \   00008E   4005         JC      ??addSceneSelector_eventLoop_6
    322          		{
    323          			acDoubleClickCounter_whenKeyUp = acDoubleClickCounter_whenKeyDown;
   \   000090   E0           MOVX    A,@DPTR
   \   000091   90....       MOV     DPTR,#acDoubleClickCounter_whenKeyUp
   \   000094   F0           MOVX    @DPTR,A
    324          		}
    325          		acDoubleClickCounter_whenKeyDown = 0;
   \                     ??addSceneSelector_eventLoop_6:
   \   000095   90....       MOV     DPTR,#acDoubleClickCounter_whenKeyDown
   \   000098   E4           CLR     A
   \   000099   F0           MOVX    @DPTR,A
    326          		addSceneSelector_handleOneTime();
   \   00009A                ; Setup parameters for call to function addSceneSelector_handleOneTime
   \   00009A   12....       LCALL   ??addSceneSelector_handleOneTime?relay; Banked call to: addSceneSelector_handleOneTime
    327          		acDoubleClickCheckFlag = FALSE;
   \   00009D   90....       MOV     DPTR,#acDoubleClickCheckFlag
   \   0000A0   E4           CLR     A
   \   0000A1   F0           MOVX    @DPTR,A
    328          		return ( events ^ AC_EVENT_DOUBLE_CLICK_CHECK);
   \   0000A2   EE           MOV     A,R6
   \   0000A3   FA           MOV     R2,A
   \   0000A4   EF           MOV     A,R7
   \   0000A5   6420         XRL     A,#0x20
   \                     ??addSceneSelector_eventLoop_3:
   \   0000A7   FB           MOV     R3,A
   \   0000A8   8003         SJMP    ??addSceneSelector_eventLoop_7
    329          	}
    330          	
    331          	return addCommon_eventLoop(task_id, events);
   \                     ??addSceneSelector_eventLoop_5:
   \   0000AA                ; Setup parameters for call to function addCommon_eventLoop
   \   0000AA   12....       LCALL   ??addCommon_eventLoop?relay; Banked call to: addCommon_eventLoop
   \                     ??addSceneSelector_eventLoop_7:
   \   0000AD   02....       LJMP    ?Subroutine1 & 0xFFFF
    332          }

   \                                 In  segment BANKED_CODE, align 1, keep-with-next
   \                     ?Subroutine5:
   \   000000   7A00         MOV     R2,#0x0
   \   000002   7B01         MOV     R3,#0x1
   \   000004                REQUIRE ??Subroutine15_0
   \   000004                ; // Fall through to label ??Subroutine15_0

   \                                 In  segment BANKED_CODE, align 1, keep-with-next
   \                     ??Subroutine15_0:
   \   000000   90....       MOV     DPTR,#acPointer_TaskID
   \   000003   E0           MOVX    A,@DPTR
   \   000004   F8           MOV     R0,A
   \   000005   A3           INC     DPTR
   \   000006   E0           MOVX    A,@DPTR
   \   000007   F583         MOV     DPH,A
   \   000009   8882         MOV     DPL,R0
   \   00000B   E0           MOVX    A,@DPTR
   \   00000C   F9           MOV     R1,A
   \   00000D   22           RET

   \                                 In  segment BANKED_CODE, align 1, keep-with-next
   \                     ?Subroutine1:
   \   000000   7F01         MOV     R7,#0x1
   \   000002   02....       LJMP    ?BANKED_LEAVE_XDATA
    333          
    334          /*********************************************************************
    335           * @fn      addSceneSelector_polling
    336           *
    337           * @brief   Scene selector.
    338           *
    339           * @param   none
    340           *
    341           * @return  none
    342           */
    343          static void addSceneSelector_polling(void)
    344          {
    345          	addCommon_polling();
    346          }
    347          
    348          /*********************************************************************
    349           * @fn      addSceneSelector_handleOneTime
    350           *
    351           * @brief   Scene selector handle one time.
    352           *
    353           * @param   none
    354           *
    355           * @return  none
    356           */

   \                                 In  segment BANKED_CODE, align 1, keep-with-next
    357          void addSceneSelector_handleOneTime(void)
   \                     addSceneSelector_handleOneTime:
    358          {
   \   000000                REQUIRE ?V0
   \   000000                REQUIRE ?V1
   \   000000   74F6         MOV     A,#-0xa
   \   000002   12....       LCALL   ?BANKED_ENTER_XDATA
   \   000005                ; Saved register size: 10
   \   000005                ; Auto size: 0
    359          	addCommon_handleOneTime();
   \   000005                ; Setup parameters for call to function addCommon_handleOneTime
   \   000005   12....       LCALL   ??addCommon_handleOneTime?relay; Banked call to: addCommon_handleOneTime
    360          
    361          	// factory reset
    362          	if (aSceneSelectorFactoryReset == ADD_SCENESELECTOR_FACTORYRESET_KEYDOWN_10S)
   \   000008   90....       MOV     DPTR,#aSceneSelectorFactoryReset
   \   00000B   E0           MOVX    A,@DPTR
   \   00000C   6402         XRL     A,#0x2
   \   00000E   7012         JNZ     ??addSceneSelector_handleOneTime_0
    363          	{
    364          		addSceneSelector_clearKeyData();	
   \   000010                ; Setup parameters for call to function addSceneSelector_clearKeyData
   \   000010   12....       LCALL   ??addSceneSelector_clearKeyData?relay; Banked call to: addSceneSelector_clearKeyData
    365          		acDoubleClickCounter_whenKeyUp = 0;
   \   000013   90....       MOV     DPTR,#acDoubleClickCounter_whenKeyUp
   \   000016   E4           CLR     A
   \   000017   F0           MOVX    @DPTR,A
    366          		aSceneSelectorFactoryReset = ADD_SCENESELECTOR_FACTORYRESET_KEYNORMAL;
   \   000018   90....       MOV     DPTR,#aSceneSelectorFactoryReset
   \   00001B   F0           MOVX    @DPTR,A
    367          		addCommon_factoryReset(); //恢复出厂设置
   \   00001C                ; Setup parameters for call to function addCommon_factoryReset
   \   00001C   12....       LCALL   ??addCommon_factoryReset?relay; Banked call to: addCommon_factoryReset
   \   00001F   02....       LJMP    ??addSceneSelector_handleOneTime_1 & 0xFFFF
    368          	} 
    369          
    370          	else // wakeup
    371          
    372          	if (aSceneSelectorWakeup == ADD_SCENESELECTOR_WAKEUP_KEYDOWN_10S)
   \                     ??addSceneSelector_handleOneTime_0:
   \   000022   90....       MOV     DPTR,#aSceneSelectorWakeup
   \   000025   E0           MOVX    A,@DPTR
   \   000026   6402         XRL     A,#0x2
   \   000028   7012         JNZ     ??addSceneSelector_handleOneTime_2
    373          	{
    374          		addSceneSelector_clearKeyData();	
   \   00002A                ; Setup parameters for call to function addSceneSelector_clearKeyData
   \   00002A   12....       LCALL   ??addSceneSelector_clearKeyData?relay; Banked call to: addSceneSelector_clearKeyData
    375          		acDoubleClickCounter_whenKeyUp = 0;
   \   00002D   90....       MOV     DPTR,#acDoubleClickCounter_whenKeyUp
   \   000030   E4           CLR     A
   \   000031   F0           MOVX    @DPTR,A
    376          		aSceneSelectorWakeup = ADD_SCENESELECTOR_WAKEUP_KEYNORMAL;
   \   000032   90....       MOV     DPTR,#aSceneSelectorWakeup
   \   000035   F0           MOVX    @DPTR,A
    377          		addCommon_wakeup();//唤醒两分钟
   \   000036                ; Setup parameters for call to function addCommon_wakeup
   \   000036   12....       LCALL   ??addCommon_wakeup?relay; Banked call to: addCommon_wakeup
   \   000039   02....       LJMP    ??addSceneSelector_handleOneTime_1 & 0xFFFF
    378          	}
    379          
    380          	else // key0
    381          	
    382          	if (aSceneSelectorKeyScene1 == AC_KEY_DOWN) // long press
   \                     ??addSceneSelector_handleOneTime_2:
   \   00003C   90....       MOV     DPTR,#aSceneSelectorKeyScene1
   \   00003F   E0           MOVX    A,@DPTR
   \   000040   6401         XRL     A,#0x1
   \   000042   7009         JNZ     ??addSceneSelector_handleOneTime_3
    383          	{
    384          		addSceneSelector_clearKeyData();
   \   000044                ; Setup parameters for call to function addSceneSelector_clearKeyData
   \   000044   12....       LCALL   ??addSceneSelector_clearKeyData?relay; Banked call to: addSceneSelector_clearKeyData
    385          		aSceneSelectorKeyScene1 = AC_KEY_DOWN;
   \   000047   90....       MOV     DPTR,#aSceneSelectorKeyScene1
   \   00004A   02....       LJMP    ??addSceneSelector_handleOneTime_4 & 0xFFFF
    386          	} else if ((aSceneSelectorKeyScene1 == AC_KEY_UP_600MS_TO_1S) || (aSceneSelectorKeyScene1 == AC_KEY_UP_1S_TO_5S))
   \                     ??addSceneSelector_handleOneTime_3:
   \   00004D   E0           MOVX    A,@DPTR
   \   00004E   6403         XRL     A,#0x3
   \   000050   6005         JZ      ??addSceneSelector_handleOneTime_5
   \   000052   E0           MOVX    A,@DPTR
   \   000053   6404         XRL     A,#0x4
   \   000055   7024         JNZ     ??addSceneSelector_handleOneTime_6
    387          	{
    388          		addSceneSelector_clearKeyData();//场景调用
   \                     ??addSceneSelector_handleOneTime_5:
   \   000057                ; Setup parameters for call to function addSceneSelector_clearKeyData
   \   000057   12....       LCALL   ??addSceneSelector_clearKeyData?relay; Banked call to: addSceneSelector_clearKeyData
    389          		addSceneSelector_sendDestinationAddressConfigure(SCENESELECTOR_ENDPOINT1);
   \   00005A                ; Setup parameters for call to function addSceneSelector_sendDestinationAddressConfigure
   \   00005A   7901         MOV     R1,#0x1
   \   00005C   12....       LCALL   ??addSceneSelector_sendDestinationAddressConfig; Banked call to: addSceneSelector_sendDestinationAddressConfigure
    390          		zclGeneral_SendSceneRecall(SCENESELECTOR_ENDPOINT1, &zclSceneSelector_DstAddr, aSceneSelectorEndpoint1_GroupID, aSceneSelectorEndpoint1_SceneID, FALSE, 0);
   \   00005F                ; Setup parameters for call to function zclGeneral_SendSceneRequest
   \   00005F   75..00       MOV     ?V0,#0x0
   \   000062   78..         MOV     R0,#?V0
   \   000064   12....       LCALL   ?PUSH_XSTACK_I_ONE
   \   000067   78..         MOV     R0,#?V0
   \   000069   12....       LCALL   ?PUSH_XSTACK_I_ONE
   \   00006C   90....       MOV     DPTR,#aSceneSelectorEndpoint1_GroupID
   \   00006F   12....       LCALL   ?PUSH_XSTACK8_X_TWO
   \   000072   90....       MOV     DPTR,#aSceneSelectorEndpoint1_SceneID
   \   000075   E0           MOVX    A,@DPTR
   \   000076   FD           MOV     R5,A
   \   000077   7C05         MOV     R4,#0x5
   \   000079   802C         SJMP    ??addSceneSelector_handleOneTime_7
    391          		aSceneSelectorCurrentEndpoint = SCENESELECTOR_ENDPOINT1;
    392          	} else if ((aSceneSelectorKeyScene1 == AC_KEY_UP_5S_TO_10S) || (aSceneSelectorKeyScene1 == AC_KEY_UP_ABOVE_10S))
   \                     ??addSceneSelector_handleOneTime_6:
   \   00007B   E0           MOVX    A,@DPTR
   \   00007C   6405         XRL     A,#0x5
   \   00007E   6005         JZ      ??addSceneSelector_handleOneTime_8
   \   000080   E0           MOVX    A,@DPTR
   \   000081   6406         XRL     A,#0x6
   \   000083   7036         JNZ     ??addSceneSelector_handleOneTime_9
    393          	{
    394          		addSceneSelector_clearKeyData();//场景存储
   \                     ??addSceneSelector_handleOneTime_8:
   \   000085                ; Setup parameters for call to function addSceneSelector_clearKeyData
   \   000085   12....       LCALL   ??addSceneSelector_clearKeyData?relay; Banked call to: addSceneSelector_clearKeyData
    395          		addSceneSelector_sendDestinationAddressConfigure(SCENESELECTOR_ENDPOINT1);
   \   000088                ; Setup parameters for call to function addSceneSelector_sendDestinationAddressConfigure
   \   000088   7901         MOV     R1,#0x1
   \   00008A   12....       LCALL   ??addSceneSelector_sendDestinationAddressConfig; Banked call to: addSceneSelector_sendDestinationAddressConfigure
    396          		zclGeneral_SendSceneStore(SCENESELECTOR_ENDPOINT1, &zclSceneSelector_DstAddr, aSceneSelectorEndpoint1_GroupID, aSceneSelectorEndpoint1_SceneID, FALSE, 0);
   \   00008D                ; Setup parameters for call to function zclGeneral_SendSceneRequest
   \   00008D   75..00       MOV     ?V0,#0x0
   \   000090   78..         MOV     R0,#?V0
   \   000092   12....       LCALL   ?PUSH_XSTACK_I_ONE
   \   000095   78..         MOV     R0,#?V0
   \   000097   12....       LCALL   ?PUSH_XSTACK_I_ONE
   \   00009A   90....       MOV     DPTR,#aSceneSelectorEndpoint1_GroupID
   \   00009D   12....       LCALL   ?PUSH_XSTACK8_X_TWO
   \   0000A0   90....       MOV     DPTR,#aSceneSelectorEndpoint1_SceneID
   \   0000A3   E0           MOVX    A,@DPTR
   \   0000A4   FD           MOV     R5,A
   \   0000A5   7C04         MOV     R4,#0x4
   \                     ??addSceneSelector_handleOneTime_7:
   \   0000A7   7A..         MOV     R2,#zclSceneSelector_DstAddr & 0xff
   \   0000A9   7B..         MOV     R3,#(zclSceneSelector_DstAddr >> 8) & 0xff
   \   0000AB   7901         MOV     R1,#0x1
   \   0000AD   12....       LCALL   ??zclGeneral_SendSceneRequest?relay; Banked call to: zclGeneral_SendSceneRequest
   \   0000B0   7404         MOV     A,#0x4
   \   0000B2   12....       LCALL   ?DEALLOC_XSTACK8
    397          		aSceneSelectorCurrentEndpoint = SCENESELECTOR_ENDPOINT1;
   \   0000B5   90....       MOV     DPTR,#aSceneSelectorCurrentEndpoint
   \   0000B8   02....       LJMP    ??addSceneSelector_handleOneTime_4 & 0xFFFF
    398          	}
    399          	
    400          	else // key1
    401          	
    402          	if (aSceneSelectorKeyScene2 == AC_KEY_DOWN) // long press
   \                     ??addSceneSelector_handleOneTime_9:
   \   0000BB   90....       MOV     DPTR,#aSceneSelectorKeyScene2
   \   0000BE   E0           MOVX    A,@DPTR
   \   0000BF   6401         XRL     A,#0x1
   \   0000C1   7009         JNZ     ??addSceneSelector_handleOneTime_10
    403          	{
    404          		addSceneSelector_clearKeyData();
   \   0000C3                ; Setup parameters for call to function addSceneSelector_clearKeyData
   \   0000C3   12....       LCALL   ??addSceneSelector_clearKeyData?relay; Banked call to: addSceneSelector_clearKeyData
    405          		aSceneSelectorKeyScene2 = AC_KEY_DOWN;
   \   0000C6   90....       MOV     DPTR,#aSceneSelectorKeyScene2
   \   0000C9   02....       LJMP    ??addSceneSelector_handleOneTime_4 & 0xFFFF
    406          	} else if ((aSceneSelectorKeyScene2 == AC_KEY_UP_600MS_TO_1S) || (aSceneSelectorKeyScene2 == AC_KEY_UP_1S_TO_5S))
   \                     ??addSceneSelector_handleOneTime_10:
   \   0000CC   E0           MOVX    A,@DPTR
   \   0000CD   6403         XRL     A,#0x3
   \   0000CF   6005         JZ      ??addSceneSelector_handleOneTime_11
   \   0000D1   E0           MOVX    A,@DPTR
   \   0000D2   6404         XRL     A,#0x4
   \   0000D4   7024         JNZ     ??addSceneSelector_handleOneTime_12
    407          	{
    408          		addSceneSelector_clearKeyData();
   \                     ??addSceneSelector_handleOneTime_11:
   \   0000D6                ; Setup parameters for call to function addSceneSelector_clearKeyData
   \   0000D6   12....       LCALL   ??addSceneSelector_clearKeyData?relay; Banked call to: addSceneSelector_clearKeyData
    409          		addSceneSelector_sendDestinationAddressConfigure(SCENESELECTOR_ENDPOINT2);
   \   0000D9                ; Setup parameters for call to function addSceneSelector_sendDestinationAddressConfigure
   \   0000D9   7902         MOV     R1,#0x2
   \   0000DB   12....       LCALL   ??addSceneSelector_sendDestinationAddressConfig; Banked call to: addSceneSelector_sendDestinationAddressConfigure
    410          		zclGeneral_SendSceneRecall(SCENESELECTOR_ENDPOINT2, &zclSceneSelector_DstAddr, aSceneSelectorEndpoint2_GroupID, aSceneSelectorEndpoint2_SceneID, FALSE, 0);
   \   0000DE                ; Setup parameters for call to function zclGeneral_SendSceneRequest
   \   0000DE   75..00       MOV     ?V0,#0x0
   \   0000E1   78..         MOV     R0,#?V0
   \   0000E3   12....       LCALL   ?PUSH_XSTACK_I_ONE
   \   0000E6   78..         MOV     R0,#?V0
   \   0000E8   12....       LCALL   ?PUSH_XSTACK_I_ONE
   \   0000EB   90....       MOV     DPTR,#aSceneSelectorEndpoint2_GroupID
   \   0000EE   12....       LCALL   ?PUSH_XSTACK8_X_TWO
   \   0000F1   90....       MOV     DPTR,#aSceneSelectorEndpoint2_SceneID
   \   0000F4   E0           MOVX    A,@DPTR
   \   0000F5   FD           MOV     R5,A
   \   0000F6   7C05         MOV     R4,#0x5
   \   0000F8   802C         SJMP    ??addSceneSelector_handleOneTime_13
    411          		aSceneSelectorCurrentEndpoint = SCENESELECTOR_ENDPOINT2;
    412          	} else if ((aSceneSelectorKeyScene2 == AC_KEY_UP_5S_TO_10S) || (aSceneSelectorKeyScene2 == AC_KEY_UP_ABOVE_10S))
   \                     ??addSceneSelector_handleOneTime_12:
   \   0000FA   E0           MOVX    A,@DPTR
   \   0000FB   6405         XRL     A,#0x5
   \   0000FD   6005         JZ      ??addSceneSelector_handleOneTime_14
   \   0000FF   E0           MOVX    A,@DPTR
   \   000100   6406         XRL     A,#0x6
   \   000102   7038         JNZ     ??addSceneSelector_handleOneTime_15
    413          	{
    414          		addSceneSelector_clearKeyData();
   \                     ??addSceneSelector_handleOneTime_14:
   \   000104                ; Setup parameters for call to function addSceneSelector_clearKeyData
   \   000104   12....       LCALL   ??addSceneSelector_clearKeyData?relay; Banked call to: addSceneSelector_clearKeyData
    415          		addSceneSelector_sendDestinationAddressConfigure(SCENESELECTOR_ENDPOINT2);
   \   000107                ; Setup parameters for call to function addSceneSelector_sendDestinationAddressConfigure
   \   000107   7902         MOV     R1,#0x2
   \   000109   12....       LCALL   ??addSceneSelector_sendDestinationAddressConfig; Banked call to: addSceneSelector_sendDestinationAddressConfigure
    416          		zclGeneral_SendSceneStore(SCENESELECTOR_ENDPOINT2, &zclSceneSelector_DstAddr, aSceneSelectorEndpoint2_GroupID, aSceneSelectorEndpoint2_SceneID, FALSE, 0);
   \   00010C                ; Setup parameters for call to function zclGeneral_SendSceneRequest
   \   00010C   75..00       MOV     ?V0,#0x0
   \   00010F   78..         MOV     R0,#?V0
   \   000111   12....       LCALL   ?PUSH_XSTACK_I_ONE
   \   000114   78..         MOV     R0,#?V0
   \   000116   12....       LCALL   ?PUSH_XSTACK_I_ONE
   \   000119   90....       MOV     DPTR,#aSceneSelectorEndpoint2_GroupID
   \   00011C   12....       LCALL   ?PUSH_XSTACK8_X_TWO
   \   00011F   90....       MOV     DPTR,#aSceneSelectorEndpoint2_SceneID
   \   000122   E0           MOVX    A,@DPTR
   \   000123   FD           MOV     R5,A
   \   000124   7C04         MOV     R4,#0x4
   \                     ??addSceneSelector_handleOneTime_13:
   \   000126   7A..         MOV     R2,#zclSceneSelector_DstAddr & 0xff
   \   000128   7B..         MOV     R3,#(zclSceneSelector_DstAddr >> 8) & 0xff
   \   00012A   7902         MOV     R1,#0x2
   \   00012C   12....       LCALL   ??zclGeneral_SendSceneRequest?relay; Banked call to: zclGeneral_SendSceneRequest
   \   00012F   7404         MOV     A,#0x4
   \   000131   12....       LCALL   ?DEALLOC_XSTACK8
    417          		aSceneSelectorCurrentEndpoint = SCENESELECTOR_ENDPOINT2;
   \   000134   90....       MOV     DPTR,#aSceneSelectorCurrentEndpoint
   \   000137   7402         MOV     A,#0x2
   \   000139   02....       LJMP    ??addSceneSelector_handleOneTime_16 & 0xFFFF
    418          	}
    419          
    420          	else // key2
    421          	
    422          	if (aSceneSelectorKeyScene3 == AC_KEY_DOWN) // long press
   \                     ??addSceneSelector_handleOneTime_15:
   \   00013C   90....       MOV     DPTR,#aSceneSelectorKeyScene3
   \   00013F   E0           MOVX    A,@DPTR
   \   000140   6401         XRL     A,#0x1
   \   000142   7009         JNZ     ??addSceneSelector_handleOneTime_17
    423          	{
    424          		addSceneSelector_clearKeyData();
   \   000144                ; Setup parameters for call to function addSceneSelector_clearKeyData
   \   000144   12....       LCALL   ??addSceneSelector_clearKeyData?relay; Banked call to: addSceneSelector_clearKeyData
    425          		aSceneSelectorKeyScene3 = AC_KEY_DOWN;
   \   000147   90....       MOV     DPTR,#aSceneSelectorKeyScene3
   \   00014A   02....       LJMP    ??addSceneSelector_handleOneTime_4 & 0xFFFF
    426          	} else if ((aSceneSelectorKeyScene3 == AC_KEY_UP_600MS_TO_1S) || (aSceneSelectorKeyScene3 == AC_KEY_UP_1S_TO_5S))
   \                     ??addSceneSelector_handleOneTime_17:
   \   00014D   E0           MOVX    A,@DPTR
   \   00014E   6403         XRL     A,#0x3
   \   000150   6005         JZ      ??addSceneSelector_handleOneTime_18
   \   000152   E0           MOVX    A,@DPTR
   \   000153   6404         XRL     A,#0x4
   \   000155   7024         JNZ     ??addSceneSelector_handleOneTime_19
    427          	{
    428          		addSceneSelector_clearKeyData();
   \                     ??addSceneSelector_handleOneTime_18:
   \   000157                ; Setup parameters for call to function addSceneSelector_clearKeyData
   \   000157   12....       LCALL   ??addSceneSelector_clearKeyData?relay; Banked call to: addSceneSelector_clearKeyData
    429          		addSceneSelector_sendDestinationAddressConfigure(SCENESELECTOR_ENDPOINT3);
   \   00015A                ; Setup parameters for call to function addSceneSelector_sendDestinationAddressConfigure
   \   00015A   7903         MOV     R1,#0x3
   \   00015C   12....       LCALL   ??addSceneSelector_sendDestinationAddressConfig; Banked call to: addSceneSelector_sendDestinationAddressConfigure
    430          		zclGeneral_SendSceneRecall(SCENESELECTOR_ENDPOINT3, &zclSceneSelector_DstAddr, aSceneSelectorEndpoint3_GroupID, aSceneSelectorEndpoint3_SceneID, FALSE, 0);
   \   00015F                ; Setup parameters for call to function zclGeneral_SendSceneRequest
   \   00015F   75..00       MOV     ?V0,#0x0
   \   000162   78..         MOV     R0,#?V0
   \   000164   12....       LCALL   ?PUSH_XSTACK_I_ONE
   \   000167   78..         MOV     R0,#?V0
   \   000169   12....       LCALL   ?PUSH_XSTACK_I_ONE
   \   00016C   90....       MOV     DPTR,#aSceneSelectorEndpoint3_GroupID
   \   00016F   12....       LCALL   ?PUSH_XSTACK8_X_TWO
   \   000172   90....       MOV     DPTR,#aSceneSelectorEndpoint3_SceneID
   \   000175   E0           MOVX    A,@DPTR
   \   000176   FD           MOV     R5,A
   \   000177   7C05         MOV     R4,#0x5
   \   000179   802C         SJMP    ??addSceneSelector_handleOneTime_20
    431          		aSceneSelectorCurrentEndpoint = SCENESELECTOR_ENDPOINT3;
    432          	} else if ((aSceneSelectorKeyScene3 == AC_KEY_UP_5S_TO_10S) || (aSceneSelectorKeyScene3 == AC_KEY_UP_ABOVE_10S))
   \                     ??addSceneSelector_handleOneTime_19:
   \   00017B   E0           MOVX    A,@DPTR
   \   00017C   6405         XRL     A,#0x5
   \   00017E   6005         JZ      ??addSceneSelector_handleOneTime_21
   \   000180   E0           MOVX    A,@DPTR
   \   000181   6406         XRL     A,#0x6
   \   000183   7038         JNZ     ??addSceneSelector_handleOneTime_22
    433          	{
    434          		addSceneSelector_clearKeyData();
   \                     ??addSceneSelector_handleOneTime_21:
   \   000185                ; Setup parameters for call to function addSceneSelector_clearKeyData
   \   000185   12....       LCALL   ??addSceneSelector_clearKeyData?relay; Banked call to: addSceneSelector_clearKeyData
    435          		addSceneSelector_sendDestinationAddressConfigure(SCENESELECTOR_ENDPOINT3);
   \   000188                ; Setup parameters for call to function addSceneSelector_sendDestinationAddressConfigure
   \   000188   7903         MOV     R1,#0x3
   \   00018A   12....       LCALL   ??addSceneSelector_sendDestinationAddressConfig; Banked call to: addSceneSelector_sendDestinationAddressConfigure
    436          		zclGeneral_SendSceneStore(SCENESELECTOR_ENDPOINT3, &zclSceneSelector_DstAddr, aSceneSelectorEndpoint3_GroupID, aSceneSelectorEndpoint3_SceneID, FALSE, 0);
   \   00018D                ; Setup parameters for call to function zclGeneral_SendSceneRequest
   \   00018D   75..00       MOV     ?V0,#0x0
   \   000190   78..         MOV     R0,#?V0
   \   000192   12....       LCALL   ?PUSH_XSTACK_I_ONE
   \   000195   78..         MOV     R0,#?V0
   \   000197   12....       LCALL   ?PUSH_XSTACK_I_ONE
   \   00019A   90....       MOV     DPTR,#aSceneSelectorEndpoint3_GroupID
   \   00019D   12....       LCALL   ?PUSH_XSTACK8_X_TWO
   \   0001A0   90....       MOV     DPTR,#aSceneSelectorEndpoint3_SceneID
   \   0001A3   E0           MOVX    A,@DPTR
   \   0001A4   FD           MOV     R5,A
   \   0001A5   7C04         MOV     R4,#0x4
   \                     ??addSceneSelector_handleOneTime_20:
   \   0001A7   7A..         MOV     R2,#zclSceneSelector_DstAddr & 0xff
   \   0001A9   7B..         MOV     R3,#(zclSceneSelector_DstAddr >> 8) & 0xff
   \   0001AB   7903         MOV     R1,#0x3
   \   0001AD   12....       LCALL   ??zclGeneral_SendSceneRequest?relay; Banked call to: zclGeneral_SendSceneRequest
   \   0001B0   7404         MOV     A,#0x4
   \   0001B2   12....       LCALL   ?DEALLOC_XSTACK8
    437          		aSceneSelectorCurrentEndpoint = SCENESELECTOR_ENDPOINT3;
   \   0001B5   90....       MOV     DPTR,#aSceneSelectorCurrentEndpoint
   \   0001B8   7403         MOV     A,#0x3
   \   0001BA   02....       LJMP    ??addSceneSelector_handleOneTime_16 & 0xFFFF
    438          	}
    439          
    440          	else // key3
    441          	
    442          	if (aSceneSelectorKeyScene4 == AC_KEY_DOWN) // long press
   \                     ??addSceneSelector_handleOneTime_22:
   \   0001BD   90....       MOV     DPTR,#aSceneSelectorKeyScene4
   \   0001C0   E0           MOVX    A,@DPTR
   \   0001C1   6401         XRL     A,#0x1
   \   0001C3   7009         JNZ     ??addSceneSelector_handleOneTime_23
    443          	{
    444          		addSceneSelector_clearKeyData();
   \   0001C5                ; Setup parameters for call to function addSceneSelector_clearKeyData
   \   0001C5   12....       LCALL   ??addSceneSelector_clearKeyData?relay; Banked call to: addSceneSelector_clearKeyData
    445          		aSceneSelectorKeyScene4 = AC_KEY_DOWN;
   \   0001C8   90....       MOV     DPTR,#aSceneSelectorKeyScene4
   \   0001CB   02....       LJMP    ??addSceneSelector_handleOneTime_4 & 0xFFFF
    446          	} else if ((aSceneSelectorKeyScene4 == AC_KEY_UP_600MS_TO_1S) || (aSceneSelectorKeyScene4 == AC_KEY_UP_1S_TO_5S))
   \                     ??addSceneSelector_handleOneTime_23:
   \   0001CE   E0           MOVX    A,@DPTR
   \   0001CF   6403         XRL     A,#0x3
   \   0001D1   6005         JZ      ??addSceneSelector_handleOneTime_24
   \   0001D3   E0           MOVX    A,@DPTR
   \   0001D4   6404         XRL     A,#0x4
   \   0001D6   7024         JNZ     ??addSceneSelector_handleOneTime_25
    447          	{
    448          		addSceneSelector_clearKeyData();
   \                     ??addSceneSelector_handleOneTime_24:
   \   0001D8                ; Setup parameters for call to function addSceneSelector_clearKeyData
   \   0001D8   12....       LCALL   ??addSceneSelector_clearKeyData?relay; Banked call to: addSceneSelector_clearKeyData
    449          		addSceneSelector_sendDestinationAddressConfigure(SCENESELECTOR_ENDPOINT4);
   \   0001DB                ; Setup parameters for call to function addSceneSelector_sendDestinationAddressConfigure
   \   0001DB   7904         MOV     R1,#0x4
   \   0001DD   12....       LCALL   ??addSceneSelector_sendDestinationAddressConfig; Banked call to: addSceneSelector_sendDestinationAddressConfigure
    450          		zclGeneral_SendSceneRecall(SCENESELECTOR_ENDPOINT4, &zclSceneSelector_DstAddr, aSceneSelectorEndpoint4_GroupID, aSceneSelectorEndpoint4_SceneID, FALSE, 0);
   \   0001E0                ; Setup parameters for call to function zclGeneral_SendSceneRequest
   \   0001E0   75..00       MOV     ?V0,#0x0
   \   0001E3   78..         MOV     R0,#?V0
   \   0001E5   12....       LCALL   ?PUSH_XSTACK_I_ONE
   \   0001E8   78..         MOV     R0,#?V0
   \   0001EA   12....       LCALL   ?PUSH_XSTACK_I_ONE
   \   0001ED   90....       MOV     DPTR,#aSceneSelectorEndpoint4_GroupID
   \   0001F0   12....       LCALL   ?PUSH_XSTACK8_X_TWO
   \   0001F3   90....       MOV     DPTR,#aSceneSelectorEndpoint4_SceneID
   \   0001F6   E0           MOVX    A,@DPTR
   \   0001F7   FD           MOV     R5,A
   \   0001F8   7C05         MOV     R4,#0x5
   \   0001FA   802C         SJMP    ??addSceneSelector_handleOneTime_26
    451          		aSceneSelectorCurrentEndpoint = SCENESELECTOR_ENDPOINT4;
    452          	} else if ((aSceneSelectorKeyScene4 == AC_KEY_UP_5S_TO_10S) || (aSceneSelectorKeyScene4 == AC_KEY_UP_ABOVE_10S))
   \                     ??addSceneSelector_handleOneTime_25:
   \   0001FC   E0           MOVX    A,@DPTR
   \   0001FD   6405         XRL     A,#0x5
   \   0001FF   6005         JZ      ??addSceneSelector_handleOneTime_27
   \   000201   E0           MOVX    A,@DPTR
   \   000202   6406         XRL     A,#0x6
   \   000204   7038         JNZ     ??addSceneSelector_handleOneTime_28
    453          	{
    454          		addSceneSelector_clearKeyData();
   \                     ??addSceneSelector_handleOneTime_27:
   \   000206                ; Setup parameters for call to function addSceneSelector_clearKeyData
   \   000206   12....       LCALL   ??addSceneSelector_clearKeyData?relay; Banked call to: addSceneSelector_clearKeyData
    455          		addSceneSelector_sendDestinationAddressConfigure(SCENESELECTOR_ENDPOINT4);
   \   000209                ; Setup parameters for call to function addSceneSelector_sendDestinationAddressConfigure
   \   000209   7904         MOV     R1,#0x4
   \   00020B   12....       LCALL   ??addSceneSelector_sendDestinationAddressConfig; Banked call to: addSceneSelector_sendDestinationAddressConfigure
    456          		zclGeneral_SendSceneStore(SCENESELECTOR_ENDPOINT4, &zclSceneSelector_DstAddr, aSceneSelectorEndpoint4_GroupID, aSceneSelectorEndpoint4_SceneID, FALSE, 0);
   \   00020E                ; Setup parameters for call to function zclGeneral_SendSceneRequest
   \   00020E   75..00       MOV     ?V0,#0x0
   \   000211   78..         MOV     R0,#?V0
   \   000213   12....       LCALL   ?PUSH_XSTACK_I_ONE
   \   000216   78..         MOV     R0,#?V0
   \   000218   12....       LCALL   ?PUSH_XSTACK_I_ONE
   \   00021B   90....       MOV     DPTR,#aSceneSelectorEndpoint4_GroupID
   \   00021E   12....       LCALL   ?PUSH_XSTACK8_X_TWO
   \   000221   90....       MOV     DPTR,#aSceneSelectorEndpoint4_SceneID
   \   000224   E0           MOVX    A,@DPTR
   \   000225   FD           MOV     R5,A
   \   000226   7C04         MOV     R4,#0x4
   \                     ??addSceneSelector_handleOneTime_26:
   \   000228   7A..         MOV     R2,#zclSceneSelector_DstAddr & 0xff
   \   00022A   7B..         MOV     R3,#(zclSceneSelector_DstAddr >> 8) & 0xff
   \   00022C   7904         MOV     R1,#0x4
   \   00022E   12....       LCALL   ??zclGeneral_SendSceneRequest?relay; Banked call to: zclGeneral_SendSceneRequest
   \   000231   7404         MOV     A,#0x4
   \   000233   12....       LCALL   ?DEALLOC_XSTACK8
    457          		aSceneSelectorCurrentEndpoint = SCENESELECTOR_ENDPOINT4;
   \   000236   90....       MOV     DPTR,#aSceneSelectorCurrentEndpoint
   \   000239   7404         MOV     A,#0x4
   \   00023B   02....       LJMP    ??addSceneSelector_handleOneTime_16 & 0xFFFF
    458          	}
    459          
    460          	else // keyDimmingUp
    461          	
    462          	if (aSceneSelectorKeyDimmingUp == AC_KEY_DOWN) // long press
   \                     ??addSceneSelector_handleOneTime_28:
   \   00023E   90....       MOV     DPTR,#aSceneSelectorKeyDimmingUp
   \   000241   E0           MOVX    A,@DPTR
   \   000242   6401         XRL     A,#0x1
   \   000244   7009         JNZ     ??addSceneSelector_handleOneTime_29
    463          	{
    464          		addSceneSelector_clearKeyData();
   \   000246                ; Setup parameters for call to function addSceneSelector_clearKeyData
   \   000246   12....       LCALL   ??addSceneSelector_clearKeyData?relay; Banked call to: addSceneSelector_clearKeyData
    465          		aSceneSelectorKeyDimmingUp = AC_KEY_DOWN;
   \   000249   90....       MOV     DPTR,#aSceneSelectorKeyDimmingUp
   \   00024C   02....       LJMP    ??addSceneSelector_handleOneTime_4 & 0xFFFF
    466          	} else if (aSceneSelectorKeyDimmingUp == AC_KEY_UP_600MS_TO_1S)
   \                     ??addSceneSelector_handleOneTime_29:
   \   00024F   E0           MOVX    A,@DPTR
   \   000250   6403         XRL     A,#0x3
   \   000252   7061         JNZ     ??addSceneSelector_handleOneTime_30
    467          	{
    468          		addSceneSelector_clearKeyData();
   \   000254                ; Setup parameters for call to function addSceneSelector_clearKeyData
   \   000254   12....       LCALL   ??addSceneSelector_clearKeyData?relay; Banked call to: addSceneSelector_clearKeyData
    469          		if (acDoubleClickCounter_whenKeyUp <= 1) // short press，级调，增亮
   \   000257   12....       LCALL   ?Subroutine13 & 0xFFFF
   \                     ??CrossCallReturnLabel_6:
   \   00025A   5028         JNC     ??addSceneSelector_handleOneTime_31
    470          		{
    471          			addSceneSelector_sendDestinationAddressConfigure(aSceneSelectorCurrentEndpoint);
   \   00025C                ; Setup parameters for call to function addSceneSelector_sendDestinationAddressConfigure
   \   00025C   12....       LCALL   ??addSceneSelector_sendDestinationAddressConfig; Banked call to: addSceneSelector_sendDestinationAddressConfigure
    472          			zclGeneral_SendLevelControlStep(aSceneSelectorCurrentEndpoint, &zclSceneSelector_DstAddr, LEVEL_STEP_UP, 35, 1, FALSE, 0 );
   \   00025F                ; Setup parameters for call to function zclGeneral_SendLevelControlStepRequest
   \   00025F   75..00       MOV     ?V0,#0x0
   \   000262   78..         MOV     R0,#?V0
   \   000264   12....       LCALL   ?PUSH_XSTACK_I_ONE
   \   000267   78..         MOV     R0,#?V0
   \   000269   12....       LCALL   ?PUSH_XSTACK_I_ONE
   \   00026C   75..01       MOV     ?V0,#0x1
   \   00026F   75..00       MOV     ?V1,#0x0
   \   000272   78..         MOV     R0,#?V0
   \   000274   12....       LCALL   ?PUSH_XSTACK_I_TWO
   \   000277   75..23       MOV     ?V0,#0x23
   \   00027A   78..         MOV     R0,#?V0
   \   00027C   12....       LCALL   ?PUSH_XSTACK_I_ONE
   \   00027F   7D00         MOV     R5,#0x0
   \   000281   02....       LJMP    ??addSceneSelector_handleOneTime_32 & 0xFFFF
    473          		} else // double click，开灯
    474          		{
    475          			addSceneSelector_sendDestinationAddressConfigure(aSceneSelectorCurrentEndpoint);
   \                     ??addSceneSelector_handleOneTime_31:
   \   000284                ; Setup parameters for call to function addSceneSelector_sendDestinationAddressConfigure
   \   000284   12....       LCALL   ??addSceneSelector_sendDestinationAddressConfig; Banked call to: addSceneSelector_sendDestinationAddressConfigure
    476          			zclGeneral_SendOnOff_CmdOn(aSceneSelectorCurrentEndpoint, &zclSceneSelector_DstAddr, FALSE, 0 );
   \   000287                ; Setup parameters for call to function zcl_SendCommand
   \   000287   E4           CLR     A
   \   000288   F5..         MOV     ?V0,A
   \   00028A   F5..         MOV     ?V1,A
   \   00028C   78..         MOV     R0,#?V0
   \   00028E   12....       LCALL   ?PUSH_XSTACK_I_TWO
   \   000291   78..         MOV     R0,#?V0
   \   000293   12....       LCALL   ?PUSH_XSTACK_I_TWO
   \   000296   78..         MOV     R0,#?V0
   \   000298   12....       LCALL   ?PUSH_XSTACK_I_ONE
   \   00029B   78..         MOV     R0,#?V0
   \   00029D   12....       LCALL   ?PUSH_XSTACK_I_TWO
   \   0002A0   78..         MOV     R0,#?V0
   \   0002A2   12....       LCALL   ?PUSH_XSTACK_I_ONE
   \   0002A5   78..         MOV     R0,#?V0
   \   0002A7   12....       LCALL   ?PUSH_XSTACK_I_ONE
   \   0002AA   75..01       MOV     ?V0,#0x1
   \   0002AD   78..         MOV     R0,#?V0
   \   0002AF   12....       LCALL   ?PUSH_XSTACK_I_ONE
   \   0002B2   02....       LJMP    ??addSceneSelector_handleOneTime_33 & 0xFFFF
    477          		}
    478          	} else if ((aSceneSelectorKeyDimmingUp == AC_KEY_UP_1S_TO_5S) || (aSceneSelectorKeyDimmingUp == AC_KEY_UP_5S_TO_10S) || (aSceneSelectorKeyDimmingUp == AC_KEY_UP_ABOVE_10S))
   \                     ??addSceneSelector_handleOneTime_30:
   \   0002B5   E0           MOVX    A,@DPTR
   \   0002B6   6404         XRL     A,#0x4
   \   0002B8   600A         JZ      ??addSceneSelector_handleOneTime_34
   \   0002BA   E0           MOVX    A,@DPTR
   \   0002BB   6405         XRL     A,#0x5
   \   0002BD   6005         JZ      ??addSceneSelector_handleOneTime_34
   \   0002BF   E0           MOVX    A,@DPTR
   \   0002C0   6406         XRL     A,#0x6
   \   0002C2   7003         JNZ     ??addSceneSelector_handleOneTime_35
    479          	{
    480          		addSceneSelector_clearKeyData();//处理长按抬起后，停止渐变move调光
   \                     ??addSceneSelector_handleOneTime_34:
   \   0002C4                ; Setup parameters for call to function addSceneSelector_clearKeyData
   \   0002C4   02....       LJMP    ??addSceneSelector_handleOneTime_36 & 0xFFFF
    481          		addSceneSelector_sendDestinationAddressConfigure(aSceneSelectorCurrentEndpoint);
    482          		zclGeneral_SendLevelControlStop(aSceneSelectorCurrentEndpoint, &zclSceneSelector_DstAddr, FALSE, 0 );
    483          	}
    484          
    485          	else // keyDimmingDown
    486          	
    487          	if (aSceneSelectorKeyDimmingDown == AC_KEY_DOWN) // long press
   \                     ??addSceneSelector_handleOneTime_35:
   \   0002C7   90....       MOV     DPTR,#aSceneSelectorKeyDimmingDown
   \   0002CA   E0           MOVX    A,@DPTR
   \   0002CB   6401         XRL     A,#0x1
   \   0002CD   700C         JNZ     ??addSceneSelector_handleOneTime_37
    488          	{
    489          		addSceneSelector_clearKeyData();
   \   0002CF                ; Setup parameters for call to function addSceneSelector_clearKeyData
   \   0002CF   12....       LCALL   ??addSceneSelector_clearKeyData?relay; Banked call to: addSceneSelector_clearKeyData
    490          		aSceneSelectorKeyDimmingDown = AC_KEY_DOWN;
   \   0002D2   90....       MOV     DPTR,#aSceneSelectorKeyDimmingDown
   \                     ??addSceneSelector_handleOneTime_4:
   \   0002D5   7401         MOV     A,#0x1
   \                     ??addSceneSelector_handleOneTime_16:
   \   0002D7   F0           MOVX    @DPTR,A
   \   0002D8   02....       LJMP    ??addSceneSelector_handleOneTime_1 & 0xFFFF
    491          	} else if (aSceneSelectorKeyDimmingDown == AC_KEY_UP_600MS_TO_1S)
   \                     ??addSceneSelector_handleOneTime_37:
   \   0002DB   E0           MOVX    A,@DPTR
   \   0002DC   6403         XRL     A,#0x3
   \   0002DE   707D         JNZ     ??addSceneSelector_handleOneTime_38
    492          	{
    493          		addSceneSelector_clearKeyData();
   \   0002E0                ; Setup parameters for call to function addSceneSelector_clearKeyData
   \   0002E0   12....       LCALL   ??addSceneSelector_clearKeyData?relay; Banked call to: addSceneSelector_clearKeyData
    494          		if (acDoubleClickCounter_whenKeyUp <= 1) // short press
   \   0002E3   12....       LCALL   ?Subroutine13 & 0xFFFF
   \                     ??CrossCallReturnLabel_7:
   \   0002E6   503B         JNC     ??addSceneSelector_handleOneTime_39
    495          		{
    496          			addSceneSelector_sendDestinationAddressConfigure(aSceneSelectorCurrentEndpoint);
   \   0002E8                ; Setup parameters for call to function addSceneSelector_sendDestinationAddressConfigure
   \   0002E8   12....       LCALL   ??addSceneSelector_sendDestinationAddressConfig; Banked call to: addSceneSelector_sendDestinationAddressConfigure
    497          			zclGeneral_SendLevelControlStep(aSceneSelectorCurrentEndpoint, &zclSceneSelector_DstAddr, LEVEL_STEP_DOWN, 35, 1, FALSE, 0 );
   \   0002EB                ; Setup parameters for call to function zclGeneral_SendLevelControlStepRequest
   \   0002EB   75..00       MOV     ?V0,#0x0
   \   0002EE   78..         MOV     R0,#?V0
   \   0002F0   12....       LCALL   ?PUSH_XSTACK_I_ONE
   \   0002F3   78..         MOV     R0,#?V0
   \   0002F5   12....       LCALL   ?PUSH_XSTACK_I_ONE
   \   0002F8   75..01       MOV     ?V0,#0x1
   \   0002FB   75..00       MOV     ?V1,#0x0
   \   0002FE   78..         MOV     R0,#?V0
   \   000300   12....       LCALL   ?PUSH_XSTACK_I_TWO
   \   000303   75..23       MOV     ?V0,#0x23
   \   000306   78..         MOV     R0,#?V0
   \   000308   12....       LCALL   ?PUSH_XSTACK_I_ONE
   \   00030B   7D01         MOV     R5,#0x1
   \                     ??addSceneSelector_handleOneTime_32:
   \   00030D   7C02         MOV     R4,#0x2
   \   00030F   7A..         MOV     R2,#zclSceneSelector_DstAddr & 0xff
   \   000311   7B..         MOV     R3,#(zclSceneSelector_DstAddr >> 8) & 0xff
   \   000313   90....       MOV     DPTR,#aSceneSelectorCurrentEndpoint
   \   000316   E0           MOVX    A,@DPTR
   \   000317   F9           MOV     R1,A
   \   000318   12....       LCALL   ??zclGeneral_SendLevelControlStepRequest?relay; Banked call to: zclGeneral_SendLevelControlStepRequest
   \   00031B   7405         MOV     A,#0x5
   \   00031D   12....       LCALL   ?DEALLOC_XSTACK8
   \   000320   02....       LJMP    ??addSceneSelector_handleOneTime_1 & 0xFFFF
    498          		} else // double click
    499          		{
    500          			addSceneSelector_sendDestinationAddressConfigure(aSceneSelectorCurrentEndpoint);
   \                     ??addSceneSelector_handleOneTime_39:
   \   000323                ; Setup parameters for call to function addSceneSelector_sendDestinationAddressConfigure
   \   000323   12....       LCALL   ??addSceneSelector_sendDestinationAddressConfig; Banked call to: addSceneSelector_sendDestinationAddressConfigure
    501          			zclGeneral_SendOnOff_CmdOff(aSceneSelectorCurrentEndpoint, &zclSceneSelector_DstAddr, FALSE, 0 );
   \   000326                ; Setup parameters for call to function zcl_SendCommand
   \   000326   E4           CLR     A
   \   000327   F5..         MOV     ?V0,A
   \   000329   F5..         MOV     ?V1,A
   \   00032B   78..         MOV     R0,#?V0
   \   00032D   12....       LCALL   ?PUSH_XSTACK_I_TWO
   \   000330   78..         MOV     R0,#?V0
   \   000332   12....       LCALL   ?PUSH_XSTACK_I_TWO
   \   000335   78..         MOV     R0,#?V0
   \   000337   12....       LCALL   ?PUSH_XSTACK_I_ONE
   \   00033A   78..         MOV     R0,#?V0
   \   00033C   12....       LCALL   ?PUSH_XSTACK_I_TWO
   \   00033F   78..         MOV     R0,#?V0
   \   000341   12....       LCALL   ?PUSH_XSTACK_I_ONE
   \   000344   78..         MOV     R0,#?V0
   \   000346   12....       LCALL   ?PUSH_XSTACK_I_ONE
   \   000349   75..01       MOV     ?V0,#0x1
   \   00034C   78..         MOV     R0,#?V0
   \   00034E   12....       LCALL   ?PUSH_XSTACK_I_ONE
   \   000351   75..00       MOV     ?V0,#0x0
   \                     ??addSceneSelector_handleOneTime_33:
   \   000354   78..         MOV     R0,#?V0
   \   000356   12....       LCALL   ?PUSH_XSTACK_I_ONE
   \   000359   7C06         MOV     R4,#0x6
   \   00035B   804F         SJMP    ??addSceneSelector_handleOneTime_40
    502          		}
    503          	} else if ((aSceneSelectorKeyDimmingDown == AC_KEY_UP_1S_TO_5S) || (aSceneSelectorKeyDimmingDown == AC_KEY_UP_5S_TO_10S) || (aSceneSelectorKeyDimmingDown == AC_KEY_UP_ABOVE_10S))
   \                     ??addSceneSelector_handleOneTime_38:
   \   00035D   E0           MOVX    A,@DPTR
   \   00035E   6404         XRL     A,#0x4
   \   000360   600A         JZ      ??addSceneSelector_handleOneTime_36
   \   000362   E0           MOVX    A,@DPTR
   \   000363   6405         XRL     A,#0x5
   \   000365   6005         JZ      ??addSceneSelector_handleOneTime_36
   \   000367   E0           MOVX    A,@DPTR
   \   000368   6406         XRL     A,#0x6
   \   00036A   7055         JNZ     ??addSceneSelector_handleOneTime_41
    504          	{
    505          		addSceneSelector_clearKeyData();
   \                     ??addSceneSelector_handleOneTime_36:
   \   00036C                ; Setup parameters for call to function addSceneSelector_clearKeyData
   \   00036C   12....       LCALL   ??addSceneSelector_clearKeyData?relay; Banked call to: addSceneSelector_clearKeyData
    506          		addSceneSelector_sendDestinationAddressConfigure(aSceneSelectorCurrentEndpoint);
   \   00036F                ; Setup parameters for call to function addSceneSelector_sendDestinationAddressConfigure
   \   00036F   90....       MOV     DPTR,#aSceneSelectorCurrentEndpoint
   \   000372   E0           MOVX    A,@DPTR
   \   000373   F9           MOV     R1,A
   \   000374   12....       LCALL   ??addSceneSelector_sendDestinationAddressConfig; Banked call to: addSceneSelector_sendDestinationAddressConfigure
    507          		zclGeneral_SendLevelControlStop(aSceneSelectorCurrentEndpoint, &zclSceneSelector_DstAddr, FALSE, 0 );
   \   000377                ; Setup parameters for call to function zcl_SendCommand
   \   000377   E4           CLR     A
   \   000378   F5..         MOV     ?V0,A
   \   00037A   F5..         MOV     ?V1,A
   \   00037C   78..         MOV     R0,#?V0
   \   00037E   12....       LCALL   ?PUSH_XSTACK_I_TWO
   \   000381   78..         MOV     R0,#?V0
   \   000383   12....       LCALL   ?PUSH_XSTACK_I_TWO
   \   000386   78..         MOV     R0,#?V0
   \   000388   12....       LCALL   ?PUSH_XSTACK_I_ONE
   \   00038B   78..         MOV     R0,#?V0
   \   00038D   12....       LCALL   ?PUSH_XSTACK_I_TWO
   \   000390   78..         MOV     R0,#?V0
   \   000392   12....       LCALL   ?PUSH_XSTACK_I_ONE
   \   000395   78..         MOV     R0,#?V0
   \   000397   12....       LCALL   ?PUSH_XSTACK_I_ONE
   \   00039A   75..01       MOV     ?V0,#0x1
   \   00039D   78..         MOV     R0,#?V0
   \   00039F   12....       LCALL   ?PUSH_XSTACK_I_ONE
   \   0003A2   75..03       MOV     ?V0,#0x3
   \   0003A5   78..         MOV     R0,#?V0
   \   0003A7   12....       LCALL   ?PUSH_XSTACK_I_ONE
   \   0003AA   7C08         MOV     R4,#0x8
   \                     ??addSceneSelector_handleOneTime_40:
   \   0003AC   7D00         MOV     R5,#0x0
   \   0003AE   7A..         MOV     R2,#zclSceneSelector_DstAddr & 0xff
   \   0003B0   7B..         MOV     R3,#(zclSceneSelector_DstAddr >> 8) & 0xff
   \   0003B2   90....       MOV     DPTR,#aSceneSelectorCurrentEndpoint
   \   0003B5   E0           MOVX    A,@DPTR
   \   0003B6   F9           MOV     R1,A
   \   0003B7   12....       LCALL   ??zcl_SendCommand?relay; Banked call to: zcl_SendCommand
   \   0003BA   740B         MOV     A,#0xb
   \   0003BC   12....       LCALL   ?DEALLOC_XSTACK8
   \   0003BF   8003         SJMP    ??addSceneSelector_handleOneTime_1
    508          	}
    509          	
    510          	else // others
    511          		
    512          	{
    513          		addSceneSelector_clearKeyData();
   \                     ??addSceneSelector_handleOneTime_41:
   \   0003C1                ; Setup parameters for call to function addSceneSelector_clearKeyData
   \   0003C1   12....       LCALL   ??addSceneSelector_clearKeyData?relay; Banked call to: addSceneSelector_clearKeyData
    514          	}
    515          	
    516          	acDoubleClickCounter_whenKeyUp = 0;
   \                     ??addSceneSelector_handleOneTime_1:
   \   0003C4   90....       MOV     DPTR,#acDoubleClickCounter_whenKeyUp
   \   0003C7   E4           CLR     A
   \   0003C8   F0           MOVX    @DPTR,A
    517          	acDoubleClickCounter_whenKeyDown = 0;
   \   0003C9   90....       MOV     DPTR,#acDoubleClickCounter_whenKeyDown
   \   0003CC   F0           MOVX    @DPTR,A
    518          }
   \   0003CD   02....       LJMP    ?Subroutine2 & 0xFFFF

   \                                 In  segment BANKED_CODE, align 1, keep-with-next
   \                     ?Subroutine13:
   \   000000   90....       MOV     DPTR,#acDoubleClickCounter_whenKeyUp
   \   000003   E0           MOVX    A,@DPTR
   \   000004   C3           CLR     C
   \   000005   9402         SUBB    A,#0x2
   \   000007   90....       MOV     DPTR,#aSceneSelectorCurrentEndpoint
   \   00000A   E0           MOVX    A,@DPTR
   \   00000B   F9           MOV     R1,A
   \   00000C   22           RET

   \                                 In  segment BANKED_CODE, align 1, keep-with-next
   \                     ?Subroutine2:
   \   000000   7F02         MOV     R7,#0x2
   \   000002   02....       LJMP    ?BANKED_LEAVE_XDATA
    519          
    520          /*********************************************************************
    521           * @fn      addSceneSelector_isrPort0
    522           *
    523           * @brief   Port0 interrupt service routine.
    524           *
    525           * @param   none
    526           *
    527           * @return  none
    528           */

   \                                 In  segment BANKED_CODE, align 1, keep-with-next
    529          void addSceneSelector_isrPort0(void)
   \                     addSceneSelector_isrPort0:
    530          {
   \   000000                ; Saved register size: 0
   \   000000                ; Auto size: 0
    531          #if defined(SCENE_SELECTOR)	
    532          	IEN1 &= ~0x20; // port0 interrupt disable
    533          
    534          	if (TRUE == addCommon_atNormalWorkState(FALSE))
    535          	{
    536          		//#pragma vector = P0INT_VECTOR    
    537          		//__interrupt void P0_ISR(void) 
    538          		{
    539          			// factory reset
    540          			if (aSceneSelectorFactoryReset == ADD_SCENESELECTOR_FACTORYRESET_KEYDOWN_10S)
    541          			{
    542          				osal_set_event(*acPointer_TaskID, AC_EVENT_HANDLE_ONE_TIME);
    543          			} else if (aSceneSelectorFactoryReset == ADD_SCENESELECTOR_FACTORYRESET_KEYDOWN_5S)
    544          			{
    545          				addSceneSelector_clearKeyData();
    546          				acDoubleClickCounter_whenKeyUp = 0;
    547          				aSceneSelectorFactoryReset = ADD_SCENESELECTOR_FACTORYRESET_KEYNORMAL;
    548          				// no operation
    549          			}
    550          
    551          			else // P0_4(key scene1)
    552          			
    553          			if ((P0IFG & 0x10) == 0x10) 
    554          			{
    555          				if ((acInterruptTriggerEdgePort0 == AC_INTERRUPT_TRIGGER_EDGE_FALL) && 
    556          					(ADD_SCENESELECTOR_KEY_SCENE1 == 0))
    557          				{
    558          					MicroWait(10000);
    559          					if ((acInterruptTriggerEdgePort0 == AC_INTERRUPT_TRIGGER_EDGE_FALL) && 
    560          						(ADD_SCENESELECTOR_KEY_SCENE1 == 0))
    561          					{
    562          						aSceneSelectorKeyScene1 = addCommon_handleKeyDown();
    563          						P0IFG &= ~0x10; // clear interrupt flag
    564          						P0IF = 0;
    565          						EA = 0;
    566          						PICTL &= ~0x01;
    567          						acInterruptTriggerEdgePort0 = AC_INTERRUPT_TRIGGER_EDGE_RISE;
    568          						EA = 1;
    569          					}
    570          				} else if ((acInterruptTriggerEdgePort0 == AC_INTERRUPT_TRIGGER_EDGE_RISE) && 
    571          					(ADD_SCENESELECTOR_KEY_SCENE1 == 1))
    572          				{
    573          					MicroWait(10000);
    574          					if ((acInterruptTriggerEdgePort0 == AC_INTERRUPT_TRIGGER_EDGE_RISE) && 
    575          						(ADD_SCENESELECTOR_KEY_SCENE1 == 1))
    576          					{	
    577          						aSceneSelectorKeyScene1 = addCommon_handleKeyUp();
    578          						if (aSceneSelectorKeyScene1 == AC_KEY_UP_BELOW_600MS)
    579          						{
    580          							if (acDoubleClickCheckFlag == TRUE)
    581          							{
    582          								aSceneSelectorKeyScene1 = AC_KEY_UP_600MS_TO_1S;
    583          								acDoubleClickCounter_whenKeyUp++;
    584          							} else 
    585          							{
    586          								aSceneSelectorKeyScene1 = AC_KEY_UP_600MS_TO_1S;
    587          								osal_set_event(*acPointer_TaskID, AC_EVENT_HANDLE_ONE_TIME);
    588          							}
    589          						} else 
    590          						{
    591          							osal_set_event(*acPointer_TaskID, AC_EVENT_HANDLE_ONE_TIME);
    592          						}						
    593          						P0IFG &= ~0x10; // clear interrupt flag
    594          						P0IF = 0;
    595          						EA = 0;
    596          						PICTL |= 0x01;
    597          						acInterruptTriggerEdgePort0 = AC_INTERRUPT_TRIGGER_EDGE_FALL;
    598          						EA = 1;
    599          					}
    600          				}
    601          			}
    602          
    603          			else // P0_5(key scene2)
    604          			
    605          			if ((P0IFG & 0x20) == 0x20) 
    606          			{
    607          				if ((acInterruptTriggerEdgePort0 == AC_INTERRUPT_TRIGGER_EDGE_FALL) && 
    608          					(ADD_SCENESELECTOR_KEY_SCENE2 == 0))
    609          				{
    610          					MicroWait(10000);
    611          					if ((acInterruptTriggerEdgePort0 == AC_INTERRUPT_TRIGGER_EDGE_FALL) && 
    612          						(ADD_SCENESELECTOR_KEY_SCENE2 == 0))
    613          					{
    614          						aSceneSelectorKeyScene2 = addCommon_handleKeyDown();
    615          						P0IFG &= ~0x20; // clear interrupt flag
    616          						P0IF = 0;
    617          						EA = 0;
    618          						PICTL &= ~0x01;
    619          						acInterruptTriggerEdgePort0 = AC_INTERRUPT_TRIGGER_EDGE_RISE;
    620          						EA = 1;
    621          					}
    622          				} else if ((acInterruptTriggerEdgePort0 == AC_INTERRUPT_TRIGGER_EDGE_RISE) && 
    623          					(ADD_SCENESELECTOR_KEY_SCENE2 == 1))
    624          				{
    625          					MicroWait(10000);
    626          					if ((acInterruptTriggerEdgePort0 == AC_INTERRUPT_TRIGGER_EDGE_RISE) && 
    627          						(ADD_SCENESELECTOR_KEY_SCENE2 == 1))
    628          					{	
    629          						aSceneSelectorKeyScene2 = addCommon_handleKeyUp();
    630          						if (aSceneSelectorKeyScene2 == AC_KEY_UP_BELOW_600MS)
    631          						{
    632          							if (acDoubleClickCheckFlag == TRUE)
    633          							{
    634          								aSceneSelectorKeyScene2 = AC_KEY_UP_600MS_TO_1S;
    635          								acDoubleClickCounter_whenKeyUp++;
    636          							} else 
    637          							{
    638          								aSceneSelectorKeyScene2 = AC_KEY_UP_600MS_TO_1S;
    639          								osal_set_event(*acPointer_TaskID, AC_EVENT_HANDLE_ONE_TIME);
    640          							}
    641          						} else 
    642          						{
    643          							osal_set_event(*acPointer_TaskID, AC_EVENT_HANDLE_ONE_TIME);
    644          						}						
    645          						P0IFG &= ~0x20; // clear interrupt flag
    646          						P0IF = 0;
    647          						EA = 0;
    648          						PICTL |= 0x01;
    649          						acInterruptTriggerEdgePort0 = AC_INTERRUPT_TRIGGER_EDGE_FALL;
    650          						EA = 1;
    651          					}
    652          				}
    653          			}
    654          
    655          			else // P0_0(key scene3)
    656          			
    657          			if ((P0IFG & 0x01) == 0x01) 
    658          			{
    659          				if ((acInterruptTriggerEdgePort0 == AC_INTERRUPT_TRIGGER_EDGE_FALL) && 
    660          					(ADD_SCENESELECTOR_KEY_SCENE3 == 0))
    661          				{
    662          					MicroWait(10000);
    663          					if ((acInterruptTriggerEdgePort0 == AC_INTERRUPT_TRIGGER_EDGE_FALL) && 
    664          						(ADD_SCENESELECTOR_KEY_SCENE3 == 0))
    665          					{
    666          						aSceneSelectorKeyScene3 = addCommon_handleKeyDown();
    667          						P0IFG &= ~0x01; // clear interrupt flag
    668          						P0IF = 0;
    669          						EA = 0;
    670          						PICTL &= ~0x01;
    671          						acInterruptTriggerEdgePort0 = AC_INTERRUPT_TRIGGER_EDGE_RISE;
    672          						EA = 1;
    673          					}
    674          				} else if ((acInterruptTriggerEdgePort0 == AC_INTERRUPT_TRIGGER_EDGE_RISE) && 
    675          					(ADD_SCENESELECTOR_KEY_SCENE3 == 1))
    676          				{
    677          					MicroWait(10000);
    678          					if ((acInterruptTriggerEdgePort0 == AC_INTERRUPT_TRIGGER_EDGE_RISE) && 
    679          						(ADD_SCENESELECTOR_KEY_SCENE3 == 1))
    680          					{	
    681          						aSceneSelectorKeyScene3 = addCommon_handleKeyUp();
    682          						if (aSceneSelectorKeyScene3 == AC_KEY_UP_BELOW_600MS)
    683          						{
    684          							if (acDoubleClickCheckFlag == TRUE)
    685          							{
    686          								aSceneSelectorKeyScene3 = AC_KEY_UP_600MS_TO_1S;
    687          								acDoubleClickCounter_whenKeyUp++;
    688          							} else 
    689          							{
    690          								aSceneSelectorKeyScene3 = AC_KEY_UP_600MS_TO_1S;
    691          								osal_set_event(*acPointer_TaskID, AC_EVENT_HANDLE_ONE_TIME);
    692          							}
    693          						} else 
    694          						{
    695          							osal_set_event(*acPointer_TaskID, AC_EVENT_HANDLE_ONE_TIME);
    696          						}						
    697          						P0IFG &= ~0x01; // clear interrupt flag
    698          						P0IF = 0;
    699          						EA = 0;
    700          						PICTL |= 0x01;
    701          						acInterruptTriggerEdgePort0 = AC_INTERRUPT_TRIGGER_EDGE_FALL;
    702          						EA = 1;
    703          					}
    704          				}
    705          			}
    706          		}		 
    707          	} else 
    708          	{
    709          		P0IFG &= ~0x31; // clear interrupt flag
    710          		P0IF = 0;
    711          	}
    712          	
    713          	IEN1 |= 0x20; // port0 interrupt enable
    714          		
    715          #elif defined(SCENE_SELECTOR_TOUCHKEY)
    716          		
    717          #else
    718          #endif	
    719          }
   \   000000   02....       LJMP    ?BRET
    720          
    721          /*********************************************************************
    722           * @fn      addSceneSelector_isrPort1
    723           *
    724           * @brief   Port1 interrupt service routine.
    725           *
    726           * @param   none
    727           *
    728           * @return  none
    729           */

   \                                 In  segment BANKED_CODE, align 1, keep-with-next
    730          void addSceneSelector_isrPort1(void)
   \                     addSceneSelector_isrPort1:
    731          {
   \   000000                ; Saved register size: 0
   \   000000                ; Auto size: 0
    732          #if defined(SCENE_SELECTOR)	
    733          	IEN2 &= ~0x10; // port1 interrupt disable	
    734          	
    735          	if (TRUE == addCommon_atNormalWorkState(FALSE))
    736          	{
    737          		//#pragma vector = P1INT_VECTOR    
    738          		//__interrupt void P1_ISR(void) 
    739          		{
    740          			// wakeup
    741          			if (aSceneSelectorWakeup == ADD_SCENESELECTOR_WAKEUP_KEYDOWN_10S)
    742          			{
    743          				osal_set_event(*acPointer_TaskID, AC_EVENT_HANDLE_ONE_TIME);
    744          			} else if (aSceneSelectorWakeup == ADD_SCENESELECTOR_WAKEUP_KEYDOWN_5S)
    745          			{
    746          				addSceneSelector_clearKeyData();
    747          				acDoubleClickCounter_whenKeyUp = 0;
    748          				aSceneSelectorWakeup = ADD_SCENESELECTOR_WAKEUP_KEYNORMAL;
    749          				// no operation
    750          			}
    751          
    752          			else // P1_6(key dimming up)
    753          			
    754          			if ((P1IFG & 0x40) == 0x40) 
    755          			{
    756          				if ((acInterruptTriggerEdgePort1 == AC_INTERRUPT_TRIGGER_EDGE_FALL) && 
    757          					(ADD_SCENESELECTOR_KEY_DIMMINGUP == 0))
    758          				{
    759          					MicroWait(10000);
    760          					if ((acInterruptTriggerEdgePort1 == AC_INTERRUPT_TRIGGER_EDGE_FALL) && 
    761          						(ADD_SCENESELECTOR_KEY_DIMMINGUP == 0))
    762          					{
    763          						aSceneSelectorKeyDimmingUp = addCommon_handleKeyDown();
    764          						P1IFG &= ~0x40; // clear interrupt flag
    765          						P1IF = 0;
    766          						EA = 0;
    767          						PICTL &= ~0x06;
    768          						acInterruptTriggerEdgePort1 = AC_INTERRUPT_TRIGGER_EDGE_RISE;
    769          						EA = 1;
    770          					}
    771          				} else if ((acInterruptTriggerEdgePort1 == AC_INTERRUPT_TRIGGER_EDGE_RISE) && 
    772          					(ADD_SCENESELECTOR_KEY_DIMMINGUP == 1))
    773          				{
    774          					MicroWait(10000);
    775          					if ((acInterruptTriggerEdgePort1 == AC_INTERRUPT_TRIGGER_EDGE_RISE) && 
    776          						(ADD_SCENESELECTOR_KEY_DIMMINGUP == 1))
    777          					{
    778          						aSceneSelectorKeyDimmingUp = addCommon_handleKeyUp();
    779          						if (aSceneSelectorKeyDimmingUp == AC_KEY_UP_BELOW_600MS)
    780          						{
    781          							if (acDoubleClickCheckFlag == TRUE)
    782          							{
    783          								aSceneSelectorKeyDimmingUp = AC_KEY_UP_600MS_TO_1S;
    784          								acDoubleClickCounter_whenKeyUp++;
    785          							} else 
    786          							{
    787          								aSceneSelectorKeyDimmingUp = AC_KEY_UP_600MS_TO_1S;
    788          								osal_set_event(*acPointer_TaskID, AC_EVENT_HANDLE_ONE_TIME);
    789          							}
    790          						} else 
    791          						{
    792          							osal_set_event(*acPointer_TaskID, AC_EVENT_HANDLE_ONE_TIME);
    793          						}						
    794          						P1IFG &= ~0x40; // clear interrupt flag
    795          						P1IF = 0;
    796          						EA = 0;
    797          						PICTL |= 0x06;
    798          						acInterruptTriggerEdgePort1 = AC_INTERRUPT_TRIGGER_EDGE_FALL;
    799          						EA = 1;
    800          					}
    801          				}
    802          			}
    803          
    804          			else // P1_7(key dimming down)
    805          			
    806          			if ((P1IFG & 0x80) == 0x80) 
    807          			{
    808          				if ((acInterruptTriggerEdgePort1 == AC_INTERRUPT_TRIGGER_EDGE_FALL) && 
    809          					(ADD_SCENESELECTOR_KEY_DIMMINGDOWN == 0))
    810          				{
    811          					MicroWait(10000);
    812          					if ((acInterruptTriggerEdgePort1 == AC_INTERRUPT_TRIGGER_EDGE_FALL) && 
    813          						(ADD_SCENESELECTOR_KEY_DIMMINGDOWN == 0))
    814          					{
    815          						aSceneSelectorKeyDimmingDown = addCommon_handleKeyDown();
    816          						P1IFG &= ~0x80; // clear interrupt flag
    817          						P1IF = 0;
    818          						EA = 0;
    819          						PICTL &= ~0x06;
    820          						acInterruptTriggerEdgePort1 = AC_INTERRUPT_TRIGGER_EDGE_RISE;
    821          						EA = 1;
    822          					}
    823          				} else if ((acInterruptTriggerEdgePort1 == AC_INTERRUPT_TRIGGER_EDGE_RISE) && 
    824          					(ADD_SCENESELECTOR_KEY_DIMMINGDOWN == 1))
    825          				{
    826          					MicroWait(10000);
    827          					if ((acInterruptTriggerEdgePort1 == AC_INTERRUPT_TRIGGER_EDGE_RISE) && 
    828          						(ADD_SCENESELECTOR_KEY_DIMMINGDOWN == 1))
    829          					{
    830          						aSceneSelectorKeyDimmingDown = addCommon_handleKeyUp();
    831          						if (aSceneSelectorKeyDimmingDown == AC_KEY_UP_BELOW_600MS)
    832          						{
    833          							if (acDoubleClickCheckFlag == TRUE)
    834          							{
    835          								aSceneSelectorKeyDimmingDown = AC_KEY_UP_600MS_TO_1S;
    836          								acDoubleClickCounter_whenKeyUp++;
    837          							} else 
    838          							{
    839          								aSceneSelectorKeyDimmingDown = AC_KEY_UP_600MS_TO_1S;
    840          								osal_set_event(*acPointer_TaskID, AC_EVENT_HANDLE_ONE_TIME);
    841          							}
    842          						} else 
    843          						{
    844          							osal_set_event(*acPointer_TaskID, AC_EVENT_HANDLE_ONE_TIME);
    845          						}						
    846          						P1IFG &= ~0x80; // clear interrupt flag
    847          						P1IF = 0;
    848          						EA = 0;
    849          						PICTL |= 0x06;
    850          						acInterruptTriggerEdgePort1 = AC_INTERRUPT_TRIGGER_EDGE_FALL;
    851          						EA = 1;
    852          					}
    853          				}
    854          			}
    855          		} 
    856          	} else 
    857          	{
    858          		P1IFG &= ~0xc0; // clear interrupt flag
    859          		P1IF = 0;
    860          	}
    861          	
    862          	IEN2 |= 0x10; // port1 interrupt enable
    863          		
    864          #elif defined(SCENE_SELECTOR_TOUCHKEY)
    865          		
    866          #else
    867          #endif
    868          }
   \   000000   02....       LJMP    ?BRET
    869          
    870          /*********************************************************************
    871           * @fn      addSceneSelector_isrPort2
    872           *
    873           * @brief   Port2 interrupt service routine.
    874           *
    875           * @param   none
    876           *
    877           * @return  none
    878           */

   \                                 In  segment BANKED_CODE, align 1, keep-with-next
    879          void addSceneSelector_isrPort2(void)
   \                     addSceneSelector_isrPort2:
    880          {
   \   000000   74F7         MOV     A,#-0x9
   \   000002   12....       LCALL   ?BANKED_ENTER_XDATA
   \   000005                ; Saved register size: 9
   \   000005                ; Auto size: 0
    881          #if defined(SCENE_SELECTOR)	
    882          	IEN2 &= ~0x02; // port2 interrupt disable	
    883          	
    884          	if (TRUE == addCommon_atNormalWorkState(FALSE))
    885          	{
    886          		//#pragma vector = P2INT_VECTOR    
    887          		//__interrupt void P2_ISR(void) 
    888          		{
    889          			// P2_0(key scene4)
    890          			if ((P2IFG & 0x01) == 0x01)
    891          			{	
    892          				if ((acInterruptTriggerEdgePort2 == AC_INTERRUPT_TRIGGER_EDGE_FALL) && 
    893          					(ADD_SCENESELECTOR_KEY_SCENE4 == 0))
    894          				{	
    895          					MicroWait(10000);
    896          					if ((acInterruptTriggerEdgePort2 == AC_INTERRUPT_TRIGGER_EDGE_FALL) && 
    897          						(ADD_SCENESELECTOR_KEY_SCENE4 == 0))
    898          					{
    899          						aSceneSelectorKeyScene4 = addCommon_handleKeyDown();
    900          						P2IFG &= ~0x01; // clear interrupt flag
    901          						P2IF = 0;
    902          						EA = 0;
    903          						PICTL &= ~0x08;
    904          						acInterruptTriggerEdgePort2 = AC_INTERRUPT_TRIGGER_EDGE_RISE;
    905          						EA = 1;
    906          					}
    907          				} else if ((acInterruptTriggerEdgePort2 == AC_INTERRUPT_TRIGGER_EDGE_RISE) && 
    908          					(ADD_SCENESELECTOR_KEY_SCENE4 == 1))
    909          				{	
    910          					MicroWait(10000);
    911          					if ((acInterruptTriggerEdgePort2 == AC_INTERRUPT_TRIGGER_EDGE_RISE) && 
    912          						(ADD_SCENESELECTOR_KEY_SCENE4 == 1))
    913          					{
    914          						aSceneSelectorKeyScene4 = addCommon_handleKeyUp();
    915          						if (aSceneSelectorKeyScene4 == AC_KEY_UP_BELOW_600MS)
    916          						{
    917          							if (acDoubleClickCheckFlag == TRUE)
    918          							{
    919          								aSceneSelectorKeyScene4 = AC_KEY_UP_600MS_TO_1S;
    920          								acDoubleClickCounter_whenKeyUp++;
    921          							} else 
    922          							{
    923          								aSceneSelectorKeyScene4 = AC_KEY_UP_600MS_TO_1S;
    924          								osal_set_event(*acPointer_TaskID, AC_EVENT_HANDLE_ONE_TIME);
    925          							}
    926          						} else 
    927          						{
    928          							osal_set_event(*acPointer_TaskID, AC_EVENT_HANDLE_ONE_TIME);
    929          						}
    930          						P2IFG &= ~0x01; // clear interrupt flag
    931          						P2IF = 0;
    932          						EA = 0;
    933          						PICTL |= 0x08;
    934          						acInterruptTriggerEdgePort2 = AC_INTERRUPT_TRIGGER_EDGE_FALL;
    935          						EA = 1;
    936          					}
    937          				}
    938          			}
    939          		} 
    940          	} else 
    941          	{
    942          		P2IFG &= ~0x01; // clear interrupt flag
    943          		P2IF = 0;
    944          	}	
    945          	
    946          	IEN2 |= 0x02; // port2 interrupt enable	
    947          	
    948          #elif defined(SCENE_SELECTOR_TOUCHKEY)
    949          	IEN2 &= ~0x02; // port2 interrupt disable
   \   000005   539AFD       ANL     0x9a,#0xfd
    950          	
    951          	if (TRUE == addCommon_atNormalWorkState(FALSE))
   \   000008                ; Setup parameters for call to function addCommon_atNormalWorkState
   \   000008   7900         MOV     R1,#0x0
   \   00000A   12....       LCALL   ??addCommon_atNormalWorkState?relay; Banked call to: addCommon_atNormalWorkState
   \   00000D   E9           MOV     A,R1
   \   00000E   6401         XRL     A,#0x1
   \   000010   6003         JZ      $+5
   \   000012   02....       LJMP    ??addSceneSelector_isrPort2_0 & 0xFFFF
    952          	{
    953          		//#pragma vector = P2INT_VECTOR    
    954          		//__interrupt void P2_ISR(void) 
    955          		{
    956          			if ((P2IFG & 0x01) == 0x01) // P2_0 interrupt
   \   000015   E58B         MOV     A,0x8b
   \   000017   A2E0         MOV     C,0xE0 /* A   */.0
   \   000019   4003         JC      $+5
   \   00001B   02....       LJMP    ??addSceneSelector_isrPort2_1 & 0xFFFF
    957          			{
    958          				if ((acInterruptTriggerEdgePort2 == AC_INTERRUPT_TRIGGER_EDGE_FALL) && 
    959          					(ADD_SCENESELECTOR_APT8L08_TP_INT == 0))
   \   00001E   90....       MOV     DPTR,#acInterruptTriggerEdgePort2
   \   000021   E0           MOVX    A,@DPTR
   \   000022   6003         JZ      $+5
   \   000024   02....       LJMP    ??addSceneSelector_isrPort2_2 & 0xFFFF
   \   000027   A2A0         MOV     C,0xa0.0
   \   000029   5003         JNC     $+5
   \   00002B   02....       LJMP    ??addSceneSelector_isrPort2_2 & 0xFFFF
    960          				{
    961          					MicroWait(10000);
   \   00002E                ; Setup parameters for call to function Onboard_wait
   \   00002E   7A10         MOV     R2,#0x10
   \   000030   7B27         MOV     R3,#0x27
   \   000032   12....       LCALL   ??Onboard_wait?relay ; Banked call to: Onboard_wait
    962          					if ((acInterruptTriggerEdgePort2 == AC_INTERRUPT_TRIGGER_EDGE_FALL) && 
    963          						(ADD_SCENESELECTOR_APT8L08_TP_INT == 0))
   \   000035   90....       MOV     DPTR,#acInterruptTriggerEdgePort2
   \   000038   E0           MOVX    A,@DPTR
   \   000039   6003         JZ      $+5
   \   00003B   02....       LJMP    ??addSceneSelector_isrPort2_1 & 0xFFFF
   \   00003E   A2A0         MOV     C,0xa0.0
   \   000040   5003         JNC     $+5
   \   000042   02....       LJMP    ??addSceneSelector_isrPort2_1 & 0xFFFF
    964          					{
    965          						aSceneSelectorApt8l08_16bitKeyMap_saved = 0;
   \   000045   90....       MOV     DPTR,#aSceneSelectorApt8l08_16bitKeyMap_saved
   \   000048   E4           CLR     A
   \   000049   F0           MOVX    @DPTR,A
   \   00004A   A3           INC     DPTR
   \   00004B   F0           MOVX    @DPTR,A
    966          						aSceneSelectorApt8l08_16bitKeyMap = 
    967          							addSceneSelector_APT8L08_I2C_readByte(ADD_SCENESELECTOR_APT8L08_REGISTER_ADDRESS_KVR1) * 256 
    968          							+ addSceneSelector_APT8L08_I2C_readByte(ADD_SCENESELECTOR_APT8L08_REGISTER_ADDRESS_KVR0);
   \   00004C                ; Setup parameters for call to function addSceneSelector_APT8L08_I2C_readByte
   \   00004C   7935         MOV     R1,#0x35
   \   00004E   12....       LCALL   ??addSceneSelector_APT8L08_I2C_readByte?relay; Banked call to: addSceneSelector_APT8L08_I2C_readByte
   \   000051   E9           MOV     A,R1
   \   000052   FE           MOV     R6,A
   \   000053   FF           MOV     R7,A
   \   000054                ; Setup parameters for call to function addSceneSelector_APT8L08_I2C_readByte
   \   000054   7934         MOV     R1,#0x34
   \   000056   12....       LCALL   ??addSceneSelector_APT8L08_I2C_readByte?relay; Banked call to: addSceneSelector_APT8L08_I2C_readByte
   \   000059   12....       LCALL   ?Subroutine3 & 0xFFFF
    969          
    970          						if (aSceneSelectorApt8l08_16bitKeyMap & ADD_SCENESELECTOR_APT8L08_TOUCHKEY_SCENE1)
   \                     ??CrossCallReturnLabel_48:
   \   00005C   12....       LCALL   ?Subroutine6 & 0xFFFF
   \                     ??CrossCallReturnLabel_30:
   \   00005F   6009         JZ      ??addSceneSelector_isrPort2_3
    971          						{
    972          							aSceneSelectorKeyScene1 = addCommon_handleKeyDown();
   \   000061                ; Setup parameters for call to function addCommon_handleKeyDown
   \   000061   12....       LCALL   ??addCommon_handleKeyDown?relay; Banked call to: addCommon_handleKeyDown
   \   000064   E9           MOV     A,R1
   \   000065   90....       MOV     DPTR,#aSceneSelectorKeyScene1
   \   000068   8044         SJMP    ??addSceneSelector_isrPort2_4
    973          						} else if (aSceneSelectorApt8l08_16bitKeyMap & ADD_SCENESELECTOR_APT8L08_TOUCHKEY_SCENE2)
   \                     ??addSceneSelector_isrPort2_3:
   \   00006A   12....       LCALL   ?Subroutine7 & 0xFFFF
   \                     ??CrossCallReturnLabel_27:
   \   00006D   6009         JZ      ??addSceneSelector_isrPort2_5
    974          						{
    975          							aSceneSelectorKeyScene2 = addCommon_handleKeyDown();
   \   00006F                ; Setup parameters for call to function addCommon_handleKeyDown
   \   00006F   12....       LCALL   ??addCommon_handleKeyDown?relay; Banked call to: addCommon_handleKeyDown
   \   000072   E9           MOV     A,R1
   \   000073   90....       MOV     DPTR,#aSceneSelectorKeyScene2
   \   000076   8036         SJMP    ??addSceneSelector_isrPort2_4
    976          						} else if (aSceneSelectorApt8l08_16bitKeyMap & ADD_SCENESELECTOR_APT8L08_TOUCHKEY_SCENE3)
   \                     ??addSceneSelector_isrPort2_5:
   \   000078   12....       LCALL   ?Subroutine8 & 0xFFFF
   \                     ??CrossCallReturnLabel_24:
   \   00007B   6009         JZ      ??addSceneSelector_isrPort2_6
    977          						{
    978          							aSceneSelectorKeyScene3 = addCommon_handleKeyDown();
   \   00007D                ; Setup parameters for call to function addCommon_handleKeyDown
   \   00007D   12....       LCALL   ??addCommon_handleKeyDown?relay; Banked call to: addCommon_handleKeyDown
   \   000080   E9           MOV     A,R1
   \   000081   90....       MOV     DPTR,#aSceneSelectorKeyScene3
   \   000084   8028         SJMP    ??addSceneSelector_isrPort2_4
    979          						} else if (aSceneSelectorApt8l08_16bitKeyMap & ADD_SCENESELECTOR_APT8L08_TOUCHKEY_SCENE4)
   \                     ??addSceneSelector_isrPort2_6:
   \   000086   12....       LCALL   ?Subroutine9 & 0xFFFF
   \                     ??CrossCallReturnLabel_21:
   \   000089   6009         JZ      ??addSceneSelector_isrPort2_7
    980          						{
    981          							aSceneSelectorKeyScene4 = addCommon_handleKeyDown();
   \   00008B                ; Setup parameters for call to function addCommon_handleKeyDown
   \   00008B   12....       LCALL   ??addCommon_handleKeyDown?relay; Banked call to: addCommon_handleKeyDown
   \   00008E   E9           MOV     A,R1
   \   00008F   90....       MOV     DPTR,#aSceneSelectorKeyScene4
   \   000092   801A         SJMP    ??addSceneSelector_isrPort2_4
    982          						} else if (aSceneSelectorApt8l08_16bitKeyMap & ADD_SCENESELECTOR_APT8L08_TOUCHKEY_DIMMINGUP)
   \                     ??addSceneSelector_isrPort2_7:
   \   000094   12....       LCALL   ?Subroutine10 & 0xFFFF
   \                     ??CrossCallReturnLabel_18:
   \   000097   6009         JZ      ??addSceneSelector_isrPort2_8
    983          						{
    984          							aSceneSelectorKeyDimmingUp = addCommon_handleKeyDown();
   \   000099                ; Setup parameters for call to function addCommon_handleKeyDown
   \   000099   12....       LCALL   ??addCommon_handleKeyDown?relay; Banked call to: addCommon_handleKeyDown
   \   00009C   E9           MOV     A,R1
   \   00009D   90....       MOV     DPTR,#aSceneSelectorKeyDimmingUp
   \   0000A0   800C         SJMP    ??addSceneSelector_isrPort2_4
    985          						} else if (aSceneSelectorApt8l08_16bitKeyMap & ADD_SCENESELECTOR_APT8L08_TOUCHKEY_DIMMINGDOWN)
   \                     ??addSceneSelector_isrPort2_8:
   \   0000A2   12....       LCALL   ?Subroutine11 & 0xFFFF
   \                     ??CrossCallReturnLabel_15:
   \   0000A5   6008         JZ      ??addSceneSelector_isrPort2_9
    986          						{
    987          							aSceneSelectorKeyDimmingDown = addCommon_handleKeyDown();
   \   0000A7                ; Setup parameters for call to function addCommon_handleKeyDown
   \   0000A7   12....       LCALL   ??addCommon_handleKeyDown?relay; Banked call to: addCommon_handleKeyDown
   \   0000AA   E9           MOV     A,R1
   \   0000AB   90....       MOV     DPTR,#aSceneSelectorKeyDimmingDown
   \                     ??addSceneSelector_isrPort2_4:
   \   0000AE   F0           MOVX    @DPTR,A
    988          						}						
    989          						P2IFG &= ~0x01; // clear interrupt flag
   \                     ??addSceneSelector_isrPort2_9:
   \   0000AF   538BFE       ANL     0x8b,#0xfe
    990          						P2IF = 0;
   \   0000B2   C2E8         CLR     0xe8.0
    991          						EA = 0;
   \   0000B4   C2AF         CLR     0xa8.7
    992          						PICTL &= ~0x08;
   \   0000B6   538CF7       ANL     0x8c,#0xf7
    993          						acInterruptTriggerEdgePort2 = AC_INTERRUPT_TRIGGER_EDGE_RISE;
   \   0000B9   90....       MOV     DPTR,#acInterruptTriggerEdgePort2
   \   0000BC   7401         MOV     A,#0x1
   \   0000BE   02....       LJMP    ??addSceneSelector_isrPort2_10 & 0xFFFF
    994          						EA = 1;
    995          					}
    996          				} else if ((acInterruptTriggerEdgePort2 == AC_INTERRUPT_TRIGGER_EDGE_RISE) && 
    997          					(ADD_SCENESELECTOR_APT8L08_TP_INT == 1))//抬起后的中断处理，计算时间
   \                     ??addSceneSelector_isrPort2_2:
   \   0000C1   E0           MOVX    A,@DPTR
   \   0000C2   6401         XRL     A,#0x1
   \   0000C4   6003         JZ      $+5
   \   0000C6   02....       LJMP    ??addSceneSelector_isrPort2_1 & 0xFFFF
   \   0000C9   A2A0         MOV     C,0xa0.0
   \   0000CB   4003         JC      $+5
   \   0000CD   02....       LJMP    ??addSceneSelector_isrPort2_1 & 0xFFFF
    998          				{
    999          					MicroWait(10000);
   \   0000D0                ; Setup parameters for call to function Onboard_wait
   \   0000D0   7A10         MOV     R2,#0x10
   \   0000D2   7B27         MOV     R3,#0x27
   \   0000D4   12....       LCALL   ??Onboard_wait?relay ; Banked call to: Onboard_wait
   1000          					if ((acInterruptTriggerEdgePort2 == AC_INTERRUPT_TRIGGER_EDGE_RISE) && 
   1001          						(ADD_SCENESELECTOR_APT8L08_TP_INT == 1))
   \   0000D7   90....       MOV     DPTR,#acInterruptTriggerEdgePort2
   \   0000DA   E0           MOVX    A,@DPTR
   \   0000DB   6401         XRL     A,#0x1
   \   0000DD   6003         JZ      $+5
   \   0000DF   02....       LJMP    ??addSceneSelector_isrPort2_1 & 0xFFFF
   \   0000E2   A2A0         MOV     C,0xa0.0
   \   0000E4   4003         JC      $+5
   \   0000E6   02....       LJMP    ??addSceneSelector_isrPort2_1 & 0xFFFF
   1002          					{
   1003          						aSceneSelectorApt8l08_16bitKeyMap_saved = aSceneSelectorApt8l08_16bitKeyMap;
   \   0000E9   90....       MOV     DPTR,#aSceneSelectorApt8l08_16bitKeyMap
   \   0000EC   12....       LCALL   ??Subroutine23_0 & 0xFFFF
   \                     ??CrossCallReturnLabel_38:
   \   0000EF   90....       MOV     DPTR,#aSceneSelectorApt8l08_16bitKeyMap_saved
   \   0000F2   12....       LCALL   ??Subroutine24_0 & 0xFFFF
   1004          						aSceneSelectorApt8l08_16bitKeyMap = 
   1005          							addSceneSelector_APT8L08_I2C_readByte(ADD_SCENESELECTOR_APT8L08_REGISTER_ADDRESS_KVR1) * 256 
   1006          							+ addSceneSelector_APT8L08_I2C_readByte(ADD_SCENESELECTOR_APT8L08_REGISTER_ADDRESS_KVR0);
   \                     ??CrossCallReturnLabel_43:
   \   0000F5                ; Setup parameters for call to function addSceneSelector_APT8L08_I2C_readByte
   \   0000F5   7935         MOV     R1,#0x35
   \   0000F7   12....       LCALL   ??addSceneSelector_APT8L08_I2C_readByte?relay; Banked call to: addSceneSelector_APT8L08_I2C_readByte
   \   0000FA   E9           MOV     A,R1
   \   0000FB   FE           MOV     R6,A
   \   0000FC   FF           MOV     R7,A
   \   0000FD                ; Setup parameters for call to function addSceneSelector_APT8L08_I2C_readByte
   \   0000FD   7934         MOV     R1,#0x34
   \   0000FF   12....       LCALL   ??addSceneSelector_APT8L08_I2C_readByte?relay; Banked call to: addSceneSelector_APT8L08_I2C_readByte
   \   000102   12....       LCALL   ?Subroutine3 & 0xFFFF
   1007          						
   1008          						osal_stop_timerEx(*acPointer_TaskID, AC_EVENT_DEVICE_KEY_TIMING);
   \                     ??CrossCallReturnLabel_49:
   \   000105                ; Setup parameters for call to function osal_stop_timerEx
   \   000105   7A00         MOV     R2,#0x0
   \   000107   7B08         MOV     R3,#0x8
   \   000109   12....       LCALL   ??Subroutine15_0 & 0xFFFF
   \                     ??CrossCallReturnLabel_8:
   \   00010C   12....       LCALL   ??osal_stop_timerEx?relay; Banked call to: osal_stop_timerEx
   1009          
   1010          						// factory reset
   1011          						if (aSceneSelectorFactoryReset == ADD_SCENESELECTOR_FACTORYRESET_KEYDOWN_10S)
   \   00010F   90....       MOV     DPTR,#aSceneSelectorFactoryReset
   \   000112   E0           MOVX    A,@DPTR
   \   000113   6402         XRL     A,#0x2
   \   000115   601B         JZ      ??addSceneSelector_isrPort2_11
   1012          						{
   1013          							osal_set_event(*acPointer_TaskID, AC_EVENT_HANDLE_ONE_TIME);
   1014          						} else if (aSceneSelectorFactoryReset == ADD_SCENESELECTOR_FACTORYRESET_KEYDOWN_5S)
   \   000117   E0           MOVX    A,@DPTR
   \   000118   6401         XRL     A,#0x1
   \   00011A   700E         JNZ     ??addSceneSelector_isrPort2_12
   1015          						{
   1016          							addSceneSelector_clearKeyData();
   \   00011C                ; Setup parameters for call to function addSceneSelector_clearKeyData
   \   00011C   12....       LCALL   ??addSceneSelector_clearKeyData?relay; Banked call to: addSceneSelector_clearKeyData
   1017          							acDoubleClickCounter_whenKeyUp = 0;
   \   00011F   90....       MOV     DPTR,#acDoubleClickCounter_whenKeyUp
   \   000122   E4           CLR     A
   \   000123   F0           MOVX    @DPTR,A
   1018          							aSceneSelectorFactoryReset = ADD_SCENESELECTOR_FACTORYRESET_KEYNORMAL;
   \   000124   90....       MOV     DPTR,#aSceneSelectorFactoryReset
   \   000127   02....       LJMP    ??addSceneSelector_isrPort2_13 & 0xFFFF
   1019          							// no operation
   1020          						}
   1021          
   1022          						else // wakeup
   1023          
   1024          						if (aSceneSelectorWakeup == ADD_SCENESELECTOR_WAKEUP_KEYDOWN_10S)
   \                     ??addSceneSelector_isrPort2_12:
   \   00012A   90....       MOV     DPTR,#aSceneSelectorWakeup
   \   00012D   E0           MOVX    A,@DPTR
   \   00012E   6402         XRL     A,#0x2
   \   000130   7003         JNZ     ??addSceneSelector_isrPort2_14
   1025          						{
   1026          							osal_set_event(*acPointer_TaskID, AC_EVENT_HANDLE_ONE_TIME);
   \                     ??addSceneSelector_isrPort2_11:
   \   000132                ; Setup parameters for call to function osal_set_event
   \   000132   02....       LJMP    ??addSceneSelector_isrPort2_15 & 0xFFFF
   1027          						} else if (aSceneSelectorWakeup == ADD_SCENESELECTOR_WAKEUP_KEYDOWN_5S)
   \                     ??addSceneSelector_isrPort2_14:
   \   000135   E0           MOVX    A,@DPTR
   \   000136   6401         XRL     A,#0x1
   \   000138   700E         JNZ     ??addSceneSelector_isrPort2_16
   1028          						{
   1029          							addSceneSelector_clearKeyData();
   \   00013A                ; Setup parameters for call to function addSceneSelector_clearKeyData
   \   00013A   12....       LCALL   ??addSceneSelector_clearKeyData?relay; Banked call to: addSceneSelector_clearKeyData
   1030          							acDoubleClickCounter_whenKeyUp = 0;
   \   00013D   90....       MOV     DPTR,#acDoubleClickCounter_whenKeyUp
   \   000140   E4           CLR     A
   \   000141   F0           MOVX    @DPTR,A
   1031          							aSceneSelectorWakeup = ADD_SCENESELECTOR_WAKEUP_KEYNORMAL;
   \   000142   90....       MOV     DPTR,#aSceneSelectorWakeup
   \   000145   02....       LJMP    ??addSceneSelector_isrPort2_13 & 0xFFFF
   1032          							// no operation
   1033          						}
   1034          
   1035          						else // key0
   1036          
   1037          						if ((aSceneSelectorApt8l08_16bitKeyMap_saved & ADD_SCENESELECTOR_APT8L08_TOUCHKEY_SCENE1)
   1038          							&& (!(aSceneSelectorApt8l08_16bitKeyMap & ADD_SCENESELECTOR_APT8L08_TOUCHKEY_SCENE1)))
   \                     ??addSceneSelector_isrPort2_16:
   \   000148   90....       MOV     DPTR,#aSceneSelectorApt8l08_16bitKeyMap_saved
   \   00014B   12....       LCALL   ??Subroutine21_0 & 0xFFFF
   \                     ??CrossCallReturnLabel_29:
   \   00014E   6020         JZ      ??addSceneSelector_isrPort2_17
   \   000150   12....       LCALL   ?Subroutine6 & 0xFFFF
   \                     ??CrossCallReturnLabel_31:
   \   000153   701B         JNZ     ??addSceneSelector_isrPort2_17
   1039          						{
   1040          							aSceneSelectorKeyScene1 = addCommon_handleKeyUp();
   \   000155                ; Setup parameters for call to function addCommon_handleKeyUp
   \   000155   12....       LCALL   ??addCommon_handleKeyUp?relay; Banked call to: addCommon_handleKeyUp
   \   000158   E9           MOV     A,R1
   \   000159   90....       MOV     DPTR,#aSceneSelectorKeyScene1
   \   00015C   12....       LCALL   ?Subroutine4 & 0xFFFF
   1041          							if (aSceneSelectorKeyScene1 == AC_KEY_UP_BELOW_600MS)
   \                     ??CrossCallReturnLabel_0:
   \   00015F   700C         JNZ     ??addSceneSelector_isrPort2_18
   1042          							{
   1043          								if (acDoubleClickCheckFlag == TRUE)
   \   000161   90....       MOV     DPTR,#acDoubleClickCheckFlag
   \   000164   E0           MOVX    A,@DPTR
   \   000165   6401         XRL     A,#0x1
   \   000167   90....       MOV     DPTR,#aSceneSelectorKeyScene1
   \   00016A   02....       LJMP    ??addSceneSelector_isrPort2_19 & 0xFFFF
   \   00016D                ; Setup parameters for call to function osal_set_event
   1044          								{
   1045          									aSceneSelectorKeyScene1 = AC_KEY_UP_600MS_TO_1S;
   1046          									acDoubleClickCounter_whenKeyUp++;
   1047          								} else 
   1048          								{
   1049          									aSceneSelectorKeyScene1 = AC_KEY_UP_600MS_TO_1S;
   1050          									osal_set_event(*acPointer_TaskID, AC_EVENT_HANDLE_ONE_TIME);
   1051          								}
   1052          							} else 
   1053          							{
   1054          								osal_set_event(*acPointer_TaskID, AC_EVENT_HANDLE_ONE_TIME);
   \                     ??addSceneSelector_isrPort2_18:
   \   00016D                ; Setup parameters for call to function osal_set_event
   \   00016D   02....       LJMP    ??addSceneSelector_isrPort2_15 & 0xFFFF
   1055          							}
   1056          						} 
   1057          
   1058          						else // key1
   1059          
   1060          						if ((aSceneSelectorApt8l08_16bitKeyMap_saved & ADD_SCENESELECTOR_APT8L08_TOUCHKEY_SCENE2)
   1061          							&& (!(aSceneSelectorApt8l08_16bitKeyMap & ADD_SCENESELECTOR_APT8L08_TOUCHKEY_SCENE2)))
   \                     ??addSceneSelector_isrPort2_17:
   \   000170   90....       MOV     DPTR,#aSceneSelectorApt8l08_16bitKeyMap_saved
   \   000173   12....       LCALL   ??Subroutine20_0 & 0xFFFF
   \                     ??CrossCallReturnLabel_26:
   \   000176   601F         JZ      ??addSceneSelector_isrPort2_20
   \   000178   12....       LCALL   ?Subroutine7 & 0xFFFF
   \                     ??CrossCallReturnLabel_28:
   \   00017B   701A         JNZ     ??addSceneSelector_isrPort2_20
   1062          						{
   1063          							aSceneSelectorKeyScene2 = addCommon_handleKeyUp();
   \   00017D                ; Setup parameters for call to function addCommon_handleKeyUp
   \   00017D   12....       LCALL   ??addCommon_handleKeyUp?relay; Banked call to: addCommon_handleKeyUp
   \   000180   E9           MOV     A,R1
   \   000181   90....       MOV     DPTR,#aSceneSelectorKeyScene2
   \   000184   12....       LCALL   ?Subroutine4 & 0xFFFF
   1064          							if (aSceneSelectorKeyScene2 == AC_KEY_UP_BELOW_600MS)
   \                     ??CrossCallReturnLabel_1:
   \   000187   700B         JNZ     ??addSceneSelector_isrPort2_21
   1065          							{
   1066          								if (acDoubleClickCheckFlag == TRUE)
   \   000189   90....       MOV     DPTR,#acDoubleClickCheckFlag
   \   00018C   E0           MOVX    A,@DPTR
   \   00018D   6401         XRL     A,#0x1
   \   00018F   90....       MOV     DPTR,#aSceneSelectorKeyScene2
   \   000192   806F         SJMP    ??addSceneSelector_isrPort2_19
   \   000194                ; Setup parameters for call to function osal_set_event
   1067          								{
   1068          									aSceneSelectorKeyScene2 = AC_KEY_UP_600MS_TO_1S;
   1069          									acDoubleClickCounter_whenKeyUp++;
   1070          								} else 
   1071          								{
   1072          									aSceneSelectorKeyScene2 = AC_KEY_UP_600MS_TO_1S;
   1073          									osal_set_event(*acPointer_TaskID, AC_EVENT_HANDLE_ONE_TIME);
   1074          								}
   1075          							} else 
   1076          							{
   1077          								osal_set_event(*acPointer_TaskID, AC_EVENT_HANDLE_ONE_TIME);
   \                     ??addSceneSelector_isrPort2_21:
   \   000194                ; Setup parameters for call to function osal_set_event
   \   000194   02....       LJMP    ??addSceneSelector_isrPort2_15 & 0xFFFF
   1078          							}
   1079          						} 
   1080          
   1081          						else // key2
   1082          
   1083          						if ((aSceneSelectorApt8l08_16bitKeyMap_saved & ADD_SCENESELECTOR_APT8L08_TOUCHKEY_SCENE3)
   1084          							&& (!(aSceneSelectorApt8l08_16bitKeyMap & ADD_SCENESELECTOR_APT8L08_TOUCHKEY_SCENE3)))
   \                     ??addSceneSelector_isrPort2_20:
   \   000197   90....       MOV     DPTR,#aSceneSelectorApt8l08_16bitKeyMap_saved
   \   00019A   12....       LCALL   ??Subroutine19_0 & 0xFFFF
   \                     ??CrossCallReturnLabel_23:
   \   00019D   601E         JZ      ??addSceneSelector_isrPort2_22
   \   00019F   12....       LCALL   ?Subroutine8 & 0xFFFF
   \                     ??CrossCallReturnLabel_25:
   \   0001A2   7019         JNZ     ??addSceneSelector_isrPort2_22
   1085          						{
   1086          							aSceneSelectorKeyScene3 = addCommon_handleKeyUp();
   \   0001A4                ; Setup parameters for call to function addCommon_handleKeyUp
   \   0001A4   12....       LCALL   ??addCommon_handleKeyUp?relay; Banked call to: addCommon_handleKeyUp
   \   0001A7   E9           MOV     A,R1
   \   0001A8   90....       MOV     DPTR,#aSceneSelectorKeyScene3
   \   0001AB   12....       LCALL   ?Subroutine4 & 0xFFFF
   1087          							if (aSceneSelectorKeyScene3 == AC_KEY_UP_BELOW_600MS)
   \                     ??CrossCallReturnLabel_2:
   \   0001AE   700B         JNZ     ??addSceneSelector_isrPort2_23
   1088          							{
   1089          								if (acDoubleClickCheckFlag == TRUE)
   \   0001B0   90....       MOV     DPTR,#acDoubleClickCheckFlag
   \   0001B3   E0           MOVX    A,@DPTR
   \   0001B4   6401         XRL     A,#0x1
   \   0001B6   90....       MOV     DPTR,#aSceneSelectorKeyScene3
   \   0001B9   8048         SJMP    ??addSceneSelector_isrPort2_19
   \   0001BB                ; Setup parameters for call to function osal_set_event
   1090          								{
   1091          									aSceneSelectorKeyScene3 = AC_KEY_UP_600MS_TO_1S;
   1092          									acDoubleClickCounter_whenKeyUp++;
   1093          								} else 
   1094          								{
   1095          									aSceneSelectorKeyScene3 = AC_KEY_UP_600MS_TO_1S;
   1096          									osal_set_event(*acPointer_TaskID, AC_EVENT_HANDLE_ONE_TIME);
   1097          								}
   1098          							} else 
   1099          							{
   1100          								osal_set_event(*acPointer_TaskID, AC_EVENT_HANDLE_ONE_TIME);
   \                     ??addSceneSelector_isrPort2_23:
   \   0001BB                ; Setup parameters for call to function osal_set_event
   \   0001BB   807C         SJMP    ??addSceneSelector_isrPort2_15
   1101          							}
   1102          						} 
   1103          
   1104          						else // key3
   1105          
   1106          						if ((aSceneSelectorApt8l08_16bitKeyMap_saved & ADD_SCENESELECTOR_APT8L08_TOUCHKEY_SCENE4)
   1107          							&& (!(aSceneSelectorApt8l08_16bitKeyMap & ADD_SCENESELECTOR_APT8L08_TOUCHKEY_SCENE4)))
   \                     ??addSceneSelector_isrPort2_22:
   \   0001BD   90....       MOV     DPTR,#aSceneSelectorApt8l08_16bitKeyMap_saved
   \   0001C0   12....       LCALL   ??Subroutine18_0 & 0xFFFF
   \                     ??CrossCallReturnLabel_20:
   \   0001C3   601C         JZ      ??addSceneSelector_isrPort2_24
   \   0001C5   12....       LCALL   ?Subroutine9 & 0xFFFF
   \                     ??CrossCallReturnLabel_22:
   \   0001C8   7017         JNZ     ??addSceneSelector_isrPort2_24
   1108          						{
   1109          							aSceneSelectorKeyScene4 = addCommon_handleKeyUp();
   \   0001CA                ; Setup parameters for call to function addCommon_handleKeyUp
   \   0001CA   12....       LCALL   ??addCommon_handleKeyUp?relay; Banked call to: addCommon_handleKeyUp
   \   0001CD   E9           MOV     A,R1
   \   0001CE   90....       MOV     DPTR,#aSceneSelectorKeyScene4
   \   0001D1   12....       LCALL   ?Subroutine4 & 0xFFFF
   1110          							if (aSceneSelectorKeyScene4 == AC_KEY_UP_BELOW_600MS)
   \                     ??CrossCallReturnLabel_3:
   \   0001D4   7063         JNZ     ??addSceneSelector_isrPort2_15
   1111          							{
   1112          								if (acDoubleClickCheckFlag == TRUE)
   \   0001D6   90....       MOV     DPTR,#acDoubleClickCheckFlag
   \   0001D9   E0           MOVX    A,@DPTR
   \   0001DA   6401         XRL     A,#0x1
   \   0001DC   90....       MOV     DPTR,#aSceneSelectorKeyScene4
   \   0001DF   8022         SJMP    ??addSceneSelector_isrPort2_19
   \   0001E1                ; Setup parameters for call to function osal_set_event
   1113          								{
   1114          									aSceneSelectorKeyScene4 = AC_KEY_UP_600MS_TO_1S;
   1115          									acDoubleClickCounter_whenKeyUp++;
   1116          								} else 
   1117          								{
   1118          									aSceneSelectorKeyScene4 = AC_KEY_UP_600MS_TO_1S;
   1119          									osal_set_event(*acPointer_TaskID, AC_EVENT_HANDLE_ONE_TIME);
   1120          								}
   1121          							} else 
   1122          							{
   1123          								osal_set_event(*acPointer_TaskID, AC_EVENT_HANDLE_ONE_TIME);
   1124          							}
   1125          						} 
   1126          
   1127          						else // keyDimmingUp
   1128          
   1129          						if ((aSceneSelectorApt8l08_16bitKeyMap_saved & ADD_SCENESELECTOR_APT8L08_TOUCHKEY_DIMMINGUP)
   1130          							&& (!(aSceneSelectorApt8l08_16bitKeyMap & ADD_SCENESELECTOR_APT8L08_TOUCHKEY_DIMMINGUP)))
   \                     ??addSceneSelector_isrPort2_24:
   \   0001E1   90....       MOV     DPTR,#aSceneSelectorApt8l08_16bitKeyMap_saved
   \   0001E4   12....       LCALL   ??Subroutine17_0 & 0xFFFF
   \                     ??CrossCallReturnLabel_17:
   \   0001E7   601E         JZ      ??addSceneSelector_isrPort2_25
   \   0001E9   12....       LCALL   ?Subroutine10 & 0xFFFF
   \                     ??CrossCallReturnLabel_19:
   \   0001EC   7019         JNZ     ??addSceneSelector_isrPort2_25
   1131          						{
   1132          							aSceneSelectorKeyDimmingUp = addCommon_handleKeyUp();
   \   0001EE                ; Setup parameters for call to function addCommon_handleKeyUp
   \   0001EE   12....       LCALL   ??addCommon_handleKeyUp?relay; Banked call to: addCommon_handleKeyUp
   \   0001F1   E9           MOV     A,R1
   \   0001F2   90....       MOV     DPTR,#aSceneSelectorKeyDimmingUp
   \   0001F5   12....       LCALL   ?Subroutine4 & 0xFFFF
   1133          							if (aSceneSelectorKeyDimmingUp == AC_KEY_UP_BELOW_600MS)
   \                     ??CrossCallReturnLabel_4:
   \   0001F8   703F         JNZ     ??addSceneSelector_isrPort2_15
   1134          							{
   1135          								if (acDoubleClickCheckFlag == TRUE)
   \   0001FA   90....       MOV     DPTR,#acDoubleClickCheckFlag
   \   0001FD   E0           MOVX    A,@DPTR
   \   0001FE   6401         XRL     A,#0x1
   \   000200   90....       MOV     DPTR,#aSceneSelectorKeyDimmingUp
   \                     ??addSceneSelector_isrPort2_19:
   \   000203   6026         JZ      ??addSceneSelector_isrPort2_26
   1136          								{
   1137          									aSceneSelectorKeyDimmingUp = AC_KEY_UP_600MS_TO_1S;
   1138          									acDoubleClickCounter_whenKeyUp++;
   1139          								} else 
   1140          								{
   1141          									aSceneSelectorKeyDimmingUp = AC_KEY_UP_600MS_TO_1S;
   \   000205   802F         SJMP    ??addSceneSelector_isrPort2_27
   \   000207                ; Setup parameters for call to function osal_set_event
   1142          									osal_set_event(*acPointer_TaskID, AC_EVENT_HANDLE_ONE_TIME);
   1143          								}
   1144          							} else 
   1145          							{
   1146          								osal_set_event(*acPointer_TaskID, AC_EVENT_HANDLE_ONE_TIME);
   1147          							}
   1148          						} 
   1149          
   1150          						else // keyDimmingDown
   1151          
   1152          						if ((aSceneSelectorApt8l08_16bitKeyMap_saved & ADD_SCENESELECTOR_APT8L08_TOUCHKEY_DIMMINGDOWN)
   1153          							&& (!(aSceneSelectorApt8l08_16bitKeyMap & ADD_SCENESELECTOR_APT8L08_TOUCHKEY_DIMMINGDOWN)))
   \                     ??addSceneSelector_isrPort2_25:
   \   000207   90....       MOV     DPTR,#aSceneSelectorApt8l08_16bitKeyMap_saved
   \   00020A   12....       LCALL   ??Subroutine16_0 & 0xFFFF
   \                     ??CrossCallReturnLabel_14:
   \   00020D   6034         JZ      ??addSceneSelector_isrPort2_28
   \   00020F   12....       LCALL   ?Subroutine11 & 0xFFFF
   \                     ??CrossCallReturnLabel_16:
   \   000212   702F         JNZ     ??addSceneSelector_isrPort2_28
   1154          						{
   1155          							aSceneSelectorKeyDimmingDown = addCommon_handleKeyUp();
   \   000214                ; Setup parameters for call to function addCommon_handleKeyUp
   \   000214   12....       LCALL   ??addCommon_handleKeyUp?relay; Banked call to: addCommon_handleKeyUp
   \   000217   E9           MOV     A,R1
   \   000218   90....       MOV     DPTR,#aSceneSelectorKeyDimmingDown
   \   00021B   12....       LCALL   ?Subroutine4 & 0xFFFF
   1156          							if (aSceneSelectorKeyDimmingDown == AC_KEY_UP_BELOW_600MS)
   \                     ??CrossCallReturnLabel_5:
   \   00021E   7019         JNZ     ??addSceneSelector_isrPort2_15
   1157          							{
   1158          								if (acDoubleClickCheckFlag == TRUE)
   \   000220   90....       MOV     DPTR,#acDoubleClickCheckFlag
   \   000223   E0           MOVX    A,@DPTR
   \   000224   6401         XRL     A,#0x1
   \   000226   90....       MOV     DPTR,#aSceneSelectorKeyDimmingDown
   \   000229   700B         JNZ     ??addSceneSelector_isrPort2_27
   1159          								{
   1160          									aSceneSelectorKeyDimmingDown = AC_KEY_UP_600MS_TO_1S;
   \                     ??addSceneSelector_isrPort2_26:
   \   00022B   7403         MOV     A,#0x3
   \   00022D   F0           MOVX    @DPTR,A
   1161          									acDoubleClickCounter_whenKeyUp++;
   \   00022E   90....       MOV     DPTR,#acDoubleClickCounter_whenKeyUp
   \   000231   E0           MOVX    A,@DPTR
   \   000232   04           INC     A
   \                     ??addSceneSelector_isrPort2_13:
   \   000233   F0           MOVX    @DPTR,A
   \   000234   800D         SJMP    ??addSceneSelector_isrPort2_28
   1162          								} else 
   1163          								{
   1164          									aSceneSelectorKeyDimmingDown = AC_KEY_UP_600MS_TO_1S;
   \                     ??addSceneSelector_isrPort2_27:
   \   000236   7403         MOV     A,#0x3
   \   000238   F0           MOVX    @DPTR,A
   1165          									osal_set_event(*acPointer_TaskID, AC_EVENT_HANDLE_ONE_TIME);
   \   000239                ; Setup parameters for call to function osal_set_event
   1166          								}
   1167          							} else 
   1168          							{
   1169          								osal_set_event(*acPointer_TaskID, AC_EVENT_HANDLE_ONE_TIME);
   \                     ??addSceneSelector_isrPort2_15:
   \   000239                ; Setup parameters for call to function osal_set_event
   \   000239   7A00         MOV     R2,#0x0
   \   00023B   7B02         MOV     R3,#0x2
   \   00023D   12....       LCALL   ??Subroutine15_0 & 0xFFFF
   1170          							}
   1171          						}						
   \                     ??CrossCallReturnLabel_9:
   \   000240   12....       LCALL   ??osal_set_event?relay; Banked call to: osal_set_event
   1172          						P2IFG &= ~0x01; // clear interrupt flag
   \                     ??addSceneSelector_isrPort2_28:
   \   000243   538BFE       ANL     0x8b,#0xfe
   1173          						P2IF = 0;
   \   000246   C2E8         CLR     0xe8.0
   1174          						EA = 0;
   \   000248   C2AF         CLR     0xa8.7
   1175          						PICTL |= 0x08;
   \   00024A   438C08       ORL     0x8c,#0x8
   1176          						acInterruptTriggerEdgePort2 = AC_INTERRUPT_TRIGGER_EDGE_FALL;
   \   00024D   90....       MOV     DPTR,#acInterruptTriggerEdgePort2
   \   000250   E4           CLR     A
   \                     ??addSceneSelector_isrPort2_10:
   \   000251   F0           MOVX    @DPTR,A
   1177          						EA = 1;
   \   000252   D2AF         SETB    0xa8.7
   \   000254   8005         SJMP    ??addSceneSelector_isrPort2_1
   1178          					}
   1179          				}
   1180          			}
   1181          		} 
   1182          	} else 
   1183          	{
   1184          		P2IFG &= ~0x01; // clear interrupt flag
   \                     ??addSceneSelector_isrPort2_0:
   \   000256   538BFE       ANL     0x8b,#0xfe
   1185          		P2IF = 0;
   \   000259   C2E8         CLR     0xe8.0
   1186          	}	
   1187          	
   1188          	IEN2 |= 0x02; // port2 interrupt enable
   \                     ??addSceneSelector_isrPort2_1:
   \   00025B   439A02       ORL     0x9a,#0x2
   1189          
   1190          #else
   1191          #endif
   1192          }
   \   00025E   02....       LJMP    ?Subroutine1 & 0xFFFF
   \   000261                REQUIRE IEN2
   \   000261                REQUIRE P2IFG
   \   000261                REQUIRE _A_P2
   \   000261                REQUIRE _A_IRCON2
   \   000261                REQUIRE _A_IEN0
   \   000261                REQUIRE PICTL

   \                                 In  segment BANKED_CODE, align 1, keep-with-next
   \                     ?Subroutine11:
   \   000000   90....       MOV     DPTR,#aSceneSelectorApt8l08_16bitKeyMap
   \   000003                REQUIRE ??Subroutine16_0
   \   000003                ; // Fall through to label ??Subroutine16_0

   \                                 In  segment BANKED_CODE, align 1, keep-with-next
   \                     ??Subroutine16_0:
   \   000000   12....       LCALL   ?Subroutine14 & 0xFFFF
   \                     ??CrossCallReturnLabel_32:
   \   000003   5480         ANL     A,#0x80
   \   000005   22           RET

   \                                 In  segment BANKED_CODE, align 1, keep-with-next
   \                     ?Subroutine10:
   \   000000   90....       MOV     DPTR,#aSceneSelectorApt8l08_16bitKeyMap
   \   000003                REQUIRE ??Subroutine17_0
   \   000003                ; // Fall through to label ??Subroutine17_0

   \                                 In  segment BANKED_CODE, align 1, keep-with-next
   \                     ??Subroutine17_0:
   \   000000   12....       LCALL   ?Subroutine14 & 0xFFFF
   \                     ??CrossCallReturnLabel_33:
   \   000003   5410         ANL     A,#0x10
   \   000005   22           RET

   \                                 In  segment BANKED_CODE, align 1, keep-with-next
   \                     ?Subroutine9:
   \   000000   90....       MOV     DPTR,#aSceneSelectorApt8l08_16bitKeyMap
   \   000003                REQUIRE ??Subroutine18_0
   \   000003                ; // Fall through to label ??Subroutine18_0

   \                                 In  segment BANKED_CODE, align 1, keep-with-next
   \                     ??Subroutine18_0:
   \   000000   12....       LCALL   ?Subroutine14 & 0xFFFF
   \                     ??CrossCallReturnLabel_34:
   \   000003   5440         ANL     A,#0x40
   \   000005   22           RET

   \                                 In  segment BANKED_CODE, align 1, keep-with-next
   \                     ?Subroutine8:
   \   000000   90....       MOV     DPTR,#aSceneSelectorApt8l08_16bitKeyMap
   \   000003                REQUIRE ??Subroutine19_0
   \   000003                ; // Fall through to label ??Subroutine19_0

   \                                 In  segment BANKED_CODE, align 1, keep-with-next
   \                     ??Subroutine19_0:
   \   000000   12....       LCALL   ?Subroutine14 & 0xFFFF
   \                     ??CrossCallReturnLabel_35:
   \   000003   5408         ANL     A,#0x8
   \   000005   22           RET

   \                                 In  segment BANKED_CODE, align 1, keep-with-next
   \                     ?Subroutine14:
   \   000000   E0           MOVX    A,@DPTR
   \   000001   F8           MOV     R0,A
   \   000002   A3           INC     DPTR
   \   000003   E0           MOVX    A,@DPTR
   \   000004   E8           MOV     A,R0
   \   000005   22           RET

   \                                 In  segment BANKED_CODE, align 1, keep-with-next
   \                     ?Subroutine7:
   \   000000   90....       MOV     DPTR,#aSceneSelectorApt8l08_16bitKeyMap
   \   000003                REQUIRE ??Subroutine20_0
   \   000003                ; // Fall through to label ??Subroutine20_0

   \                                 In  segment BANKED_CODE, align 1, keep-with-next
   \                     ??Subroutine20_0:
   \   000000   12....       LCALL   ?Subroutine14 & 0xFFFF
   \                     ??CrossCallReturnLabel_36:
   \   000003   5420         ANL     A,#0x20
   \   000005   22           RET

   \                                 In  segment BANKED_CODE, align 1, keep-with-next
   \                     ?Subroutine6:
   \   000000   90....       MOV     DPTR,#aSceneSelectorApt8l08_16bitKeyMap
   \   000003                REQUIRE ??Subroutine21_0
   \   000003                ; // Fall through to label ??Subroutine21_0

   \                                 In  segment BANKED_CODE, align 1, keep-with-next
   \                     ??Subroutine21_0:
   \   000000   12....       LCALL   ?Subroutine14 & 0xFFFF
   \                     ??CrossCallReturnLabel_37:
   \   000003   5404         ANL     A,#0x4
   \   000005   22           RET

   \                                 In  segment BANKED_CODE, align 1, keep-with-next
   \                     ?Subroutine4:
   \   000000   F0           MOVX    @DPTR,A
   \   000001   E0           MOVX    A,@DPTR
   \   000002   6402         XRL     A,#0x2
   \   000004   22           RET

   \                                 In  segment BANKED_CODE, align 1, keep-with-next
   \                     ??Subroutine23_0:
   \   000000   E0           MOVX    A,@DPTR
   \   000001   F8           MOV     R0,A
   \   000002   A3           INC     DPTR
   \   000003   E0           MOVX    A,@DPTR
   \   000004   F9           MOV     R1,A
   \   000005   22           RET

   \                                 In  segment BANKED_CODE, align 1, keep-with-next
   \                     ?Subroutine3:
   \   000000   E9           MOV     A,R1
   \   000001   F8           MOV     R0,A
   \   000002   EF           MOV     A,R7
   \   000003   F9           MOV     R1,A
   \   000004   90....       MOV     DPTR,#aSceneSelectorApt8l08_16bitKeyMap
   \   000007                REQUIRE ??Subroutine24_0
   \   000007                ; // Fall through to label ??Subroutine24_0

   \                                 In  segment BANKED_CODE, align 1, keep-with-next
   \                     ??Subroutine24_0:
   \   000000   E8           MOV     A,R0
   \   000001   F0           MOVX    @DPTR,A
   \   000002   A3           INC     DPTR
   \   000003   E9           MOV     A,R1
   \   000004   F0           MOVX    @DPTR,A
   \   000005   22           RET
   1193          
   1194          /*********************************************************************
   1195           * @fn      addSceneSelector_sendDestinationAddressConfigure
   1196           *
   1197           * @brief   Destination address configure.
   1198           *
   1199           * @param   none
   1200           *
   1201           * @return  none
   1202           */

   \                                 In  segment BANKED_CODE, align 1, keep-with-next
   1203          static void addSceneSelector_sendDestinationAddressConfigure(uint8 endPoint)
   \                     addSceneSelector_sendDestinationAddressConfigure:
   1204          {
   \   000000   C082         PUSH    DPL
   \   000002   C083         PUSH    DPH
   \   000004                ; Saved register size: 2
   \   000004                ; Auto size: 0
   1205          	zclSceneSelector_DstAddr.addrMode = (afAddrMode_t)AddrGroup;
   \   000004   90....       MOV     DPTR,#zclSceneSelector_DstAddr + 8
   \   000007   7401         MOV     A,#0x1
   \   000009   F0           MOVX    @DPTR,A
   1206          	zclSceneSelector_DstAddr.endPoint = endPoint;
   \   00000A   E9           MOV     A,R1
   \   00000B   A3           INC     DPTR
   \   00000C   F0           MOVX    @DPTR,A
   1207          	if (endPoint == SCENESELECTOR_ENDPOINT1)
   \   00000D   7401         MOV     A,#0x1
   \   00000F   69           XRL     A,R1
   \   000010   7005         JNZ     ??addSceneSelector_sendDestinationAddressConfig_1
   1208          	{
   1209          		zclSceneSelector_DstAddr.addr.shortAddr = aSceneSelectorEndpoint1_GroupID;
   \   000012   90....       MOV     DPTR,#aSceneSelectorEndpoint1_GroupID
   \   000015   801C         SJMP    ??addSceneSelector_sendDestinationAddressConfig_2
   1210          	} else if (endPoint == SCENESELECTOR_ENDPOINT2)
   \                     ??addSceneSelector_sendDestinationAddressConfig_1:
   \   000017   7402         MOV     A,#0x2
   \   000019   69           XRL     A,R1
   \   00001A   7005         JNZ     ??addSceneSelector_sendDestinationAddressConfig_3
   1211          	{
   1212          		zclSceneSelector_DstAddr.addr.shortAddr = aSceneSelectorEndpoint2_GroupID;
   \   00001C   90....       MOV     DPTR,#aSceneSelectorEndpoint2_GroupID
   \   00001F   8012         SJMP    ??addSceneSelector_sendDestinationAddressConfig_2
   1213          	} else if (endPoint == SCENESELECTOR_ENDPOINT3)
   \                     ??addSceneSelector_sendDestinationAddressConfig_3:
   \   000021   7403         MOV     A,#0x3
   \   000023   69           XRL     A,R1
   \   000024   7005         JNZ     ??addSceneSelector_sendDestinationAddressConfig_4
   1214          	{
   1215          		zclSceneSelector_DstAddr.addr.shortAddr = aSceneSelectorEndpoint3_GroupID;
   \   000026   90....       MOV     DPTR,#aSceneSelectorEndpoint3_GroupID
   \   000029   8008         SJMP    ??addSceneSelector_sendDestinationAddressConfig_2
   1216          	} else if (endPoint == SCENESELECTOR_ENDPOINT4)
   \                     ??addSceneSelector_sendDestinationAddressConfig_4:
   \   00002B   7404         MOV     A,#0x4
   \   00002D   69           XRL     A,R1
   \   00002E   7010         JNZ     ??addSceneSelector_sendDestinationAddressConfig_5
   1217          	{
   1218          		zclSceneSelector_DstAddr.addr.shortAddr = aSceneSelectorEndpoint4_GroupID;
   \   000030   90....       MOV     DPTR,#aSceneSelectorEndpoint4_GroupID
   \                     ??addSceneSelector_sendDestinationAddressConfig_2:
   \   000033   E0           MOVX    A,@DPTR
   \   000034   FA           MOV     R2,A
   \   000035   A3           INC     DPTR
   \   000036   E0           MOVX    A,@DPTR
   \   000037   FB           MOV     R3,A
   \   000038   90....       MOV     DPTR,#zclSceneSelector_DstAddr
   \   00003B   EA           MOV     A,R2
   \   00003C   F0           MOVX    @DPTR,A
   \   00003D   A3           INC     DPTR
   \   00003E   EB           MOV     A,R3
   \   00003F   F0           MOVX    @DPTR,A
   1219          	}
   1220          
   1221          /*
   1222          uint16 groupList[APS_MAX_GROUPS];
   1223          uint8 numberOfGroups = 0;
   1224          
   1225          uint16 *p = &(groupList[0]);
   1226          	for (int i = 0; i < APS_MAX_GROUPS; i++)
   1227          	{
   1228          		groupList[i] = 0x0000;
   1229          	}	
   1230          	
   1231          	numberOfGroups = aps_FindAllGroupsForEndpoint(endpoint, p);
   1232          	if (numberOfGroups == 0)
   1233          	{
   1234          		zclGeneral_SendSceneRecall(endpoint, &zclSceneSelector_DstAddr, 0x0000, sceneID, FALSE, 0);
   1235          	} else
   1236          	{
   1237          		zclGeneral_SendSceneRecall(endpoint, &zclSceneSelector_DstAddr, groupList[0], sceneID, FALSE, 0);
   1238          	}
   1239          */	
   1240          }
   \                     ??addSceneSelector_sendDestinationAddressConfig_5:
   \   000040   02....       LJMP    ??Subroutine22_0 & 0xFFFF
   1241          
   1242          /*********************************************************************
   1243           * @fn      addSceneSelector_sendLevelControlMove
   1244           *
   1245           * @brief   Scene selector.
   1246           *
   1247           * @param   none
   1248           *
   1249           * @return  none
   1250           */

   \                                 In  segment BANKED_CODE, align 1, keep-with-next
   1251          void addSceneSelector_sendLevelControlMove(void)
   \                     addSceneSelector_sendLevelControlMove:
   1252          {	
   \   000000                REQUIRE ?V0
   \   000000   74F7         MOV     A,#-0x9
   \   000002   12....       LCALL   ?BANKED_ENTER_XDATA
   \   000005                ; Saved register size: 9
   \   000005                ; Auto size: 0
   1253          	if (aSceneSelectorKeyDimmingUp == AC_KEY_DOWN)
   \   000005   90....       MOV     DPTR,#aSceneSelectorKeyDimmingUp
   \   000008   E0           MOVX    A,@DPTR
   \   000009   6401         XRL     A,#0x1
   \   00000B   7021         JNZ     ??addSceneSelector_sendLevelControlMove_0
   1254          	{
   1255          		addSceneSelector_sendDestinationAddressConfigure(aSceneSelectorCurrentEndpoint);
   \   00000D                ; Setup parameters for call to function addSceneSelector_sendDestinationAddressConfigure
   \   00000D   90....       MOV     DPTR,#aSceneSelectorCurrentEndpoint
   \   000010   E0           MOVX    A,@DPTR
   \   000011   F9           MOV     R1,A
   \   000012   12....       LCALL   ??addSceneSelector_sendDestinationAddressConfig; Banked call to: addSceneSelector_sendDestinationAddressConfigure
   1256          		zclGeneral_SendLevelControlMove(aSceneSelectorCurrentEndpoint, &zclSceneSelector_DstAddr, LEVEL_MOVE_UP, 45, FALSE, 0 );
   \   000015                ; Setup parameters for call to function zclGeneral_SendLevelControlMoveRequest
   \   000015   75..00       MOV     ?V0,#0x0
   \   000018   78..         MOV     R0,#?V0
   \   00001A   12....       LCALL   ?PUSH_XSTACK_I_ONE
   \   00001D   78..         MOV     R0,#?V0
   \   00001F   12....       LCALL   ?PUSH_XSTACK_I_ONE
   \   000022   75..2D       MOV     ?V0,#0x2d
   \   000025   78..         MOV     R0,#?V0
   \   000027   12....       LCALL   ?PUSH_XSTACK_I_ONE
   \   00002A   7D00         MOV     R5,#0x0
   \   00002C   8027         SJMP    ??addSceneSelector_sendLevelControlMove_1
   1257          	} else if (aSceneSelectorKeyDimmingDown == AC_KEY_DOWN)
   \                     ??addSceneSelector_sendLevelControlMove_0:
   \   00002E   90....       MOV     DPTR,#aSceneSelectorKeyDimmingDown
   \   000031   E0           MOVX    A,@DPTR
   \   000032   6401         XRL     A,#0x1
   \   000034   7032         JNZ     ??addSceneSelector_sendLevelControlMove_2
   1258          	{
   1259          		addSceneSelector_sendDestinationAddressConfigure(aSceneSelectorCurrentEndpoint);
   \   000036                ; Setup parameters for call to function addSceneSelector_sendDestinationAddressConfigure
   \   000036   90....       MOV     DPTR,#aSceneSelectorCurrentEndpoint
   \   000039   E0           MOVX    A,@DPTR
   \   00003A   F9           MOV     R1,A
   \   00003B   12....       LCALL   ??addSceneSelector_sendDestinationAddressConfig; Banked call to: addSceneSelector_sendDestinationAddressConfigure
   1260          		zclGeneral_SendLevelControlMove(aSceneSelectorCurrentEndpoint, &zclSceneSelector_DstAddr, LEVEL_MOVE_DOWN, 45, FALSE, 0 );
   \   00003E                ; Setup parameters for call to function zclGeneral_SendLevelControlMoveRequest
   \   00003E   75..00       MOV     ?V0,#0x0
   \   000041   78..         MOV     R0,#?V0
   \   000043   12....       LCALL   ?PUSH_XSTACK_I_ONE
   \   000046   78..         MOV     R0,#?V0
   \   000048   12....       LCALL   ?PUSH_XSTACK_I_ONE
   \   00004B   75..2D       MOV     ?V0,#0x2d
   \   00004E   78..         MOV     R0,#?V0
   \   000050   12....       LCALL   ?PUSH_XSTACK_I_ONE
   \   000053   7D01         MOV     R5,#0x1
   \                     ??addSceneSelector_sendLevelControlMove_1:
   \   000055   7C01         MOV     R4,#0x1
   \   000057   7A..         MOV     R2,#zclSceneSelector_DstAddr & 0xff
   \   000059   7B..         MOV     R3,#(zclSceneSelector_DstAddr >> 8) & 0xff
   \   00005B   90....       MOV     DPTR,#aSceneSelectorCurrentEndpoint
   \   00005E   E0           MOVX    A,@DPTR
   \   00005F   F9           MOV     R1,A
   \   000060   12....       LCALL   ??zclGeneral_SendLevelControlMoveRequest?relay; Banked call to: zclGeneral_SendLevelControlMoveRequest
   \   000063   7403         MOV     A,#0x3
   \   000065   12....       LCALL   ?DEALLOC_XSTACK8
   1261          	}	
   1262          }
   \                     ??addSceneSelector_sendLevelControlMove_2:
   \   000068   02....       LJMP    ?Subroutine1 & 0xFFFF
   1263          
   1264          /*********************************************************************
   1265           * @fn      addSceneSelector_clearKeyData
   1266           *
   1267           * @brief   Scene selector.
   1268           *
   1269           * @param   none
   1270           *
   1271           * @return  none
   1272           */

   \                                 In  segment BANKED_CODE, align 1, keep-with-next
   1273          static void addSceneSelector_clearKeyData(void)
   \                     addSceneSelector_clearKeyData:
   1274          {
   \   000000   C082         PUSH    DPL
   \   000002   C083         PUSH    DPH
   \   000004                ; Saved register size: 2
   \   000004                ; Auto size: 0
   1275          	aSceneSelectorKeyScene1 = AC_KEY_NORMAL;
   \   000004   90....       MOV     DPTR,#aSceneSelectorKeyScene1
   \   000007   E4           CLR     A
   \   000008   F0           MOVX    @DPTR,A
   1276          	aSceneSelectorKeyScene2 = AC_KEY_NORMAL;		
   \   000009   90....       MOV     DPTR,#aSceneSelectorKeyScene2
   \   00000C   F0           MOVX    @DPTR,A
   1277          	aSceneSelectorKeyScene3 = AC_KEY_NORMAL;		
   \   00000D   90....       MOV     DPTR,#aSceneSelectorKeyScene3
   \   000010   F0           MOVX    @DPTR,A
   1278          	aSceneSelectorKeyScene4 = AC_KEY_NORMAL;		
   \   000011   90....       MOV     DPTR,#aSceneSelectorKeyScene4
   \   000014   F0           MOVX    @DPTR,A
   1279          	aSceneSelectorKeyDimmingUp = AC_KEY_NORMAL;		
   \   000015   90....       MOV     DPTR,#aSceneSelectorKeyDimmingUp
   \   000018   F0           MOVX    @DPTR,A
   1280          	aSceneSelectorKeyDimmingDown = AC_KEY_NORMAL;
   \   000019   90....       MOV     DPTR,#aSceneSelectorKeyDimmingDown
   \   00001C   F0           MOVX    @DPTR,A
   1281          }
   \   00001D   80..         SJMP    ??Subroutine22_0
   1282          
   1283          /*********************************************************************
   1284           * @fn      addSceneSelector_factoryResetCheck
   1285           *
   1286           * @brief   Scene selector.
   1287           *
   1288           * @param   none
   1289           *
   1290           * @return  none
   1291           */

   \                                 In  segment BANKED_CODE, align 1, keep-with-next
   1292          void addSceneSelector_factoryResetCheck(void)
   \                     addSceneSelector_factoryResetCheck:
   1293          {	
   \   000000   C082         PUSH    DPL
   \   000002   C083         PUSH    DPH
   \   000004                ; Saved register size: 2
   \   000004                ; Auto size: 0
   1294          	uint16 temp_16bitKeyMap = 0;
   1295          
   1296          	temp_16bitKeyMap = 
   1297          		addSceneSelector_APT8L08_I2C_readByte(ADD_SCENESELECTOR_APT8L08_REGISTER_ADDRESS_KVR1) * 256 
   1298          		+ addSceneSelector_APT8L08_I2C_readByte(ADD_SCENESELECTOR_APT8L08_REGISTER_ADDRESS_KVR0);
   \   000004                ; Setup parameters for call to function addSceneSelector_APT8L08_I2C_readByte
   \   000004   7935         MOV     R1,#0x35
   \   000006   12....       LCALL   ??addSceneSelector_APT8L08_I2C_readByte?relay; Banked call to: addSceneSelector_APT8L08_I2C_readByte
   \   000009                ; Setup parameters for call to function addSceneSelector_APT8L08_I2C_readByte
   \   000009   7934         MOV     R1,#0x34
   \   00000B   12....       LCALL   ??addSceneSelector_APT8L08_I2C_readByte?relay; Banked call to: addSceneSelector_APT8L08_I2C_readByte
   \   00000E   E9           MOV     A,R1
   1299          	
   1300          	if (acDeviceKeyTimingCounter == 50) // 5000ms
   \   00000F   5424         ANL     A,#0x24
   \   000011   F8           MOV     R0,A
   \   000012   90....       MOV     DPTR,#acDeviceKeyTimingCounter
   \   000015   E0           MOVX    A,@DPTR
   \   000016   6432         XRL     A,#0x32
   \   000018   700C         JNZ     ??addSceneSelector_factoryResetCheck_0
   1301          	{
   1302          		if ((temp_16bitKeyMap & ADD_SCENESELECTOR_APT8L08_TOUCHKEY_SCENE1)
   1303          			&& (temp_16bitKeyMap & ADD_SCENESELECTOR_APT8L08_TOUCHKEY_SCENE2))
   \   00001A   7424         MOV     A,#0x24
   \   00001C   68           XRL     A,R0
   \   00001D   701C         JNZ     ??addSceneSelector_factoryResetCheck_1
   1304          		{
   1305          			aSceneSelectorFactoryReset = ADD_SCENESELECTOR_FACTORYRESET_KEYDOWN_5S;
   \   00001F   90....       MOV     DPTR,#aSceneSelectorFactoryReset
   \   000022   7401         MOV     A,#0x1
   \   000024   8014         SJMP    ??addSceneSelector_factoryResetCheck_2
   1306          		}
   1307          	} else if (acDeviceKeyTimingCounter == 100) // 10000ms
   \                     ??addSceneSelector_factoryResetCheck_0:
   \   000026   E0           MOVX    A,@DPTR
   \   000027   6464         XRL     A,#0x64
   \   000029   7010         JNZ     ??addSceneSelector_factoryResetCheck_1
   1308          	{
   1309          		if ((aSceneSelectorFactoryReset == ADD_SCENESELECTOR_FACTORYRESET_KEYDOWN_5S)
   1310          			&& (temp_16bitKeyMap & ADD_SCENESELECTOR_APT8L08_TOUCHKEY_SCENE1)
   1311          			&& (temp_16bitKeyMap & ADD_SCENESELECTOR_APT8L08_TOUCHKEY_SCENE2))
   \   00002B   90....       MOV     DPTR,#aSceneSelectorFactoryReset
   \   00002E   E0           MOVX    A,@DPTR
   \   00002F   6401         XRL     A,#0x1
   \   000031   7008         JNZ     ??addSceneSelector_factoryResetCheck_1
   \   000033   7424         MOV     A,#0x24
   \   000035   68           XRL     A,R0
   \   000036   7003         JNZ     ??addSceneSelector_factoryResetCheck_1
   1312          		{
   1313          			aSceneSelectorFactoryReset = ADD_SCENESELECTOR_FACTORYRESET_KEYDOWN_10S;
   \   000038   7402         MOV     A,#0x2
   \                     ??addSceneSelector_factoryResetCheck_2:
   \   00003A   F0           MOVX    @DPTR,A
   1314          		}
   1315          	}
   1316          }
   \                     ??addSceneSelector_factoryResetCheck_1:
   \   00003B   80..         SJMP    ??Subroutine22_0
   1317          
   1318          /*********************************************************************
   1319           * @fn      addSceneSelector_wakeupCheck
   1320           *
   1321           * @brief   Scene selector.
   1322           *
   1323           * @param   none
   1324           *
   1325           * @return  none
   1326           */

   \                                 In  segment BANKED_CODE, align 1, keep-with-next
   1327          void addSceneSelector_wakeupCheck(void)
   \                     addSceneSelector_wakeupCheck:
   1328          {	
   \   000000   C082         PUSH    DPL
   \   000002   C083         PUSH    DPH
   \   000004                ; Saved register size: 2
   \   000004                ; Auto size: 0
   1329          	uint16 temp_16bitKeyMap = 0;
   1330          
   1331          	temp_16bitKeyMap = 
   1332          		addSceneSelector_APT8L08_I2C_readByte(ADD_SCENESELECTOR_APT8L08_REGISTER_ADDRESS_KVR1) * 256 
   1333          		+ addSceneSelector_APT8L08_I2C_readByte(ADD_SCENESELECTOR_APT8L08_REGISTER_ADDRESS_KVR0);
   \   000004                ; Setup parameters for call to function addSceneSelector_APT8L08_I2C_readByte
   \   000004   7935         MOV     R1,#0x35
   \   000006   12....       LCALL   ??addSceneSelector_APT8L08_I2C_readByte?relay; Banked call to: addSceneSelector_APT8L08_I2C_readByte
   \   000009                ; Setup parameters for call to function addSceneSelector_APT8L08_I2C_readByte
   \   000009   7934         MOV     R1,#0x34
   \   00000B   12....       LCALL   ??addSceneSelector_APT8L08_I2C_readByte?relay; Banked call to: addSceneSelector_APT8L08_I2C_readByte
   \   00000E   E9           MOV     A,R1
   1334          	
   1335          	if (acDeviceKeyTimingCounter == 50) // 5000ms
   \   00000F   5448         ANL     A,#0x48
   \   000011   F8           MOV     R0,A
   \   000012   90....       MOV     DPTR,#acDeviceKeyTimingCounter
   \   000015   E0           MOVX    A,@DPTR
   \   000016   6432         XRL     A,#0x32
   \   000018   700C         JNZ     ??addSceneSelector_wakeupCheck_0
   1336          	{
   1337          		if ((temp_16bitKeyMap & ADD_SCENESELECTOR_APT8L08_TOUCHKEY_SCENE3)
   1338          			&& (temp_16bitKeyMap & ADD_SCENESELECTOR_APT8L08_TOUCHKEY_SCENE4))
   \   00001A   7448         MOV     A,#0x48
   \   00001C   68           XRL     A,R0
   \   00001D   701C         JNZ     ??addSceneSelector_wakeupCheck_1
   1339          		{
   1340          			aSceneSelectorWakeup = ADD_SCENESELECTOR_WAKEUP_KEYDOWN_5S;
   \   00001F   90....       MOV     DPTR,#aSceneSelectorWakeup
   \   000022   7401         MOV     A,#0x1
   \   000024   8014         SJMP    ??addSceneSelector_wakeupCheck_2
   1341          		}
   1342          	} else if (acDeviceKeyTimingCounter == 100) // 10000ms
   \                     ??addSceneSelector_wakeupCheck_0:
   \   000026   E0           MOVX    A,@DPTR
   \   000027   6464         XRL     A,#0x64
   \   000029   7010         JNZ     ??addSceneSelector_wakeupCheck_1
   1343          	{
   1344          		if ((aSceneSelectorWakeup == ADD_SCENESELECTOR_WAKEUP_KEYDOWN_5S)
   1345          			&& (temp_16bitKeyMap & ADD_SCENESELECTOR_APT8L08_TOUCHKEY_SCENE3)
   1346          			&& (temp_16bitKeyMap & ADD_SCENESELECTOR_APT8L08_TOUCHKEY_SCENE4))
   \   00002B   90....       MOV     DPTR,#aSceneSelectorWakeup
   \   00002E   E0           MOVX    A,@DPTR
   \   00002F   6401         XRL     A,#0x1
   \   000031   7008         JNZ     ??addSceneSelector_wakeupCheck_1
   \   000033   7448         MOV     A,#0x48
   \   000035   68           XRL     A,R0
   \   000036   7003         JNZ     ??addSceneSelector_wakeupCheck_1
   1347          		{
   1348          			aSceneSelectorWakeup = ADD_SCENESELECTOR_WAKEUP_KEYDOWN_10S;
   \   000038   7402         MOV     A,#0x2
   \                     ??addSceneSelector_wakeupCheck_2:
   \   00003A   F0           MOVX    @DPTR,A
   1349          		}
   1350          	}
   1351          }
   \                     ??addSceneSelector_wakeupCheck_1:
   \   00003B   02....       LJMP    ??Subroutine22_0 & 0xFFFF
   1352          
   1353          /*********************************************************************
   1354           * @fn      addSceneSelector_setGroupID
   1355           *
   1356           * @brief   Scene selector.
   1357           *
   1358           * @param   none
   1359           *
   1360           * @return  none
   1361           */

   \                                 In  segment BANKED_CODE, align 1, keep-with-next
   1362          void addSceneSelector_setGroupID(uint8 endPoint, aps_Group_t *group)
   \                     addSceneSelector_setGroupID:
   1363          {
   \   000000                REQUIRE ?V0
   \   000000                REQUIRE ?V1
   \   000000   74F6         MOV     A,#-0xa
   \   000002   12....       LCALL   ?BANKED_ENTER_XDATA
   \   000005                ; Saved register size: 10
   \   000005                ; Auto size: 0
   \   000005   E9           MOV     A,R1
   \   000006   FE           MOV     R6,A
   1364          	if (endPoint == SCENESELECTOR_ENDPOINT1)
   \   000007   7401         MOV     A,#0x1
   \   000009   6E           XRL     A,R6
   \   00000A   7028         JNZ     ??addSceneSelector_setGroupID_0
   1365          	{
   1366          		aSceneSelectorEndpoint1_GroupID = group->ID;
   \   00000C   12....       LCALL   ?Subroutine12 & 0xFFFF
   \                     ??CrossCallReturnLabel_39:
   \   00000F   90....       MOV     DPTR,#aSceneSelectorEndpoint1_GroupID
   \   000012   12....       LCALL   ??Subroutine24_0 & 0xFFFF
   1367          		osal_nv_write(ADD_SCENESELECTOR_NV_ITEM_ID_ENDPOINT1_GROUPID, 0, 2, &aSceneSelectorEndpoint1_GroupID);
   \                     ??CrossCallReturnLabel_44:
   \   000015                ; Setup parameters for call to function osal_nv_write
   \   000015   75....       MOV     ?V0,#aSceneSelectorEndpoint1_GroupID & 0xff
   \   000018   75....       MOV     ?V1,#(aSceneSelectorEndpoint1_GroupID >> 8) & 0xff
   \   00001B   78..         MOV     R0,#?V0
   \   00001D   12....       LCALL   ?PUSH_XSTACK_I_TWO
   \   000020   75..02       MOV     ?V0,#0x2
   \   000023   75..00       MOV     ?V1,#0x0
   \   000026   78..         MOV     R0,#?V0
   \   000028   12....       LCALL   ?PUSH_XSTACK_I_TWO
   \   00002B   7C00         MOV     R4,#0x0
   \   00002D   7D00         MOV     R5,#0x0
   \   00002F   7A81         MOV     R2,#-0x7f
   \   000031   02....       LJMP    ??addSceneSelector_setGroupID_1 & 0xFFFF
   1368          	} else if (endPoint == SCENESELECTOR_ENDPOINT2)
   \                     ??addSceneSelector_setGroupID_0:
   \   000034   7402         MOV     A,#0x2
   \   000036   6E           XRL     A,R6
   \   000037   7027         JNZ     ??addSceneSelector_setGroupID_2
   1369          	{
   1370          		aSceneSelectorEndpoint2_GroupID = group->ID;
   \   000039   12....       LCALL   ?Subroutine12 & 0xFFFF
   \                     ??CrossCallReturnLabel_40:
   \   00003C   90....       MOV     DPTR,#aSceneSelectorEndpoint2_GroupID
   \   00003F   12....       LCALL   ??Subroutine24_0 & 0xFFFF
   1371          		osal_nv_write(ADD_SCENESELECTOR_NV_ITEM_ID_ENDPOINT2_GROUPID, 0, 2, &aSceneSelectorEndpoint2_GroupID);
   \                     ??CrossCallReturnLabel_45:
   \   000042                ; Setup parameters for call to function osal_nv_write
   \   000042   75....       MOV     ?V0,#aSceneSelectorEndpoint2_GroupID & 0xff
   \   000045   75....       MOV     ?V1,#(aSceneSelectorEndpoint2_GroupID >> 8) & 0xff
   \   000048   78..         MOV     R0,#?V0
   \   00004A   12....       LCALL   ?PUSH_XSTACK_I_TWO
   \   00004D   75..02       MOV     ?V0,#0x2
   \   000050   75..00       MOV     ?V1,#0x0
   \   000053   78..         MOV     R0,#?V0
   \   000055   12....       LCALL   ?PUSH_XSTACK_I_TWO
   \   000058   7C00         MOV     R4,#0x0
   \   00005A   7D00         MOV     R5,#0x0
   \   00005C   7A83         MOV     R2,#-0x7d
   \   00005E   8056         SJMP    ??addSceneSelector_setGroupID_1
   1372          	} else if (endPoint == SCENESELECTOR_ENDPOINT3)
   \                     ??addSceneSelector_setGroupID_2:
   \   000060   7403         MOV     A,#0x3
   \   000062   6E           XRL     A,R6
   \   000063   7027         JNZ     ??addSceneSelector_setGroupID_3
   1373          	{
   1374          		aSceneSelectorEndpoint3_GroupID = group->ID;
   \   000065   12....       LCALL   ?Subroutine12 & 0xFFFF
   \                     ??CrossCallReturnLabel_41:
   \   000068   90....       MOV     DPTR,#aSceneSelectorEndpoint3_GroupID
   \   00006B   12....       LCALL   ??Subroutine24_0 & 0xFFFF
   1375          		osal_nv_write(ADD_SCENESELECTOR_NV_ITEM_ID_ENDPOINT3_GROUPID, 0, 2, &aSceneSelectorEndpoint3_GroupID);
   \                     ??CrossCallReturnLabel_46:
   \   00006E                ; Setup parameters for call to function osal_nv_write
   \   00006E   75....       MOV     ?V0,#aSceneSelectorEndpoint3_GroupID & 0xff
   \   000071   75....       MOV     ?V1,#(aSceneSelectorEndpoint3_GroupID >> 8) & 0xff
   \   000074   78..         MOV     R0,#?V0
   \   000076   12....       LCALL   ?PUSH_XSTACK_I_TWO
   \   000079   75..02       MOV     ?V0,#0x2
   \   00007C   75..00       MOV     ?V1,#0x0
   \   00007F   78..         MOV     R0,#?V0
   \   000081   12....       LCALL   ?PUSH_XSTACK_I_TWO
   \   000084   7C00         MOV     R4,#0x0
   \   000086   7D00         MOV     R5,#0x0
   \   000088   7A85         MOV     R2,#-0x7b
   \   00008A   802A         SJMP    ??addSceneSelector_setGroupID_1
   1376          	} else if (endPoint == SCENESELECTOR_ENDPOINT4)
   \                     ??addSceneSelector_setGroupID_3:
   \   00008C   7404         MOV     A,#0x4
   \   00008E   6E           XRL     A,R6
   \   00008F   702F         JNZ     ??addSceneSelector_setGroupID_4
   1377          	{
   1378          		aSceneSelectorEndpoint4_GroupID = group->ID;
   \   000091   12....       LCALL   ?Subroutine12 & 0xFFFF
   \                     ??CrossCallReturnLabel_42:
   \   000094   90....       MOV     DPTR,#aSceneSelectorEndpoint4_GroupID
   \   000097   12....       LCALL   ??Subroutine24_0 & 0xFFFF
   1379          		osal_nv_write(ADD_SCENESELECTOR_NV_ITEM_ID_ENDPOINT4_GROUPID, 0, 2, &aSceneSelectorEndpoint4_GroupID);
   \                     ??CrossCallReturnLabel_47:
   \   00009A                ; Setup parameters for call to function osal_nv_write
   \   00009A   75....       MOV     ?V0,#aSceneSelectorEndpoint4_GroupID & 0xff
   \   00009D   75....       MOV     ?V1,#(aSceneSelectorEndpoint4_GroupID >> 8) & 0xff
   \   0000A0   78..         MOV     R0,#?V0
   \   0000A2   12....       LCALL   ?PUSH_XSTACK_I_TWO
   \   0000A5   75..02       MOV     ?V0,#0x2
   \   0000A8   75..00       MOV     ?V1,#0x0
   \   0000AB   78..         MOV     R0,#?V0
   \   0000AD   12....       LCALL   ?PUSH_XSTACK_I_TWO
   \   0000B0   7C00         MOV     R4,#0x0
   \   0000B2   7D00         MOV     R5,#0x0
   \   0000B4   7A87         MOV     R2,#-0x79
   \                     ??addSceneSelector_setGroupID_1:
   \   0000B6   7B05         MOV     R3,#0x5
   \   0000B8   12....       LCALL   ??osal_nv_write?relay; Banked call to: osal_nv_write
   \   0000BB   7404         MOV     A,#0x4
   \   0000BD   12....       LCALL   ?DEALLOC_XSTACK8
   1380          	}
   1381          }
   \                     ??addSceneSelector_setGroupID_4:
   \   0000C0   02....       LJMP    ?Subroutine2 & 0xFFFF

   \                                 In  segment BANKED_CODE, align 1, keep-with-next
   \                     ?Subroutine12:
   \   000000   8A82         MOV     DPL,R2
   \   000002   8B83         MOV     DPH,R3
   \   000004                REQUIRE ??Subroutine23_0
   \   000004                ; // Fall through to label ??Subroutine23_0
   1382          
   1383          /*********************************************************************
   1384           * @fn      addSceneSelector_setSceneID
   1385           *
   1386           * @brief   Scene selector.
   1387           *
   1388           * @param   none
   1389           *
   1390           * @return  none
   1391           */

   \                                 In  segment BANKED_CODE, align 1, keep-with-next
   1392          void addSceneSelector_setSceneID(uint8 endPoint, zclGeneral_Scene_t *scene)
   \                     addSceneSelector_setSceneID:
   1393          {
   \   000000                REQUIRE ?V0
   \   000000                REQUIRE ?V1
   \   000000   74F6         MOV     A,#-0xa
   \   000002   12....       LCALL   ?BANKED_ENTER_XDATA
   \   000005                ; Saved register size: 10
   \   000005                ; Auto size: 0
   \   000005   E9           MOV     A,R1
   \   000006   FE           MOV     R6,A
   1394          	if (endPoint == SCENESELECTOR_ENDPOINT1)
   \   000007   7401         MOV     A,#0x1
   \   000009   6E           XRL     A,R6
   \   00000A   702D         JNZ     ??addSceneSelector_setSceneID_0
   1395          	{
   1396          		aSceneSelectorEndpoint1_SceneID = scene->ID;
   \   00000C   8A82         MOV     DPL,R2
   \   00000E   8B83         MOV     DPH,R3
   \   000010   A3           INC     DPTR
   \   000011   A3           INC     DPTR
   \   000012   E0           MOVX    A,@DPTR
   \   000013   90....       MOV     DPTR,#aSceneSelectorEndpoint1_SceneID
   \   000016   F0           MOVX    @DPTR,A
   \   000017   A3           INC     DPTR
   \   000018   E4           CLR     A
   \   000019   F0           MOVX    @DPTR,A
   1397          		osal_nv_write(ADD_SCENESELECTOR_NV_ITEM_ID_ENDPOINT1_SCENEID, 0, 2, &aSceneSelectorEndpoint1_SceneID);
   \   00001A                ; Setup parameters for call to function osal_nv_write
   \   00001A   75....       MOV     ?V0,#aSceneSelectorEndpoint1_SceneID & 0xff
   \   00001D   75....       MOV     ?V1,#(aSceneSelectorEndpoint1_SceneID >> 8) & 0xff
   \   000020   78..         MOV     R0,#?V0
   \   000022   12....       LCALL   ?PUSH_XSTACK_I_TWO
   \   000025   75..02       MOV     ?V0,#0x2
   \   000028   75..00       MOV     ?V1,#0x0
   \   00002B   78..         MOV     R0,#?V0
   \   00002D   12....       LCALL   ?PUSH_XSTACK_I_TWO
   \   000030   7C00         MOV     R4,#0x0
   \   000032   7D00         MOV     R5,#0x0
   \   000034   7A01         MOV     R2,#0x1
   \   000036   02....       LJMP    ??addSceneSelector_setSceneID_1 & 0xFFFF
   1398          	} else if (endPoint == SCENESELECTOR_ENDPOINT2)
   \                     ??addSceneSelector_setSceneID_0:
   \   000039   7402         MOV     A,#0x2
   \   00003B   6E           XRL     A,R6
   \   00003C   702C         JNZ     ??addSceneSelector_setSceneID_2
   1399          	{
   1400          		aSceneSelectorEndpoint2_SceneID = scene->ID;
   \   00003E   8A82         MOV     DPL,R2
   \   000040   8B83         MOV     DPH,R3
   \   000042   A3           INC     DPTR
   \   000043   A3           INC     DPTR
   \   000044   E0           MOVX    A,@DPTR
   \   000045   90....       MOV     DPTR,#aSceneSelectorEndpoint2_SceneID
   \   000048   F0           MOVX    @DPTR,A
   \   000049   A3           INC     DPTR
   \   00004A   E4           CLR     A
   \   00004B   F0           MOVX    @DPTR,A
   1401          		osal_nv_write(ADD_SCENESELECTOR_NV_ITEM_ID_ENDPOINT2_SCENEID, 0, 2, &aSceneSelectorEndpoint2_SceneID);
   \   00004C                ; Setup parameters for call to function osal_nv_write
   \   00004C   75....       MOV     ?V0,#aSceneSelectorEndpoint2_SceneID & 0xff
   \   00004F   75....       MOV     ?V1,#(aSceneSelectorEndpoint2_SceneID >> 8) & 0xff
   \   000052   78..         MOV     R0,#?V0
   \   000054   12....       LCALL   ?PUSH_XSTACK_I_TWO
   \   000057   75..02       MOV     ?V0,#0x2
   \   00005A   75..00       MOV     ?V1,#0x0
   \   00005D   78..         MOV     R0,#?V0
   \   00005F   12....       LCALL   ?PUSH_XSTACK_I_TWO
   \   000062   7C00         MOV     R4,#0x0
   \   000064   7D00         MOV     R5,#0x0
   \   000066   7A03         MOV     R2,#0x3
   \   000068   8060         SJMP    ??addSceneSelector_setSceneID_1
   1402          	} else if (endPoint == SCENESELECTOR_ENDPOINT3)
   \                     ??addSceneSelector_setSceneID_2:
   \   00006A   7403         MOV     A,#0x3
   \   00006C   6E           XRL     A,R6
   \   00006D   702C         JNZ     ??addSceneSelector_setSceneID_3
   1403          	{
   1404          		aSceneSelectorEndpoint3_SceneID = scene->ID;
   \   00006F   8A82         MOV     DPL,R2
   \   000071   8B83         MOV     DPH,R3
   \   000073   A3           INC     DPTR
   \   000074   A3           INC     DPTR
   \   000075   E0           MOVX    A,@DPTR
   \   000076   90....       MOV     DPTR,#aSceneSelectorEndpoint3_SceneID
   \   000079   F0           MOVX    @DPTR,A
   \   00007A   A3           INC     DPTR
   \   00007B   E4           CLR     A
   \   00007C   F0           MOVX    @DPTR,A
   1405          		osal_nv_write(ADD_SCENESELECTOR_NV_ITEM_ID_ENDPOINT3_SCENEID, 0, 2, &aSceneSelectorEndpoint3_SceneID);
   \   00007D                ; Setup parameters for call to function osal_nv_write
   \   00007D   75....       MOV     ?V0,#aSceneSelectorEndpoint3_SceneID & 0xff
   \   000080   75....       MOV     ?V1,#(aSceneSelectorEndpoint3_SceneID >> 8) & 0xff
   \   000083   78..         MOV     R0,#?V0
   \   000085   12....       LCALL   ?PUSH_XSTACK_I_TWO
   \   000088   75..02       MOV     ?V0,#0x2
   \   00008B   75..00       MOV     ?V1,#0x0
   \   00008E   78..         MOV     R0,#?V0
   \   000090   12....       LCALL   ?PUSH_XSTACK_I_TWO
   \   000093   7C00         MOV     R4,#0x0
   \   000095   7D00         MOV     R5,#0x0
   \   000097   7A05         MOV     R2,#0x5
   \   000099   802F         SJMP    ??addSceneSelector_setSceneID_1
   1406          	} else if (endPoint == SCENESELECTOR_ENDPOINT4)
   \                     ??addSceneSelector_setSceneID_3:
   \   00009B   7404         MOV     A,#0x4
   \   00009D   6E           XRL     A,R6
   \   00009E   7034         JNZ     ??addSceneSelector_setSceneID_4
   1407          	{
   1408          		aSceneSelectorEndpoint4_SceneID = scene->ID;
   \   0000A0   8A82         MOV     DPL,R2
   \   0000A2   8B83         MOV     DPH,R3
   \   0000A4   A3           INC     DPTR
   \   0000A5   A3           INC     DPTR
   \   0000A6   E0           MOVX    A,@DPTR
   \   0000A7   90....       MOV     DPTR,#aSceneSelectorEndpoint4_SceneID
   \   0000AA   F0           MOVX    @DPTR,A
   \   0000AB   A3           INC     DPTR
   \   0000AC   E4           CLR     A
   \   0000AD   F0           MOVX    @DPTR,A
   1409          		osal_nv_write(ADD_SCENESELECTOR_NV_ITEM_ID_ENDPOINT4_SCENEID, 0, 2, &aSceneSelectorEndpoint4_SceneID);
   \   0000AE                ; Setup parameters for call to function osal_nv_write
   \   0000AE   75....       MOV     ?V0,#aSceneSelectorEndpoint4_SceneID & 0xff
   \   0000B1   75....       MOV     ?V1,#(aSceneSelectorEndpoint4_SceneID >> 8) & 0xff
   \   0000B4   78..         MOV     R0,#?V0
   \   0000B6   12....       LCALL   ?PUSH_XSTACK_I_TWO
   \   0000B9   75..02       MOV     ?V0,#0x2
   \   0000BC   75..00       MOV     ?V1,#0x0
   \   0000BF   78..         MOV     R0,#?V0
   \   0000C1   12....       LCALL   ?PUSH_XSTACK_I_TWO
   \   0000C4   7C00         MOV     R4,#0x0
   \   0000C6   7D00         MOV     R5,#0x0
   \   0000C8   7A07         MOV     R2,#0x7
   \                     ??addSceneSelector_setSceneID_1:
   \   0000CA   7B05         MOV     R3,#0x5
   \   0000CC   12....       LCALL   ??osal_nv_write?relay; Banked call to: osal_nv_write
   \   0000CF   7404         MOV     A,#0x4
   \   0000D1   12....       LCALL   ?DEALLOC_XSTACK8
   1410          	}
   1411          }
   \                     ??addSceneSelector_setSceneID_4:
   \   0000D4                REQUIRE ?Subroutine2
   \   0000D4                ; // Fall through to label ?Subroutine2
   1412          
   1413          #if defined(SCENE_SELECTOR)	
   1414          #elif defined(SCENE_SELECTOR_TOUCHKEY)
   1415          
   1416          /*********************************************************************
   1417           * @fn      addSceneSelector_APT8L08_init
   1418           *
   1419           * @brief   APT8L08 initial.
   1420           *
   1421           * @param   none
   1422           *
   1423           * @return  none
   1424           */

   \                                 In  segment BANKED_CODE, align 1, keep-with-next
   1425          void addSceneSelector_APT8L08_init(void)
   \                     addSceneSelector_APT8L08_init:
   1426          {	
   \   000000   C082         PUSH    DPL
   \   000002   C083         PUSH    DPH
   \   000004                ; Saved register size: 2
   \   000004                ; Auto size: 0
   1427          	addSceneSelector_APT8L08_initHal();
   \   000004                ; Setup parameters for call to function addSceneSelector_APT8L08_initHal
   \   000004   12....       LCALL   ??addSceneSelector_APT8L08_initHal?relay; Banked call to: addSceneSelector_APT8L08_initHal
   1428          	addCommon_delayMS(500);
   \   000007                ; Setup parameters for call to function addCommon_delayMS
   \   000007   7AF4         MOV     R2,#-0xc
   \   000009   7B01         MOV     R3,#0x1
   \   00000B   12....       LCALL   ??addCommon_delayMS?relay; Banked call to: addCommon_delayMS
   1429          	addSceneSelector_APT8L08_initAl();
   \   00000E                ; Setup parameters for call to function addSceneSelector_APT8L08_initAl
   \   00000E   12....       LCALL   ??addSceneSelector_APT8L08_initAl?relay; Banked call to: addSceneSelector_APT8L08_initAl
   1430          }
   \   000011   02....       LJMP    ??Subroutine22_0 & 0xFFFF
   1431          
   1432          /*********************************************************************
   1433           * @fn      addSceneSelector_APT8L08_initHal
   1434           *
   1435           * @brief   APT8L08 initial hardware abstract layer.
   1436           *
   1437           * @param   none
   1438           *
   1439           * @return  none
   1440           */

   \                                 In  segment BANKED_CODE, align 1, keep-with-next
   1441          static void addSceneSelector_APT8L08_initHal(void)
   \                     addSceneSelector_APT8L08_initHal:
   1442          {	
   \   000000   C082         PUSH    DPL
   \   000002   C083         PUSH    DPH
   \   000004                ; Saved register size: 2
   \   000004                ; Auto size: 0
   1443          	APCFG &= ~0x30; // SDA on P0_4, SCL on P0_5
   \   000004   53F2CF       ANL     0xf2,#0xcf
   1444          	P0SEL &= ~0x30; 
   \   000007   53F3CF       ANL     0xf3,#0xcf
   1445          	P0DIR |= 0x30;
   \   00000A   43FD30       ORL     0xfd,#0x30
   1446          	P2INP &= ~0x20; // port0 all pull up
   \   00000D   53F7DF       ANL     0xf7,#0xdf
   1447          	P0INP |= 0x30;
   \   000010   438F30       ORL     0x8f,#0x30
   1448          	
   1449          	P2SEL &= ~0x01; // TP_INT on port P2_0
   \   000013   53F5FE       ANL     0xf5,#0xfe
   1450          	P2DIR &= ~0x01;
   \   000016   53FFFE       ANL     0xff,#0xfe
   1451          	P2INP &= ~0x80; // port2 all pull up
   \   000019   53F77F       ANL     0xf7,#0x7f
   1452          	P2INP &= ~0x01;
   \   00001C   53F7FE       ANL     0xf7,#0xfe
   1453          
   1454          	EA = 0;
   \   00001F   C2AF         CLR     0xa8.7
   1455          	
   1456          	MicroWait(50000);
   \   000021                ; Setup parameters for call to function Onboard_wait
   \   000021   7A50         MOV     R2,#0x50
   \   000023   7BC3         MOV     R3,#-0x3d
   \   000025   12....       LCALL   ??Onboard_wait?relay ; Banked call to: Onboard_wait
   1457          	MicroWait(50000);
   \   000028                ; Setup parameters for call to function Onboard_wait
   \   000028   7A50         MOV     R2,#0x50
   \   00002A   7BC3         MOV     R3,#-0x3d
   \   00002C   12....       LCALL   ??Onboard_wait?relay ; Banked call to: Onboard_wait
   1458          
   1459          	P2IEN |= 0x01; // P2_0 interrupt enable
   \   00002F   43AC01       ORL     0xac,#0x1
   1460          	PICTL |= 0x08; // fall edge
   \   000032   438C08       ORL     0x8c,#0x8
   1461          	P2IFG &= ~0x01; // clear interrupt flag
   \   000035   538BFE       ANL     0x8b,#0xfe
   1462          	IEN2 |= 0x02; // port2 interrupt enable
   \   000038   439A02       ORL     0x9a,#0x2
   1463          	
   1464          	IP0 |= (1 << 1); // set port2 interrupt highest priority
   \   00003B   43A902       ORL     0xa9,#0x2
   1465          	IP1 |= (1 << 1);
   \   00003E   43B902       ORL     0xb9,#0x2
   1466          	
   1467          	EA = 1;
   \   000041   D2AF         SETB    0xa8.7
   1468          
   1469          	ADD_SCENESELECTOR_APT8L08_SDA = 1;
   \   000043   D284         SETB    0x80.4
   1470          	ADD_SCENESELECTOR_APT8L08_SCL = 1;
   \   000045   D285         SETB    0x80.5
   1471          }
   \   000047   02....       LJMP    ??Subroutine22_0 & 0xFFFF
   \   00004A                REQUIRE APCFG
   \   00004A                REQUIRE P0SEL
   \   00004A                REQUIRE P0DIR
   \   00004A                REQUIRE P2INP
   \   00004A                REQUIRE P0INP
   \   00004A                REQUIRE P2SEL
   \   00004A                REQUIRE P2DIR
   \   00004A                REQUIRE _A_IEN0
   \   00004A                REQUIRE P2IEN
   \   00004A                REQUIRE PICTL
   \   00004A                REQUIRE P2IFG
   \   00004A                REQUIRE IEN2
   \   00004A                REQUIRE IP0
   \   00004A                REQUIRE IP1
   \   00004A                REQUIRE _A_P0
   1472          
   1473          /*********************************************************************
   1474           * @fn      addSceneSelector_APT8L08_initAl
   1475           *
   1476           * @brief   APT8L08 initial application layer.
   1477           *
   1478           * @param   none
   1479           *
   1480           * @return  none
   1481           */

   \                                 In  segment BANKED_CODE, align 1, keep-with-next
   1482          static void addSceneSelector_APT8L08_initAl(void)
   \                     addSceneSelector_APT8L08_initAl:
   1483          {
   \   000000   74F7         MOV     A,#-0x9
   \   000002   12....       LCALL   ?BANKED_ENTER_XDATA
   \   000005                ; Saved register size: 9
   \   000005                ; Auto size: 0
   1484          	addCommon_delayMS(ADD_SCENESELECTOR_APT8L08_POWERON_DELAY);
   \   000005                ; Setup parameters for call to function addCommon_delayMS
   \   000005   7A32         MOV     R2,#0x32
   \   000007   7B00         MOV     R3,#0x0
   \   000009   12....       LCALL   ??addCommon_delayMS?relay; Banked call to: addCommon_delayMS
   1485          
   1486          	addSceneSelector_APT8L08_I2C_writeRegister(
   1487          		ADD_SCENESELECTOR_APT8L08_REGISTER_ADDRESS_SYSCON, ADD_SCENESELECTOR_APT8L08_MODE_CONFIGURE);
   \   00000C                ; Setup parameters for call to function addSceneSelector_APT8L08_I2C_writeRegister
   \   00000C   7A5A         MOV     R2,#0x5a
   \   00000E   793A         MOV     R1,#0x3a
   \   000010   12....       LCALL   ??addSceneSelector_APT8L08_I2C_writeRegister?re; Banked call to: addSceneSelector_APT8L08_I2C_writeRegister
   1488          	addCommon_delayMS(10);
   \   000013                ; Setup parameters for call to function addCommon_delayMS
   \   000013   7A0A         MOV     R2,#0xa
   \   000015   7B00         MOV     R3,#0x0
   \   000017   12....       LCALL   ??addCommon_delayMS?relay; Banked call to: addCommon_delayMS
   1489          	addSceneSelector_APT8L08_I2C_writeRegister(
   1490          		ADD_SCENESELECTOR_APT8L08_REGISTER_ADDRESS_SYSCON, ADD_SCENESELECTOR_APT8L08_MODE_NORMAL);
   \   00001A                ; Setup parameters for call to function addSceneSelector_APT8L08_I2C_writeRegister
   \   00001A   7A00         MOV     R2,#0x0
   \   00001C   793A         MOV     R1,#0x3a
   \   00001E   12....       LCALL   ??addSceneSelector_APT8L08_I2C_writeRegister?re; Banked call to: addSceneSelector_APT8L08_I2C_writeRegister
   1491          	addCommon_delayMS(10);
   \   000021                ; Setup parameters for call to function addCommon_delayMS
   \   000021   7A0A         MOV     R2,#0xa
   \   000023   7B00         MOV     R3,#0x0
   \   000025   12....       LCALL   ??addCommon_delayMS?relay; Banked call to: addCommon_delayMS
   1492          	addSceneSelector_APT8L08_I2C_writeRegister(
   1493          		ADD_SCENESELECTOR_APT8L08_REGISTER_ADDRESS_SYSCON, ADD_SCENESELECTOR_APT8L08_MODE_CONFIGURE);
   \   000028                ; Setup parameters for call to function addSceneSelector_APT8L08_I2C_writeRegister
   \   000028   7A5A         MOV     R2,#0x5a
   \   00002A   793A         MOV     R1,#0x3a
   \   00002C   12....       LCALL   ??addSceneSelector_APT8L08_I2C_writeRegister?re; Banked call to: addSceneSelector_APT8L08_I2C_writeRegister
   1494          	addCommon_delayMS(10);
   \   00002F                ; Setup parameters for call to function addCommon_delayMS
   \   00002F   7A0A         MOV     R2,#0xa
   \   000031   7B00         MOV     R3,#0x0
   \   000033   12....       LCALL   ??addCommon_delayMS?relay; Banked call to: addCommon_delayMS
   1495          	
   1496          	for (uint8 i = 0; i < 16; i++)
   \   000036   7E00         MOV     R6,#0x0
   1497          	{
   1498          		addSceneSelector_APT8L08_I2C_writeRegister(
   1499          			aSceneSelectorApt8l08_registerAddress[i], aSceneSelectorApt8l08_registerData[i]);
   \                     ??addSceneSelector_APT8L08_initAl_0:
   \   000038   EE           MOV     A,R6
   \   000039   F8           MOV     R0,A
   \   00003A                ; Setup parameters for call to function addSceneSelector_APT8L08_I2C_writeRegister
   \   00003A   74..         MOV     A,#aSceneSelectorApt8l08_registerData & 0xff
   \   00003C   28           ADD     A,R0
   \   00003D   F582         MOV     DPL,A
   \   00003F   E4           CLR     A
   \   000040   34..         ADDC    A,#(aSceneSelectorApt8l08_registerData >> 8) & 0xff
   \   000042   F583         MOV     DPH,A
   \   000044   E0           MOVX    A,@DPTR
   \   000045   FA           MOV     R2,A
   \   000046   74..         MOV     A,#aSceneSelectorApt8l08_registerAddress & 0xff
   \   000048   28           ADD     A,R0
   \   000049   F582         MOV     DPL,A
   \   00004B   E4           CLR     A
   \   00004C   34..         ADDC    A,#(aSceneSelectorApt8l08_registerAddress >> 8) & 0xff
   \   00004E   F583         MOV     DPH,A
   \   000050   E0           MOVX    A,@DPTR
   \   000051   F9           MOV     R1,A
   \   000052   12....       LCALL   ??addSceneSelector_APT8L08_I2C_writeRegister?re; Banked call to: addSceneSelector_APT8L08_I2C_writeRegister
   1500          	}
   \   000055   0E           INC     R6
   \   000056   EE           MOV     A,R6
   \   000057   C3           CLR     C
   \   000058   9410         SUBB    A,#0x10
   \   00005A   40DC         JC      ??addSceneSelector_APT8L08_initAl_0
   1501          	
   1502          	addSceneSelector_APT8L08_I2C_writeRegister(
   1503          		ADD_SCENESELECTOR_APT8L08_REGISTER_ADDRESS_GSR, ADD_SCENESELECTOR_APT8L08_REGISTER_DATA_GSR); //gsr
   \   00005C                ; Setup parameters for call to function addSceneSelector_APT8L08_I2C_writeRegister
   \   00005C   7A04         MOV     R2,#0x4
   \   00005E   7920         MOV     R1,#0x20
   \   000060   12....       LCALL   ??addSceneSelector_APT8L08_I2C_writeRegister?re; Banked call to: addSceneSelector_APT8L08_I2C_writeRegister
   1504          	addCommon_delayMS(10);
   \   000063                ; Setup parameters for call to function addCommon_delayMS
   \   000063   7A0A         MOV     R2,#0xa
   \   000065   7B00         MOV     R3,#0x0
   \   000067   12....       LCALL   ??addCommon_delayMS?relay; Banked call to: addCommon_delayMS
   1505          	addSceneSelector_APT8L08_I2C_writeRegister(
   1506          		ADD_SCENESELECTOR_APT8L08_REGISTER_ADDRESS_MCON, ADD_SCENESELECTOR_APT8L08_REGISTER_DATA_MCON); //mcon 当使用AT8L08时,高4位一定要配置为“5";当使用AT8L16时,高4位配置为“0”
   \   00006A                ; Setup parameters for call to function addSceneSelector_APT8L08_I2C_writeRegister
   \   00006A   7A54         MOV     R2,#0x54
   \   00006C   7921         MOV     R1,#0x21
   \   00006E   12....       LCALL   ??addSceneSelector_APT8L08_I2C_writeRegister?re; Banked call to: addSceneSelector_APT8L08_I2C_writeRegister
   1507          	addCommon_delayMS(10);
   \   000071                ; Setup parameters for call to function addCommon_delayMS
   \   000071   7A0A         MOV     R2,#0xa
   \   000073   7B00         MOV     R3,#0x0
   \   000075   12....       LCALL   ??addCommon_delayMS?relay; Banked call to: addCommon_delayMS
   1508          	addSceneSelector_APT8L08_I2C_writeRegister(
   1509          		ADD_SCENESELECTOR_APT8L08_REGISTER_ADDRESS_K0_ENB, ADD_SCENESELECTOR_APT8L08_REGISTER_DATA_K0_ENB); //K0_CON
   \   000078                ; Setup parameters for call to function addSceneSelector_APT8L08_I2C_writeRegister
   \   000078   7A03         MOV     R2,#0x3
   \   00007A   7923         MOV     R1,#0x23
   \   00007C   12....       LCALL   ??addSceneSelector_APT8L08_I2C_writeRegister?re; Banked call to: addSceneSelector_APT8L08_I2C_writeRegister
   1510          	addCommon_delayMS(10);
   \   00007F                ; Setup parameters for call to function addCommon_delayMS
   \   00007F   7A0A         MOV     R2,#0xa
   \   000081   7B00         MOV     R3,#0x0
   \   000083   12....       LCALL   ??addCommon_delayMS?relay; Banked call to: addCommon_delayMS
   1511          	addSceneSelector_APT8L08_I2C_writeRegister(
   1512          		ADD_SCENESELECTOR_APT8L08_REGISTER_ADDRESS_K1_ENB, ADD_SCENESELECTOR_APT8L08_REGISTER_DATA_K1_ENB); //K1_CON
   \   000086                ; Setup parameters for call to function addSceneSelector_APT8L08_I2C_writeRegister
   \   000086   7AFF         MOV     R2,#-0x1
   \   000088   7924         MOV     R1,#0x24
   \   00008A   12....       LCALL   ??addSceneSelector_APT8L08_I2C_writeRegister?re; Banked call to: addSceneSelector_APT8L08_I2C_writeRegister
   1513          	addCommon_delayMS(10);
   \   00008D                ; Setup parameters for call to function addCommon_delayMS
   \   00008D   7A0A         MOV     R2,#0xa
   \   00008F   7B00         MOV     R3,#0x0
   \   000091   12....       LCALL   ??addCommon_delayMS?relay; Banked call to: addCommon_delayMS
   1514          
   1515          	//addSceneSelector_APT8L08_I2C_writeRegister(
   1516          	//		ADD_SCENESELECTOR_APT8L08_REGISTER_ADDRESS_KOR00, aSceneSelectorApt8l08_tkFin8bit[0]);
   1517          	//	addCommon_delayMS(10);
   1518          	for (uint8 i = 0; i < 16; i++)
   \   000094   7E00         MOV     R6,#0x0
   1519          	{
   1520          		addSceneSelector_APT8L08_I2C_writeRegister(i, aSceneSelectorApt8l08_tkFin8bit[i]);
   \                     ??addSceneSelector_APT8L08_initAl_1:
   \   000096                ; Setup parameters for call to function addSceneSelector_APT8L08_I2C_writeRegister
   \   000096   EE           MOV     A,R6
   \   000097   F8           MOV     R0,A
   \   000098   74..         MOV     A,#aSceneSelectorApt8l08_tkFin8bit & 0xff
   \   00009A   28           ADD     A,R0
   \   00009B   F582         MOV     DPL,A
   \   00009D   E4           CLR     A
   \   00009E   34..         ADDC    A,#(aSceneSelectorApt8l08_tkFin8bit >> 8) & 0xff
   \   0000A0   F583         MOV     DPH,A
   \   0000A2   E0           MOVX    A,@DPTR
   \   0000A3   FA           MOV     R2,A
   \   0000A4   EE           MOV     A,R6
   \   0000A5   F9           MOV     R1,A
   \   0000A6   12....       LCALL   ??addSceneSelector_APT8L08_I2C_writeRegister?re; Banked call to: addSceneSelector_APT8L08_I2C_writeRegister
   1521          		addCommon_delayMS(10);
   \   0000A9                ; Setup parameters for call to function addCommon_delayMS
   \   0000A9   7A0A         MOV     R2,#0xa
   \   0000AB   7B00         MOV     R3,#0x0
   \   0000AD   12....       LCALL   ??addCommon_delayMS?relay; Banked call to: addCommon_delayMS
   1522          	}
   \   0000B0   0E           INC     R6
   \   0000B1   EE           MOV     A,R6
   \   0000B2   C3           CLR     C
   \   0000B3   9410         SUBB    A,#0x10
   \   0000B5   40DF         JC      ??addSceneSelector_APT8L08_initAl_1
   1523          
   1524          	addSceneSelector_APT8L08_I2C_writeRegister(
   1525          		ADD_SCENESELECTOR_APT8L08_REGISTER_ADDRESS_FILTER0, 0xac); //FILTER<1:0>, 分别对应原始值0 1 2 3 阶滤波；FILTER<3:2>，分别对应参考值寄存器更新时间2 4 8 16 次有效后更新； FILTER<5:4>, 分别对应参考值0 1 2 3 阶滤波FILTER<6>按键键值更新不设高上限
   \   0000B7                ; Setup parameters for call to function addSceneSelector_APT8L08_I2C_writeRegister
   \   0000B7   7AAC         MOV     R2,#-0x54
   \   0000B9   7922         MOV     R1,#0x22
   \   0000BB   12....       LCALL   ??addSceneSelector_APT8L08_I2C_writeRegister?re; Banked call to: addSceneSelector_APT8L08_I2C_writeRegister
   1526          	addCommon_delayMS(10);
   \   0000BE                ; Setup parameters for call to function addCommon_delayMS
   \   0000BE   7A0A         MOV     R2,#0xa
   \   0000C0   7B00         MOV     R3,#0x0
   \   0000C2   12....       LCALL   ??addCommon_delayMS?relay; Banked call to: addCommon_delayMS
   1527          	//addSceneSelector_APT8L08_I2C_writeRegister(
   1528          	//	ADD_SCENESELECTOR_APT8L08_REGISTER_ADDRESS_SENSE_CON, 0x40);	//加快扫描速度
   1529          	//addCommon_delayMS(10);
   1530          	addSceneSelector_APT8L08_I2C_writeRegister(
   1531          		ADD_SCENESELECTOR_APT8L08_REGISTER_ADDRESS_REF_UTH, 0x60); //参考寄存器更新阈值 
   \   0000C5                ; Setup parameters for call to function addSceneSelector_APT8L08_I2C_writeRegister
   \   0000C5   7A60         MOV     R2,#0x60
   \   0000C7   7929         MOV     R1,#0x29
   \   0000C9   12....       LCALL   ??addSceneSelector_APT8L08_I2C_writeRegister?re; Banked call to: addSceneSelector_APT8L08_I2C_writeRegister
   1532          	addCommon_delayMS(10);
   \   0000CC                ; Setup parameters for call to function addCommon_delayMS
   \   0000CC   7A0A         MOV     R2,#0xa
   \   0000CE   7B00         MOV     R3,#0x0
   \   0000D0   12....       LCALL   ??addCommon_delayMS?relay; Banked call to: addCommon_delayMS
   1533          	addSceneSelector_APT8L08_I2C_writeRegister(
   1534          		ADD_SCENESELECTOR_APT8L08_REGISTER_ADDRESS_KEY_ATH, 0xff); //开发模式寄存器 直接触摸PAD设置“0XFF",默认“0X10”
   \   0000D3                ; Setup parameters for call to function addSceneSelector_APT8L08_I2C_writeRegister
   \   0000D3   7AFF         MOV     R2,#-0x1
   \   0000D5   792A         MOV     R1,#0x2a
   \   0000D7   12....       LCALL   ??addSceneSelector_APT8L08_I2C_writeRegister?re; Banked call to: addSceneSelector_APT8L08_I2C_writeRegister
   1535          	addCommon_delayMS(10);
   \   0000DA                ; Setup parameters for call to function addCommon_delayMS
   \   0000DA   7A0A         MOV     R2,#0xa
   \   0000DC   7B00         MOV     R3,#0x0
   \   0000DE   12....       LCALL   ??addCommon_delayMS?relay; Banked call to: addCommon_delayMS
   1536          	addSceneSelector_APT8L08_I2C_writeRegister(
   1537          		ADD_SCENESELECTOR_APT8L08_REGISTER_ADDRESS_MCONH, 0x42); //BIT 6 置“1” 去掉longpress 16s
   \   0000E1                ; Setup parameters for call to function addSceneSelector_APT8L08_I2C_writeRegister
   \   0000E1   7A42         MOV     R2,#0x42
   \   0000E3   792C         MOV     R1,#0x2c
   \   0000E5   12....       LCALL   ??addSceneSelector_APT8L08_I2C_writeRegister?re; Banked call to: addSceneSelector_APT8L08_I2C_writeRegister
   1538          	addCommon_delayMS(10);
   \   0000E8                ; Setup parameters for call to function addCommon_delayMS
   \   0000E8   7A0A         MOV     R2,#0xa
   \   0000EA   7B00         MOV     R3,#0x0
   \   0000EC   12....       LCALL   ??addCommon_delayMS?relay; Banked call to: addCommon_delayMS
   1539          	addSceneSelector_APT8L08_I2C_writeRegister(
   1540          		ADD_SCENESELECTOR_APT8L08_REGISTER_ADDRESS_FILTER1, 0x00); //开发模式寄存器 直接触摸PAD设置“0X08",默认“0X00”
   \   0000EF                ; Setup parameters for call to function addSceneSelector_APT8L08_I2C_writeRegister
   \   0000EF   7A00         MOV     R2,#0x0
   \   0000F1   792D         MOV     R1,#0x2d
   \   0000F3   12....       LCALL   ??addSceneSelector_APT8L08_I2C_writeRegister?re; Banked call to: addSceneSelector_APT8L08_I2C_writeRegister
   1541          	addCommon_delayMS(10);
   \   0000F6                ; Setup parameters for call to function addCommon_delayMS
   \   0000F6   7A0A         MOV     R2,#0xa
   \   0000F8   7B00         MOV     R3,#0x0
   \   0000FA   12....       LCALL   ??addCommon_delayMS?relay; Banked call to: addCommon_delayMS
   1542          	addSceneSelector_APT8L08_I2C_writeRegister(
   1543          		ADD_SCENESELECTOR_APT8L08_REGISTER_ADDRESS_SYSCON, ADD_SCENESELECTOR_APT8L08_MODE_NORMAL);
   \   0000FD                ; Setup parameters for call to function addSceneSelector_APT8L08_I2C_writeRegister
   \   0000FD   7A00         MOV     R2,#0x0
   \   0000FF   793A         MOV     R1,#0x3a
   \   000101   12....       LCALL   ??addSceneSelector_APT8L08_I2C_writeRegister?re; Banked call to: addSceneSelector_APT8L08_I2C_writeRegister
   1544          	addCommon_delayMS(10);
   \   000104                ; Setup parameters for call to function addCommon_delayMS
   \   000104   7A0A         MOV     R2,#0xa
   \   000106   7B00         MOV     R3,#0x0
   \   000108   12....       LCALL   ??addCommon_delayMS?relay; Banked call to: addCommon_delayMS
   1545          
   1546          	addCommon_delayMS(500);	
   \   00010B                ; Setup parameters for call to function addCommon_delayMS
   \   00010B   7AF4         MOV     R2,#-0xc
   \   00010D   7B01         MOV     R3,#0x1
   \   00010F   12....       LCALL   ??addCommon_delayMS?relay; Banked call to: addCommon_delayMS
   1547          }
   \   000112                REQUIRE ?Subroutine1
   \   000112                ; // Fall through to label ?Subroutine1
   1548          
   1549          /*********************************************************************
   1550           * @fn      addSceneSelector_APT8L08_I2C_start
   1551           *
   1552           * @brief   APT8L08 i2c start.
   1553           *
   1554           * @param   none
   1555           *
   1556           * @return  none
   1557           */

   \                                 In  segment BANKED_CODE, align 1, keep-with-next
   \                     ?Subroutine0:
   \   000000   7A05         MOV     R2,#0x5
   \   000002   7B00         MOV     R3,#0x0
   \   000004   12....       LCALL   ??Onboard_wait?relay ; Banked call to: Onboard_wait
   \   000007                REQUIRE ??Subroutine22_0
   \   000007                ; // Fall through to label ??Subroutine22_0

   \                                 In  segment BANKED_CODE, align 1, keep-with-next
   1558          static void addSceneSelector_APT8L08_I2C_start(void)
   \                     addSceneSelector_APT8L08_I2C_start:
   1559          {	
   \   000000   C082         PUSH    DPL
   \   000002   C083         PUSH    DPH
   \   000004                ; Saved register size: 2
   \   000004                ; Auto size: 0
   1560          	ADD_SCENESELECTOR_APT8L08_SDA = 1;
   \   000004   D284         SETB    0x80.4
   1561          	MicroWait(5);
   \   000006                ; Setup parameters for call to function Onboard_wait
   \   000006   7A05         MOV     R2,#0x5
   \   000008   7B00         MOV     R3,#0x0
   \   00000A   12....       LCALL   ??Onboard_wait?relay ; Banked call to: Onboard_wait
   1562          	ADD_SCENESELECTOR_APT8L08_SCL = 1;
   \   00000D   D285         SETB    0x80.5
   1563          	MicroWait(5);
   \   00000F                ; Setup parameters for call to function Onboard_wait
   \   00000F   7A05         MOV     R2,#0x5
   \   000011   7B00         MOV     R3,#0x0
   \   000013   12....       LCALL   ??Onboard_wait?relay ; Banked call to: Onboard_wait
   1564          	ADD_SCENESELECTOR_APT8L08_SDA = 0;
   \   000016   C284         CLR     0x80.4
   1565          	MicroWait(5);	
   \   000018                ; Setup parameters for call to function Onboard_wait
   \   000018   02....       LJMP    ?Subroutine0 & 0xFFFF
   \   00001B                REQUIRE _A_P0
   1566          }
   1567          
   1568          /*********************************************************************
   1569           * @fn      addSceneSelector_APT8L08_I2C_stop
   1570           *
   1571           * @brief   APT8L08 i2c stop.
   1572           *
   1573           * @param   none
   1574           *
   1575           * @return  none
   1576           */

   \                                 In  segment BANKED_CODE, align 1, keep-with-next
   1577          static void addSceneSelector_APT8L08_I2C_stop(void)
   \                     addSceneSelector_APT8L08_I2C_stop:
   1578          {	
   \   000000   C082         PUSH    DPL
   \   000002   C083         PUSH    DPH
   \   000004                ; Saved register size: 2
   \   000004                ; Auto size: 0
   1579          	ADD_SCENESELECTOR_APT8L08_SDA = 0;
   \   000004   C284         CLR     0x80.4
   1580          	MicroWait(5);
   \   000006                ; Setup parameters for call to function Onboard_wait
   \   000006   7A05         MOV     R2,#0x5
   \   000008   7B00         MOV     R3,#0x0
   \   00000A   12....       LCALL   ??Onboard_wait?relay ; Banked call to: Onboard_wait
   1581          	ADD_SCENESELECTOR_APT8L08_SCL = 1;
   \   00000D   D285         SETB    0x80.5
   1582          	MicroWait(5);
   \   00000F                ; Setup parameters for call to function Onboard_wait
   \   00000F   7A05         MOV     R2,#0x5
   \   000011   7B00         MOV     R3,#0x0
   \   000013   12....       LCALL   ??Onboard_wait?relay ; Banked call to: Onboard_wait
   1583          	ADD_SCENESELECTOR_APT8L08_SDA = 1;
   \   000016   D284         SETB    0x80.4
   1584          	MicroWait(5);	
   \   000018                ; Setup parameters for call to function Onboard_wait
   \   000018   02....       LJMP    ?Subroutine0 & 0xFFFF
   \   00001B                REQUIRE _A_P0
   1585          }
   1586          
   1587          /*********************************************************************
   1588           * @fn      addSceneSelector_APT8L08_I2C_waitACK
   1589           *
   1590           * @brief   APT8L08 i2c wait ACK.
   1591           *
   1592           * @param   none
   1593           *
   1594           * @return  none
   1595           */

   \                                 In  segment BANKED_CODE, align 1, keep-with-next
   1596          static void addSceneSelector_APT8L08_I2C_waitACK(void)
   \                     addSceneSelector_APT8L08_I2C_waitACK:
   1597          {
   \   000000   C082         PUSH    DPL
   \   000002   C083         PUSH    DPH
   \   000004                ; Saved register size: 2
   \   000004                ; Auto size: 0
   1598          	uint8 bTemp;
   1599          
   1600          	ADD_SCENESELECTOR_APT8L08_SCL = 1;
   \   000004   D285         SETB    0x80.5
   1601          	ADD_SCENESELECTOR_APT8L08_SDA_DIR(ADD_SCENESELECTOR_INPUT);
   \   000006   53FDEF       ANL     0xfd,#0xef
   1602          	for (bTemp = 0; bTemp <= 250; bTemp++)
   \   000009   7800         MOV     R0,#0x0
   1603          	{
   1604          		if (ADD_SCENESELECTOR_APT8L08_SDA)
   \                     ??addSceneSelector_APT8L08_I2C_waitACK_0:
   \   00000B   A284         MOV     C,0x80.4
   \   00000D   5007         JNC     ??addSceneSelector_APT8L08_I2C_waitACK_1
   1605          		{
   1606          			// no operation
   1607          		} else 
   1608          		{
   1609          			break;
   1610          		}
   1611          	}
   \   00000F   08           INC     R0
   \   000010   E8           MOV     A,R0
   \   000011   C3           CLR     C
   \   000012   94FB         SUBB    A,#-0x5
   \   000014   40F5         JC      ??addSceneSelector_APT8L08_I2C_waitACK_0
   1612          
   1613          	if (bTemp >= 250)
   \                     ??addSceneSelector_APT8L08_I2C_waitACK_1:
   \   000016   E8           MOV     A,R0
   \   000017   C3           CLR     C
   \   000018   94FA         SUBB    A,#-0x6
   \   00001A   4006         JC      ??addSceneSelector_APT8L08_I2C_waitACK_2
   1614          	{
   1615          		aSceneSelectorApt8l08_i2cWaitStatus = 0x0a;
   \   00001C   90....       MOV     DPTR,#aSceneSelectorApt8l08_i2cWaitStatus
   \   00001F   740A         MOV     A,#0xa
   \   000021   F0           MOVX    @DPTR,A
   1616          	}
   1617          	ADD_SCENESELECTOR_APT8L08_SCL = 0;
   \                     ??addSceneSelector_APT8L08_I2C_waitACK_2:
   \   000022   C285         CLR     0x80.5
   1618          	ADD_SCENESELECTOR_APT8L08_SDA_DIR(ADD_SCENESELECTOR_OUTPUT);
   \   000024   43FD10       ORL     0xfd,#0x10
   1619          	MicroWait(5);
   \   000027                ; Setup parameters for call to function Onboard_wait
   \   000027   02....       LJMP    ?Subroutine0 & 0xFFFF
   \   00002A                REQUIRE _A_P0
   \   00002A                REQUIRE P0DIR
   1620          }
   1621          
   1622          /*********************************************************************
   1623           * @fn      addSceneSelector_APT8L08_I2C_noACK
   1624           *
   1625           * @brief   APT8L08 i2c no ACK.
   1626           *
   1627           * @param   none
   1628           *
   1629           * @return  none
   1630           */
   1631          static void addSceneSelector_APT8L08_I2C_noACK(void)
   1632          {
   1633          	ADD_SCENESELECTOR_APT8L08_SDA = 1;
   1634          	MicroWait(5);
   1635          	ADD_SCENESELECTOR_APT8L08_SCL = 1;
   1636          	MicroWait(5);
   1637          	ADD_SCENESELECTOR_APT8L08_SCL = 0;
   1638          	MicroWait(5);
   1639          	ADD_SCENESELECTOR_APT8L08_SDA = 0;
   1640          	MicroWait(5);
   1641          }
   1642          
   1643          /*********************************************************************
   1644           * @fn      addSceneSelector_APT8L08_I2C_ACK
   1645           *
   1646           * @brief   APT8L08 i2c ACK.
   1647           *
   1648           * @param   none
   1649           *
   1650           * @return  none
   1651           */
   1652          static void addSceneSelector_APT8L08_I2C_ACK(void)
                             ^
Warning[Pe177]: function "addSceneSelector_APT8L08_I2C_ACK" was declared but
          never referenced
   1653          {
   1654          	ADD_SCENESELECTOR_APT8L08_SDA = 0;
   1655          	MicroWait(5);
   1656          	ADD_SCENESELECTOR_APT8L08_SCL = 1;
   1657          	MicroWait(5);
   1658          	ADD_SCENESELECTOR_APT8L08_SCL = 0;
   1659          	MicroWait(5);
   1660          	ADD_SCENESELECTOR_APT8L08_SDA = 1;
   1661          	MicroWait(5);
   1662          }
   1663          
   1664          /*********************************************************************
   1665           * @fn      addSceneSelector_APT8L08_I2C_write8bit
   1666           *
   1667           * @brief   APT8L08 i2c write 8 bit.
   1668           *
   1669           * @param   none
   1670           *
   1671           * @return  none
   1672           */

   \                                 In  segment BANKED_CODE, align 1, keep-with-next
   1673          static void addSceneSelector_APT8L08_I2C_write8bit(uint8 dataWrite)
   \                     addSceneSelector_APT8L08_I2C_write8bit:
   1674          {
   \   000000                REQUIRE ?V0
   \   000000                REQUIRE ?V1
   \   000000   74F6         MOV     A,#-0xa
   \   000002   12....       LCALL   ?BANKED_ENTER_XDATA
   \   000005                ; Saved register size: 10
   \   000005                ; Auto size: 0
   \   000005   E9           MOV     A,R1
   \   000006   FF           MOV     R7,A
   1675          	ADD_SCENESELECTOR_APT8L08_SCL = 0;
   \   000007   C285         CLR     0x80.5
   1676          	MicroWait(5);
   \   000009                ; Setup parameters for call to function Onboard_wait
   \   000009   7A05         MOV     R2,#0x5
   \   00000B   7B00         MOV     R3,#0x0
   \   00000D   12....       LCALL   ??Onboard_wait?relay ; Banked call to: Onboard_wait
   1677          	for (uint8 i = 0; i < 8; i++)
   \   000010   7E00         MOV     R6,#0x0
   1678          	{
   1679          		if ((dataWrite << i) & 0x80)
   \                     ??addSceneSelector_APT8L08_I2C_write8bit_0:
   \   000012   8F..         MOV     ?V0,R7
   \   000014   75..00       MOV     ?V1,#0x0
   \   000017   EE           MOV     A,R6
   \   000018   78..         MOV     R0,#?V0
   \   00001A   12....       LCALL   ?S_SHL
   \   00001D   E5..         MOV     A,?V0
   \   00001F   5480         ANL     A,#0x80
   \   000021   6004         JZ      ??addSceneSelector_APT8L08_I2C_write8bit_1
   1680          			ADD_SCENESELECTOR_APT8L08_SDA = 1;
   \   000023   D284         SETB    0x80.4
   \   000025   8002         SJMP    ??addSceneSelector_APT8L08_I2C_write8bit_2
   1681          		else			
   1682          			ADD_SCENESELECTOR_APT8L08_SDA = 0;
   \                     ??addSceneSelector_APT8L08_I2C_write8bit_1:
   \   000027   C284         CLR     0x80.4
   1683          		MicroWait(5);
   \                     ??addSceneSelector_APT8L08_I2C_write8bit_2:
   \   000029                ; Setup parameters for call to function Onboard_wait
   \   000029   7A05         MOV     R2,#0x5
   \   00002B   7B00         MOV     R3,#0x0
   \   00002D   12....       LCALL   ??Onboard_wait?relay ; Banked call to: Onboard_wait
   1684          		ADD_SCENESELECTOR_APT8L08_SCL = 1;
   \   000030   D285         SETB    0x80.5
   1685          		MicroWait(5);
   \   000032                ; Setup parameters for call to function Onboard_wait
   \   000032   7A05         MOV     R2,#0x5
   \   000034   7B00         MOV     R3,#0x0
   \   000036   12....       LCALL   ??Onboard_wait?relay ; Banked call to: Onboard_wait
   1686          		ADD_SCENESELECTOR_APT8L08_SCL = 0;
   \   000039   C285         CLR     0x80.5
   1687          		MicroWait(5);		
   \   00003B                ; Setup parameters for call to function Onboard_wait
   \   00003B   7A05         MOV     R2,#0x5
   \   00003D   7B00         MOV     R3,#0x0
   \   00003F   12....       LCALL   ??Onboard_wait?relay ; Banked call to: Onboard_wait
   1688          	}
   \   000042   0E           INC     R6
   \   000043   EE           MOV     A,R6
   \   000044   C3           CLR     C
   \   000045   9408         SUBB    A,#0x8
   \   000047   40C9         JC      ??addSceneSelector_APT8L08_I2C_write8bit_0
   1689          	ADD_SCENESELECTOR_APT8L08_SCL = 0;
   \   000049   C285         CLR     0x80.5
   1690          	MicroWait(5);
   \   00004B                ; Setup parameters for call to function Onboard_wait
   \   00004B   7A05         MOV     R2,#0x5
   \   00004D   7B00         MOV     R3,#0x0
   \   00004F   12....       LCALL   ??Onboard_wait?relay ; Banked call to: Onboard_wait
   1691          	ADD_SCENESELECTOR_APT8L08_SDA = 1;
   \   000052   D284         SETB    0x80.4
   1692          	MicroWait(5);	
   \   000054                ; Setup parameters for call to function Onboard_wait
   \   000054   7A05         MOV     R2,#0x5
   \   000056   7B00         MOV     R3,#0x0
   \   000058   12....       LCALL   ??Onboard_wait?relay ; Banked call to: Onboard_wait
   1693          }
   \   00005B   02....       LJMP    ?Subroutine2 & 0xFFFF
   \   00005E                REQUIRE _A_P0
   1694          
   1695          /*********************************************************************
   1696           * @fn      addSceneSelector_APT8L08_I2C_read8bit
   1697           *
   1698           * @brief   APT8L08 i2c read 8 bit.
   1699           *
   1700           * @param   none
   1701           *
   1702           * @return  none
   1703           */
   1704          static uint8 addSceneSelector_APT8L08_I2C_read8bit(void)
   1705          {	
   1706          	uint8 dataReceive;
   1707          
   1708          	ADD_SCENESELECTOR_APT8L08_SDA_DIR(ADD_SCENESELECTOR_INPUT);
   1709          	for (uint8 i = 0; i < 8; i++)
   1710          	{
   1711          		dataReceive = dataReceive << 1;
   1712          		ADD_SCENESELECTOR_APT8L08_SCL = 1;
   1713          		MicroWait(5);
   1714          		if (ADD_SCENESELECTOR_APT8L08_SDA)
   1715          			dataReceive = dataReceive | 0x01;
   1716          		ADD_SCENESELECTOR_APT8L08_SCL = 0;
   1717          		MicroWait(5);		
   1718          	}
   1719          	ADD_SCENESELECTOR_APT8L08_SDA_DIR(ADD_SCENESELECTOR_OUTPUT);
   1720          	ADD_SCENESELECTOR_APT8L08_SCL = 0;
   1721          	ADD_SCENESELECTOR_APT8L08_SDA = 1;
   1722          	MicroWait(5);
   1723          
   1724          	return dataReceive;
   1725          }
   1726          
   1727          /*********************************************************************
   1728           * @fn      addSceneSelector_APT8L08_I2C_writeByte
   1729           *
   1730           * @brief   APT8L08 i2c write byte.
   1731           *
   1732           * @param   none
   1733           *
   1734           * @return  none
   1735           */
   1736          static void addSceneSelector_APT8L08_I2C_writeByte(uint8 address, uint8 dataWrite)
   1737          {
   1738          	addSceneSelector_APT8L08_I2C_start();
   1739          
   1740          	addSceneSelector_APT8L08_I2C_write8bit(0xac);
   1741          	addSceneSelector_APT8L08_I2C_waitACK();
   1742          	addSceneSelector_APT8L08_I2C_write8bit(address);
   1743          	addSceneSelector_APT8L08_I2C_waitACK();
   1744          
   1745          	addSceneSelector_APT8L08_I2C_write8bit(dataWrite);
   1746          	addSceneSelector_APT8L08_I2C_waitACK();
   1747          
   1748          	addSceneSelector_APT8L08_I2C_stop();
   1749          }
   1750          
   1751          /*********************************************************************
   1752           * @fn      addSceneSelector_APT8L08_I2C_readByte
   1753           *
   1754           * @brief   APT8L08 i2c read byte.
   1755           *
   1756           * @param   none
   1757           *
   1758           * @return  none
   1759           */

   \                                 In  segment BANKED_CODE, align 1, keep-with-next
   1760          static uint8 addSceneSelector_APT8L08_I2C_readByte(uint8 address)
   \                     addSceneSelector_APT8L08_I2C_readByte:
   1761          {
   \   000000                REQUIRE ?V0
   \   000000   74F7         MOV     A,#-0x9
   \   000002   12....       LCALL   ?BANKED_ENTER_XDATA
   \   000005                ; Saved register size: 9
   \   000005                ; Auto size: 0
   \   000005   89..         MOV     ?V0,R1
   1762          	uint8 dataReceive;
   1763          	
   1764          	addSceneSelector_APT8L08_I2C_start();
   \   000007                ; Setup parameters for call to function addSceneSelector_APT8L08_I2C_start
   \   000007   12....       LCALL   ??addSceneSelector_APT8L08_I2C_start?relay; Banked call to: addSceneSelector_APT8L08_I2C_start
   1765          
   1766          	addSceneSelector_APT8L08_I2C_write8bit(0xac);
   \   00000A                ; Setup parameters for call to function addSceneSelector_APT8L08_I2C_write8bit
   \   00000A   79AC         MOV     R1,#-0x54
   \   00000C   12....       LCALL   ??addSceneSelector_APT8L08_I2C_write8bit?relay; Banked call to: addSceneSelector_APT8L08_I2C_write8bit
   1767          	addSceneSelector_APT8L08_I2C_waitACK();
   \   00000F                ; Setup parameters for call to function addSceneSelector_APT8L08_I2C_waitACK
   \   00000F   12....       LCALL   ??addSceneSelector_APT8L08_I2C_waitACK?relay; Banked call to: addSceneSelector_APT8L08_I2C_waitACK
   1768          	addSceneSelector_APT8L08_I2C_write8bit(address);
   \   000012                ; Setup parameters for call to function addSceneSelector_APT8L08_I2C_write8bit
   \   000012   A9..         MOV     R1,?V0
   \   000014   12....       LCALL   ??addSceneSelector_APT8L08_I2C_write8bit?relay; Banked call to: addSceneSelector_APT8L08_I2C_write8bit
   1769          	addSceneSelector_APT8L08_I2C_waitACK();
   \   000017                ; Setup parameters for call to function addSceneSelector_APT8L08_I2C_waitACK
   \   000017   12....       LCALL   ??addSceneSelector_APT8L08_I2C_waitACK?relay; Banked call to: addSceneSelector_APT8L08_I2C_waitACK
   1770          
   1771          	addSceneSelector_APT8L08_I2C_start();
   \   00001A                ; Setup parameters for call to function addSceneSelector_APT8L08_I2C_start
   \   00001A   12....       LCALL   ??addSceneSelector_APT8L08_I2C_start?relay; Banked call to: addSceneSelector_APT8L08_I2C_start
   1772          
   1773          	addSceneSelector_APT8L08_I2C_write8bit(0xad);
   \   00001D                ; Setup parameters for call to function addSceneSelector_APT8L08_I2C_write8bit
   \   00001D   79AD         MOV     R1,#-0x53
   \   00001F   12....       LCALL   ??addSceneSelector_APT8L08_I2C_write8bit?relay; Banked call to: addSceneSelector_APT8L08_I2C_write8bit
   1774          	addSceneSelector_APT8L08_I2C_waitACK();
   \   000022                ; Setup parameters for call to function addSceneSelector_APT8L08_I2C_waitACK
   \   000022   12....       LCALL   ??addSceneSelector_APT8L08_I2C_waitACK?relay; Banked call to: addSceneSelector_APT8L08_I2C_waitACK
   1775          
   1776          	dataReceive = addSceneSelector_APT8L08_I2C_read8bit();
   \   000025   53FDEF       ANL     0xfd,#0xef
   \   000028   7F08         MOV     R7,#0x8
   \                     ??addSceneSelector_APT8L08_I2C_readByte_0:
   \   00002A   EE           MOV     A,R6
   \   00002B   C3           CLR     C
   \   00002C   33           RLC     A
   \   00002D   FE           MOV     R6,A
   \   00002E   D285         SETB    0x80.5
   \   000030                ; Setup parameters for call to function Onboard_wait
   \   000030   7A05         MOV     R2,#0x5
   \   000032   7B00         MOV     R3,#0x0
   \   000034   12....       LCALL   ??Onboard_wait?relay ; Banked call to: Onboard_wait
   \   000037   A284         MOV     C,0x80.4
   \   000039   5004         JNC     ??addSceneSelector_APT8L08_I2C_readByte_1
   \   00003B   EE           MOV     A,R6
   \   00003C   D2E0         SETB    0xE0 /* A   */.0
   \   00003E   FE           MOV     R6,A
   \                     ??addSceneSelector_APT8L08_I2C_readByte_1:
   \   00003F   C285         CLR     0x80.5
   \   000041                ; Setup parameters for call to function Onboard_wait
   \   000041   7A05         MOV     R2,#0x5
   \   000043   7B00         MOV     R3,#0x0
   \   000045   12....       LCALL   ??Onboard_wait?relay ; Banked call to: Onboard_wait
   \   000048   1F           DEC     R7
   \   000049   EF           MOV     A,R7
   \   00004A   70DE         JNZ     ??addSceneSelector_APT8L08_I2C_readByte_0
   \   00004C   43FD10       ORL     0xfd,#0x10
   \   00004F   C285         CLR     0x80.5
   \   000051   D284         SETB    0x80.4
   \   000053                ; Setup parameters for call to function Onboard_wait
   \   000053   7A05         MOV     R2,#0x5
   \   000055   7B00         MOV     R3,#0x0
   \   000057   12....       LCALL   ??Onboard_wait?relay ; Banked call to: Onboard_wait
   1777          	addSceneSelector_APT8L08_I2C_noACK();
   \   00005A   D284         SETB    0x80.4
   \   00005C                ; Setup parameters for call to function Onboard_wait
   \   00005C   7A05         MOV     R2,#0x5
   \   00005E   7B00         MOV     R3,#0x0
   \   000060   12....       LCALL   ??Onboard_wait?relay ; Banked call to: Onboard_wait
   \   000063   D285         SETB    0x80.5
   \   000065                ; Setup parameters for call to function Onboard_wait
   \   000065   7A05         MOV     R2,#0x5
   \   000067   7B00         MOV     R3,#0x0
   \   000069   12....       LCALL   ??Onboard_wait?relay ; Banked call to: Onboard_wait
   \   00006C   C285         CLR     0x80.5
   \   00006E                ; Setup parameters for call to function Onboard_wait
   \   00006E   7A05         MOV     R2,#0x5
   \   000070   7B00         MOV     R3,#0x0
   \   000072   12....       LCALL   ??Onboard_wait?relay ; Banked call to: Onboard_wait
   \   000075   C284         CLR     0x80.4
   \   000077                ; Setup parameters for call to function Onboard_wait
   \   000077   7A05         MOV     R2,#0x5
   \   000079   7B00         MOV     R3,#0x0
   \   00007B   12....       LCALL   ??Onboard_wait?relay ; Banked call to: Onboard_wait
   1778          	
   1779          	addSceneSelector_APT8L08_I2C_stop();
   \   00007E                ; Setup parameters for call to function addSceneSelector_APT8L08_I2C_stop
   \   00007E   12....       LCALL   ??addSceneSelector_APT8L08_I2C_stop?relay; Banked call to: addSceneSelector_APT8L08_I2C_stop
   1780          
   1781          	return dataReceive;
   \   000081   EE           MOV     A,R6
   \   000082   F9           MOV     R1,A
   \   000083   02....       LJMP    ?Subroutine1 & 0xFFFF
   \   000086                REQUIRE _A_P0
   \   000086                REQUIRE P0DIR
   1782          }
   1783          
   1784          /*********************************************************************
   1785           * @fn      addSceneSelector_APT8L08_I2C_writeRegister
   1786           *
   1787           * @brief   APT8L08 i2c write register.
   1788           *
   1789           * @param   none
   1790           *
   1791           * @return  none
   1792           */

   \                                 In  segment BANKED_CODE, align 1, keep-with-next
   1793          static void addSceneSelector_APT8L08_I2C_writeRegister(uint8 address, uint8 dataWrite)
   \                     addSceneSelector_APT8L08_I2C_writeRegister:
   1794          {
   \   000000   74F7         MOV     A,#-0x9
   \   000002   12....       LCALL   ?BANKED_ENTER_XDATA
   \   000005                ; Saved register size: 9
   \   000005                ; Auto size: 0
   \   000005   E9           MOV     A,R1
   \   000006   FE           MOV     R6,A
   \   000007   EA           MOV     A,R2
   \   000008   FF           MOV     R7,A
   1795          	do
   1796          	{
   1797          		addSceneSelector_APT8L08_I2C_writeByte(address, dataWrite);
   \                     ??addSceneSelector_APT8L08_I2C_writeRegister_0:
   \   000009                ; Setup parameters for call to function addSceneSelector_APT8L08_I2C_start
   \   000009   12....       LCALL   ??addSceneSelector_APT8L08_I2C_start?relay; Banked call to: addSceneSelector_APT8L08_I2C_start
   \   00000C                ; Setup parameters for call to function addSceneSelector_APT8L08_I2C_write8bit
   \   00000C   79AC         MOV     R1,#-0x54
   \   00000E   12....       LCALL   ??addSceneSelector_APT8L08_I2C_write8bit?relay; Banked call to: addSceneSelector_APT8L08_I2C_write8bit
   \   000011                ; Setup parameters for call to function addSceneSelector_APT8L08_I2C_waitACK
   \   000011   12....       LCALL   ??addSceneSelector_APT8L08_I2C_waitACK?relay; Banked call to: addSceneSelector_APT8L08_I2C_waitACK
   \   000014                ; Setup parameters for call to function addSceneSelector_APT8L08_I2C_write8bit
   \   000014   EE           MOV     A,R6
   \   000015   F9           MOV     R1,A
   \   000016   12....       LCALL   ??addSceneSelector_APT8L08_I2C_write8bit?relay; Banked call to: addSceneSelector_APT8L08_I2C_write8bit
   \   000019                ; Setup parameters for call to function addSceneSelector_APT8L08_I2C_waitACK
   \   000019   12....       LCALL   ??addSceneSelector_APT8L08_I2C_waitACK?relay; Banked call to: addSceneSelector_APT8L08_I2C_waitACK
   \   00001C                ; Setup parameters for call to function addSceneSelector_APT8L08_I2C_write8bit
   \   00001C   EF           MOV     A,R7
   \   00001D   F9           MOV     R1,A
   \   00001E   12....       LCALL   ??addSceneSelector_APT8L08_I2C_write8bit?relay; Banked call to: addSceneSelector_APT8L08_I2C_write8bit
   \   000021                ; Setup parameters for call to function addSceneSelector_APT8L08_I2C_waitACK
   \   000021   12....       LCALL   ??addSceneSelector_APT8L08_I2C_waitACK?relay; Banked call to: addSceneSelector_APT8L08_I2C_waitACK
   \   000024                ; Setup parameters for call to function addSceneSelector_APT8L08_I2C_stop
   \   000024   12....       LCALL   ??addSceneSelector_APT8L08_I2C_stop?relay; Banked call to: addSceneSelector_APT8L08_I2C_stop
   1798          	} while (dataWrite != addSceneSelector_APT8L08_I2C_readByte(address));
   \   000027                ; Setup parameters for call to function addSceneSelector_APT8L08_I2C_readByte
   \   000027   EE           MOV     A,R6
   \   000028   F9           MOV     R1,A
   \   000029   12....       LCALL   ??addSceneSelector_APT8L08_I2C_readByte?relay; Banked call to: addSceneSelector_APT8L08_I2C_readByte
   \   00002C   E9           MOV     A,R1
   \   00002D   6F           XRL     A,R7
   \   00002E   70D9         JNZ     ??addSceneSelector_APT8L08_I2C_writeRegister_0
   1799          }
   \   000030   02....       LJMP    ?Subroutine1 & 0xFFFF

   \                                 In  segment XDATA_ID, align 1, keep-with-next
   \                     `?<Initializer for aSceneSelectorEndpoint1_Scen`:
   \   000000   0100         DW 1

   \                                 In  segment XDATA_ID, align 1, keep-with-next
   \                     `?<Initializer for aSceneSelectorEndpoint2_Scen`:
   \   000000   0200         DW 2

   \                                 In  segment XDATA_ID, align 1, keep-with-next
   \                     `?<Initializer for aSceneSelectorEndpoint3_Scen`:
   \   000000   0300         DW 3

   \                                 In  segment XDATA_ID, align 1, keep-with-next
   \                     `?<Initializer for aSceneSelectorEndpoint4_Scen`:
   \   000000   0400         DW 4

   \                                 In  segment XDATA_ID, align 1, keep-with-next
   \                     `?<Initializer for aSceneSelectorEndpoint1_Grou`:
   \   000000   0100         DW 1

   \                                 In  segment XDATA_ID, align 1, keep-with-next
   \                     `?<Initializer for aSceneSelectorEndpoint2_Grou`:
   \   000000   0200         DW 2

   \                                 In  segment XDATA_ID, align 1, keep-with-next
   \                     `?<Initializer for aSceneSelectorEndpoint3_Grou`:
   \   000000   0300         DW 3

   \                                 In  segment XDATA_ID, align 1, keep-with-next
   \                     `?<Initializer for aSceneSelectorEndpoint4_Grou`:
   \   000000   0400         DW 4

   \                                 In  segment XDATA_ID, align 1, keep-with-next
   \                     `?<Initializer for aSceneSelectorCurrentEndpoin`:
   \   000000   01           DB 1

   \                                 In  segment XDATA_ROM_C, align 1
   \                     __Constant_1388:
   \   000000   88130000     DD 5000

   \                                 In  segment XDATA_ROM_C, align 1
   \                     __Constant_3e8:
   \   000000   E8030000     DD 1000

   \                                 In  segment BANK_RELAYS, align 1
   \                     ??addSceneSelector_init?relay:
   \   000000   12....       LCALL   ?BDISPATCH
   \   000003   ......       DC24    addSceneSelector_init

   \                                 In  segment BANK_RELAYS, align 1
   \                     ??addSceneSelector_eventLoop?relay:
   \   000000   12....       LCALL   ?BDISPATCH
   \   000003   ......       DC24    addSceneSelector_eventLoop

   \                                 In  segment BANK_RELAYS, align 1
   \                     ??addSceneSelector_handleOneTime?relay:
   \   000000   12....       LCALL   ?BDISPATCH
   \   000003   ......       DC24    addSceneSelector_handleOneTime

   \                                 In  segment BANK_RELAYS, align 1
   \                     ??addSceneSelector_isrPort0?relay:
   \   000000   12....       LCALL   ?BDISPATCH
   \   000003   ......       DC24    addSceneSelector_isrPort0

   \                                 In  segment BANK_RELAYS, align 1
   \                     ??addSceneSelector_isrPort1?relay:
   \   000000   12....       LCALL   ?BDISPATCH
   \   000003   ......       DC24    addSceneSelector_isrPort1

   \                                 In  segment BANK_RELAYS, align 1
   \                     ??addSceneSelector_isrPort2?relay:
   \   000000   12....       LCALL   ?BDISPATCH
   \   000003   ......       DC24    addSceneSelector_isrPort2

   \                                 In  segment BANK_RELAYS, align 1
   \                     ??addSceneSelector_sendDestinationAddressConfig:
   \   000000   12....       LCALL   ?BDISPATCH
   \   000003   ......       DC24    addSceneSelector_sendDestinationAddressConfigure

   \                                 In  segment BANK_RELAYS, align 1
   \                     ??addSceneSelector_sendLevelControlMove?relay:
   \   000000   12....       LCALL   ?BDISPATCH
   \   000003   ......       DC24    addSceneSelector_sendLevelControlMove

   \                                 In  segment BANK_RELAYS, align 1
   \                     ??addSceneSelector_clearKeyData?relay:
   \   000000   12....       LCALL   ?BDISPATCH
   \   000003   ......       DC24    addSceneSelector_clearKeyData

   \                                 In  segment BANK_RELAYS, align 1
   \                     ??addSceneSelector_factoryResetCheck?relay:
   \   000000   12....       LCALL   ?BDISPATCH
   \   000003   ......       DC24    addSceneSelector_factoryResetCheck

   \                                 In  segment BANK_RELAYS, align 1
   \                     ??addSceneSelector_wakeupCheck?relay:
   \   000000   12....       LCALL   ?BDISPATCH
   \   000003   ......       DC24    addSceneSelector_wakeupCheck

   \                                 In  segment BANK_RELAYS, align 1
   \                     ??addSceneSelector_setGroupID?relay:
   \   000000   12....       LCALL   ?BDISPATCH
   \   000003   ......       DC24    addSceneSelector_setGroupID

   \                                 In  segment BANK_RELAYS, align 1
   \                     ??addSceneSelector_setSceneID?relay:
   \   000000   12....       LCALL   ?BDISPATCH
   \   000003   ......       DC24    addSceneSelector_setSceneID

   \                                 In  segment BANK_RELAYS, align 1
   \                     ??addSceneSelector_APT8L08_init?relay:
   \   000000   12....       LCALL   ?BDISPATCH
   \   000003   ......       DC24    addSceneSelector_APT8L08_init

   \                                 In  segment BANK_RELAYS, align 1
   \                     ??addSceneSelector_APT8L08_initHal?relay:
   \   000000   12....       LCALL   ?BDISPATCH
   \   000003   ......       DC24    addSceneSelector_APT8L08_initHal

   \                                 In  segment BANK_RELAYS, align 1
   \                     ??addSceneSelector_APT8L08_initAl?relay:
   \   000000   12....       LCALL   ?BDISPATCH
   \   000003   ......       DC24    addSceneSelector_APT8L08_initAl

   \                                 In  segment BANK_RELAYS, align 1
   \                     ??addSceneSelector_APT8L08_I2C_start?relay:
   \   000000   12....       LCALL   ?BDISPATCH
   \   000003   ......       DC24    addSceneSelector_APT8L08_I2C_start

   \                                 In  segment BANK_RELAYS, align 1
   \                     ??addSceneSelector_APT8L08_I2C_stop?relay:
   \   000000   12....       LCALL   ?BDISPATCH
   \   000003   ......       DC24    addSceneSelector_APT8L08_I2C_stop

   \                                 In  segment BANK_RELAYS, align 1
   \                     ??addSceneSelector_APT8L08_I2C_waitACK?relay:
   \   000000   12....       LCALL   ?BDISPATCH
   \   000003   ......       DC24    addSceneSelector_APT8L08_I2C_waitACK

   \                                 In  segment BANK_RELAYS, align 1
   \                     ??addSceneSelector_APT8L08_I2C_write8bit?relay:
   \   000000   12....       LCALL   ?BDISPATCH
   \   000003   ......       DC24    addSceneSelector_APT8L08_I2C_write8bit

   \                                 In  segment BANK_RELAYS, align 1
   \                     ??addSceneSelector_APT8L08_I2C_readByte?relay:
   \   000000   12....       LCALL   ?BDISPATCH
   \   000003   ......       DC24    addSceneSelector_APT8L08_I2C_readByte

   \                                 In  segment BANK_RELAYS, align 1
   \                     ??addSceneSelector_APT8L08_I2C_writeRegister?re:
   \   000000   12....       LCALL   ?BDISPATCH
   \   000003   ......       DC24    addSceneSelector_APT8L08_I2C_writeRegister
   1800          	
   1801          #else
   1802          #endif
   1803          

   Maximum stack usage in bytes:

   ISTACK XSTACK Function
   ------ ------ --------
      0     18   addSceneSelector_APT8L08_I2C_readByte
        0      9   -> Onboard_wait
        0      9   -> addSceneSelector_APT8L08_I2C_start
        0      9   -> addSceneSelector_APT8L08_I2C_stop
        0      9   -> addSceneSelector_APT8L08_I2C_waitACK
        0      9   -> addSceneSelector_APT8L08_I2C_write8bit
      2      9   addSceneSelector_APT8L08_I2C_start
        2      0   -> Onboard_wait
      2      9   addSceneSelector_APT8L08_I2C_stop
        2      0   -> Onboard_wait
      2      9   addSceneSelector_APT8L08_I2C_waitACK
        2      0   -> Onboard_wait
      0     19   addSceneSelector_APT8L08_I2C_write8bit
        0     10   -> Onboard_wait
      0     18   addSceneSelector_APT8L08_I2C_writeRegister
        0      9   -> addSceneSelector_APT8L08_I2C_readByte
        0      9   -> addSceneSelector_APT8L08_I2C_start
        0      9   -> addSceneSelector_APT8L08_I2C_stop
        0      9   -> addSceneSelector_APT8L08_I2C_waitACK
        0      9   -> addSceneSelector_APT8L08_I2C_write8bit
      2      0   addSceneSelector_APT8L08_init
        2      0   -> addCommon_delayMS
        2      0   -> addSceneSelector_APT8L08_initAl
        2      0   -> addSceneSelector_APT8L08_initHal
      0      9   addSceneSelector_APT8L08_initAl
        0      9   -> addCommon_delayMS
        0      9   -> addSceneSelector_APT8L08_I2C_writeRegister
      2      0   addSceneSelector_APT8L08_initHal
        2      0   -> Onboard_wait
      2     10   addSceneSelector_clearKeyData
      0     13   addSceneSelector_eventLoop
        0      9   -> addCommon_eventLoop
        0      9   -> addCommon_polling
        0      9   -> addCommon_sleep
        0      9   -> addCommon_wakeup
        0      9   -> addSceneSelector_handleOneTime
        0     13   -> osal_start_timerEx
        0      9   -> osal_stop_timerEx
      2      0   addSceneSelector_factoryResetCheck
        2      0   -> addSceneSelector_APT8L08_I2C_readByte
      0     30   addSceneSelector_handleOneTime
        0     10   -> addCommon_factoryReset
        0     10   -> addCommon_handleOneTime
        0     10   -> addCommon_wakeup
        0     10   -> addSceneSelector_clearKeyData
        0     10   -> addSceneSelector_sendDestinationAddressConfigure
        0     15   -> zclGeneral_SendLevelControlStepRequest
        0     14   -> zclGeneral_SendSceneRequest
        0     21   -> zcl_SendCommand
      2      0   addSceneSelector_init
        2      0   -> addCommon_init
        2      0   -> addCommon_wakeup
        2      0   -> addSceneSelector_APT8L08_init
      0      0   addSceneSelector_isrPort0
      0      0   addSceneSelector_isrPort1
      0      9   addSceneSelector_isrPort2
        0      9   -> Onboard_wait
        0      9   -> addCommon_atNormalWorkState
        0      9   -> addCommon_handleKeyDown
        0      9   -> addCommon_handleKeyUp
        0      9   -> addSceneSelector_APT8L08_I2C_readByte
        0      9   -> addSceneSelector_clearKeyData
        0      9   -> osal_set_event
        0      9   -> osal_stop_timerEx
      2     10   addSceneSelector_sendDestinationAddressConfigure
      0     12   addSceneSelector_sendLevelControlMove
        0      9   -> addSceneSelector_sendDestinationAddressConfigure
        0     12   -> zclGeneral_SendLevelControlMoveRequest
      0     14   addSceneSelector_setGroupID
        0     14   -> osal_nv_write
      0     14   addSceneSelector_setSceneID
        0     14   -> osal_nv_write
      2      0   addSceneSelector_wakeupCheck
        2      0   -> addSceneSelector_APT8L08_I2C_readByte


   Segment part sizes:

   Bytes  Function/Label
   -----  --------------
       1  ?<Initializer for aSceneSelectorCurrentEndpoin
       2  ?<Initializer for aSceneSelectorEndpoint1_Grou
       2  ?<Initializer for aSceneSelectorEndpoint1_Scen
       2  ?<Initializer for aSceneSelectorEndpoint2_Grou
       2  ?<Initializer for aSceneSelectorEndpoint2_Scen
       2  ?<Initializer for aSceneSelectorEndpoint3_Grou
       2  ?<Initializer for aSceneSelectorEndpoint3_Scen
       2  ?<Initializer for aSceneSelectorEndpoint4_Grou
       2  ?<Initializer for aSceneSelectorEndpoint4_Scen
      14  ??Subroutine15_0
       6  ??Subroutine16_0
       6  ??Subroutine17_0
       6  ??Subroutine18_0
       6  ??Subroutine19_0
       6  ??Subroutine20_0
       6  ??Subroutine21_0
       7  ??Subroutine22_0
       6  ??Subroutine23_0
       6  ??Subroutine24_0
       6  ??addSceneSelector_APT8L08_I2C_readByte?relay
       6  ??addSceneSelector_APT8L08_I2C_start?relay
       6  ??addSceneSelector_APT8L08_I2C_stop?relay
       6  ??addSceneSelector_APT8L08_I2C_waitACK?relay
       6  ??addSceneSelector_APT8L08_I2C_write8bit?relay
       6  ??addSceneSelector_APT8L08_I2C_writeRegister?re
       6  ??addSceneSelector_APT8L08_init?relay
       6  ??addSceneSelector_APT8L08_initAl?relay
       6  ??addSceneSelector_APT8L08_initHal?relay
       6  ??addSceneSelector_clearKeyData?relay
       6  ??addSceneSelector_eventLoop?relay
       6  ??addSceneSelector_factoryResetCheck?relay
       6  ??addSceneSelector_handleOneTime?relay
       6  ??addSceneSelector_init?relay
       6  ??addSceneSelector_isrPort0?relay
       6  ??addSceneSelector_isrPort1?relay
       6  ??addSceneSelector_isrPort2?relay
       6  ??addSceneSelector_sendDestinationAddressConfig
       6  ??addSceneSelector_sendLevelControlMove?relay
       6  ??addSceneSelector_setGroupID?relay
       6  ??addSceneSelector_setSceneID?relay
       6  ??addSceneSelector_wakeupCheck?relay
       7  ?Subroutine0
       5  ?Subroutine1
       3  ?Subroutine10
       3  ?Subroutine11
       4  ?Subroutine12
      13  ?Subroutine13
       6  ?Subroutine14
       5  ?Subroutine2
       7  ?Subroutine3
       5  ?Subroutine4
       4  ?Subroutine5
       3  ?Subroutine6
       3  ?Subroutine7
       3  ?Subroutine8
       3  ?Subroutine9
       1  APCFG
       1  IEN2
       1  IP0
       1  IP1
       1  P0DIR
       1  P0INP
       1  P0SEL
       1  P2DIR
       1  P2IEN
       1  P2IFG
       1  P2INP
       1  P2SEL
       1  PICTL
       1  _A_IEN0
       1  _A_IRCON2
       1  _A_P0
       1  _A_P2
       4  __Constant_1388
       4  __Constant_3e8
       2  aSceneSelectorApt8l08_16bitKeyMap
       2  aSceneSelectorApt8l08_16bitKeyMap_saved
       1  aSceneSelectorApt8l08_i2cWaitStatus
      16  aSceneSelectorApt8l08_registerAddress
      16  aSceneSelectorApt8l08_registerData
      16  aSceneSelectorApt8l08_tkFin8bit
       1  aSceneSelectorCurrentEndpoint
       2  aSceneSelectorEndpoint1_GroupID
       2  aSceneSelectorEndpoint1_SceneID
       2  aSceneSelectorEndpoint2_GroupID
       2  aSceneSelectorEndpoint2_SceneID
       2  aSceneSelectorEndpoint3_GroupID
       2  aSceneSelectorEndpoint3_SceneID
       2  aSceneSelectorEndpoint4_GroupID
       2  aSceneSelectorEndpoint4_SceneID
       1  aSceneSelectorFactoryReset
       1  aSceneSelectorKeyDimmingDown
       1  aSceneSelectorKeyDimmingUp
       1  aSceneSelectorKeyScene1
       1  aSceneSelectorKeyScene2
       1  aSceneSelectorKeyScene3
       1  aSceneSelectorKeyScene4
       1  aSceneSelectorWakeup
     134  addSceneSelector_APT8L08_I2C_readByte
      27  addSceneSelector_APT8L08_I2C_start
      27  addSceneSelector_APT8L08_I2C_stop
      42  addSceneSelector_APT8L08_I2C_waitACK
      94  addSceneSelector_APT8L08_I2C_write8bit
      51  addSceneSelector_APT8L08_I2C_writeRegister
      20  addSceneSelector_APT8L08_init
     274  addSceneSelector_APT8L08_initAl
      74  addSceneSelector_APT8L08_initHal
      31  addSceneSelector_clearKeyData
     176  addSceneSelector_eventLoop
      61  addSceneSelector_factoryResetCheck
     976  addSceneSelector_handleOneTime
      36  addSceneSelector_init
       3  addSceneSelector_isrPort0
       3  addSceneSelector_isrPort1
     609  addSceneSelector_isrPort2
      67  addSceneSelector_sendDestinationAddressConfigure
     107  addSceneSelector_sendLevelControlMove
     195  addSceneSelector_setGroupID
     212  addSceneSelector_setSceneID
      62  addSceneSelector_wakeupCheck

 
 3 424 bytes in segment BANKED_CODE
   132 bytes in segment BANK_RELAYS
    17 bytes in segment SFR_AN
    17 bytes in segment XDATA_I
    17 bytes in segment XDATA_ID
    56 bytes in segment XDATA_ROM_C
    13 bytes in segment XDATA_Z
 
 3 573 bytes of CODE  memory
    48 bytes of CONST memory (+  8 bytes shared)
     0 bytes of DATA  memory (+ 17 bytes shared)
    30 bytes of XDATA memory

Errors: none
Warnings: 3
