///////////////////////////////////////////////////////////////////////////////
//
// IAR C/C++ Compiler V9.10.1.2146 for 8051               22/Jan/2018  15:11:40
// Copyright 2004-2014 IAR Systems AB.
// Standalone license - IAR Embedded Workbench for 8051
//
//    Core               =  plain
//    Code model         =  banked
//    Data model         =  large
//    Calling convention =  xdata reentrant
//    Constant location  =  data_rom
//    Dptr setup         =  1,16
//                          
//    Source file        =  
//        E:\GitHub\面板Z-Stack Home 1.2.2a.44539\Components\stack\zdo\ZDApp.c
//    Command line       =  
//        -f "E:\GitHub\面板Z-Stack Home
//        1.2.2a.44539\Projects\zstack\HomeAutomation\SceneSelector\CC2530DB\..\..\..\Tools\CC2530DB\f8wEndev.cfg"
//        (-DCPU32MHZ -DROOT=__near_func -DMAC_CFG_TX_DATA_MAX=3
//        -DMAC_CFG_TX_MAX=6 -DMAC_CFG_RX_MAX=3) -f "E:\GitHub\面板Z-Stack Home
//        1.2.2a.44539\Projects\zstack\HomeAutomation\SceneSelector\CC2530DB\..\..\..\Tools\CC2530DB\f8wConfig.cfg"
//        (-DZIGBEEPRO -DSECURE=1 -DZG_SECURE_DYNAMIC=0 -DREFLECTOR
//        -DDEFAULT_CHANLIST=0x07FFF800 -DZDAPP_CONFIG_PAN_ID=0xFFFF
//        -DNWK_START_DELAY=100 -DEXTENDED_JOINING_RANDOM_MASK=0x007F
//        -DBEACON_REQUEST_DELAY=100 -DBEACON_REQ_DELAY_MASK=0x00FF
//        -DLINK_STATUS_JITTER_MASK=0x007F -DROUTE_EXPIRY_TIME=30
//        -DAPSC_ACK_WAIT_DURATION_POLLED=3000 -DNWK_INDIRECT_MSG_TIMEOUT=7
//        -DMAX_RREQ_ENTRIES=8 -DAPSC_MAX_FRAME_RETRIES=3
//        -DNWK_MAX_DATA_RETRIES=2 -DMAX_POLL_FAILURE_RETRIES=2 -DMAX_BCAST=9
//        -DAPS_MAX_GROUPS=16 -DMAX_RTG_ENTRIES=40 -DNWK_MAX_BINDING_ENTRIES=4
//        -DMAX_BINDING_CLUSTER_IDS=4 "-DDEFAULT_KEY={0x01, 0x03, 0x05, 0x07,
//        0x09, 0x0B, 0x0D, 0x0F, 0x00, 0x02, 0x04, 0x06, 0x08, 0x0A, 0x0C,
//        0x0D}" -DMAC_MAX_FRAME_SIZE=116 -DZDNWKMGR_MIN_TRANSMISSIONS=20
//        "-DCONST=const __code" -DGENERIC=__generic -DRFD_RCVC_ALWAYS_ON=FALSE
//        -DPOLL_RATE=120000 -DQUEUED_POLL_RATE=100 -DRESPONSE_POLL_RATE=100
//        -DREJOIN_POLL_RATE=440 -DREJOIN_BACKOFF=900000 -DREJOIN_SCAN=180000)
//        -f "E:\GitHub\面板Z-Stack Home
//        1.2.2a.44539\Projects\zstack\HomeAutomation\SceneSelector\CC2530DB\..\..\..\Tools\CC2530DB\f8wZCL.cfg"
//        "E:\GitHub\面板Z-Stack Home
//        1.2.2a.44539\Components\stack\zdo\ZDApp.c" -D SCENE_SELECTOR_TOUCHKEY
//        -D xSCENE_SELECTOR -D ISR_KEYINTERRUPT -D
//        OSC32K_CRYSTAL_INSTALLED=FALSE -D xxHAL_PA_LNA -D SECURE=1 -D
//        TC_LINKKEY_JOIN -D NV_INIT -D NV_RESTORE -D POWER_SAVING -D
//        NWK_AUTO_POLL -D xHOLD_AUTO_START -D xZTOOL_P1 -D MT_TASK -D
//        MT_APP_FUNC -D MT_SYS_FUNC -D MT_ZDO_FUNC -D xLCD_SUPPORTED=DEBUG -D
//        MULTICAST_ENABLED=FALSE -D ZCL_READ -D ZCL_WRITE -D ZCL_REPORT -D
//        xZCL_EZMODE -D ZCL_BASIC -D ZCL_IDENTIFY -D ZCL_GROUPS -D ZCL_SCENES
//        -D ZCL_ON_OFF -D ZCL_LEVEL_CTRL -D ZCL_DIAGNOSTIC -D
//        FEATURE_SYSTEM_STATS -lC "E:\GitHub\面板Z-Stack Home
//        1.2.2a.44539\Projects\zstack\HomeAutomation\SceneSelector\CC2530DB\EndDeviceEB\List\"
//        -lA "E:\GitHub\面板Z-Stack Home
//        1.2.2a.44539\Projects\zstack\HomeAutomation\SceneSelector\CC2530DB\EndDeviceEB\List\"
//        --diag_suppress Pe001,Pa010 -o "E:\GitHub\面板Z-Stack Home
//        1.2.2a.44539\Projects\zstack\HomeAutomation\SceneSelector\CC2530DB\EndDeviceEB\Obj\"
//        -e --debug --core=plain --dptr=16,1 --data_model=large
//        --code_model=banked --calling_convention=xdata_reentrant
//        --place_constants=data_rom --nr_virtual_regs 16 -I
//        "E:\GitHub\面板Z-Stack Home
//        1.2.2a.44539\Projects\zstack\HomeAutomation\SceneSelector\CC2530DB\..\..\Add\AddSceneSelector\"
//        -I "E:\GitHub\面板Z-Stack Home
//        1.2.2a.44539\Projects\zstack\HomeAutomation\SceneSelector\CC2530DB\..\..\Add\AddCommon\"
//        -I "E:\GitHub\面板Z-Stack Home
//        1.2.2a.44539\Projects\zstack\HomeAutomation\SceneSelector\CC2530DB\..\..\Add\"
//        -I "E:\GitHub\面板Z-Stack Home
//        1.2.2a.44539\Projects\zstack\HomeAutomation\SceneSelector\CC2530DB\"
//        -I "E:\GitHub\面板Z-Stack Home
//        1.2.2a.44539\Projects\zstack\HomeAutomation\SceneSelector\CC2530DB\..\Source\"
//        -I "E:\GitHub\面板Z-Stack Home
//        1.2.2a.44539\Projects\zstack\HomeAutomation\SceneSelector\CC2530DB\..\..\Source\"
//        -I "E:\GitHub\面板Z-Stack Home
//        1.2.2a.44539\Projects\zstack\HomeAutomation\SceneSelector\CC2530DB\..\..\..\ZMain\TI2530DB\"
//        -I "E:\GitHub\面板Z-Stack Home
//        1.2.2a.44539\Projects\zstack\HomeAutomation\SceneSelector\CC2530DB\..\..\..\..\..\Components\hal\include\"
//        -I "E:\GitHub\面板Z-Stack Home
//        1.2.2a.44539\Projects\zstack\HomeAutomation\SceneSelector\CC2530DB\..\..\..\..\..\Components\hal\target\CC2530EB\"
//        -I "E:\GitHub\面板Z-Stack Home
//        1.2.2a.44539\Projects\zstack\HomeAutomation\SceneSelector\CC2530DB\..\..\..\..\..\Components\mac\include\"
//        -I "E:\GitHub\面板Z-Stack Home
//        1.2.2a.44539\Projects\zstack\HomeAutomation\SceneSelector\CC2530DB\..\..\..\..\..\Components\mac\high_level\"
//        -I "E:\GitHub\面板Z-Stack Home
//        1.2.2a.44539\Projects\zstack\HomeAutomation\SceneSelector\CC2530DB\..\..\..\..\..\Components\mac\low_level\srf04\"
//        -I "E:\GitHub\面板Z-Stack Home
//        1.2.2a.44539\Projects\zstack\HomeAutomation\SceneSelector\CC2530DB\..\..\..\..\..\Components\mac\low_level\srf04\single_chip\"
//        -I "E:\GitHub\面板Z-Stack Home
//        1.2.2a.44539\Projects\zstack\HomeAutomation\SceneSelector\CC2530DB\..\..\..\..\..\Components\mt\"
//        -I "E:\GitHub\面板Z-Stack Home
//        1.2.2a.44539\Projects\zstack\HomeAutomation\SceneSelector\CC2530DB\..\..\..\..\..\Components\osal\include\"
//        -I "E:\GitHub\面板Z-Stack Home
//        1.2.2a.44539\Projects\zstack\HomeAutomation\SceneSelector\CC2530DB\..\..\..\..\..\Components\services\saddr\"
//        -I "E:\GitHub\面板Z-Stack Home
//        1.2.2a.44539\Projects\zstack\HomeAutomation\SceneSelector\CC2530DB\..\..\..\..\..\Components\services\sdata\"
//        -I "E:\GitHub\面板Z-Stack Home
//        1.2.2a.44539\Projects\zstack\HomeAutomation\SceneSelector\CC2530DB\..\..\..\..\..\Components\stack\af\"
//        -I "E:\GitHub\面板Z-Stack Home
//        1.2.2a.44539\Projects\zstack\HomeAutomation\SceneSelector\CC2530DB\..\..\..\..\..\Components\stack\nwk\"
//        -I "E:\GitHub\面板Z-Stack Home
//        1.2.2a.44539\Projects\zstack\HomeAutomation\SceneSelector\CC2530DB\..\..\..\..\..\Components\stack\sapi\"
//        -I "E:\GitHub\面板Z-Stack Home
//        1.2.2a.44539\Projects\zstack\HomeAutomation\SceneSelector\CC2530DB\..\..\..\..\..\Components\stack\sec\"
//        -I "E:\GitHub\面板Z-Stack Home
//        1.2.2a.44539\Projects\zstack\HomeAutomation\SceneSelector\CC2530DB\..\..\..\..\..\Components\stack\sys\"
//        -I "E:\GitHub\面板Z-Stack Home
//        1.2.2a.44539\Projects\zstack\HomeAutomation\SceneSelector\CC2530DB\..\..\..\..\..\Components\stack\zcl\"
//        -I "E:\GitHub\面板Z-Stack Home
//        1.2.2a.44539\Projects\zstack\HomeAutomation\SceneSelector\CC2530DB\..\..\..\..\..\Components\stack\zdo\"
//        -I "E:\GitHub\面板Z-Stack Home
//        1.2.2a.44539\Projects\zstack\HomeAutomation\SceneSelector\CC2530DB\..\..\..\..\..\Components\zmac\"
//        -I "E:\GitHub\面板Z-Stack Home
//        1.2.2a.44539\Projects\zstack\HomeAutomation\SceneSelector\CC2530DB\..\..\..\..\..\Components\zmac\f8w\"
//        -Ohz --require_prototypes
//    List file          =  
//        E:\GitHub\面板Z-Stack Home
//        1.2.2a.44539\Projects\zstack\HomeAutomation\SceneSelector\CC2530DB\EndDeviceEB\List\ZDApp.s51
//
///////////////////////////////////////////////////////////////////////////////

        NAME ZDApp

        RTMODEL "__SystemLibrary", "CLib"
        RTMODEL "__calling_convention", "xdata_reentrant"
        RTMODEL "__code_model", "banked"
        RTMODEL "__core", "plain"
        RTMODEL "__data_model", "large"
        RTMODEL "__dptr_size", "16"
        RTMODEL "__extended_stack", "disabled"
        RTMODEL "__location_for_constants", "data"
        RTMODEL "__number_of_dptrs", "1"
        RTMODEL "__rt_version", "1"

        RSEG DOVERLAY:DATA:NOROOT(0)
        RSEG IOVERLAY:IDATA:NOROOT(0)
        RSEG ISTACK:IDATA:NOROOT(0)
        RSEG PSTACK:XDATA:NOROOT(0)
        RSEG XSTACK:XDATA:NOROOT(0)

        EXTERN ?V0
        EXTERN ?V1
        EXTERN ?V2
        EXTERN ?V4
        EXTERN ?V5
        EXTERN ?V3
        EXTERN ?V6
        EXTERN ?V7
        EXTERN ?V8
        EXTERN ?V9
        EXTERN ?V10
        EXTERN ?ALLOC_XSTACK8
        EXTERN ?BANKED_ENTER_XDATA
        EXTERN ?BANKED_LEAVE_XDATA
        EXTERN ?BDISPATCH
        EXTERN ?BRET
        EXTERN ?CALL_IND
        EXTERN ?DEALLOC_XSTACK8
        EXTERN ?L_ADD_TO_X
        EXTERN ?L_ADD_X
        EXTERN ?L_MOV_TO_X
        EXTERN ?L_MOV_X
        EXTERN ?L_SHL
        EXTERN ?PUSH_XSTACK8_X_FOUR
        EXTERN ?PUSH_XSTACK8_X_TWO
        EXTERN ?PUSH_XSTACK_I_FOUR
        EXTERN ?PUSH_XSTACK_I_ONE
        EXTERN ?PUSH_XSTACK_I_THREE
        EXTERN ?PUSH_XSTACK_I_TWO
        EXTERN ?S_DIV_MOD
        EXTERN ?US_SWITCH_SPARSE
        EXTERN ?XLOAD_R0123
        EXTERN ?XLOAD_R2345
        EXTERN ?XSP
        EXTERN ?XSTACK_DISP0_8
        EXTERN ?XSTACK_DISP100_8
        EXTERN ?XSTACK_DISP101_8
        EXTERN ?XSTACK_DISP102_8
        EXTERN ?XSTORE_R0123
        EXTERN __INIT_XDATA_I
        EXTERN __INIT_XDATA_Z

        PUBLIC ??AddrMgrWriteNVRequest?relay
        FUNCTION ??AddrMgrWriteNVRequest?relay,0203H
        PUBLIC ??ZDAppCheckForHoldKey?relay
        FUNCTION ??ZDAppCheckForHoldKey?relay,0203H
        PUBLIC ??ZDAppDetermineDeviceType?relay
        FUNCTION ??ZDAppDetermineDeviceType?relay,0203H
        PUBLIC ??ZDApp_AgeOutPendingBindEntry?relay
        FUNCTION ??ZDApp_AgeOutPendingBindEntry?relay,0203H
        PUBLIC ??ZDApp_AnnounceNewAddress?relay
        FUNCTION ??ZDApp_AnnounceNewAddress?relay,0203H
        PUBLIC ??ZDApp_ChangeMatchDescRespPermission?relay
        FUNCTION ??ZDApp_ChangeMatchDescRespPermission?relay,0203H
        PUBLIC ??ZDApp_ChangeState?relay
        FUNCTION ??ZDApp_ChangeState?relay,0203H
        PUBLIC ??ZDApp_CoordStartPANIDConflictCB?relay
        FUNCTION ??ZDApp_CoordStartPANIDConflictCB?relay,0203H
        PUBLIC ??ZDApp_DeviceAuthEvt?relay
        FUNCTION ??ZDApp_DeviceAuthEvt?relay,0203H
        PUBLIC ??ZDApp_DeviceConfigured?relay
        FUNCTION ??ZDApp_DeviceConfigured?relay,0203H
        PUBLIC ??ZDApp_ForceConcentratorChange?relay
        FUNCTION ??ZDApp_ForceConcentratorChange?relay,0203H
        PUBLIC ??ZDApp_GetEmptyPendingBindReq?relay
        FUNCTION ??ZDApp_GetEmptyPendingBindReq?relay,0203H
        PUBLIC ??ZDApp_InMsgCB?relay
        FUNCTION ??ZDApp_InMsgCB?relay,0203H
        PUBLIC ??ZDApp_Init?relay
        FUNCTION ??ZDApp_Init?relay,0203H
        PUBLIC ??ZDApp_InitPendingBind?relay
        FUNCTION ??ZDApp_InitPendingBind?relay,0203H
        PUBLIC ??ZDApp_InitUserDesc?relay
        FUNCTION ??ZDApp_InitUserDesc?relay,0203H
        PUBLIC ??ZDApp_InitZdoCBFunc?relay
        FUNCTION ??ZDApp_InitZdoCBFunc?relay,0203H
        PUBLIC ??ZDApp_JoinReq?relay
        FUNCTION ??ZDApp_JoinReq?relay,0203H
        PUBLIC ??ZDApp_LeaveCtrlBypass?relay
        FUNCTION ??ZDApp_LeaveCtrlBypass?relay,0203H
        PUBLIC ??ZDApp_LeaveCtrlInit?relay
        FUNCTION ??ZDApp_LeaveCtrlInit?relay,0203H
        PUBLIC ??ZDApp_LeaveCtrlReset?relay
        FUNCTION ??ZDApp_LeaveCtrlReset?relay,0203H
        PUBLIC ??ZDApp_LeaveCtrlSet?relay
        FUNCTION ??ZDApp_LeaveCtrlSet?relay,0203H
        PUBLIC ??ZDApp_LeaveCtrlStartup?relay
        FUNCTION ??ZDApp_LeaveCtrlStartup?relay,0203H
        PUBLIC ??ZDApp_LeaveReset?relay
        FUNCTION ??ZDApp_LeaveReset?relay,0203H
        PUBLIC ??ZDApp_LeaveUpdate?relay
        FUNCTION ??ZDApp_LeaveUpdate?relay,0203H
        PUBLIC ??ZDApp_NVUpdate?relay
        FUNCTION ??ZDApp_NVUpdate?relay,0203H
        PUBLIC ??ZDApp_NetworkDiscoveryReq?relay
        FUNCTION ??ZDApp_NetworkDiscoveryReq?relay,0203H
        PUBLIC ??ZDApp_NetworkInit?relay
        FUNCTION ??ZDApp_NetworkInit?relay,0203H
        PUBLIC ??ZDApp_NetworkStartEvt?relay
        FUNCTION ??ZDApp_NetworkStartEvt?relay,0203H
        PUBLIC ??ZDApp_NodeProfileSync?relay
        FUNCTION ??ZDApp_NodeProfileSync?relay,0203H
        PUBLIC ??ZDApp_NwkDescListProcessing?relay
        FUNCTION ??ZDApp_NwkDescListProcessing?relay,0203H
        PUBLIC ??ZDApp_NwkStateUpdateCB?relay
        FUNCTION ??ZDApp_NwkStateUpdateCB?relay,0203H
        PUBLIC ??ZDApp_ProcessMsgCBs?relay
        FUNCTION ??ZDApp_ProcessMsgCBs?relay,0203H
        PUBLIC ??ZDApp_ProcessNetworkJoin?relay
        FUNCTION ??ZDApp_ProcessNetworkJoin?relay,0203H
        PUBLIC ??ZDApp_ProcessOSALMsg?relay
        FUNCTION ??ZDApp_ProcessOSALMsg?relay,0203H
        PUBLIC ??ZDApp_ProcessPendingBindReq?relay
        FUNCTION ??ZDApp_ProcessPendingBindReq?relay,0203H
        PUBLIC ??ZDApp_ProcessSecEvent?relay
        FUNCTION ??ZDApp_ProcessSecEvent?relay,0203H
        PUBLIC ??ZDApp_ProcessSecMsg?relay
        FUNCTION ??ZDApp_ProcessSecMsg?relay,0203H
        PUBLIC ??ZDApp_ReadNetworkRestoreState?relay
        FUNCTION ??ZDApp_ReadNetworkRestoreState?relay,0203H
        PUBLIC ??ZDApp_RegisterCBs?relay
        FUNCTION ??ZDApp_RegisterCBs?relay,0203H
        PUBLIC ??ZDApp_ResetNwkKey?relay
        FUNCTION ??ZDApp_ResetNwkKey?relay,0203H
        PUBLIC ??ZDApp_ResetTimerCancel?relay
        FUNCTION ??ZDApp_ResetTimerCancel?relay,0203H
        PUBLIC ??ZDApp_ResetTimerStart?relay
        FUNCTION ??ZDApp_ResetTimerStart?relay,0203H
        PUBLIC ??ZDApp_RestoreNetworkState?relay
        FUNCTION ??ZDApp_RestoreNetworkState?relay,0203H
        PUBLIC ??ZDApp_RestoreNwkKey?relay
        FUNCTION ??ZDApp_RestoreNwkKey?relay,0203H
        PUBLIC ??ZDApp_SaveNetworkStateEvt?relay
        FUNCTION ??ZDApp_SaveNetworkStateEvt?relay,0203H
        PUBLIC ??ZDApp_SaveNwkKey?relay
        FUNCTION ??ZDApp_SaveNwkKey?relay,0203H
        PUBLIC ??ZDApp_SecInit?relay
        FUNCTION ??ZDApp_SecInit?relay,0203H
        PUBLIC ??ZDApp_SendEventMsg?relay
        FUNCTION ??ZDApp_SendEventMsg?relay,0203H
        PUBLIC ??ZDApp_SendMsg?relay
        FUNCTION ??ZDApp_SendMsg?relay,0203H
        PUBLIC ??ZDApp_SendParentAnnce?relay
        FUNCTION ??ZDApp_SendParentAnnce?relay,0203H
        PUBLIC ??ZDApp_SetParentAnnceTimer?relay
        FUNCTION ??ZDApp_SetParentAnnceTimer?relay,0203H
        PUBLIC ??ZDApp_SetPendingBindDefault?relay
        FUNCTION ??ZDApp_SetPendingBindDefault?relay,0203H
        PUBLIC ??ZDApp_SetRejoinBackoffDuration?relay
        FUNCTION ??ZDApp_SetRejoinBackoffDuration?relay,0203H
        PUBLIC ??ZDApp_SetRejoinScanDuration?relay
        FUNCTION ??ZDApp_SetRejoinScanDuration?relay,0203H
        PUBLIC ??ZDApp_StartJoiningCycle?relay
        FUNCTION ??ZDApp_StartJoiningCycle?relay,0203H
        PUBLIC ??ZDApp_StopJoiningCycle?relay
        FUNCTION ??ZDApp_StopJoiningCycle?relay,0203H
        PUBLIC ??ZDApp_event_loop?relay
        FUNCTION ??ZDApp_event_loop?relay,0203H
        PUBLIC ??ZDOInitDevice?relay
        FUNCTION ??ZDOInitDevice?relay,0203H
        PUBLIC ??ZDO_AddrChangeIndicationCB?relay
        FUNCTION ??ZDO_AddrChangeIndicationCB?relay,0203H
        PUBLIC ??ZDO_ConcentratorIndicationCB?relay
        FUNCTION ??ZDO_ConcentratorIndicationCB?relay,0203H
        PUBLIC ??ZDO_DeregisterForZdoCB?relay
        FUNCTION ??ZDO_DeregisterForZdoCB?relay,0203H
        PUBLIC ??ZDO_JoinConfirmCB?relay
        FUNCTION ??ZDO_JoinConfirmCB?relay,0203H
        PUBLIC ??ZDO_JoinIndicationCB?relay
        FUNCTION ??ZDO_JoinIndicationCB?relay,0203H
        PUBLIC ??ZDO_LeaveCnf?relay
        FUNCTION ??ZDO_LeaveCnf?relay,0203H
        PUBLIC ??ZDO_LeaveInd?relay
        FUNCTION ??ZDO_LeaveInd?relay,0203H
        PUBLIC ??ZDO_ManytoOneFailureIndicationCB?relay
        FUNCTION ??ZDO_ManytoOneFailureIndicationCB?relay,0203H
        PUBLIC ??ZDO_NetworkDiscoveryConfirmCB?relay
        FUNCTION ??ZDO_NetworkDiscoveryConfirmCB?relay,0203H
        PUBLIC ??ZDO_NetworkFormationConfirmCB?relay
        FUNCTION ??ZDO_NetworkFormationConfirmCB?relay,0203H
        PUBLIC ??ZDO_NetworkStatusCB?relay
        FUNCTION ??ZDO_NetworkStatusCB?relay,0203H
        PUBLIC ??ZDO_PermitJoinCB?relay
        FUNCTION ??ZDO_PermitJoinCB?relay,0203H
        PUBLIC ??ZDO_PollConfirmCB?relay
        FUNCTION ??ZDO_PollConfirmCB?relay,0203H
        PUBLIC ??ZDO_RegisterForZdoCB?relay
        FUNCTION ??ZDO_RegisterForZdoCB?relay,0203H
        PUBLIC ??ZDO_SrcRtgIndCB?relay
        FUNCTION ??ZDO_SrcRtgIndCB?relay,0203H
        PUBLIC ??ZDO_StartRouterConfirmCB?relay
        FUNCTION ??ZDO_StartRouterConfirmCB?relay,0203H
        PUBLIC ??ZDO_SyncIndicationCB?relay
        FUNCTION ??ZDO_SyncIndicationCB?relay,0203H
        PUBLIC ??ZDO_UpdateDeviceIndication?relay
        FUNCTION ??ZDO_UpdateDeviceIndication?relay,0203H
        PUBLIC ??ZDO_beaconNotifyIndCB?relay
        FUNCTION ??ZDO_beaconNotifyIndCB?relay,0203H
        PUBLIC AddrMgrWriteNVRequest
        FUNCTION AddrMgrWriteNVRequest,021203H
        ARGFRAME XSTACK, 24, STACK
        ARGFRAME IOVERLAY, 0, STATIC
        ARGFRAME DOVERLAY, 0, STATIC
        LOCFRAME ISTACK, 2, STACK
        PUBLIC ZDAppCheckForHoldKey
        FUNCTION ZDAppCheckForHoldKey,021203H
        ARGFRAME XSTACK, 9, STACK
        ARGFRAME IOVERLAY, 0, STATIC
        ARGFRAME DOVERLAY, 0, STATIC
        LOCFRAME ISTACK, 2, STACK
        PUBLIC ZDAppDetermineDeviceType
        FUNCTION ZDAppDetermineDeviceType,021203H
        ARGFRAME XSTACK, 16, STACK
        ARGFRAME IOVERLAY, 0, STATIC
        ARGFRAME DOVERLAY, 0, STATIC
        LOCFRAME ISTACK, 2, STACK
        PUBLIC ZDAppNwkAddr
        PUBLIC ZDAppPendingBindReq
        PUBLIC ZDAppTaskID
        PUBLIC ZDApp_AgeOutPendingBindEntry
        FUNCTION ZDApp_AgeOutPendingBindEntry,0a1203H
        ARGFRAME XSTACK, 14, STACK
        ARGFRAME IOVERLAY, 0, STATIC
        ARGFRAME DOVERLAY, 0, STATIC
        LOCFRAME XSTACK, 31, STACK
        PUBLIC ZDApp_AnnounceNewAddress
        FUNCTION ZDApp_AnnounceNewAddress,0a1203H
        ARGFRAME XSTACK, 14, STACK
        ARGFRAME IOVERLAY, 0, STATIC
        ARGFRAME DOVERLAY, 0, STATIC
        LOCFRAME XSTACK, 19, STACK
        PUBLIC ZDApp_AutoFindMode_epDesc
        PUBLIC ZDApp_ChangeMatchDescRespPermission
        FUNCTION ZDApp_ChangeMatchDescRespPermission,021203H
        ARGFRAME XSTACK, 0, STACK
        LOCFRAME XSTACK, 9, STACK
        PUBLIC ZDApp_ChangeState
        FUNCTION ZDApp_ChangeState,021203H
        ARGFRAME XSTACK, 17, STACK
        ARGFRAME IOVERLAY, 0, STATIC
        ARGFRAME DOVERLAY, 0, STATIC
        LOCFRAME XSTACK, 9, STACK
        PUBLIC ZDApp_CoordStartPANIDConflictCB
        FUNCTION ZDApp_CoordStartPANIDConflictCB,0203H
        ARGFRAME XSTACK, 0, STACK
        PUBLIC ZDApp_DeviceAuthEvt
        FUNCTION ZDApp_DeviceAuthEvt,021203H
        ARGFRAME XSTACK, 9, STACK
        ARGFRAME IOVERLAY, 0, STATIC
        ARGFRAME DOVERLAY, 0, STATIC
        LOCFRAME ISTACK, 2, STACK
        PUBLIC ZDApp_DeviceConfigured
        FUNCTION ZDApp_DeviceConfigured,0a1203H
        ARGFRAME XSTACK, 0, STACK
        LOCFRAME XSTACK, 16, STACK
        PUBLIC ZDApp_ForceConcentratorChange
        FUNCTION ZDApp_ForceConcentratorChange,0a1203H
        ARGFRAME XSTACK, 0, STACK
        LOCFRAME XSTACK, 14, STACK
        PUBLIC ZDApp_GetEmptyPendingBindReq
        FUNCTION ZDApp_GetEmptyPendingBindReq,0203H
        ARGFRAME XSTACK, 0, STACK
        LOCFRAME ISTACK, 2, STACK
        PUBLIC ZDApp_InMsgCB
        FUNCTION ZDApp_InMsgCB,0a1203H
        ARGFRAME XSTACK, 0, STACK
        LOCFRAME XSTACK, 14, STACK
        PUBLIC ZDApp_Init
        FUNCTION ZDApp_Init,021203H
        ARGFRAME XSTACK, 0, STACK
        LOCFRAME XSTACK, 9, STACK
        PUBLIC ZDApp_InitPendingBind
        FUNCTION ZDApp_InitPendingBind,021203H
        ARGFRAME XSTACK, 9, STACK
        ARGFRAME IOVERLAY, 0, STATIC
        ARGFRAME DOVERLAY, 0, STATIC
        LOCFRAME XSTACK, 9, STACK
        PUBLIC ZDApp_InitUserDesc
        FUNCTION ZDApp_InitUserDesc,0a1203H
        ARGFRAME XSTACK, 9, STACK
        ARGFRAME IOVERLAY, 0, STATIC
        ARGFRAME DOVERLAY, 0, STATIC
        LOCFRAME XSTACK, 31, STACK
        PUBLIC ZDApp_InitZdoCBFunc
        FUNCTION ZDApp_InitZdoCBFunc,0203H
        ARGFRAME XSTACK, 9, STACK
        ARGFRAME IOVERLAY, 0, STATIC
        ARGFRAME DOVERLAY, 0, STATIC
        LOCFRAME ISTACK, 2, STACK
        PUBLIC ZDApp_JoinReq
        FUNCTION ZDApp_JoinReq,0a1203H
        ARGFRAME XSTACK, 4, STACK
        LOCFRAME XSTACK, 16, STACK
        PUBLIC ZDApp_LeaveCtrl
        PUBLIC ZDApp_LeaveCtrlBypass
        FUNCTION ZDApp_LeaveCtrlBypass,0203H
        ARGFRAME XSTACK, 0, STACK
        LOCFRAME ISTACK, 2, STACK
        PUBLIC ZDApp_LeaveCtrlInit
        FUNCTION ZDApp_LeaveCtrlInit,0a1203H
        ARGFRAME XSTACK, 16, STACK
        ARGFRAME IOVERLAY, 0, STATIC
        ARGFRAME DOVERLAY, 0, STATIC
        LOCFRAME XSTACK, 14, STACK
        PUBLIC ZDApp_LeaveCtrlReset
        FUNCTION ZDApp_LeaveCtrlReset,0a1203H
        ARGFRAME XSTACK, 0, STACK
        ARGFRAME IOVERLAY, 0, STATIC
        ARGFRAME DOVERLAY, 0, STATIC
        LOCFRAME XSTACK, 14, STACK
        PUBLIC ZDApp_LeaveCtrlSet
        FUNCTION ZDApp_LeaveCtrlSet,0a1203H
        ARGFRAME XSTACK, 10, STACK
        ARGFRAME IOVERLAY, 0, STATIC
        ARGFRAME DOVERLAY, 0, STATIC
        LOCFRAME XSTACK, 14, STACK
        PUBLIC ZDApp_LeaveCtrlStartup
        FUNCTION ZDApp_LeaveCtrlStartup,021203H
        ARGFRAME XSTACK, 0, STACK
        LOCFRAME ISTACK, 2, STACK
        PUBLIC ZDApp_LeaveReset
        FUNCTION ZDApp_LeaveReset,0a1203H
        ARGFRAME XSTACK, 14, STACK
        ARGFRAME IOVERLAY, 0, STATIC
        ARGFRAME DOVERLAY, 0, STATIC
        LOCFRAME XSTACK, 10, STACK
        PUBLIC ZDApp_LeaveUpdate
        FUNCTION ZDApp_LeaveUpdate,0a1203H
        ARGFRAME XSTACK, 14, STACK
        ARGFRAME IOVERLAY, 0, STATIC
        ARGFRAME DOVERLAY, 0, STATIC
        LOCFRAME XSTACK, 27, STACK
        PUBLIC ZDApp_NVUpdate
        FUNCTION ZDApp_NVUpdate,021203H
        ARGFRAME XSTACK, 16, STACK
        ARGFRAME IOVERLAY, 0, STATIC
        ARGFRAME DOVERLAY, 0, STATIC
        LOCFRAME ISTACK, 2, STACK
        PUBLIC ZDApp_NetworkDiscoveryReq
        FUNCTION ZDApp_NetworkDiscoveryReq,0a1203H
        ARGFRAME XSTACK, 0, STACK
        LOCFRAME XSTACK, 12, STACK
        PUBLIC ZDApp_NetworkInit
        FUNCTION ZDApp_NetworkInit,0a1203H
        ARGFRAME XSTACK, 16, STACK
        ARGFRAME IOVERLAY, 0, STATIC
        ARGFRAME DOVERLAY, 0, STATIC
        LOCFRAME XSTACK, 16, STACK
        PUBLIC ZDApp_NetworkStartEvt
        FUNCTION ZDApp_NetworkStartEvt,021203H
        ARGFRAME XSTACK, 0, STACK
        LOCFRAME ISTACK, 2, STACK
        PUBLIC ZDApp_NewDeviceList
        PUBLIC ZDApp_NodeProfileSync
        FUNCTION ZDApp_NodeProfileSync,021203H
        ARGFRAME XSTACK, 15, STACK
        ARGFRAME IOVERLAY, 0, STATIC
        ARGFRAME DOVERLAY, 0, STATIC
        LOCFRAME XSTACK, 9, STACK
        PUBLIC ZDApp_NwkDescListProcessing
        FUNCTION ZDApp_NwkDescListProcessing,0a1203H
        ARGFRAME XSTACK, 15, STACK
        ARGFRAME IOVERLAY, 0, STATIC
        ARGFRAME DOVERLAY, 0, STATIC
        LOCFRAME XSTACK, 14, STACK
        PUBLIC ZDApp_NwkStateUpdateCB
        FUNCTION ZDApp_NwkStateUpdateCB,021203H
        ARGFRAME XSTACK, 0, STACK
        LOCFRAME ISTACK, 2, STACK
        PUBLIC ZDApp_ProcessMsgCBs
        FUNCTION ZDApp_ProcessMsgCBs,0a1203H
        ARGFRAME XSTACK, 15, STACK
        ARGFRAME IOVERLAY, 0, STATIC
        ARGFRAME DOVERLAY, 0, STATIC
        LOCFRAME XSTACK, 35, STACK
        PUBLIC ZDApp_ProcessNetworkJoin
        FUNCTION ZDApp_ProcessNetworkJoin,0a1203H
        ARGFRAME XSTACK, 15, STACK
        ARGFRAME IOVERLAY, 0, STATIC
        ARGFRAME DOVERLAY, 0, STATIC
        LOCFRAME XSTACK, 14, STACK
        PUBLIC ZDApp_ProcessOSALMsg
        FUNCTION ZDApp_ProcessOSALMsg,0a1203H
        ARGFRAME XSTACK, 14, STACK
        ARGFRAME IOVERLAY, 0, STATIC
        ARGFRAME DOVERLAY, 0, STATIC
        LOCFRAME XSTACK, 19, STACK
        PUBLIC ZDApp_ProcessPendingBindReq
        FUNCTION ZDApp_ProcessPendingBindReq,0a1203H
        ARGFRAME XSTACK, 35, STACK
        ARGFRAME IOVERLAY, 0, STATIC
        ARGFRAME DOVERLAY, 0, STATIC
        LOCFRAME XSTACK, 21, STACK
        PUBLIC ZDApp_ProcessSecEvent
        FUNCTION ZDApp_ProcessSecEvent,021203H
        ARGFRAME XSTACK, 14, STACK
        ARGFRAME IOVERLAY, 0, STATIC
        ARGFRAME DOVERLAY, 0, STATIC
        LOCFRAME XSTACK, 9, STACK
        PUBLIC ZDApp_ProcessSecMsg
        FUNCTION ZDApp_ProcessSecMsg,021203H
        ARGFRAME XSTACK, 15, STACK
        ARGFRAME IOVERLAY, 0, STATIC
        ARGFRAME DOVERLAY, 0, STATIC
        LOCFRAME ISTACK, 2, STACK
        PUBLIC ZDApp_ReadNetworkRestoreState
        FUNCTION ZDApp_ReadNetworkRestoreState,021203H
        ARGFRAME XSTACK, 16, STACK
        ARGFRAME IOVERLAY, 0, STATIC
        ARGFRAME DOVERLAY, 0, STATIC
        LOCFRAME XSTACK, 9, STACK
        PUBLIC ZDApp_RegisterCBs
        FUNCTION ZDApp_RegisterCBs,021203H
        ARGFRAME XSTACK, 9, STACK
        ARGFRAME IOVERLAY, 0, STATIC
        ARGFRAME DOVERLAY, 0, STATIC
        LOCFRAME ISTACK, 2, STACK
        PUBLIC ZDApp_ResetNwkKey
        FUNCTION ZDApp_ResetNwkKey,0a1203H
        ARGFRAME XSTACK, 0, STACK
        LOCFRAME XSTACK, 35, STACK
        PUBLIC ZDApp_ResetTimerCancel
        FUNCTION ZDApp_ResetTimerCancel,021203H
        ARGFRAME XSTACK, 0, STACK
        ARGFRAME IOVERLAY, 0, STATIC
        ARGFRAME DOVERLAY, 0, STATIC
        LOCFRAME ISTACK, 2, STACK
        PUBLIC ZDApp_ResetTimerStart
        FUNCTION ZDApp_ResetTimerStart,0a1203H
        ARGFRAME XSTACK, 14, STACK
        ARGFRAME IOVERLAY, 0, STATIC
        ARGFRAME DOVERLAY, 0, STATIC
        LOCFRAME XSTACK, 16, STACK
        PUBLIC ZDApp_RestoreNetworkState
        FUNCTION ZDApp_RestoreNetworkState,021203H
        ARGFRAME XSTACK, 16, STACK
        ARGFRAME IOVERLAY, 0, STATIC
        ARGFRAME DOVERLAY, 0, STATIC
        LOCFRAME XSTACK, 9, STACK
        PUBLIC ZDApp_RestoreNwkKey
        FUNCTION ZDApp_RestoreNwkKey,0a1203H
        ARGFRAME XSTACK, 15, STACK
        ARGFRAME IOVERLAY, 0, STATIC
        ARGFRAME DOVERLAY, 0, STATIC
        LOCFRAME XSTACK, 53, STACK
        PUBLIC ZDApp_SaveNetworkStateEvt
        FUNCTION ZDApp_SaveNetworkStateEvt,021203H
        ARGFRAME XSTACK, 14, STACK
        ARGFRAME IOVERLAY, 0, STATIC
        ARGFRAME DOVERLAY, 0, STATIC
        LOCFRAME ISTACK, 2, STACK
        PUBLIC ZDApp_SaveNwkKey
        FUNCTION ZDApp_SaveNwkKey,0a1203H
        ARGFRAME XSTACK, 9, STACK
        ARGFRAME IOVERLAY, 0, STATIC
        ARGFRAME DOVERLAY, 0, STATIC
        LOCFRAME XSTACK, 35, STACK
        PUBLIC ZDApp_SavedPollRate
        PUBLIC ZDApp_SecInit
        FUNCTION ZDApp_SecInit,0a1203H
        ARGFRAME XSTACK, 16, STACK
        ARGFRAME IOVERLAY, 0, STATIC
        ARGFRAME DOVERLAY, 0, STATIC
        LOCFRAME XSTACK, 25, STACK
        PUBLIC ZDApp_SendEventMsg
        FUNCTION ZDApp_SendEventMsg,021203H
        ARGFRAME XSTACK, 0, STACK
        LOCFRAME XSTACK, 9, STACK
        PUBLIC ZDApp_SendMsg
        FUNCTION ZDApp_SendMsg,0a1203H
        ARGFRAME XSTACK, 17, STACK
        ARGFRAME IOVERLAY, 0, STATIC
        ARGFRAME DOVERLAY, 0, STATIC
        LOCFRAME ISTACK, 1, STACK
        LOCFRAME XSTACK, 22, STACK
        PUBLIC ZDApp_SendParentAnnce
        FUNCTION ZDApp_SendParentAnnce,0a1203H
        ARGFRAME XSTACK, 0, STACK
        LOCFRAME XSTACK, 27, STACK
        PUBLIC ZDApp_SetParentAnnceTimer
        FUNCTION ZDApp_SetParentAnnceTimer,0a1203H
        ARGFRAME XSTACK, 0, STACK
        ARGFRAME IOVERLAY, 0, STATIC
        ARGFRAME DOVERLAY, 0, STATIC
        LOCFRAME XSTACK, 16, STACK
        PUBLIC ZDApp_SetPendingBindDefault
        FUNCTION ZDApp_SetPendingBindDefault,021203H
        ARGFRAME XSTACK, 26, STACK
        ARGFRAME IOVERLAY, 0, STATIC
        ARGFRAME DOVERLAY, 0, STATIC
        LOCFRAME XSTACK, 9, STACK
        PUBLIC ZDApp_SetRejoinBackoffDuration
        FUNCTION ZDApp_SetRejoinBackoffDuration,080203H
        ARGFRAME XSTACK, 0, STACK
        LOCFRAME XSTACK, 12, STACK
        PUBLIC ZDApp_SetRejoinScanDuration
        FUNCTION ZDApp_SetRejoinScanDuration,080203H
        ARGFRAME XSTACK, 0, STACK
        LOCFRAME XSTACK, 12, STACK
        PUBLIC ZDApp_StartJoiningCycle
        FUNCTION ZDApp_StartJoiningCycle,021203H
        ARGFRAME XSTACK, 14, STACK
        ARGFRAME IOVERLAY, 0, STATIC
        ARGFRAME DOVERLAY, 0, STATIC
        LOCFRAME ISTACK, 2, STACK
        PUBLIC ZDApp_StopJoiningCycle
        FUNCTION ZDApp_StopJoiningCycle,0203H
        ARGFRAME XSTACK, 14, STACK
        ARGFRAME IOVERLAY, 0, STATIC
        ARGFRAME DOVERLAY, 0, STATIC
        LOCFRAME ISTACK, 2, STACK
        PUBLIC ZDApp_epDesc
        PUBLIC ZDApp_event_loop
        FUNCTION ZDApp_event_loop,0a1203H
        ARGFRAME XSTACK, 0, STACK
        LOCFRAME XSTACK, 18, STACK
        PUBLIC ZDOInitDevice
        FUNCTION ZDOInitDevice,0a1203H
        ARGFRAME XSTACK, 9, STACK
        ARGFRAME IOVERLAY, 0, STATIC
        ARGFRAME DOVERLAY, 0, STATIC
        LOCFRAME XSTACK, 16, STACK
        PUBLIC ZDO_AddrChangeIndicationCB
        FUNCTION ZDO_AddrChangeIndicationCB,0a1203H
        ARGFRAME XSTACK, 0, STACK
        LOCFRAME XSTACK, 14, STACK
        PUBLIC ZDO_ConcentratorIndicationCB
        FUNCTION ZDO_ConcentratorIndicationCB,0203H
        ARGFRAME XSTACK, 0, STACK
        LOCFRAME ISTACK, 1, STACK
        LOCFRAME XSTACK, 14, STACK
        PUBLIC ZDO_DeregisterForZdoCB
        FUNCTION ZDO_DeregisterForZdoCB,0203H
        ARGFRAME XSTACK, 0, STACK
        LOCFRAME ISTACK, 2, STACK
        PUBLIC ZDO_JoinConfirmCB
        FUNCTION ZDO_JoinConfirmCB,0a1203H
        ARGFRAME XSTACK, 0, STACK
        LOCFRAME ISTACK, 1, STACK
        LOCFRAME XSTACK, 17, STACK
        PUBLIC ZDO_JoinIndicationCB
        FUNCTION ZDO_JoinIndicationCB,0a1203H
        ARGFRAME XSTACK, 1, STACK
        LOCFRAME XSTACK, 20, STACK
        PUBLIC ZDO_LeaveCnf
        FUNCTION ZDO_LeaveCnf,0a1203H
        ARGFRAME XSTACK, 0, STACK
        LOCFRAME XSTACK, 10, STACK
        PUBLIC ZDO_LeaveInd
        FUNCTION ZDO_LeaveInd,0a1203H
        ARGFRAME XSTACK, 0, STACK
        LOCFRAME XSTACK, 14, STACK
        PUBLIC ZDO_ManytoOneFailureIndicationCB
        FUNCTION ZDO_ManytoOneFailureIndicationCB,021203H
        ARGFRAME XSTACK, 0, STACK
        LOCFRAME ISTACK, 2, STACK
        PUBLIC ZDO_NetworkDiscoveryConfirmCB
        FUNCTION ZDO_NetworkDiscoveryConfirmCB,021203H
        ARGFRAME XSTACK, 0, STACK
        LOCFRAME ISTACK, 3, STACK
        LOCFRAME XSTACK, 3, STACK
        PUBLIC ZDO_NetworkFormationConfirmCB
        FUNCTION ZDO_NetworkFormationConfirmCB,021203H
        ARGFRAME XSTACK, 0, STACK
        LOCFRAME XSTACK, 9, STACK
        PUBLIC ZDO_NetworkStatusCB
        FUNCTION ZDO_NetworkStatusCB,021203H
        ARGFRAME XSTACK, 0, STACK
        LOCFRAME ISTACK, 2, STACK
        PUBLIC ZDO_PermitJoinCB
        FUNCTION ZDO_PermitJoinCB,0203H
        ARGFRAME XSTACK, 0, STACK
        LOCFRAME ISTACK, 3, STACK
        LOCFRAME XSTACK, 1, STACK
        PUBLIC ZDO_PollConfirmCB
        FUNCTION ZDO_PollConfirmCB,0203H
        ARGFRAME XSTACK, 0, STACK
        PUBLIC ZDO_RegisterForZdoCB
        FUNCTION ZDO_RegisterForZdoCB,0203H
        ARGFRAME XSTACK, 0, STACK
        LOCFRAME ISTACK, 2, STACK
        PUBLIC ZDO_SrcRtgIndCB
        FUNCTION ZDO_SrcRtgIndCB,0203H
        ARGFRAME XSTACK, 0, STACK
        LOCFRAME ISTACK, 1, STACK
        LOCFRAME XSTACK, 14, STACK
        PUBLIC ZDO_StartRouterConfirmCB
        FUNCTION ZDO_StartRouterConfirmCB,021203H
        ARGFRAME XSTACK, 0, STACK
        LOCFRAME XSTACK, 9, STACK
        PUBLIC ZDO_SyncIndicationCB
        FUNCTION ZDO_SyncIndicationCB,0a1203H
        ARGFRAME XSTACK, 0, STACK
        LOCFRAME XSTACK, 12, STACK
        PUBLIC ZDO_UpdateDeviceIndication
        FUNCTION ZDO_UpdateDeviceIndication,0203H
        ARGFRAME XSTACK, 0, STACK
        PUBLIC ZDO_UseExtendedPANID
        PUBLIC ZDO_beaconNotifyIndCB
        FUNCTION ZDO_beaconNotifyIndCB,0a1203H
        ARGFRAME XSTACK, 0, STACK
        LOCFRAME ISTACK, 1, STACK
        LOCFRAME XSTACK, 18, STACK
        PUBWEAK __Constant_0
        PUBWEAK __Constant_1770
        PUBWEAK __Constant_258
        PUBWEAK __Constant_2710
        PUBWEAK __Constant_3e8
        PUBWEAK __Constant_4e2
        PUBWEAK __Constant_64
        PUBLIC _tmpRejoinState
        PUBLIC continueJoining
        PUBLIC devStartMode
        PUBLIC devState
        PUBLIC nwkStatus
        PUBLIC prevDevState
        PUBLIC retryCnt
        PUBLIC runtimeChannel
        PUBLIC zdappMgmtNwkDiscReqInProgress
        PUBLIC zdappMgmtNwkDiscRspAddr
        PUBLIC zdappMgmtNwkDiscRspTransSeq
        PUBLIC zdappMgmtNwkDiscStartIndex
        PUBLIC zdappMgmtSavedNwkState
        PUBLIC zdoCBFunc
        PUBLIC zdoDiscCounter
        
          CFI Names cfiNames0
          CFI StackFrame CFA_SP SP IDATA
          CFI StackFrame CFA_PSP16 PSP16 XDATA
          CFI StackFrame CFA_XSP16 XSP16 XDATA
          CFI StaticOverlayFrame CFA_IOVERLAY IOVERLAY
          CFI StaticOverlayFrame CFA_DOVERLAY DOVERLAY
          CFI Resource `PSW.CY`:1, `B.BR0`:1, `B.BR1`:1, `B.BR2`:1, `B.BR3`:1
          CFI Resource `B.BR4`:1, `B.BR5`:1, `B.BR6`:1, `B.BR7`:1, `VB.BR8`:1
          CFI Resource `VB.BR9`:1, `VB.BR10`:1, `VB.BR11`:1, `VB.BR12`:1
          CFI Resource `VB.BR13`:1, `VB.BR14`:1, `VB.BR15`:1, VB:8, B:8, A:8
          CFI Resource PSW:8, DPL0:8, DPH0:8, R0:8, R1:8, R2:8, R3:8, R4:8, R5:8
          CFI Resource R6:8, R7:8, V0:8, V1:8, V2:8, V3:8, V4:8, V5:8, V6:8, V7:8
          CFI Resource V8:8, V9:8, V10:8, V11:8, V12:8, V13:8, V14:8, V15:8, SP:8
          CFI Resource PSPH:8, PSPL:8, PSP16:16, XSPH:8, XSPL:8, XSP16:16
          CFI VirtualResource ?RET:24
          CFI Resource ?BRET_EXT:8
          CFI VirtualResource ?RET_HIGH:8, ?RET_LOW:8
          CFI ResourceParts PSP16 PSPH, PSPL
          CFI ResourceParts XSP16 XSPH, XSPL
          CFI ResourceParts ?RET ?BRET_EXT, ?RET_HIGH, ?RET_LOW
          CFI EndNames cfiNames0
        
          CFI Common cfiCommon0 Using cfiNames0
          CFI CodeAlign 1
          CFI DataAlign -1
          CFI ReturnAddress ?RET CODE
          CFI CFA_DOVERLAY Used
          CFI CFA_IOVERLAY Used
          CFI CFA_SP SP+-3
          CFI CFA_PSP16 PSP16+0
          CFI CFA_XSP16 XSP16+0
          CFI `PSW.CY` SameValue
          CFI `B.BR0` SameValue
          CFI `B.BR1` SameValue
          CFI `B.BR2` SameValue
          CFI `B.BR3` SameValue
          CFI `B.BR4` SameValue
          CFI `B.BR5` SameValue
          CFI `B.BR6` SameValue
          CFI `B.BR7` SameValue
          CFI `VB.BR8` SameValue
          CFI `VB.BR9` SameValue
          CFI `VB.BR10` SameValue
          CFI `VB.BR11` SameValue
          CFI `VB.BR12` SameValue
          CFI `VB.BR13` SameValue
          CFI `VB.BR14` SameValue
          CFI `VB.BR15` SameValue
          CFI VB SameValue
          CFI B Undefined
          CFI A Undefined
          CFI PSW SameValue
          CFI DPL0 SameValue
          CFI DPH0 SameValue
          CFI R0 Undefined
          CFI R1 Undefined
          CFI R2 Undefined
          CFI R3 Undefined
          CFI R4 Undefined
          CFI R5 Undefined
          CFI R6 SameValue
          CFI R7 SameValue
          CFI V0 SameValue
          CFI V1 SameValue
          CFI V2 SameValue
          CFI V3 SameValue
          CFI V4 SameValue
          CFI V5 SameValue
          CFI V6 SameValue
          CFI V7 SameValue
          CFI V8 SameValue
          CFI V9 SameValue
          CFI V10 SameValue
          CFI V11 SameValue
          CFI V12 SameValue
          CFI V13 SameValue
          CFI V14 SameValue
          CFI V15 SameValue
          CFI PSPH Undefined
          CFI PSPL Undefined
          CFI XSPH Undefined
          CFI XSPL Undefined
          CFI ?RET Concat
          CFI ?BRET_EXT Frame(CFA_SP, 3)
          CFI ?RET_HIGH Frame(CFA_SP, 2)
          CFI ?RET_LOW Frame(CFA_SP, 1)
          CFI EndCommon cfiCommon0
        
        
          CFI Common cfiCommon1 Using cfiNames0
          CFI CodeAlign 1
          CFI DataAlign -1
          CFI ReturnAddress ?RET CODE
          CFI CFA_DOVERLAY Used
          CFI CFA_IOVERLAY Used
          CFI CFA_SP SP+-2
          CFI CFA_PSP16 PSP16+0
          CFI CFA_XSP16 XSP16+0
          CFI `PSW.CY` SameValue
          CFI `B.BR0` SameValue
          CFI `B.BR1` SameValue
          CFI `B.BR2` SameValue
          CFI `B.BR3` SameValue
          CFI `B.BR4` SameValue
          CFI `B.BR5` SameValue
          CFI `B.BR6` SameValue
          CFI `B.BR7` SameValue
          CFI `VB.BR8` SameValue
          CFI `VB.BR9` SameValue
          CFI `VB.BR10` SameValue
          CFI `VB.BR11` SameValue
          CFI `VB.BR12` SameValue
          CFI `VB.BR13` SameValue
          CFI `VB.BR14` SameValue
          CFI `VB.BR15` SameValue
          CFI VB SameValue
          CFI B SameValue
          CFI A SameValue
          CFI PSW SameValue
          CFI DPL0 SameValue
          CFI DPH0 SameValue
          CFI R0 SameValue
          CFI R1 SameValue
          CFI R2 SameValue
          CFI R3 SameValue
          CFI R4 SameValue
          CFI R5 SameValue
          CFI R6 SameValue
          CFI R7 SameValue
          CFI V0 SameValue
          CFI V1 SameValue
          CFI V2 SameValue
          CFI V3 SameValue
          CFI V4 SameValue
          CFI V5 SameValue
          CFI V6 SameValue
          CFI V7 SameValue
          CFI V8 SameValue
          CFI V9 SameValue
          CFI V10 SameValue
          CFI V11 SameValue
          CFI V12 SameValue
          CFI V13 SameValue
          CFI V14 SameValue
          CFI V15 SameValue
          CFI PSPH Undefined
          CFI PSPL Undefined
          CFI XSPH Undefined
          CFI XSPL Undefined
          CFI ?RET Concat
          CFI ?BRET_EXT SameValue
          CFI ?RET_HIGH Frame(CFA_SP, 2)
          CFI ?RET_LOW Frame(CFA_SP, 1)
          CFI EndCommon cfiCommon1
        
APSME_BindRequest   SYMBOL "APSME_BindRequest"
??APSME_BindRequest?relay SYMBOL "?relay", APSME_BindRequest
APSME_HoldDataRequests SYMBOL "APSME_HoldDataRequests"
??APSME_HoldDataRequests?relay SYMBOL "?relay", APSME_HoldDataRequests
AddrMgrEntryLookupExt SYMBOL "AddrMgrEntryLookupExt"
??AddrMgrEntryLookupExt?relay SYMBOL "?relay", AddrMgrEntryLookupExt
AddrMgrEntryRelease SYMBOL "AddrMgrEntryRelease"
??AddrMgrEntryRelease?relay SYMBOL "?relay", AddrMgrEntryRelease
AddrMgrExtAddrSet   SYMBOL "AddrMgrExtAddrSet"
??AddrMgrExtAddrSet?relay SYMBOL "?relay", AddrMgrExtAddrSet
AssocMakeListOfRfdChild SYMBOL "AssocMakeListOfRfdChild"
??AssocMakeListOfRfdChild?relay SYMBOL "?relay", AssocMakeListOfRfdChild
HalKeyRead          SYMBOL "HalKeyRead"
??HalKeyRead?relay  SYMBOL "?relay", HalKeyRead
HalLedBlink         SYMBOL "HalLedBlink"
??HalLedBlink?relay SYMBOL "?relay", HalLedBlink
HalLedSet           SYMBOL "HalLedSet"
??HalLedSet?relay   SYMBOL "?relay", HalLedSet
NLME_GetCoordExtAddr SYMBOL "NLME_GetCoordExtAddr"
??NLME_GetCoordExtAddr?relay SYMBOL "?relay", NLME_GetCoordExtAddr
NLME_GetCoordShortAddr SYMBOL "NLME_GetCoordShortAddr"
??NLME_GetCoordShortAddr?relay SYMBOL "?relay", NLME_GetCoordShortAddr
NLME_GetEnergyThreshold SYMBOL "NLME_GetEnergyThreshold"
??NLME_GetEnergyThreshold?relay SYMBOL "?relay", NLME_GetEnergyThreshold
NLME_GetExtAddr     SYMBOL "NLME_GetExtAddr"
??NLME_GetExtAddr?relay SYMBOL "?relay", NLME_GetExtAddr
NLME_GetShortAddr   SYMBOL "NLME_GetShortAddr"
??NLME_GetShortAddr?relay SYMBOL "?relay", NLME_GetShortAddr
NLME_InitNV         SYMBOL "NLME_InitNV"
??NLME_InitNV?relay SYMBOL "?relay", NLME_InitNV
NLME_JoinRequest    SYMBOL "NLME_JoinRequest"
??NLME_JoinRequest?relay SYMBOL "?relay", NLME_JoinRequest
NLME_LeaveRsp       SYMBOL "NLME_LeaveRsp"
??NLME_LeaveRsp?relay SYMBOL "?relay", NLME_LeaveRsp
NLME_NetworkDiscoveryRequest SYMBOL "NLME_NetworkDiscoveryRequest"
??NLME_NetworkDiscoveryRequest?relay SYMBOL "?relay", NLME_NetworkDiscoveryRequest
NLME_NwkDiscTerm    SYMBOL "NLME_NwkDiscTerm"
??NLME_NwkDiscTerm?relay SYMBOL "?relay", NLME_NwkDiscTerm
NLME_ReJoinRequest  SYMBOL "NLME_ReJoinRequest"
??NLME_ReJoinRequest?relay SYMBOL "?relay", NLME_ReJoinRequest
NLME_ReJoinRequestUnsecure SYMBOL "NLME_ReJoinRequestUnsecure"
??NLME_ReJoinRequestUnsecure?relay SYMBOL "?relay", NLME_ReJoinRequestUnsecure
NLME_RestoreFromNV  SYMBOL "NLME_RestoreFromNV"
??NLME_RestoreFromNV?relay SYMBOL "?relay", NLME_RestoreFromNV
NLME_SendEndDevTimeoutReq SYMBOL "NLME_SendEndDevTimeoutReq"
??NLME_SendEndDevTimeoutReq?relay SYMBOL "?relay", NLME_SendEndDevTimeoutReq
NLME_SetBroadcastFilter SYMBOL "NLME_SetBroadcastFilter"
??NLME_SetBroadcastFilter?relay SYMBOL "?relay", NLME_SetBroadcastFilter
NLME_SetDefaultNV   SYMBOL "NLME_SetDefaultNV"
??NLME_SetDefaultNV?relay SYMBOL "?relay", NLME_SetDefaultNV
NLME_SetEnergyThreshold SYMBOL "NLME_SetEnergyThreshold"
??NLME_SetEnergyThreshold?relay SYMBOL "?relay", NLME_SetEnergyThreshold
NLME_SetPollRate    SYMBOL "NLME_SetPollRate"
??NLME_SetPollRate?relay SYMBOL "?relay", NLME_SetPollRate
NLME_SetQueuedPollRate SYMBOL "NLME_SetQueuedPollRate"
??NLME_SetQueuedPollRate?relay SYMBOL "?relay", NLME_SetQueuedPollRate
NLME_SetResponseRate SYMBOL "NLME_SetResponseRate"
??NLME_SetResponseRate?relay SYMBOL "?relay", NLME_SetResponseRate
NLME_UpdateNV       SYMBOL "NLME_UpdateNV"
??NLME_UpdateNV?relay SYMBOL "?relay", NLME_UpdateNV
RTG_MTORouteReq     SYMBOL "RTG_MTORouteReq"
??RTG_MTORouteReq?relay SYMBOL "?relay", RTG_MTORouteReq
RTG_RemoveRtgEntry  SYMBOL "RTG_RemoveRtgEntry"
??RTG_RemoveRtgEntry?relay SYMBOL "?relay", RTG_RemoveRtgEntry
SSP_ReadNwkActiveKey SYMBOL "SSP_ReadNwkActiveKey"
??SSP_ReadNwkActiveKey?relay SYMBOL "?relay", SSP_ReadNwkActiveKey
SSP_SwitchNwkKey    SYMBOL "SSP_SwitchNwkKey"
??SSP_SwitchNwkKey?relay SYMBOL "?relay", SSP_SwitchNwkKey
SSP_UpdateNwkKey    SYMBOL "SSP_UpdateNwkKey"
??SSP_UpdateNwkKey?relay SYMBOL "?relay", SSP_UpdateNwkKey
ZDConfig_InitDescriptors SYMBOL "ZDConfig_InitDescriptors"
??ZDConfig_InitDescriptors?relay SYMBOL "?relay", ZDConfig_InitDescriptors
ZDO_Init            SYMBOL "ZDO_Init"
??ZDO_Init?relay    SYMBOL "?relay", ZDO_Init
ZDO_ParseAddrRsp    SYMBOL "ZDO_ParseAddrRsp"
??ZDO_ParseAddrRsp?relay SYMBOL "?relay", ZDO_ParseAddrRsp
ZDO_ParseBindUnbindReq SYMBOL "ZDO_ParseBindUnbindReq"
??ZDO_ParseBindUnbindReq?relay SYMBOL "?relay", ZDO_ParseBindUnbindReq
ZDO_ProcessBindUnbindReq SYMBOL "ZDO_ProcessBindUnbindReq"
??ZDO_ProcessBindUnbindReq?relay SYMBOL "?relay", ZDO_ProcessBindUnbindReq
ZDO_RegisterForZDOMsg SYMBOL "ZDO_RegisterForZDOMsg"
??ZDO_RegisterForZDOMsg?relay SYMBOL "?relay", ZDO_RegisterForZDOMsg
ZDO_StartDevice     SYMBOL "ZDO_StartDevice"
??ZDO_StartDevice?relay SYMBOL "?relay", ZDO_StartDevice
ZDO_UpdateAddrManager SYMBOL "ZDO_UpdateAddrManager"
??ZDO_UpdateAddrManager?relay SYMBOL "?relay", ZDO_UpdateAddrManager
ZDO_UpdateNwkStatus SYMBOL "ZDO_UpdateNwkStatus"
??ZDO_UpdateNwkStatus?relay SYMBOL "?relay", ZDO_UpdateNwkStatus
ZDP_DeviceAnnce     SYMBOL "ZDP_DeviceAnnce"
??ZDP_DeviceAnnce?relay SYMBOL "?relay", ZDP_DeviceAnnce
ZDP_GenericRsp      SYMBOL "ZDP_GenericRsp"
??ZDP_GenericRsp?relay SYMBOL "?relay", ZDP_GenericRsp
ZDP_IncomingData    SYMBOL "ZDP_IncomingData"
??ZDP_IncomingData?relay SYMBOL "?relay", ZDP_IncomingData
ZDP_ParentAnnce     SYMBOL "ZDP_ParentAnnce"
??ZDP_ParentAnnce?relay SYMBOL "?relay", ZDP_ParentAnnce
ZDP_SendData        SYMBOL "ZDP_SendData"
??ZDP_SendData?relay SYMBOL "?relay", ZDP_SendData
ZDSecMgrAddrClear   SYMBOL "ZDSecMgrAddrClear"
??ZDSecMgrAddrClear?relay SYMBOL "?relay", ZDSecMgrAddrClear
ZDSecMgrClearNVKeyValues SYMBOL "ZDSecMgrClearNVKeyValues"
??ZDSecMgrClearNVKeyValues?relay SYMBOL "?relay", ZDSecMgrClearNVKeyValues
ZDSecMgrDeviceRemoveByExtAddr SYMBOL "ZDSecMgrDeviceRemoveByExtAddr"
??ZDSecMgrDeviceRemoveByExtAddr?relay SYMBOL "?relay", ZDSecMgrDeviceRemoveByExtAddr
ZDSecMgrInit        SYMBOL "ZDSecMgrInit"
??ZDSecMgrInit?relay SYMBOL "?relay", ZDSecMgrInit
ZDSecMgrReadKeyFromNv SYMBOL "ZDSecMgrReadKeyFromNv"
??ZDSecMgrReadKeyFromNv?relay SYMBOL "?relay", ZDSecMgrReadKeyFromNv
ZDSecMgrSaveApsLinkKey SYMBOL "ZDSecMgrSaveApsLinkKey"
??ZDSecMgrSaveApsLinkKey?relay SYMBOL "?relay", ZDSecMgrSaveApsLinkKey
ZDSecMgrSaveTCLinkKey SYMBOL "ZDSecMgrSaveTCLinkKey"
??ZDSecMgrSaveTCLinkKey?relay SYMBOL "?relay", ZDSecMgrSaveTCLinkKey
ZDSecMgrSwitchKeyInd SYMBOL "ZDSecMgrSwitchKeyInd"
??ZDSecMgrSwitchKeyInd?relay SYMBOL "?relay", ZDSecMgrSwitchKeyInd
ZDSecMgrTransportKeyInd SYMBOL "ZDSecMgrTransportKeyInd"
??ZDSecMgrTransportKeyInd?relay SYMBOL "?relay", ZDSecMgrTransportKeyInd
ZMacSetReq          SYMBOL "ZMacSetReq"
??ZMacSetReq?relay  SYMBOL "?relay", ZMacSetReq
afRegister          SYMBOL "afRegister"
??afRegister?relay  SYMBOL "?relay", afRegister
afSetMatch          SYMBOL "afSetMatch"
??afSetMatch?relay  SYMBOL "?relay", afSetMatch
nwkNeighborFindEmptySlot SYMBOL "nwkNeighborFindEmptySlot"
??nwkNeighborFindEmptySlot?relay SYMBOL "?relay", nwkNeighborFindEmptySlot
nwkNeighborInitTable SYMBOL "nwkNeighborInitTable"
??nwkNeighborInitTable?relay SYMBOL "?relay", nwkNeighborInitTable
nwkNeighborRemove   SYMBOL "nwkNeighborRemove"
??nwkNeighborRemove?relay SYMBOL "?relay", nwkNeighborRemove
nwk_ExtPANIDValid   SYMBOL "nwk_ExtPANIDValid"
??nwk_ExtPANIDValid?relay SYMBOL "?relay", nwk_ExtPANIDValid
nwk_desc_list_free  SYMBOL "nwk_desc_list_free"
??nwk_desc_list_free?relay SYMBOL "?relay", nwk_desc_list_free
nwk_getNwkDescList  SYMBOL "nwk_getNwkDescList"
??nwk_getNwkDescList?relay SYMBOL "?relay", nwk_getNwkDescList
osal_clear_event    SYMBOL "osal_clear_event"
??osal_clear_event?relay SYMBOL "?relay", osal_clear_event
osal_get_timeoutEx  SYMBOL "osal_get_timeoutEx"
??osal_get_timeoutEx?relay SYMBOL "?relay", osal_get_timeoutEx
osal_mem_alloc      SYMBOL "osal_mem_alloc"
??osal_mem_alloc?relay SYMBOL "?relay", osal_mem_alloc
osal_mem_free       SYMBOL "osal_mem_free"
??osal_mem_free?relay SYMBOL "?relay", osal_mem_free
osal_memcmp         SYMBOL "osal_memcmp"
??osal_memcmp?relay SYMBOL "?relay", osal_memcmp
osal_memcpy         SYMBOL "osal_memcpy"
??osal_memcpy?relay SYMBOL "?relay", osal_memcpy
osal_memset         SYMBOL "osal_memset"
??osal_memset?relay SYMBOL "?relay", osal_memset
osal_msg_allocate   SYMBOL "osal_msg_allocate"
??osal_msg_allocate?relay SYMBOL "?relay", osal_msg_allocate
osal_msg_deallocate SYMBOL "osal_msg_deallocate"
??osal_msg_deallocate?relay SYMBOL "?relay", osal_msg_deallocate
osal_msg_receive    SYMBOL "osal_msg_receive"
??osal_msg_receive?relay SYMBOL "?relay", osal_msg_receive
osal_msg_send       SYMBOL "osal_msg_send"
??osal_msg_send?relay SYMBOL "?relay", osal_msg_send
osal_nv_item_init   SYMBOL "osal_nv_item_init"
??osal_nv_item_init?relay SYMBOL "?relay", osal_nv_item_init
osal_nv_read        SYMBOL "osal_nv_read"
??osal_nv_read?relay SYMBOL "?relay", osal_nv_read
osal_nv_write       SYMBOL "osal_nv_write"
??osal_nv_write?relay SYMBOL "?relay", osal_nv_write
osal_pwrmgr_device  SYMBOL "osal_pwrmgr_device"
??osal_pwrmgr_device?relay SYMBOL "?relay", osal_pwrmgr_device
osal_rand           SYMBOL "osal_rand"
??osal_rand?relay   SYMBOL "?relay", osal_rand
osal_set_event      SYMBOL "osal_set_event"
??osal_set_event?relay SYMBOL "?relay", osal_set_event
osal_start_timerEx  SYMBOL "osal_start_timerEx"
??osal_start_timerEx?relay SYMBOL "?relay", osal_start_timerEx
osal_stop_timerEx   SYMBOL "osal_stop_timerEx"
??osal_stop_timerEx?relay SYMBOL "?relay", osal_stop_timerEx
sAddrExtCmp         SYMBOL "sAddrExtCmp"
??sAddrExtCmp?relay SYMBOL "?relay", sAddrExtCmp
sAddrExtCpy         SYMBOL "sAddrExtCpy"
??sAddrExtCpy?relay SYMBOL "?relay", sAddrExtCpy
zgInitItems         SYMBOL "zgInitItems"
??zgInitItems?relay SYMBOL "?relay", zgInitItems
zgReadStartupOptions SYMBOL "zgReadStartupOptions"
??zgReadStartupOptions?relay SYMBOL "?relay", zgReadStartupOptions
zgWriteStartupOptions SYMBOL "zgWriteStartupOptions"
??zgWriteStartupOptions?relay SYMBOL "?relay", zgWriteStartupOptions
AddrMgrWriteNVRequest SYMBOL "AddrMgrWriteNVRequest"
??AddrMgrWriteNVRequest?relay SYMBOL "?relay", AddrMgrWriteNVRequest
ZDAppCheckForHoldKey SYMBOL "ZDAppCheckForHoldKey"
??ZDAppCheckForHoldKey?relay SYMBOL "?relay", ZDAppCheckForHoldKey
ZDAppDetermineDeviceType SYMBOL "ZDAppDetermineDeviceType"
??ZDAppDetermineDeviceType?relay SYMBOL "?relay", ZDAppDetermineDeviceType
ZDApp_AgeOutPendingBindEntry SYMBOL "ZDApp_AgeOutPendingBindEntry"
??ZDApp_AgeOutPendingBindEntry?relay SYMBOL "?relay", ZDApp_AgeOutPendingBindEntry
ZDApp_AnnounceNewAddress SYMBOL "ZDApp_AnnounceNewAddress"
??ZDApp_AnnounceNewAddress?relay SYMBOL "?relay", ZDApp_AnnounceNewAddress
ZDApp_ChangeMatchDescRespPermission SYMBOL "ZDApp_ChangeMatchDescRespPermission"
??ZDApp_ChangeMatchDescRespPermission?relay SYMBOL "?relay", ZDApp_ChangeMatchDescRespPermission
ZDApp_ChangeState   SYMBOL "ZDApp_ChangeState"
??ZDApp_ChangeState?relay SYMBOL "?relay", ZDApp_ChangeState
ZDApp_CoordStartPANIDConflictCB SYMBOL "ZDApp_CoordStartPANIDConflictCB"
??ZDApp_CoordStartPANIDConflictCB?relay SYMBOL "?relay", ZDApp_CoordStartPANIDConflictCB
ZDApp_DeviceAuthEvt SYMBOL "ZDApp_DeviceAuthEvt"
??ZDApp_DeviceAuthEvt?relay SYMBOL "?relay", ZDApp_DeviceAuthEvt
ZDApp_DeviceConfigured SYMBOL "ZDApp_DeviceConfigured"
??ZDApp_DeviceConfigured?relay SYMBOL "?relay", ZDApp_DeviceConfigured
ZDApp_ForceConcentratorChange SYMBOL "ZDApp_ForceConcentratorChange"
??ZDApp_ForceConcentratorChange?relay SYMBOL "?relay", ZDApp_ForceConcentratorChange
ZDApp_GetEmptyPendingBindReq SYMBOL "ZDApp_GetEmptyPendingBindReq"
??ZDApp_GetEmptyPendingBindReq?relay SYMBOL "?relay", ZDApp_GetEmptyPendingBindReq
ZDApp_InMsgCB       SYMBOL "ZDApp_InMsgCB"
??ZDApp_InMsgCB?relay SYMBOL "?relay", ZDApp_InMsgCB
ZDApp_Init          SYMBOL "ZDApp_Init"
??ZDApp_Init?relay  SYMBOL "?relay", ZDApp_Init
ZDApp_InitPendingBind SYMBOL "ZDApp_InitPendingBind"
??ZDApp_InitPendingBind?relay SYMBOL "?relay", ZDApp_InitPendingBind
ZDApp_InitUserDesc  SYMBOL "ZDApp_InitUserDesc"
??ZDApp_InitUserDesc?relay SYMBOL "?relay", ZDApp_InitUserDesc
ZDApp_InitZdoCBFunc SYMBOL "ZDApp_InitZdoCBFunc"
??ZDApp_InitZdoCBFunc?relay SYMBOL "?relay", ZDApp_InitZdoCBFunc
ZDApp_JoinReq       SYMBOL "ZDApp_JoinReq"
??ZDApp_JoinReq?relay SYMBOL "?relay", ZDApp_JoinReq
ZDApp_LeaveCtrlBypass SYMBOL "ZDApp_LeaveCtrlBypass"
??ZDApp_LeaveCtrlBypass?relay SYMBOL "?relay", ZDApp_LeaveCtrlBypass
ZDApp_LeaveCtrlInit SYMBOL "ZDApp_LeaveCtrlInit"
??ZDApp_LeaveCtrlInit?relay SYMBOL "?relay", ZDApp_LeaveCtrlInit
ZDApp_LeaveCtrlReset SYMBOL "ZDApp_LeaveCtrlReset"
??ZDApp_LeaveCtrlReset?relay SYMBOL "?relay", ZDApp_LeaveCtrlReset
ZDApp_LeaveCtrlSet  SYMBOL "ZDApp_LeaveCtrlSet"
??ZDApp_LeaveCtrlSet?relay SYMBOL "?relay", ZDApp_LeaveCtrlSet
ZDApp_LeaveCtrlStartup SYMBOL "ZDApp_LeaveCtrlStartup"
??ZDApp_LeaveCtrlStartup?relay SYMBOL "?relay", ZDApp_LeaveCtrlStartup
ZDApp_LeaveReset    SYMBOL "ZDApp_LeaveReset"
??ZDApp_LeaveReset?relay SYMBOL "?relay", ZDApp_LeaveReset
ZDApp_LeaveUpdate   SYMBOL "ZDApp_LeaveUpdate"
??ZDApp_LeaveUpdate?relay SYMBOL "?relay", ZDApp_LeaveUpdate
ZDApp_NVUpdate      SYMBOL "ZDApp_NVUpdate"
??ZDApp_NVUpdate?relay SYMBOL "?relay", ZDApp_NVUpdate
ZDApp_NetworkDiscoveryReq SYMBOL "ZDApp_NetworkDiscoveryReq"
??ZDApp_NetworkDiscoveryReq?relay SYMBOL "?relay", ZDApp_NetworkDiscoveryReq
ZDApp_NetworkInit   SYMBOL "ZDApp_NetworkInit"
??ZDApp_NetworkInit?relay SYMBOL "?relay", ZDApp_NetworkInit
ZDApp_NetworkStartEvt SYMBOL "ZDApp_NetworkStartEvt"
??ZDApp_NetworkStartEvt?relay SYMBOL "?relay", ZDApp_NetworkStartEvt
ZDApp_NodeProfileSync SYMBOL "ZDApp_NodeProfileSync"
??ZDApp_NodeProfileSync?relay SYMBOL "?relay", ZDApp_NodeProfileSync
ZDApp_NwkDescListProcessing SYMBOL "ZDApp_NwkDescListProcessing"
??ZDApp_NwkDescListProcessing?relay SYMBOL "?relay", ZDApp_NwkDescListProcessing
ZDApp_NwkStateUpdateCB SYMBOL "ZDApp_NwkStateUpdateCB"
??ZDApp_NwkStateUpdateCB?relay SYMBOL "?relay", ZDApp_NwkStateUpdateCB
ZDApp_ProcessMsgCBs SYMBOL "ZDApp_ProcessMsgCBs"
??ZDApp_ProcessMsgCBs?relay SYMBOL "?relay", ZDApp_ProcessMsgCBs
ZDApp_ProcessNetworkJoin SYMBOL "ZDApp_ProcessNetworkJoin"
??ZDApp_ProcessNetworkJoin?relay SYMBOL "?relay", ZDApp_ProcessNetworkJoin
ZDApp_ProcessOSALMsg SYMBOL "ZDApp_ProcessOSALMsg"
??ZDApp_ProcessOSALMsg?relay SYMBOL "?relay", ZDApp_ProcessOSALMsg
ZDApp_ProcessPendingBindReq SYMBOL "ZDApp_ProcessPendingBindReq"
??ZDApp_ProcessPendingBindReq?relay SYMBOL "?relay", ZDApp_ProcessPendingBindReq
ZDApp_ProcessSecEvent SYMBOL "ZDApp_ProcessSecEvent"
??ZDApp_ProcessSecEvent?relay SYMBOL "?relay", ZDApp_ProcessSecEvent
ZDApp_ProcessSecMsg SYMBOL "ZDApp_ProcessSecMsg"
??ZDApp_ProcessSecMsg?relay SYMBOL "?relay", ZDApp_ProcessSecMsg
ZDApp_ReadNetworkRestoreState SYMBOL "ZDApp_ReadNetworkRestoreState"
??ZDApp_ReadNetworkRestoreState?relay SYMBOL "?relay", ZDApp_ReadNetworkRestoreState
ZDApp_RegisterCBs   SYMBOL "ZDApp_RegisterCBs"
??ZDApp_RegisterCBs?relay SYMBOL "?relay", ZDApp_RegisterCBs
ZDApp_ResetNwkKey   SYMBOL "ZDApp_ResetNwkKey"
??ZDApp_ResetNwkKey?relay SYMBOL "?relay", ZDApp_ResetNwkKey
ZDApp_ResetTimerCancel SYMBOL "ZDApp_ResetTimerCancel"
??ZDApp_ResetTimerCancel?relay SYMBOL "?relay", ZDApp_ResetTimerCancel
ZDApp_ResetTimerStart SYMBOL "ZDApp_ResetTimerStart"
??ZDApp_ResetTimerStart?relay SYMBOL "?relay", ZDApp_ResetTimerStart
ZDApp_RestoreNetworkState SYMBOL "ZDApp_RestoreNetworkState"
??ZDApp_RestoreNetworkState?relay SYMBOL "?relay", ZDApp_RestoreNetworkState
ZDApp_RestoreNwkKey SYMBOL "ZDApp_RestoreNwkKey"
??ZDApp_RestoreNwkKey?relay SYMBOL "?relay", ZDApp_RestoreNwkKey
ZDApp_SaveNetworkStateEvt SYMBOL "ZDApp_SaveNetworkStateEvt"
??ZDApp_SaveNetworkStateEvt?relay SYMBOL "?relay", ZDApp_SaveNetworkStateEvt
ZDApp_SaveNwkKey    SYMBOL "ZDApp_SaveNwkKey"
??ZDApp_SaveNwkKey?relay SYMBOL "?relay", ZDApp_SaveNwkKey
ZDApp_SecInit       SYMBOL "ZDApp_SecInit"
??ZDApp_SecInit?relay SYMBOL "?relay", ZDApp_SecInit
ZDApp_SendEventMsg  SYMBOL "ZDApp_SendEventMsg"
??ZDApp_SendEventMsg?relay SYMBOL "?relay", ZDApp_SendEventMsg
ZDApp_SendMsg       SYMBOL "ZDApp_SendMsg"
??ZDApp_SendMsg?relay SYMBOL "?relay", ZDApp_SendMsg
ZDApp_SendParentAnnce SYMBOL "ZDApp_SendParentAnnce"
??ZDApp_SendParentAnnce?relay SYMBOL "?relay", ZDApp_SendParentAnnce
ZDApp_SetParentAnnceTimer SYMBOL "ZDApp_SetParentAnnceTimer"
??ZDApp_SetParentAnnceTimer?relay SYMBOL "?relay", ZDApp_SetParentAnnceTimer
ZDApp_SetPendingBindDefault SYMBOL "ZDApp_SetPendingBindDefault"
??ZDApp_SetPendingBindDefault?relay SYMBOL "?relay", ZDApp_SetPendingBindDefault
ZDApp_SetRejoinBackoffDuration SYMBOL "ZDApp_SetRejoinBackoffDuration"
??ZDApp_SetRejoinBackoffDuration?relay SYMBOL "?relay", ZDApp_SetRejoinBackoffDuration
ZDApp_SetRejoinScanDuration SYMBOL "ZDApp_SetRejoinScanDuration"
??ZDApp_SetRejoinScanDuration?relay SYMBOL "?relay", ZDApp_SetRejoinScanDuration
ZDApp_StartJoiningCycle SYMBOL "ZDApp_StartJoiningCycle"
??ZDApp_StartJoiningCycle?relay SYMBOL "?relay", ZDApp_StartJoiningCycle
ZDApp_StopJoiningCycle SYMBOL "ZDApp_StopJoiningCycle"
??ZDApp_StopJoiningCycle?relay SYMBOL "?relay", ZDApp_StopJoiningCycle
ZDApp_event_loop    SYMBOL "ZDApp_event_loop"
??ZDApp_event_loop?relay SYMBOL "?relay", ZDApp_event_loop
ZDOInitDevice       SYMBOL "ZDOInitDevice"
??ZDOInitDevice?relay SYMBOL "?relay", ZDOInitDevice
ZDO_AddrChangeIndicationCB SYMBOL "ZDO_AddrChangeIndicationCB"
??ZDO_AddrChangeIndicationCB?relay SYMBOL "?relay", ZDO_AddrChangeIndicationCB
ZDO_ConcentratorIndicationCB SYMBOL "ZDO_ConcentratorIndicationCB"
??ZDO_ConcentratorIndicationCB?relay SYMBOL "?relay", ZDO_ConcentratorIndicationCB
ZDO_DeregisterForZdoCB SYMBOL "ZDO_DeregisterForZdoCB"
??ZDO_DeregisterForZdoCB?relay SYMBOL "?relay", ZDO_DeregisterForZdoCB
ZDO_JoinConfirmCB   SYMBOL "ZDO_JoinConfirmCB"
??ZDO_JoinConfirmCB?relay SYMBOL "?relay", ZDO_JoinConfirmCB
ZDO_JoinIndicationCB SYMBOL "ZDO_JoinIndicationCB"
??ZDO_JoinIndicationCB?relay SYMBOL "?relay", ZDO_JoinIndicationCB
ZDO_LeaveCnf        SYMBOL "ZDO_LeaveCnf"
??ZDO_LeaveCnf?relay SYMBOL "?relay", ZDO_LeaveCnf
ZDO_LeaveInd        SYMBOL "ZDO_LeaveInd"
??ZDO_LeaveInd?relay SYMBOL "?relay", ZDO_LeaveInd
ZDO_ManytoOneFailureIndicationCB SYMBOL "ZDO_ManytoOneFailureIndicationCB"
??ZDO_ManytoOneFailureIndicationCB?relay SYMBOL "?relay", ZDO_ManytoOneFailureIndicationCB
ZDO_NetworkDiscoveryConfirmCB SYMBOL "ZDO_NetworkDiscoveryConfirmCB"
??ZDO_NetworkDiscoveryConfirmCB?relay SYMBOL "?relay", ZDO_NetworkDiscoveryConfirmCB
ZDO_NetworkFormationConfirmCB SYMBOL "ZDO_NetworkFormationConfirmCB"
??ZDO_NetworkFormationConfirmCB?relay SYMBOL "?relay", ZDO_NetworkFormationConfirmCB
ZDO_NetworkStatusCB SYMBOL "ZDO_NetworkStatusCB"
??ZDO_NetworkStatusCB?relay SYMBOL "?relay", ZDO_NetworkStatusCB
ZDO_PermitJoinCB    SYMBOL "ZDO_PermitJoinCB"
??ZDO_PermitJoinCB?relay SYMBOL "?relay", ZDO_PermitJoinCB
ZDO_PollConfirmCB   SYMBOL "ZDO_PollConfirmCB"
??ZDO_PollConfirmCB?relay SYMBOL "?relay", ZDO_PollConfirmCB
ZDO_RegisterForZdoCB SYMBOL "ZDO_RegisterForZdoCB"
??ZDO_RegisterForZdoCB?relay SYMBOL "?relay", ZDO_RegisterForZdoCB
ZDO_SrcRtgIndCB     SYMBOL "ZDO_SrcRtgIndCB"
??ZDO_SrcRtgIndCB?relay SYMBOL "?relay", ZDO_SrcRtgIndCB
ZDO_StartRouterConfirmCB SYMBOL "ZDO_StartRouterConfirmCB"
??ZDO_StartRouterConfirmCB?relay SYMBOL "?relay", ZDO_StartRouterConfirmCB
ZDO_SyncIndicationCB SYMBOL "ZDO_SyncIndicationCB"
??ZDO_SyncIndicationCB?relay SYMBOL "?relay", ZDO_SyncIndicationCB
ZDO_UpdateDeviceIndication SYMBOL "ZDO_UpdateDeviceIndication"
??ZDO_UpdateDeviceIndication?relay SYMBOL "?relay", ZDO_UpdateDeviceIndication
ZDO_beaconNotifyIndCB SYMBOL "ZDO_beaconNotifyIndCB"
??ZDO_beaconNotifyIndCB?relay SYMBOL "?relay", ZDO_beaconNotifyIndCB

        EXTERN ??APSME_BindRequest?relay
        FUNCTION ??APSME_BindRequest?relay,00H
        EXTERN ??APSME_HoldDataRequests?relay
        FUNCTION ??APSME_HoldDataRequests?relay,00H
        EXTERN ??AddrMgrEntryLookupExt?relay
        FUNCTION ??AddrMgrEntryLookupExt?relay,00H
        EXTERN ??AddrMgrEntryRelease?relay
        FUNCTION ??AddrMgrEntryRelease?relay,00H
        EXTERN ??AddrMgrExtAddrSet?relay
        FUNCTION ??AddrMgrExtAddrSet?relay,00H
        EXTERN ??AssocMakeListOfRfdChild?relay
        FUNCTION ??AssocMakeListOfRfdChild?relay,00H
        EXTERN ??HalKeyRead?relay
        FUNCTION ??HalKeyRead?relay,00H
        EXTERN ??HalLedBlink?relay
        FUNCTION ??HalLedBlink?relay,00H
        EXTERN ??HalLedSet?relay
        FUNCTION ??HalLedSet?relay,00H
        EXTERN ??NLME_GetCoordExtAddr?relay
        FUNCTION ??NLME_GetCoordExtAddr?relay,00H
        EXTERN ??NLME_GetCoordShortAddr?relay
        FUNCTION ??NLME_GetCoordShortAddr?relay,00H
        EXTERN ??NLME_GetEnergyThreshold?relay
        FUNCTION ??NLME_GetEnergyThreshold?relay,00H
        EXTERN ??NLME_GetExtAddr?relay
        FUNCTION ??NLME_GetExtAddr?relay,00H
        EXTERN ??NLME_GetShortAddr?relay
        FUNCTION ??NLME_GetShortAddr?relay,00H
        EXTERN ??NLME_InitNV?relay
        FUNCTION ??NLME_InitNV?relay,00H
        EXTERN ??NLME_JoinRequest?relay
        FUNCTION ??NLME_JoinRequest?relay,00H
        EXTERN ??NLME_LeaveRsp?relay
        FUNCTION ??NLME_LeaveRsp?relay,00H
        EXTERN ??NLME_NetworkDiscoveryRequest?relay
        FUNCTION ??NLME_NetworkDiscoveryRequest?relay,00H
        EXTERN ??NLME_NwkDiscTerm?relay
        FUNCTION ??NLME_NwkDiscTerm?relay,00H
        EXTERN ??NLME_ReJoinRequest?relay
        FUNCTION ??NLME_ReJoinRequest?relay,00H
        EXTERN ??NLME_ReJoinRequestUnsecure?relay
        FUNCTION ??NLME_ReJoinRequestUnsecure?relay,00H
        EXTERN ??NLME_RestoreFromNV?relay
        FUNCTION ??NLME_RestoreFromNV?relay,00H
        EXTERN ??NLME_SendEndDevTimeoutReq?relay
        FUNCTION ??NLME_SendEndDevTimeoutReq?relay,00H
        EXTERN ??NLME_SetBroadcastFilter?relay
        FUNCTION ??NLME_SetBroadcastFilter?relay,00H
        EXTERN ??NLME_SetDefaultNV?relay
        FUNCTION ??NLME_SetDefaultNV?relay,00H
        EXTERN ??NLME_SetEnergyThreshold?relay
        FUNCTION ??NLME_SetEnergyThreshold?relay,00H
        EXTERN ??NLME_SetPollRate?relay
        FUNCTION ??NLME_SetPollRate?relay,00H
        EXTERN ??NLME_SetQueuedPollRate?relay
        FUNCTION ??NLME_SetQueuedPollRate?relay,00H
        EXTERN ??NLME_SetResponseRate?relay
        FUNCTION ??NLME_SetResponseRate?relay,00H
        EXTERN ??NLME_UpdateNV?relay
        FUNCTION ??NLME_UpdateNV?relay,00H
        EXTERN ??RTG_MTORouteReq?relay
        FUNCTION ??RTG_MTORouteReq?relay,00H
        EXTERN ??RTG_RemoveRtgEntry?relay
        FUNCTION ??RTG_RemoveRtgEntry?relay,00H
        EXTERN ??SSP_ReadNwkActiveKey?relay
        FUNCTION ??SSP_ReadNwkActiveKey?relay,00H
        EXTERN ??SSP_SwitchNwkKey?relay
        FUNCTION ??SSP_SwitchNwkKey?relay,00H
        EXTERN ??SSP_UpdateNwkKey?relay
        FUNCTION ??SSP_UpdateNwkKey?relay,00H
        EXTERN ??ZDConfig_InitDescriptors?relay
        FUNCTION ??ZDConfig_InitDescriptors?relay,00H
        EXTERN ??ZDO_Init?relay
        FUNCTION ??ZDO_Init?relay,00H
        EXTERN ??ZDO_ParseAddrRsp?relay
        FUNCTION ??ZDO_ParseAddrRsp?relay,00H
        EXTERN ??ZDO_ParseBindUnbindReq?relay
        FUNCTION ??ZDO_ParseBindUnbindReq?relay,00H
        EXTERN ??ZDO_ProcessBindUnbindReq?relay
        FUNCTION ??ZDO_ProcessBindUnbindReq?relay,00H
        EXTERN ??ZDO_RegisterForZDOMsg?relay
        FUNCTION ??ZDO_RegisterForZDOMsg?relay,00H
        EXTERN ??ZDO_StartDevice?relay
        FUNCTION ??ZDO_StartDevice?relay,00H
        EXTERN ??ZDO_UpdateAddrManager?relay
        FUNCTION ??ZDO_UpdateAddrManager?relay,00H
        EXTERN ??ZDO_UpdateNwkStatus?relay
        FUNCTION ??ZDO_UpdateNwkStatus?relay,00H
        EXTERN ??ZDP_DeviceAnnce?relay
        FUNCTION ??ZDP_DeviceAnnce?relay,00H
        EXTERN ??ZDP_GenericRsp?relay
        FUNCTION ??ZDP_GenericRsp?relay,00H
        EXTERN ??ZDP_IncomingData?relay
        FUNCTION ??ZDP_IncomingData?relay,00H
        EXTERN ??ZDP_ParentAnnce?relay
        FUNCTION ??ZDP_ParentAnnce?relay,00H
        EXTERN ??ZDP_SendData?relay
        FUNCTION ??ZDP_SendData?relay,00H
        EXTERN ??ZDSecMgrAddrClear?relay
        FUNCTION ??ZDSecMgrAddrClear?relay,00H
        EXTERN ??ZDSecMgrClearNVKeyValues?relay
        FUNCTION ??ZDSecMgrClearNVKeyValues?relay,00H
        EXTERN ??ZDSecMgrDeviceRemoveByExtAddr?relay
        FUNCTION ??ZDSecMgrDeviceRemoveByExtAddr?relay,00H
        EXTERN ??ZDSecMgrInit?relay
        FUNCTION ??ZDSecMgrInit?relay,00H
        EXTERN ??ZDSecMgrReadKeyFromNv?relay
        FUNCTION ??ZDSecMgrReadKeyFromNv?relay,00H
        EXTERN ??ZDSecMgrSaveApsLinkKey?relay
        FUNCTION ??ZDSecMgrSaveApsLinkKey?relay,00H
        EXTERN ??ZDSecMgrSaveTCLinkKey?relay
        FUNCTION ??ZDSecMgrSaveTCLinkKey?relay,00H
        EXTERN ??ZDSecMgrSwitchKeyInd?relay
        FUNCTION ??ZDSecMgrSwitchKeyInd?relay,00H
        EXTERN ??ZDSecMgrTransportKeyInd?relay
        FUNCTION ??ZDSecMgrTransportKeyInd?relay,00H
        EXTERN ??ZMacSetReq?relay
        FUNCTION ??ZMacSetReq?relay,00H
        EXTERN ??afRegister?relay
        FUNCTION ??afRegister?relay,00H
        EXTERN ??afSetMatch?relay
        FUNCTION ??afSetMatch?relay,00H
        EXTERN ??nwkNeighborFindEmptySlot?relay
        FUNCTION ??nwkNeighborFindEmptySlot?relay,00H
        EXTERN ??nwkNeighborInitTable?relay
        FUNCTION ??nwkNeighborInitTable?relay,00H
        EXTERN ??nwkNeighborRemove?relay
        FUNCTION ??nwkNeighborRemove?relay,00H
        EXTERN ??nwk_ExtPANIDValid?relay
        FUNCTION ??nwk_ExtPANIDValid?relay,00H
        EXTERN ??nwk_desc_list_free?relay
        FUNCTION ??nwk_desc_list_free?relay,00H
        EXTERN ??nwk_getNwkDescList?relay
        FUNCTION ??nwk_getNwkDescList?relay,00H
        EXTERN ??osal_clear_event?relay
        FUNCTION ??osal_clear_event?relay,00H
        EXTERN ??osal_get_timeoutEx?relay
        FUNCTION ??osal_get_timeoutEx?relay,00H
        EXTERN ??osal_mem_alloc?relay
        FUNCTION ??osal_mem_alloc?relay,00H
        EXTERN ??osal_mem_free?relay
        FUNCTION ??osal_mem_free?relay,00H
        EXTERN ??osal_memcmp?relay
        FUNCTION ??osal_memcmp?relay,00H
        EXTERN ??osal_memcpy?relay
        FUNCTION ??osal_memcpy?relay,00H
        EXTERN ??osal_memset?relay
        FUNCTION ??osal_memset?relay,00H
        EXTERN ??osal_msg_allocate?relay
        FUNCTION ??osal_msg_allocate?relay,00H
        EXTERN ??osal_msg_deallocate?relay
        FUNCTION ??osal_msg_deallocate?relay,00H
        EXTERN ??osal_msg_receive?relay
        FUNCTION ??osal_msg_receive?relay,00H
        EXTERN ??osal_msg_send?relay
        FUNCTION ??osal_msg_send?relay,00H
        EXTERN ??osal_nv_item_init?relay
        FUNCTION ??osal_nv_item_init?relay,00H
        EXTERN ??osal_nv_read?relay
        FUNCTION ??osal_nv_read?relay,00H
        EXTERN ??osal_nv_write?relay
        FUNCTION ??osal_nv_write?relay,00H
        EXTERN ??osal_pwrmgr_device?relay
        FUNCTION ??osal_pwrmgr_device?relay,00H
        EXTERN ??osal_rand?relay
        FUNCTION ??osal_rand?relay,00H
        EXTERN ??osal_set_event?relay
        FUNCTION ??osal_set_event?relay,00H
        EXTERN ??osal_start_timerEx?relay
        FUNCTION ??osal_start_timerEx?relay,00H
        EXTERN ??osal_stop_timerEx?relay
        FUNCTION ??osal_stop_timerEx?relay,00H
        EXTERN ??sAddrExtCmp?relay
        FUNCTION ??sAddrExtCmp?relay,00H
        EXTERN ??sAddrExtCpy?relay
        FUNCTION ??sAddrExtCpy?relay,00H
        EXTERN ??zgInitItems?relay
        FUNCTION ??zgInitItems?relay,00H
        EXTERN ??zgReadStartupOptions?relay
        FUNCTION ??zgReadStartupOptions?relay,00H
        EXTERN ??zgWriteStartupOptions?relay
        FUNCTION ??zgWriteStartupOptions?relay,00H
        EXTERN AIB_apsUseExtendedPANID
        EXTERN AIB_apsUseInsecureJoin
        EXTERN APSME_BindRequest
        FUNCTION APSME_BindRequest,0202H
        ARGFRAME ISTACK, 0, STACK
        ARGFRAME PSTACK, 0, STACK
        ARGFRAME XSTACK, 17, STACK
        ARGFRAME IOVERLAY, 0, STATIC
        ARGFRAME DOVERLAY, 0, STATIC
        EXTERN APSME_HoldDataRequests
        FUNCTION APSME_HoldDataRequests,0202H
        ARGFRAME ISTACK, 0, STACK
        ARGFRAME PSTACK, 0, STACK
        ARGFRAME XSTACK, 18, STACK
        ARGFRAME IOVERLAY, 0, STATIC
        ARGFRAME DOVERLAY, 0, STATIC
        EXTERN AddrMgrEntryLookupExt
        FUNCTION AddrMgrEntryLookupExt,0202H
        ARGFRAME ISTACK, 0, STACK
        ARGFRAME PSTACK, 0, STACK
        ARGFRAME XSTACK, 26, STACK
        ARGFRAME IOVERLAY, 0, STATIC
        ARGFRAME DOVERLAY, 0, STATIC
        EXTERN AddrMgrEntryRelease
        FUNCTION AddrMgrEntryRelease,0202H
        ARGFRAME ISTACK, 0, STACK
        ARGFRAME PSTACK, 0, STACK
        ARGFRAME XSTACK, 26, STACK
        ARGFRAME IOVERLAY, 0, STATIC
        ARGFRAME DOVERLAY, 0, STATIC
        EXTERN AddrMgrExtAddrSet
        FUNCTION AddrMgrExtAddrSet,0202H
        ARGFRAME ISTACK, 0, STACK
        ARGFRAME PSTACK, 0, STACK
        ARGFRAME XSTACK, 26, STACK
        ARGFRAME IOVERLAY, 0, STATIC
        ARGFRAME DOVERLAY, 0, STATIC
        EXTERN AssocMakeListOfRfdChild
        FUNCTION AssocMakeListOfRfdChild,0202H
        ARGFRAME ISTACK, 0, STACK
        ARGFRAME PSTACK, 0, STACK
        ARGFRAME XSTACK, 22, STACK
        ARGFRAME IOVERLAY, 0, STATIC
        ARGFRAME DOVERLAY, 0, STATIC
        EXTERN HalKeyRead
        FUNCTION HalKeyRead,0202H
        ARGFRAME ISTACK, 2, STACK
        ARGFRAME PSTACK, 0, STACK
        ARGFRAME XSTACK, 0, STACK
        ARGFRAME IOVERLAY, 0, STATIC
        ARGFRAME DOVERLAY, 0, STATIC
        EXTERN HalLedBlink
        FUNCTION HalLedBlink,0202H
        ARGFRAME ISTACK, 0, STACK
        ARGFRAME PSTACK, 0, STACK
        ARGFRAME XSTACK, 9, STACK
        ARGFRAME IOVERLAY, 0, STATIC
        ARGFRAME DOVERLAY, 0, STATIC
        EXTERN HalLedSet
        FUNCTION HalLedSet,0202H
        ARGFRAME ISTACK, 0, STACK
        ARGFRAME PSTACK, 0, STACK
        ARGFRAME XSTACK, 17, STACK
        ARGFRAME IOVERLAY, 0, STATIC
        ARGFRAME DOVERLAY, 0, STATIC
        EXTERN NLME_GetCoordExtAddr
        FUNCTION NLME_GetCoordExtAddr,0202H
        ARGFRAME ISTACK, 0, STACK
        ARGFRAME PSTACK, 0, STACK
        ARGFRAME XSTACK, 18, STACK
        ARGFRAME IOVERLAY, 0, STATIC
        ARGFRAME DOVERLAY, 0, STATIC
        EXTERN NLME_GetCoordShortAddr
        FUNCTION NLME_GetCoordShortAddr,0202H
        ARGFRAME ISTACK, 0, STACK
        ARGFRAME PSTACK, 0, STACK
        ARGFRAME XSTACK, 18, STACK
        ARGFRAME IOVERLAY, 0, STATIC
        ARGFRAME DOVERLAY, 0, STATIC
        EXTERN NLME_GetEnergyThreshold
        FUNCTION NLME_GetEnergyThreshold,0202H
        ARGFRAME ISTACK, 2, STACK
        ARGFRAME PSTACK, 0, STACK
        ARGFRAME XSTACK, 0, STACK
        ARGFRAME IOVERLAY, 0, STATIC
        ARGFRAME DOVERLAY, 0, STATIC
        EXTERN NLME_GetExtAddr
        FUNCTION NLME_GetExtAddr,0202H
        ARGFRAME ISTACK, 0, STACK
        ARGFRAME PSTACK, 0, STACK
        ARGFRAME XSTACK, 18, STACK
        ARGFRAME IOVERLAY, 0, STATIC
        ARGFRAME DOVERLAY, 0, STATIC
        EXTERN NLME_GetShortAddr
        FUNCTION NLME_GetShortAddr,0202H
        ARGFRAME ISTACK, 2, STACK
        ARGFRAME PSTACK, 0, STACK
        ARGFRAME XSTACK, 18, STACK
        ARGFRAME IOVERLAY, 0, STATIC
        ARGFRAME DOVERLAY, 0, STATIC
        EXTERN NLME_InitNV
        FUNCTION NLME_InitNV,0202H
        ARGFRAME ISTACK, 0, STACK
        ARGFRAME PSTACK, 0, STACK
        ARGFRAME XSTACK, 16, STACK
        ARGFRAME IOVERLAY, 0, STATIC
        ARGFRAME DOVERLAY, 0, STATIC
        EXTERN NLME_JoinRequest
        FUNCTION NLME_JoinRequest,0202H
        ARGFRAME ISTACK, 0, STACK
        ARGFRAME PSTACK, 0, STACK
        ARGFRAME XSTACK, 19, STACK
        ARGFRAME IOVERLAY, 0, STATIC
        ARGFRAME DOVERLAY, 0, STATIC
        EXTERN NLME_LeaveRsp
        FUNCTION NLME_LeaveRsp,0202H
        ARGFRAME ISTACK, 0, STACK
        ARGFRAME PSTACK, 0, STACK
        ARGFRAME XSTACK, 14, STACK
        ARGFRAME IOVERLAY, 0, STATIC
        ARGFRAME DOVERLAY, 0, STATIC
        EXTERN NLME_NetworkDiscoveryRequest
        FUNCTION NLME_NetworkDiscoveryRequest,0202H
        ARGFRAME ISTACK, 0, STACK
        ARGFRAME PSTACK, 0, STACK
        ARGFRAME XSTACK, 12, STACK
        ARGFRAME IOVERLAY, 0, STATIC
        ARGFRAME DOVERLAY, 0, STATIC
        EXTERN NLME_NwkDiscTerm
        FUNCTION NLME_NwkDiscTerm,0202H
        ARGFRAME ISTACK, 0, STACK
        ARGFRAME PSTACK, 0, STACK
        ARGFRAME XSTACK, 14, STACK
        ARGFRAME IOVERLAY, 0, STATIC
        ARGFRAME DOVERLAY, 0, STATIC
        EXTERN NLME_ReJoinRequest
        FUNCTION NLME_ReJoinRequest,0202H
        ARGFRAME ISTACK, 0, STACK
        ARGFRAME PSTACK, 0, STACK
        ARGFRAME XSTACK, 15, STACK
        ARGFRAME IOVERLAY, 0, STATIC
        ARGFRAME DOVERLAY, 0, STATIC
        EXTERN NLME_ReJoinRequestUnsecure
        FUNCTION NLME_ReJoinRequestUnsecure,0202H
        ARGFRAME ISTACK, 0, STACK
        ARGFRAME PSTACK, 0, STACK
        ARGFRAME XSTACK, 15, STACK
        ARGFRAME IOVERLAY, 0, STATIC
        ARGFRAME DOVERLAY, 0, STATIC
        EXTERN NLME_RestoreFromNV
        FUNCTION NLME_RestoreFromNV,0202H
        ARGFRAME ISTACK, 0, STACK
        ARGFRAME PSTACK, 0, STACK
        ARGFRAME XSTACK, 9, STACK
        ARGFRAME IOVERLAY, 0, STATIC
        ARGFRAME DOVERLAY, 0, STATIC
        EXTERN NLME_SendEndDevTimeoutReq
        FUNCTION NLME_SendEndDevTimeoutReq,0202H
        ARGFRAME ISTACK, 0, STACK
        ARGFRAME PSTACK, 0, STACK
        ARGFRAME XSTACK, 19, STACK
        ARGFRAME IOVERLAY, 0, STATIC
        ARGFRAME DOVERLAY, 0, STATIC
        EXTERN NLME_SetBroadcastFilter
        FUNCTION NLME_SetBroadcastFilter,0202H
        ARGFRAME ISTACK, 0, STACK
        ARGFRAME PSTACK, 0, STACK
        ARGFRAME XSTACK, 16, STACK
        ARGFRAME IOVERLAY, 0, STATIC
        ARGFRAME DOVERLAY, 0, STATIC
        EXTERN NLME_SetDefaultNV
        FUNCTION NLME_SetDefaultNV,0202H
        ARGFRAME ISTACK, 0, STACK
        ARGFRAME PSTACK, 0, STACK
        ARGFRAME XSTACK, 16, STACK
        ARGFRAME IOVERLAY, 0, STATIC
        ARGFRAME DOVERLAY, 0, STATIC
        EXTERN NLME_SetEnergyThreshold
        FUNCTION NLME_SetEnergyThreshold,0202H
        ARGFRAME ISTACK, 2, STACK
        ARGFRAME PSTACK, 0, STACK
        ARGFRAME XSTACK, 0, STACK
        ARGFRAME IOVERLAY, 0, STATIC
        ARGFRAME DOVERLAY, 0, STATIC
        EXTERN NLME_SetPollRate
        FUNCTION NLME_SetPollRate,0202H
        ARGFRAME ISTACK, 2, STACK
        ARGFRAME PSTACK, 0, STACK
        ARGFRAME XSTACK, 15, STACK
        ARGFRAME IOVERLAY, 0, STATIC
        ARGFRAME DOVERLAY, 0, STATIC
        EXTERN NLME_SetQueuedPollRate
        FUNCTION NLME_SetQueuedPollRate,0202H
        ARGFRAME ISTACK, 0, STACK
        ARGFRAME PSTACK, 0, STACK
        ARGFRAME XSTACK, 15, STACK
        ARGFRAME IOVERLAY, 0, STATIC
        ARGFRAME DOVERLAY, 0, STATIC
        EXTERN NLME_SetResponseRate
        FUNCTION NLME_SetResponseRate,0202H
        ARGFRAME ISTACK, 0, STACK
        ARGFRAME PSTACK, 0, STACK
        ARGFRAME XSTACK, 15, STACK
        ARGFRAME IOVERLAY, 0, STATIC
        ARGFRAME DOVERLAY, 0, STATIC
        EXTERN NLME_UpdateNV
        FUNCTION NLME_UpdateNV,0202H
        ARGFRAME ISTACK, 2, STACK
        ARGFRAME PSTACK, 0, STACK
        ARGFRAME XSTACK, 0, STACK
        ARGFRAME IOVERLAY, 0, STATIC
        ARGFRAME DOVERLAY, 0, STATIC
        EXTERN NWK_TaskID
        EXTERN NwkDescList
        EXTERN Onboard_soft_reset
        FUNCTION Onboard_soft_reset,0202H
        ARGFRAME ISTACK, 0, STACK
        ARGFRAME PSTACK, 0, STACK
        ARGFRAME XSTACK, 14, STACK
        ARGFRAME IOVERLAY, 0, STATIC
        ARGFRAME DOVERLAY, 0, STATIC
        EXTERN RTG_MTORouteReq
        FUNCTION RTG_MTORouteReq,0202H
        ARGFRAME ISTACK, 2, STACK
        ARGFRAME PSTACK, 0, STACK
        ARGFRAME XSTACK, 0, STACK
        ARGFRAME IOVERLAY, 0, STATIC
        ARGFRAME DOVERLAY, 0, STATIC
        EXTERN RTG_RemoveRtgEntry
        FUNCTION RTG_RemoveRtgEntry,0202H
        ARGFRAME ISTACK, 0, STACK
        ARGFRAME PSTACK, 0, STACK
        ARGFRAME XSTACK, 24, STACK
        ARGFRAME IOVERLAY, 0, STATIC
        ARGFRAME DOVERLAY, 0, STATIC
        EXTERN SSP_ReadNwkActiveKey
        FUNCTION SSP_ReadNwkActiveKey,0202H
        ARGFRAME ISTACK, 0, STACK
        ARGFRAME PSTACK, 0, STACK
        ARGFRAME XSTACK, 31, STACK
        ARGFRAME IOVERLAY, 0, STATIC
        ARGFRAME DOVERLAY, 0, STATIC
        EXTERN SSP_SwitchNwkKey
        FUNCTION SSP_SwitchNwkKey,0202H
        ARGFRAME ISTACK, 0, STACK
        ARGFRAME PSTACK, 0, STACK
        ARGFRAME XSTACK, 25, STACK
        ARGFRAME IOVERLAY, 0, STATIC
        ARGFRAME DOVERLAY, 0, STATIC
        EXTERN SSP_UpdateNwkKey
        FUNCTION SSP_UpdateNwkKey,0202H
        ARGFRAME ISTACK, 0, STACK
        ARGFRAME PSTACK, 0, STACK
        ARGFRAME XSTACK, 25, STACK
        ARGFRAME IOVERLAY, 0, STATIC
        ARGFRAME DOVERLAY, 0, STATIC
        EXTERN ZDConfig_InitDescriptors
        FUNCTION ZDConfig_InitDescriptors,0202H
        ARGFRAME ISTACK, 0, STACK
        ARGFRAME PSTACK, 0, STACK
        ARGFRAME XSTACK, 16, STACK
        ARGFRAME IOVERLAY, 0, STATIC
        ARGFRAME DOVERLAY, 0, STATIC
        EXTERN ZDO_Config_Node_Descriptor
        EXTERN ZDO_Init
        FUNCTION ZDO_Init,0202H
        ARGFRAME ISTACK, 0, STACK
        ARGFRAME PSTACK, 0, STACK
        ARGFRAME XSTACK, 9, STACK
        ARGFRAME IOVERLAY, 0, STATIC
        ARGFRAME DOVERLAY, 0, STATIC
        EXTERN ZDO_ParseAddrRsp
        FUNCTION ZDO_ParseAddrRsp,0202H
        ARGFRAME ISTACK, 0, STACK
        ARGFRAME PSTACK, 0, STACK
        ARGFRAME XSTACK, 35, STACK
        ARGFRAME IOVERLAY, 0, STATIC
        ARGFRAME DOVERLAY, 0, STATIC
        EXTERN ZDO_ParseBindUnbindReq
        FUNCTION ZDO_ParseBindUnbindReq,0202H
        ARGFRAME ISTACK, 0, STACK
        ARGFRAME PSTACK, 0, STACK
        ARGFRAME XSTACK, 35, STACK
        ARGFRAME IOVERLAY, 0, STATIC
        ARGFRAME DOVERLAY, 0, STATIC
        EXTERN ZDO_ProcessBindUnbindReq
        FUNCTION ZDO_ProcessBindUnbindReq,0202H
        ARGFRAME ISTACK, 0, STACK
        ARGFRAME PSTACK, 0, STACK
        ARGFRAME XSTACK, 35, STACK
        ARGFRAME IOVERLAY, 0, STATIC
        ARGFRAME DOVERLAY, 0, STATIC
        EXTERN ZDO_RegisterForZDOMsg
        FUNCTION ZDO_RegisterForZDOMsg,0202H
        ARGFRAME ISTACK, 2, STACK
        ARGFRAME PSTACK, 0, STACK
        ARGFRAME XSTACK, 0, STACK
        ARGFRAME IOVERLAY, 0, STATIC
        ARGFRAME DOVERLAY, 0, STATIC
        EXTERN ZDO_StartDevice
        FUNCTION ZDO_StartDevice,0202H
        ARGFRAME ISTACK, 0, STACK
        ARGFRAME PSTACK, 0, STACK
        ARGFRAME XSTACK, 14, STACK
        ARGFRAME IOVERLAY, 0, STATIC
        ARGFRAME DOVERLAY, 0, STATIC
        EXTERN ZDO_UpdateAddrManager
        FUNCTION ZDO_UpdateAddrManager,0202H
        ARGFRAME ISTACK, 0, STACK
        ARGFRAME PSTACK, 0, STACK
        ARGFRAME XSTACK, 35, STACK
        ARGFRAME IOVERLAY, 0, STATIC
        ARGFRAME DOVERLAY, 0, STATIC
        EXTERN ZDO_UpdateNwkStatus
        FUNCTION ZDO_UpdateNwkStatus,0202H
        ARGFRAME ISTACK, 0, STACK
        ARGFRAME PSTACK, 0, STACK
        ARGFRAME XSTACK, 14, STACK
        ARGFRAME IOVERLAY, 0, STATIC
        ARGFRAME DOVERLAY, 0, STATIC
        EXTERN ZDP_DeviceAnnce
        FUNCTION ZDP_DeviceAnnce,0202H
        ARGFRAME ISTACK, 0, STACK
        ARGFRAME PSTACK, 0, STACK
        ARGFRAME XSTACK, 19, STACK
        ARGFRAME IOVERLAY, 0, STATIC
        ARGFRAME DOVERLAY, 0, STATIC
        EXTERN ZDP_GenericRsp
        FUNCTION ZDP_GenericRsp,0202H
        ARGFRAME ISTACK, 0, STACK
        ARGFRAME PSTACK, 0, STACK
        ARGFRAME XSTACK, 14, STACK
        ARGFRAME IOVERLAY, 0, STATIC
        ARGFRAME DOVERLAY, 0, STATIC
        EXTERN ZDP_IncomingData
        FUNCTION ZDP_IncomingData,0202H
        ARGFRAME ISTACK, 0, STACK
        ARGFRAME PSTACK, 0, STACK
        ARGFRAME XSTACK, 15, STACK
        ARGFRAME IOVERLAY, 0, STATIC
        ARGFRAME DOVERLAY, 0, STATIC
        EXTERN ZDP_ParentAnnce
        FUNCTION ZDP_ParentAnnce,0202H
        ARGFRAME ISTACK, 0, STACK
        ARGFRAME PSTACK, 0, STACK
        ARGFRAME XSTACK, 27, STACK
        ARGFRAME IOVERLAY, 0, STATIC
        ARGFRAME DOVERLAY, 0, STATIC
        EXTERN ZDP_SendData
        FUNCTION ZDP_SendData,0202H
        ARGFRAME ISTACK, 0, STACK
        ARGFRAME PSTACK, 0, STACK
        ARGFRAME XSTACK, 31, STACK
        ARGFRAME IOVERLAY, 0, STATIC
        ARGFRAME DOVERLAY, 0, STATIC
        EXTERN ZDP_TransID
        EXTERN ZDSecMgrAddrClear
        FUNCTION ZDSecMgrAddrClear,0202H
        ARGFRAME ISTACK, 0, STACK
        ARGFRAME PSTACK, 0, STACK
        ARGFRAME XSTACK, 24, STACK
        ARGFRAME IOVERLAY, 0, STATIC
        ARGFRAME DOVERLAY, 0, STATIC
        EXTERN ZDSecMgrClearNVKeyValues
        FUNCTION ZDSecMgrClearNVKeyValues,0202H
        ARGFRAME ISTACK, 0, STACK
        ARGFRAME PSTACK, 0, STACK
        ARGFRAME XSTACK, 16, STACK
        ARGFRAME IOVERLAY, 0, STATIC
        ARGFRAME DOVERLAY, 0, STATIC
        EXTERN ZDSecMgrDeviceRemoveByExtAddr
        FUNCTION ZDSecMgrDeviceRemoveByExtAddr,0202H
        ARGFRAME ISTACK, 0, STACK
        ARGFRAME PSTACK, 0, STACK
        ARGFRAME XSTACK, 24, STACK
        ARGFRAME IOVERLAY, 0, STATIC
        ARGFRAME DOVERLAY, 0, STATIC
        EXTERN ZDSecMgrInit
        FUNCTION ZDSecMgrInit,0202H
        ARGFRAME ISTACK, 0, STACK
        ARGFRAME PSTACK, 0, STACK
        ARGFRAME XSTACK, 25, STACK
        ARGFRAME IOVERLAY, 0, STATIC
        ARGFRAME DOVERLAY, 0, STATIC
        EXTERN ZDSecMgrReadKeyFromNv
        FUNCTION ZDSecMgrReadKeyFromNv,0202H
        ARGFRAME ISTACK, 0, STACK
        ARGFRAME PSTACK, 0, STACK
        ARGFRAME XSTACK, 25, STACK
        ARGFRAME IOVERLAY, 0, STATIC
        ARGFRAME DOVERLAY, 0, STATIC
        EXTERN ZDSecMgrSaveApsLinkKey
        FUNCTION ZDSecMgrSaveApsLinkKey,0202H
        ARGFRAME ISTACK, 0, STACK
        ARGFRAME PSTACK, 0, STACK
        ARGFRAME XSTACK, 9, STACK
        ARGFRAME IOVERLAY, 0, STATIC
        ARGFRAME DOVERLAY, 0, STATIC
        EXTERN ZDSecMgrSaveTCLinkKey
        FUNCTION ZDSecMgrSaveTCLinkKey,0202H
        ARGFRAME ISTACK, 0, STACK
        ARGFRAME PSTACK, 0, STACK
        ARGFRAME XSTACK, 9, STACK
        ARGFRAME IOVERLAY, 0, STATIC
        ARGFRAME DOVERLAY, 0, STATIC
        EXTERN ZDSecMgrSwitchKeyInd
        FUNCTION ZDSecMgrSwitchKeyInd,0202H
        ARGFRAME ISTACK, 2, STACK
        ARGFRAME PSTACK, 0, STACK
        ARGFRAME XSTACK, 0, STACK
        ARGFRAME IOVERLAY, 0, STATIC
        ARGFRAME DOVERLAY, 0, STATIC
        EXTERN ZDSecMgrTransportKeyInd
        FUNCTION ZDSecMgrTransportKeyInd,0202H
        ARGFRAME ISTACK, 2, STACK
        ARGFRAME PSTACK, 0, STACK
        ARGFRAME XSTACK, 0, STACK
        ARGFRAME IOVERLAY, 0, STATIC
        ARGFRAME DOVERLAY, 0, STATIC
        EXTERN ZMacSetReq
        FUNCTION ZMacSetReq,0202H
        ARGFRAME ISTACK, 0, STACK
        ARGFRAME PSTACK, 0, STACK
        ARGFRAME XSTACK, 15, STACK
        ARGFRAME IOVERLAY, 0, STATIC
        ARGFRAME DOVERLAY, 0, STATIC
        EXTERN _NIB
        EXTERN afRegister
        FUNCTION afRegister,0202H
        ARGFRAME ISTACK, 0, STACK
        ARGFRAME PSTACK, 0, STACK
        ARGFRAME XSTACK, 9, STACK
        ARGFRAME IOVERLAY, 0, STATIC
        ARGFRAME DOVERLAY, 0, STATIC
        EXTERN afSetMatch
        FUNCTION afSetMatch,0202H
        ARGFRAME ISTACK, 0, STACK
        ARGFRAME PSTACK, 0, STACK
        ARGFRAME XSTACK, 9, STACK
        ARGFRAME IOVERLAY, 0, STATIC
        ARGFRAME DOVERLAY, 0, STATIC
        EXTERN epList
        EXTERN gLINK_DOWN_TRIGGER
        EXTERN gMIN_TREE_LQI
        EXTERN nwkFrameCounter
        EXTERN nwkFrameCounterChanges
        EXTERN nwkNeighborFindEmptySlot
        FUNCTION nwkNeighborFindEmptySlot,0202H
        ARGFRAME ISTACK, 0, STACK
        ARGFRAME PSTACK, 0, STACK
        ARGFRAME XSTACK, 17, STACK
        ARGFRAME IOVERLAY, 0, STATIC
        ARGFRAME DOVERLAY, 0, STATIC
        EXTERN nwkNeighborInitTable
        FUNCTION nwkNeighborInitTable,0202H
        ARGFRAME ISTACK, 0, STACK
        ARGFRAME PSTACK, 0, STACK
        ARGFRAME XSTACK, 17, STACK
        ARGFRAME IOVERLAY, 0, STATIC
        ARGFRAME DOVERLAY, 0, STATIC
        EXTERN nwkNeighborRemove
        FUNCTION nwkNeighborRemove,0202H
        ARGFRAME ISTACK, 0, STACK
        ARGFRAME PSTACK, 0, STACK
        ARGFRAME XSTACK, 24, STACK
        ARGFRAME IOVERLAY, 0, STATIC
        ARGFRAME DOVERLAY, 0, STATIC
        EXTERN nwk_ExtPANIDValid
        FUNCTION nwk_ExtPANIDValid,0202H
        ARGFRAME ISTACK, 2, STACK
        ARGFRAME PSTACK, 0, STACK
        ARGFRAME XSTACK, 14, STACK
        ARGFRAME IOVERLAY, 0, STATIC
        ARGFRAME DOVERLAY, 0, STATIC
        EXTERN nwk_desc_list_free
        FUNCTION nwk_desc_list_free,0202H
        ARGFRAME ISTACK, 0, STACK
        ARGFRAME PSTACK, 0, STACK
        ARGFRAME XSTACK, 14, STACK
        ARGFRAME IOVERLAY, 0, STATIC
        ARGFRAME DOVERLAY, 0, STATIC
        EXTERN nwk_getNwkDescList
        FUNCTION nwk_getNwkDescList,0202H
        ARGFRAME ISTACK, 0, STACK
        ARGFRAME PSTACK, 0, STACK
        ARGFRAME XSTACK, 14, STACK
        ARGFRAME IOVERLAY, 0, STATIC
        ARGFRAME DOVERLAY, 0, STATIC
        EXTERN osal_clear_event
        FUNCTION osal_clear_event,0202H
        ARGFRAME ISTACK, 2, STACK
        ARGFRAME PSTACK, 0, STACK
        ARGFRAME XSTACK, 0, STACK
        ARGFRAME IOVERLAY, 0, STATIC
        ARGFRAME DOVERLAY, 0, STATIC
        EXTERN osal_get_timeoutEx
        FUNCTION osal_get_timeoutEx,0202H
        ARGFRAME ISTACK, 2, STACK
        ARGFRAME PSTACK, 0, STACK
        ARGFRAME XSTACK, 16, STACK
        ARGFRAME IOVERLAY, 0, STATIC
        ARGFRAME DOVERLAY, 0, STATIC
        EXTERN osal_mem_alloc
        FUNCTION osal_mem_alloc,0202H
        ARGFRAME ISTACK, 0, STACK
        ARGFRAME PSTACK, 0, STACK
        ARGFRAME XSTACK, 18, STACK
        ARGFRAME IOVERLAY, 0, STATIC
        ARGFRAME DOVERLAY, 0, STATIC
        EXTERN osal_mem_free
        FUNCTION osal_mem_free,0202H
        ARGFRAME ISTACK, 0, STACK
        ARGFRAME PSTACK, 0, STACK
        ARGFRAME XSTACK, 35, STACK
        ARGFRAME IOVERLAY, 0, STATIC
        ARGFRAME DOVERLAY, 0, STATIC
        EXTERN osal_memcmp
        FUNCTION osal_memcmp,0202H
        ARGFRAME ISTACK, 0, STACK
        ARGFRAME PSTACK, 0, STACK
        ARGFRAME XSTACK, 52, STACK
        ARGFRAME IOVERLAY, 0, STATIC
        ARGFRAME DOVERLAY, 0, STATIC
        EXTERN osal_memcpy
        FUNCTION osal_memcpy,0202H
        ARGFRAME ISTACK, 0, STACK
        ARGFRAME PSTACK, 0, STACK
        ARGFRAME XSTACK, 27, STACK
        ARGFRAME IOVERLAY, 0, STATIC
        ARGFRAME DOVERLAY, 0, STATIC
        EXTERN osal_memset
        FUNCTION osal_memset,0202H
        ARGFRAME ISTACK, 0, STACK
        ARGFRAME PSTACK, 0, STACK
        ARGFRAME XSTACK, 49, STACK
        ARGFRAME IOVERLAY, 0, STATIC
        ARGFRAME DOVERLAY, 0, STATIC
        EXTERN osal_msg_allocate
        FUNCTION osal_msg_allocate,0202H
        ARGFRAME ISTACK, 0, STACK
        ARGFRAME PSTACK, 0, STACK
        ARGFRAME XSTACK, 19, STACK
        ARGFRAME IOVERLAY, 0, STATIC
        ARGFRAME DOVERLAY, 0, STATIC
        EXTERN osal_msg_deallocate
        FUNCTION osal_msg_deallocate,0202H
        ARGFRAME ISTACK, 0, STACK
        ARGFRAME PSTACK, 0, STACK
        ARGFRAME XSTACK, 14, STACK
        ARGFRAME IOVERLAY, 0, STATIC
        ARGFRAME DOVERLAY, 0, STATIC
        EXTERN osal_msg_receive
        FUNCTION osal_msg_receive,0202H
        ARGFRAME ISTACK, 0, STACK
        ARGFRAME PSTACK, 0, STACK
        ARGFRAME XSTACK, 14, STACK
        ARGFRAME IOVERLAY, 0, STATIC
        ARGFRAME DOVERLAY, 0, STATIC
        EXTERN osal_msg_send
        FUNCTION osal_msg_send,0202H
        ARGFRAME ISTACK, 0, STACK
        ARGFRAME PSTACK, 0, STACK
        ARGFRAME XSTACK, 19, STACK
        ARGFRAME IOVERLAY, 0, STATIC
        ARGFRAME DOVERLAY, 0, STATIC
        EXTERN osal_nv_item_init
        FUNCTION osal_nv_item_init,0202H
        ARGFRAME ISTACK, 0, STACK
        ARGFRAME PSTACK, 0, STACK
        ARGFRAME XSTACK, 29, STACK
        ARGFRAME IOVERLAY, 0, STATIC
        ARGFRAME DOVERLAY, 0, STATIC
        EXTERN osal_nv_read
        FUNCTION osal_nv_read,0202H
        ARGFRAME ISTACK, 0, STACK
        ARGFRAME PSTACK, 0, STACK
        ARGFRAME XSTACK, 53, STACK
        ARGFRAME IOVERLAY, 0, STATIC
        ARGFRAME DOVERLAY, 0, STATIC
        EXTERN osal_nv_write
        FUNCTION osal_nv_write,0202H
        ARGFRAME ISTACK, 0, STACK
        ARGFRAME PSTACK, 0, STACK
        ARGFRAME XSTACK, 53, STACK
        ARGFRAME IOVERLAY, 0, STATIC
        ARGFRAME DOVERLAY, 0, STATIC
        EXTERN osal_pwrmgr_device
        FUNCTION osal_pwrmgr_device,0202H
        ARGFRAME ISTACK, 2, STACK
        ARGFRAME PSTACK, 0, STACK
        ARGFRAME XSTACK, 14, STACK
        ARGFRAME IOVERLAY, 0, STATIC
        ARGFRAME DOVERLAY, 0, STATIC
        EXTERN osal_rand
        FUNCTION osal_rand,0202H
        ARGFRAME ISTACK, 0, STACK
        ARGFRAME PSTACK, 0, STACK
        ARGFRAME XSTACK, 16, STACK
        ARGFRAME IOVERLAY, 0, STATIC
        ARGFRAME DOVERLAY, 0, STATIC
        EXTERN osal_set_event
        FUNCTION osal_set_event,0202H
        ARGFRAME ISTACK, 2, STACK
        ARGFRAME PSTACK, 0, STACK
        ARGFRAME XSTACK, 14, STACK
        ARGFRAME IOVERLAY, 0, STATIC
        ARGFRAME DOVERLAY, 0, STATIC
        EXTERN osal_start_timerEx
        FUNCTION osal_start_timerEx,0202H
        ARGFRAME ISTACK, 0, STACK
        ARGFRAME PSTACK, 0, STACK
        ARGFRAME XSTACK, 30, STACK
        ARGFRAME IOVERLAY, 0, STATIC
        ARGFRAME DOVERLAY, 0, STATIC
        EXTERN osal_stop_timerEx
        FUNCTION osal_stop_timerEx,0202H
        ARGFRAME ISTACK, 2, STACK
        ARGFRAME PSTACK, 0, STACK
        ARGFRAME XSTACK, 26, STACK
        ARGFRAME IOVERLAY, 0, STATIC
        ARGFRAME DOVERLAY, 0, STATIC
        EXTERN pbindRemoveDev
        EXTERN sAddrExtCmp
        FUNCTION sAddrExtCmp,0202H
        ARGFRAME ISTACK, 0, STACK
        ARGFRAME PSTACK, 0, STACK
        ARGFRAME XSTACK, 14, STACK
        ARGFRAME IOVERLAY, 0, STATIC
        ARGFRAME DOVERLAY, 0, STATIC
        EXTERN sAddrExtCpy
        FUNCTION sAddrExtCpy,0202H
        ARGFRAME ISTACK, 0, STACK
        ARGFRAME PSTACK, 0, STACK
        ARGFRAME XSTACK, 18, STACK
        ARGFRAME IOVERLAY, 0, STATIC
        ARGFRAME DOVERLAY, 0, STATIC
        EXTERN savedQueuedPollRate
        EXTERN savedResponseRate
        EXTERN zgChildAgingEnable
        EXTERN zgConcentratorDiscoveryTime
        EXTERN zgConcentratorEnable
        EXTERN zgConfigPANID
        EXTERN zgDefaultChannelList
        EXTERN zgDefaultRejoinBackoff
        EXTERN zgDefaultRejoinScan
        EXTERN zgDefaultStartingScanDuration
        EXTERN zgDeviceLogicalType
        EXTERN zgEndDeviceConfiguration
        EXTERN zgEndDeviceTimeoutValue
        EXTERN zgInitItems
        FUNCTION zgInitItems,0202H
        ARGFRAME ISTACK, 0, STACK
        ARGFRAME PSTACK, 0, STACK
        ARGFRAME XSTACK, 16, STACK
        ARGFRAME IOVERLAY, 0, STATIC
        ARGFRAME DOVERLAY, 0, STATIC
        EXTERN zgPollRate
        EXTERN zgPreConfigKeys
        EXTERN zgQueuedPollRate
        EXTERN zgReadStartupOptions
        FUNCTION zgReadStartupOptions,0202H
        ARGFRAME ISTACK, 0, STACK
        ARGFRAME PSTACK, 0, STACK
        ARGFRAME XSTACK, 9, STACK
        ARGFRAME IOVERLAY, 0, STATIC
        ARGFRAME DOVERLAY, 0, STATIC
        EXTERN zgRejoinPollRate
        EXTERN zgResponsePollRate
        EXTERN zgSecurityMode
        EXTERN zgStackProfile
        EXTERN zgWriteStartupOptions
        FUNCTION zgWriteStartupOptions,0202H
        ARGFRAME ISTACK, 2, STACK
        ARGFRAME PSTACK, 0, STACK
        ARGFRAME XSTACK, 14, STACK
        ARGFRAME IOVERLAY, 0, STATIC
        ARGFRAME DOVERLAY, 0, STATIC

// E:\GitHub\面板Z-Stack Home 1.2.2a.44539\Components\stack\zdo\ZDApp.c
//    1 /**************************************************************************************************
//    2   Filename:       ZDApp.c
//    3   Revised:        $Date: 2015-10-06 12:04:24 -0700 (Tue, 06 Oct 2015) $
//    4   Revision:       $Revision: 44520 $
//    5 
//    6   Description:    This file contains the interface to the Zigbee Device Application. This is the
//    7                   Application part that the user can change. This also contains the Task functions.
//    8 
//    9 
//   10   Copyright 2004-2015 Texas Instruments Incorporated. All rights reserved.
//   11 
//   12   IMPORTANT: Your use of this Software is limited to those specific rights
//   13   granted under the terms of a software license agreement between the user
//   14   who downloaded the software, his/her employer (which must be your employer)
//   15   and Texas Instruments Incorporated (the "License"). You may not use this
//   16   Software unless you agree to abide by the terms of the License. The License
//   17   limits your use, and you acknowledge, that the Software may not be modified,
//   18   copied or distributed unless embedded on a Texas Instruments microcontroller
//   19   or used solely and exclusively in conjunction with a Texas Instruments radio
//   20   frequency transceiver, which is integrated into your product. Other than for
//   21   the foregoing purpose, you may not use, reproduce, copy, prepare derivative
//   22   works of, modify, distribute, perform, display or sell this Software and/or
//   23   its documentation for any purpose.
//   24 
//   25   YOU FURTHER ACKNOWLEDGE AND AGREE THAT THE SOFTWARE AND DOCUMENTATION ARE
//   26   PROVIDED "AS IS" WITHOUT WARRANTY OF ANY KIND, EITHER EXPRESS OR IMPLIED,
//   27   INCLUDING WITHOUT LIMITATION, ANY WARRANTY OF MERCHANTABILITY, TITLE,
//   28   NON-INFRINGEMENT AND FITNESS FOR A PARTICULAR PURPOSE. IN NO EVENT SHALL
//   29   TEXAS INSTRUMENTS OR ITS LICENSORS BE LIABLE OR OBLIGATED UNDER CONTRACT,
//   30   NEGLIGENCE, STRICT LIABILITY, CONTRIBUTION, BREACH OF WARRANTY, OR OTHER
//   31   LEGAL EQUITABLE THEORY ANY DIRECT OR INDIRECT DAMAGES OR EXPENSES
//   32   INCLUDING BUT NOT LIMITED TO ANY INCIDENTAL, SPECIAL, INDIRECT, PUNITIVE
//   33   OR CONSEQUENTIAL DAMAGES, LOST PROFITS OR LOST DATA, COST OF PROCUREMENT
//   34   OF SUBSTITUTE GOODS, TECHNOLOGY, SERVICES, OR ANY CLAIMS BY THIRD PARTIES
//   35   (INCLUDING BUT NOT LIMITED TO ANY DEFENSE THEREOF), OR OTHER SIMILAR COSTS.
//   36 
//   37   Should you have any questions regarding your right to use this Software,
//   38   contact Texas Instruments Incorporated at www.TI.com.
//   39 **************************************************************************************************/
//   40 
//   41 /*********************************************************************
//   42  * INCLUDES
//   43  */
//   44 
//   45 #include "ZComDef.h"
//   46 #include "ZMAC.h"
//   47 #include "OSAL.h"
//   48 #include "OSAL_Tasks.h"
//   49 #include "OSAL_PwrMgr.h"
//   50 #include "OSAL_Nv.h"
//   51 #include "AF.h"
//   52 #include "APSMEDE.h"
//   53 #include "NLMEDE.h"
//   54 #include "AddrMgr.h"
//   55 #include "ZDProfile.h"
//   56 #include "ZDObject.h"
//   57 #include "ZDConfig.h"
//   58 #include "ZDSecMgr.h"
//   59 #include "ZDApp.h"
//   60 #include "DebugTrace.h"
//   61 #include "nwk_util.h"
//   62 #include "OnBoard.h"
//   63 #include "ZGlobals.h"
//   64 #include "ZDNwkMgr.h"
//   65 #include "rtg.h"
//   66 
//   67 #include "ssp.h"
//   68 
//   69 /* HAL */
//   70 #include "hal_led.h"
//   71 #include "hal_lcd.h"
//   72 #include "hal_key.h"
//   73 
//   74 #if defined( MT_MAC_FUNC ) || defined( MT_MAC_CB_FUNC )
//   75   #error "ERROR! MT_MAC functionalities should be disabled on ZDO devices"
//   76 #endif
//   77 
//   78 /*********************************************************************
//   79  * CONSTANTS
//   80  */
//   81 
//   82 #if !defined( NWK_START_DELAY )
//   83   #define NWK_START_DELAY             100   // in milliseconds
//   84 #endif
//   85 
//   86 #if !defined( LEAVE_RESET_DELAY )
//   87   #define LEAVE_RESET_DELAY           5000  // in milliseconds
//   88 #endif
//   89 
//   90 // Init ZDO, but hold and wait for application to start the joining or
//   91 // forming network
//   92 #define ZDO_INIT_HOLD_NWK_START       0xFFFF
//   93 
//   94 #if !defined( EXTENDED_JOINING_RANDOM_MASK )
//   95   #define EXTENDED_JOINING_RANDOM_MASK 0x007F
//   96 #endif
//   97 
//   98 #if !defined( BEACON_REQUEST_DELAY )
//   99   #define BEACON_REQUEST_DELAY        100   // in milliseconds
//  100 #endif
//  101 
//  102 #if !defined( BEACON_REQ_DELAY_MASK )
//  103   #define BEACON_REQ_DELAY_MASK       0x007F
//  104 #endif
//  105 
//  106 #define MAX_RESUME_RETRY            3
//  107 
//  108 #define MAX_DEVICE_UNAUTH_TIMEOUT   10000  // 10 seconds
//  109 
//  110 // Beacon Order Settings (see NLMEDE.h)
//  111 #define DEFAULT_BEACON_ORDER        BEACON_ORDER_NO_BEACONS
//  112 #define DEFAULT_SUPERFRAME_ORDER    DEFAULT_BEACON_ORDER
//  113 
//  114 #if !defined( NWK_FRAMECOUNTER_CHANGES_RESTORE_DELTA )
//  115 // Additional counts to add to the frame counter when restoring from NV
//  116 // This amount is in addition to MAX_NWK_FRAMECOUNTER_CHANGES
//  117 #define NWK_FRAMECOUNTER_CHANGES_RESTORE_DELTA    250
//  118 #endif
//  119 
//  120 // Leave control bits
//  121 #define ZDAPP_LEAVE_CTRL_INIT 0
//  122 #define ZDAPP_LEAVE_CTRL_SET  1
//  123 #define ZDAPP_LEAVE_CTRL_RA   2
//  124 
//  125 // Address Manager Stub Implementation
//  126 #define ZDApp_NwkWriteNVRequest AddrMgrWriteNVRequest
//  127 
//  128 
//  129 #if !defined ZDO_NV_SAVE_RFDs
//  130 #define ZDO_NV_SAVE_RFDs  TRUE
//  131 #endif
//  132 
//  133 // Delay time before updating NWK NV data to force fewer writes during high activity.
//  134 #if ZDO_NV_SAVE_RFDs
//  135 #define ZDAPP_UPDATE_NWK_NV_TIME 700
//  136 #else
//  137 #define ZDAPP_UPDATE_NWK_NV_TIME 65000
//  138 #endif
//  139 
//  140 // Timeout value to process New Devices
//  141 #define ZDAPP_NEW_DEVICE_TIME     600   // in ms
//  142 
//  143 #if !defined ( ZDP_BIND_SKIP_VALIDATION )
//  144 #if !defined MAX_PENDING_BIND_REQ
//  145 #define MAX_PENDING_BIND_REQ 3
//  146 #endif
//  147 #endif
//  148 
//  149 /******************************************************************************
//  150  * TYPEDEFS
//  151  */
//  152 typedef struct
//  153 {
//  154   void   *next;
//  155   uint16 shortAddr;
//  156   uint16 timeDelta;
//  157 } ZDAppNewDevice_t;
//  158 
//  159 /*********************************************************************
//  160  * GLOBAL VARIABLES
//  161  */
//  162 
//  163 #if defined( LCD_SUPPORTED )
//  164   uint8 MatchRsps = 0;
//  165 #endif
//  166 

        RSEG XDATA_I:XDATA:NOROOT(0)
//  167 uint8 zdoDiscCounter = 1;
zdoDiscCounter:
        DATA8
        DS 1
        REQUIRE `?<Initializer for zdoDiscCounter>`
        REQUIRE __INIT_XDATA_I
//  168 

        RSEG XDATA_Z:XDATA:NOROOT(0)
        DATA8
//  169 zAddrType_t ZDAppNwkAddr;
ZDAppNwkAddr:
        DS 9
        REQUIRE __INIT_XDATA_Z
//  170 

        RSEG XDATA_Z:XDATA:NOROOT(0)
        DATA8
//  171 uint8 zdappMgmtNwkDiscRspTransSeq;
zdappMgmtNwkDiscRspTransSeq:
        DS 1
        REQUIRE __INIT_XDATA_Z

        RSEG XDATA_Z:XDATA:NOROOT(0)
        DATA8
//  172 uint8 zdappMgmtNwkDiscReqInProgress = FALSE;
zdappMgmtNwkDiscReqInProgress:
        DS 1
        REQUIRE __INIT_XDATA_Z

        RSEG XDATA_Z:XDATA:NOROOT(0)
        DATA8
//  173 zAddrType_t zdappMgmtNwkDiscRspAddr;
zdappMgmtNwkDiscRspAddr:
        DS 9
        REQUIRE __INIT_XDATA_Z

        RSEG XDATA_Z:XDATA:NOROOT(0)
        DATA8
//  174 uint8 zdappMgmtNwkDiscStartIndex;
zdappMgmtNwkDiscStartIndex:
        DS 1
        REQUIRE __INIT_XDATA_Z

        RSEG XDATA_Z:XDATA:NOROOT(0)
        DATA8
//  175 uint8 zdappMgmtSavedNwkState;
zdappMgmtSavedNwkState:
        DS 1
        REQUIRE __INIT_XDATA_Z
//  176 

        RSEG XDATA_I:XDATA:NOROOT(0)
//  177 uint8 continueJoining = TRUE;
continueJoining:
        DATA8
        DS 1
        REQUIRE `?<Initializer for continueJoining>`
        REQUIRE __INIT_XDATA_I
//  178 

        RSEG XDATA_Z:XDATA:NOROOT(0)
        DATA8
//  179 uint8  _tmpRejoinState;
_tmpRejoinState:
        DS 1
        REQUIRE __INIT_XDATA_Z
//  180 
//  181 // The extended PanID used in ZDO layer for rejoin.

        RSEG XDATA_Z:XDATA:NOROOT(0)
        DATA8
//  182 uint8 ZDO_UseExtendedPANID[Z_EXTADDR_LEN];
ZDO_UseExtendedPANID:
        DS 8
        REQUIRE __INIT_XDATA_Z
//  183 

        RSEG XDATA_Z:XDATA:NOROOT(0)
        DATA8
//  184 pfnZdoCb zdoCBFunc[MAX_ZDO_CB_FUNC];
zdoCBFunc:
        DS 18
        REQUIRE __INIT_XDATA_Z
//  185 
//  186 #if !defined ( ZDP_BIND_SKIP_VALIDATION )

        RSEG XDATA_Z:XDATA:NOROOT(0)
        DATA16
//  187 ZDO_PendingBindReq_t *ZDAppPendingBindReq = NULL;
ZDAppPendingBindReq:
        DS 2
        REQUIRE __INIT_XDATA_Z
//  188 #endif
//  189 

        RSEG XDATA_Z:XDATA:NOROOT(0)
        DATA32
//  190 uint32 runtimeChannel;
runtimeChannel:
        DS 4
        REQUIRE __INIT_XDATA_Z
//  191 
//  192 /*********************************************************************
//  193  * EXTERNAL VARIABLES
//  194  */
//  195 
//  196 /*********************************************************************
//  197  * EXTERNAL FUNCTIONS
//  198  */
//  199 
//  200 /*********************************************************************
//  201  * LOCAL FUNCTIONS
//  202  */
//  203 
//  204 void ZDApp_NetworkStartEvt( void );
//  205 void ZDApp_DeviceAuthEvt( void );
//  206 void ZDApp_SaveNetworkStateEvt( void );
//  207 
//  208 uint8 ZDApp_ReadNetworkRestoreState( void );
//  209 uint8 ZDApp_RestoreNetworkState( void );
//  210 void ZDAppDetermineDeviceType( void );
//  211 void ZDApp_InitUserDesc( void );
//  212 void ZDAppCheckForHoldKey( void );
//  213 void ZDApp_ProcessOSALMsg( osal_event_hdr_t *msgPtr );
//  214 void ZDApp_ProcessNetworkJoin( void );
//  215 void ZDApp_SetCoordAddress( uint8 endPoint, uint8 dstEP );
//  216 uint8 ZDApp_RestoreNwkKey( uint8 incrFrmCnt );
//  217 networkDesc_t* ZDApp_NwkDescListProcessing(void);
//  218 
//  219 void ZDApp_SecInit( uint8 state );
//  220 UINT16 ZDApp_ProcessSecEvent( uint8 task_id, UINT16 events );
//  221 void ZDApp_ProcessSecMsg( osal_event_hdr_t *msgPtr );
//  222 
//  223 void ZDApp_SendMsg( uint8 taskID, uint8 cmd, uint8 len, uint8 *buf );
//  224 
//  225 void ZDApp_ResetTimerStart( uint16 delay );
//  226 void ZDApp_ResetTimerCancel( void );
//  227 void ZDApp_LeaveCtrlInit( void );
//  228 void ZDApp_LeaveCtrlSet( uint8 ra );
//  229 uint8 ZDApp_LeaveCtrlBypass( void );
//  230 void ZDApp_LeaveCtrlStartup( devStates_t* state, uint16* startDelay );
//  231 void ZDApp_LeaveUpdate( uint16 nwkAddr, uint8* extAddr,
//  232                         uint8 removeChildren );
//  233 void ZDApp_NodeProfileSync( uint8 stackProfile );
//  234 void ZDApp_ProcessMsgCBs( zdoIncomingMsg_t *inMsg );
//  235 void ZDApp_RegisterCBs( void );
//  236 void ZDApp_InitZdoCBFunc(void);
//  237 #if !defined ( ZDP_BIND_SKIP_VALIDATION )
//  238 void ZDApp_SetPendingBindDefault( ZDO_PendingBindReq_t *pendBindReq );
//  239 void ZDApp_InitPendingBind( void );
//  240 void ZDApp_ProcessPendingBindReq( uint8 *extAddr );
//  241 void ZDApp_AgeOutPendingBindEntry( void );
//  242 #endif
//  243 
//  244 void ZDApp_SetParentAnnceTimer( void );
//  245 
//  246 /*********************************************************************
//  247  * LOCAL VARIABLES
//  248  */
//  249 

        RSEG XDATA_Z:XDATA:NOROOT(0)
        DATA8
//  250 uint8 ZDAppTaskID;
ZDAppTaskID:
        DS 1
        REQUIRE __INIT_XDATA_Z

        RSEG XDATA_Z:XDATA:NOROOT(0)
        DATA8
//  251 uint8 nwkStatus;
nwkStatus:
        DS 1
        REQUIRE __INIT_XDATA_Z

        RSEG XDATA_Z:XDATA:NOROOT(0)
        DATA16
//  252 endPointDesc_t *ZDApp_AutoFindMode_epDesc = (endPointDesc_t *)NULL;
ZDApp_AutoFindMode_epDesc:
        DS 2
        REQUIRE __INIT_XDATA_Z

        RSEG XDATA_Z:XDATA:NOROOT(0)
        DATA8
//  253 uint8 ZDApp_LeaveCtrl;
ZDApp_LeaveCtrl:
        DS 1
        REQUIRE __INIT_XDATA_Z
//  254 
//  255 #if defined( HOLD_AUTO_START )
//  256   devStates_t devState = DEV_HOLD;
//  257 #else

        RSEG XDATA_I:XDATA:NOROOT(0)
//  258   devStates_t devState = DEV_INIT;
devState:
        DATA8
        DS 1
        REQUIRE `?<Initializer for devState>`
        REQUIRE __INIT_XDATA_I
//  259 #endif
//  260 
//  261 // previous rejoin state

        RSEG XDATA_I:XDATA:NOROOT(0)
//  262   devStates_t prevDevState = DEV_NWK_SEC_REJOIN_CURR_CHANNEL;
prevDevState:
        DATA8
        DS 1
        REQUIRE `?<Initializer for prevDevState>`
        REQUIRE __INIT_XDATA_I
//  263 
//  264 #if ( ZG_BUILD_RTRONLY_TYPE ) || ( ZG_BUILD_ENDDEVICE_TYPE )

        RSEG XDATA_Z:XDATA:NOROOT(0)
        DATA8
//  265   devStartModes_t devStartMode = MODE_JOIN;     // Assume joining
devStartMode:
        DS 1
        REQUIRE __INIT_XDATA_Z
//  266   //devStartModes_t devStartMode = MODE_RESUME; // if already "directly joined"
//  267                         // to parent. Set to make the device do an Orphan scan.
//  268 #else
//  269   // Set the default to coodinator
//  270   devStartModes_t devStartMode = MODE_HARD;
//  271 #endif
//  272 

        RSEG XDATA_Z:XDATA:NOROOT(0)
        DATA8
//  273 uint8 retryCnt = 0;
retryCnt:
        DS 1
        REQUIRE __INIT_XDATA_Z
//  274 

        RSEG XDATA_I:XDATA:NOROOT(0)
//  275 endPointDesc_t ZDApp_epDesc =
ZDApp_epDesc:
        DATA8
        DS 6
        REQUIRE `?<Initializer for ZDApp_epDesc>`
        REQUIRE __INIT_XDATA_I
//  276 {
//  277   ZDO_EP,
//  278   &ZDAppTaskID,
//  279   (SimpleDescriptionFormat_t *)NULL,  // No Simple description for ZDO
//  280   (afNetworkLatencyReq_t)0            // No Network Latency req
//  281 };
//  282 

        RSEG XDATA_I:XDATA:NOROOT(0)
//  283 uint32 ZDApp_SavedPollRate = POLL_RATE;
ZDApp_SavedPollRate:
        DATA32
        DS 4
        REQUIRE `?<Initializer for ZDApp_SavedPollRate>`
        REQUIRE __INIT_XDATA_I
//  284 

        RSEG XDATA_Z:XDATA:NOROOT(0)
        DATA16
//  285 ZDAppNewDevice_t *ZDApp_NewDeviceList = NULL;
ZDApp_NewDeviceList:
        DS 2
        REQUIRE __INIT_XDATA_Z
//  286 
//  287 /* "Hold Key" status saved during ZDAppCheckForHoldKey() */

        RSEG XDATA_Z:XDATA:NOROOT(0)
        DATA8
//  288 static uint8 zdappHoldKeys;
zdappHoldKeys:
        DS 1
        REQUIRE __INIT_XDATA_Z
//  289 
//  290 /*********************************************************************
//  291  * @fn      ZDApp_Init
//  292  *
//  293  * @brief   ZDApp Initialization function.
//  294  *
//  295  * @param   task_id - ZDApp Task ID
//  296  *
//  297  * @return  None
//  298  */

        RSEG BANKED_CODE:CODE:NOROOT(0)
//  299 void ZDApp_Init( uint8 task_id )
ZDApp_Init:
          CFI Block cfiBlock0 Using cfiCommon0
          CFI Function ZDApp_Init
        CODE
//  300 {
        FUNCALL ZDApp_Init, NLME_GetExtAddr
        LOCFRAME ISTACK, 0, STACK
        LOCFRAME PSTACK, 0, STACK
        LOCFRAME XSTACK, 9, STACK
        LOCFRAME IOVERLAY, 0, STATIC
        LOCFRAME DOVERLAY, 0, STATIC
        ARGFRAME ISTACK, 0, STACK
        ARGFRAME PSTACK, 0, STACK
        ARGFRAME XSTACK, 9, STACK
        ARGFRAME IOVERLAY, 0, STATIC
        ARGFRAME DOVERLAY, 0, STATIC
        FUNCALL ZDApp_Init, ZDAppCheckForHoldKey
        LOCFRAME ISTACK, 0, STACK
        LOCFRAME PSTACK, 0, STACK
        LOCFRAME XSTACK, 9, STACK
        LOCFRAME IOVERLAY, 0, STATIC
        LOCFRAME DOVERLAY, 0, STATIC
        ARGFRAME ISTACK, 0, STACK
        ARGFRAME PSTACK, 0, STACK
        ARGFRAME XSTACK, 9, STACK
        ARGFRAME IOVERLAY, 0, STATIC
        ARGFRAME DOVERLAY, 0, STATIC
        FUNCALL ZDApp_Init, ZDO_Init
        LOCFRAME ISTACK, 0, STACK
        LOCFRAME PSTACK, 0, STACK
        LOCFRAME XSTACK, 9, STACK
        LOCFRAME IOVERLAY, 0, STATIC
        LOCFRAME DOVERLAY, 0, STATIC
        ARGFRAME ISTACK, 0, STACK
        ARGFRAME PSTACK, 0, STACK
        ARGFRAME XSTACK, 9, STACK
        ARGFRAME IOVERLAY, 0, STATIC
        ARGFRAME DOVERLAY, 0, STATIC
        FUNCALL ZDApp_Init, afRegister
        LOCFRAME ISTACK, 0, STACK
        LOCFRAME PSTACK, 0, STACK
        LOCFRAME XSTACK, 9, STACK
        LOCFRAME IOVERLAY, 0, STATIC
        LOCFRAME DOVERLAY, 0, STATIC
        ARGFRAME ISTACK, 0, STACK
        ARGFRAME PSTACK, 0, STACK
        ARGFRAME XSTACK, 9, STACK
        ARGFRAME IOVERLAY, 0, STATIC
        ARGFRAME DOVERLAY, 0, STATIC
        FUNCALL ZDApp_Init, ZDApp_InitUserDesc
        LOCFRAME ISTACK, 0, STACK
        LOCFRAME PSTACK, 0, STACK
        LOCFRAME XSTACK, 9, STACK
        LOCFRAME IOVERLAY, 0, STATIC
        LOCFRAME DOVERLAY, 0, STATIC
        ARGFRAME ISTACK, 0, STACK
        ARGFRAME PSTACK, 0, STACK
        ARGFRAME XSTACK, 9, STACK
        ARGFRAME IOVERLAY, 0, STATIC
        ARGFRAME DOVERLAY, 0, STATIC
        FUNCALL ZDApp_Init, ZDOInitDevice
        LOCFRAME ISTACK, 0, STACK
        LOCFRAME PSTACK, 0, STACK
        LOCFRAME XSTACK, 9, STACK
        LOCFRAME IOVERLAY, 0, STATIC
        LOCFRAME DOVERLAY, 0, STATIC
        ARGFRAME ISTACK, 0, STACK
        ARGFRAME PSTACK, 0, STACK
        ARGFRAME XSTACK, 9, STACK
        ARGFRAME IOVERLAY, 0, STATIC
        ARGFRAME DOVERLAY, 0, STATIC
        FUNCALL ZDApp_Init, ZDOInitDevice
        LOCFRAME ISTACK, 0, STACK
        LOCFRAME PSTACK, 0, STACK
        LOCFRAME XSTACK, 9, STACK
        LOCFRAME IOVERLAY, 0, STATIC
        LOCFRAME DOVERLAY, 0, STATIC
        ARGFRAME ISTACK, 0, STACK
        ARGFRAME PSTACK, 0, STACK
        ARGFRAME XSTACK, 9, STACK
        ARGFRAME IOVERLAY, 0, STATIC
        ARGFRAME DOVERLAY, 0, STATIC
        FUNCALL ZDApp_Init, HalLedBlink
        LOCFRAME ISTACK, 0, STACK
        LOCFRAME PSTACK, 0, STACK
        LOCFRAME XSTACK, 9, STACK
        LOCFRAME IOVERLAY, 0, STATIC
        LOCFRAME DOVERLAY, 0, STATIC
        ARGFRAME ISTACK, 0, STACK
        ARGFRAME PSTACK, 0, STACK
        ARGFRAME XSTACK, 9, STACK
        ARGFRAME IOVERLAY, 0, STATIC
        ARGFRAME DOVERLAY, 0, STATIC
        FUNCALL ZDApp_Init, ZDApp_InitZdoCBFunc
        LOCFRAME ISTACK, 0, STACK
        LOCFRAME PSTACK, 0, STACK
        LOCFRAME XSTACK, 9, STACK
        LOCFRAME IOVERLAY, 0, STATIC
        LOCFRAME DOVERLAY, 0, STATIC
        ARGFRAME ISTACK, 0, STACK
        ARGFRAME PSTACK, 0, STACK
        ARGFRAME XSTACK, 9, STACK
        ARGFRAME IOVERLAY, 0, STATIC
        ARGFRAME DOVERLAY, 0, STATIC
        FUNCALL ZDApp_Init, ZDApp_RegisterCBs
        LOCFRAME ISTACK, 0, STACK
        LOCFRAME PSTACK, 0, STACK
        LOCFRAME XSTACK, 9, STACK
        LOCFRAME IOVERLAY, 0, STATIC
        LOCFRAME DOVERLAY, 0, STATIC
        ARGFRAME ISTACK, 0, STACK
        ARGFRAME PSTACK, 0, STACK
        ARGFRAME XSTACK, 9, STACK
        ARGFRAME IOVERLAY, 0, STATIC
        ARGFRAME DOVERLAY, 0, STATIC
        FUNCALL ZDApp_Init, ZDApp_InitPendingBind
        LOCFRAME ISTACK, 0, STACK
        LOCFRAME PSTACK, 0, STACK
        LOCFRAME XSTACK, 9, STACK
        LOCFRAME IOVERLAY, 0, STATIC
        LOCFRAME DOVERLAY, 0, STATIC
        ARGFRAME ISTACK, 0, STACK
        ARGFRAME PSTACK, 0, STACK
        ARGFRAME XSTACK, 9, STACK
        ARGFRAME IOVERLAY, 0, STATIC
        ARGFRAME DOVERLAY, 0, STATIC
        MOV     A,#-0x9
        LCALL   ?BANKED_ENTER_XDATA
          CFI DPH0 load(1, XDATA, add(CFA_XSP16, literal(-1)))
          CFI DPL0 load(1, XDATA, add(CFA_XSP16, literal(-2)))
          CFI ?BRET_EXT load(1, XDATA, add(CFA_XSP16, literal(-3)))
          CFI ?RET_HIGH load(1, XDATA, add(CFA_XSP16, literal(-4)))
          CFI ?RET_LOW load(1, XDATA, add(CFA_XSP16, literal(-5)))
          CFI R7 load(1, XDATA, add(CFA_XSP16, literal(-6)))
          CFI V0 load(1, XDATA, add(CFA_XSP16, literal(-7)))
          CFI VB load(1, XDATA, add(CFA_XSP16, literal(-8)))
          CFI R6 load(1, XDATA, add(CFA_XSP16, literal(-9)))
          CFI CFA_SP SP+0
          CFI CFA_XSP16 add(XSP16, 9)
        ; Saved register size: 9
        ; Auto size: 0
        MOV     A,R1
//  301   // Save the task ID
//  302   ZDAppTaskID = task_id;
        MOV     DPTR,#ZDAppTaskID
        MOVX    @DPTR,A
//  303 
//  304   // Initialize the ZDO global device short address storage
//  305   ZDAppNwkAddr.addrMode = Addr16Bit;
        MOV     DPTR,#ZDAppNwkAddr + 8
        MOV     A,#0x2
        MOVX    @DPTR,A
//  306   ZDAppNwkAddr.addr.shortAddr = INVALID_NODE_ADDR;
        MOV     DPTR,#ZDAppNwkAddr
        MOV     A,#-0x2
        MOVX    @DPTR,A
        INC     DPTR
        INC     A
        MOVX    @DPTR,A
//  307   (void)NLME_GetExtAddr();  // Load the saveExtAddr pointer.
        ; Setup parameters for call to function NLME_GetExtAddr
        LCALL   ??NLME_GetExtAddr?relay; Banked call to: NLME_GetExtAddr
//  308 
//  309   // Check for manual "Hold Auto Start"
//  310   ZDAppCheckForHoldKey();
        ; Setup parameters for call to function ZDAppCheckForHoldKey
        LCALL   ??ZDAppCheckForHoldKey?relay; Banked call to: ZDAppCheckForHoldKey
//  311 
//  312   // Initialize ZDO items and setup the device - type of device to create.
//  313   ZDO_Init();
        ; Setup parameters for call to function ZDO_Init
        LCALL   ??ZDO_Init?relay     ; Banked call to: ZDO_Init
//  314 
//  315   // Register the endpoint description with the AF
//  316   // This task doesn't have a Simple description, but we still need
//  317   // to register the endpoint.
//  318   afRegister( (endPointDesc_t *)&ZDApp_epDesc );
        ; Setup parameters for call to function afRegister
        MOV     R2,#ZDApp_epDesc & 0xff
        MOV     R3,#(ZDApp_epDesc >> 8) & 0xff
        LCALL   ??afRegister?relay   ; Banked call to: afRegister
//  319 
//  320 #if defined( ZDO_USERDESC_RESPONSE )
//  321   ZDApp_InitUserDesc();
        ; Setup parameters for call to function ZDApp_InitUserDesc
        LCALL   ??ZDApp_InitUserDesc?relay; Banked call to: ZDApp_InitUserDesc
//  322 #endif // ZDO_USERDESC_RESPONSE
//  323 
//  324   // Start the device?
//  325   if ( devState != DEV_HOLD )
        MOV     DPTR,#devState
        MOVX    A,@DPTR
        JZ      ??ZDApp_Init_0
//  326   {
//  327     ZDOInitDevice( 0 );
        ; Setup parameters for call to function ZDOInitDevice
        MOV     R2,#0x0
        MOV     R3,#0x0
        LCALL   ??ZDOInitDevice?relay; Banked call to: ZDOInitDevice
        SJMP    ??ZDApp_Init_1
//  328   }
//  329   else
//  330   {
//  331     ZDOInitDevice( ZDO_INIT_HOLD_NWK_START );
??ZDApp_Init_0:
        ; Setup parameters for call to function ZDOInitDevice
        MOV     R2,#-0x1
        MOV     R3,#-0x1
        LCALL   ??ZDOInitDevice?relay; Banked call to: ZDOInitDevice
//  332     // Blink LED to indicate HOLD_START
//  333     HalLedBlink ( HAL_LED_4, 0, 50, 500 );
        ; Setup parameters for call to function HalLedBlink
        MOV     R4,#-0xc
        MOV     R5,#0x1
        MOV     R3,#0x32
        MOV     R2,#0x0
        MOV     R1,#0x8
        LCALL   ??HalLedBlink?relay  ; Banked call to: HalLedBlink
//  334   }
//  335 
//  336   // Initialize the ZDO callback function pointers zdoCBFunc[]
//  337   ZDApp_InitZdoCBFunc();
??ZDApp_Init_1:
        ; Setup parameters for call to function ZDApp_InitZdoCBFunc
        LCALL   ??ZDApp_InitZdoCBFunc?relay; Banked call to: ZDApp_InitZdoCBFunc
//  338 
//  339   ZDApp_RegisterCBs();
        ; Setup parameters for call to function ZDApp_RegisterCBs
        LCALL   ??ZDApp_RegisterCBs?relay; Banked call to: ZDApp_RegisterCBs
//  340 
//  341 #if !defined ( ZDP_BIND_SKIP_VALIDATION )
//  342 #if defined ( REFLECTOR )
//  343   ZDApp_InitPendingBind();
        ; Setup parameters for call to function ZDApp_InitPendingBind
        LCALL   ??ZDApp_InitPendingBind?relay; Banked call to: ZDApp_InitPendingBind
//  344 #endif
//  345 #endif
//  346 } /* ZDApp_Init() */
        LJMP    ??Subroutine44_0 & 0xFFFF
          CFI EndBlock cfiBlock0
//  347 
//  348 /*********************************************************************
//  349  * @fn          ZDApp_SecInit
//  350  *
//  351  * @brief       ZDApp initialize security.
//  352  *
//  353  * @param       state - device initialization state
//  354  *
//  355  * @return      none
//  356  */

        RSEG BANKED_CODE:CODE:NOROOT(0)
//  357 void ZDApp_SecInit( uint8 state )
ZDApp_SecInit:
          CFI Block cfiBlock1 Using cfiCommon0
          CFI Function ZDApp_SecInit
        CODE
//  358 {
        FUNCALL ZDApp_SecInit, ZDSecMgrInit
        LOCFRAME ISTACK, 0, STACK
        LOCFRAME PSTACK, 0, STACK
        LOCFRAME XSTACK, 25, STACK
        LOCFRAME IOVERLAY, 0, STATIC
        LOCFRAME DOVERLAY, 0, STATIC
        ARGFRAME ISTACK, 0, STACK
        ARGFRAME PSTACK, 0, STACK
        ARGFRAME XSTACK, 25, STACK
        ARGFRAME IOVERLAY, 0, STATIC
        ARGFRAME DOVERLAY, 0, STATIC
        FUNCALL ZDApp_SecInit, ZDSecMgrReadKeyFromNv
        LOCFRAME ISTACK, 0, STACK
        LOCFRAME PSTACK, 0, STACK
        LOCFRAME XSTACK, 25, STACK
        LOCFRAME IOVERLAY, 0, STATIC
        LOCFRAME DOVERLAY, 0, STATIC
        ARGFRAME ISTACK, 0, STACK
        ARGFRAME PSTACK, 0, STACK
        ARGFRAME XSTACK, 25, STACK
        ARGFRAME IOVERLAY, 0, STATIC
        ARGFRAME DOVERLAY, 0, STATIC
        FUNCALL ZDApp_SecInit, SSP_UpdateNwkKey
        LOCFRAME ISTACK, 0, STACK
        LOCFRAME PSTACK, 0, STACK
        LOCFRAME XSTACK, 25, STACK
        LOCFRAME IOVERLAY, 0, STATIC
        LOCFRAME DOVERLAY, 0, STATIC
        ARGFRAME ISTACK, 0, STACK
        ARGFRAME PSTACK, 0, STACK
        ARGFRAME XSTACK, 25, STACK
        ARGFRAME IOVERLAY, 0, STATIC
        ARGFRAME DOVERLAY, 0, STATIC
        FUNCALL ZDApp_SecInit, SSP_SwitchNwkKey
        LOCFRAME ISTACK, 0, STACK
        LOCFRAME PSTACK, 0, STACK
        LOCFRAME XSTACK, 25, STACK
        LOCFRAME IOVERLAY, 0, STATIC
        LOCFRAME DOVERLAY, 0, STATIC
        ARGFRAME ISTACK, 0, STACK
        ARGFRAME PSTACK, 0, STACK
        ARGFRAME XSTACK, 25, STACK
        ARGFRAME IOVERLAY, 0, STATIC
        ARGFRAME DOVERLAY, 0, STATIC
        FUNCALL ZDApp_SecInit, osal_memset
        LOCFRAME ISTACK, 0, STACK
        LOCFRAME PSTACK, 0, STACK
        LOCFRAME XSTACK, 25, STACK
        LOCFRAME IOVERLAY, 0, STATIC
        LOCFRAME DOVERLAY, 0, STATIC
        ARGFRAME ISTACK, 0, STACK
        ARGFRAME PSTACK, 0, STACK
        ARGFRAME XSTACK, 25, STACK
        ARGFRAME IOVERLAY, 0, STATIC
        ARGFRAME DOVERLAY, 0, STATIC
        FUNCALL ZDApp_SecInit, osal_mem_free
        LOCFRAME ISTACK, 0, STACK
        LOCFRAME PSTACK, 0, STACK
        LOCFRAME XSTACK, 25, STACK
        LOCFRAME IOVERLAY, 0, STATIC
        LOCFRAME DOVERLAY, 0, STATIC
        ARGFRAME ISTACK, 0, STACK
        ARGFRAME PSTACK, 0, STACK
        ARGFRAME XSTACK, 25, STACK
        ARGFRAME IOVERLAY, 0, STATIC
        ARGFRAME DOVERLAY, 0, STATIC
        REQUIRE ?V0
        MOV     A,#-0x9
        LCALL   ?BANKED_ENTER_XDATA
          CFI DPH0 load(1, XDATA, add(CFA_XSP16, literal(-1)))
          CFI DPL0 load(1, XDATA, add(CFA_XSP16, literal(-2)))
          CFI ?BRET_EXT load(1, XDATA, add(CFA_XSP16, literal(-3)))
          CFI ?RET_HIGH load(1, XDATA, add(CFA_XSP16, literal(-4)))
          CFI ?RET_LOW load(1, XDATA, add(CFA_XSP16, literal(-5)))
          CFI R7 load(1, XDATA, add(CFA_XSP16, literal(-6)))
          CFI V0 load(1, XDATA, add(CFA_XSP16, literal(-7)))
          CFI VB load(1, XDATA, add(CFA_XSP16, literal(-8)))
          CFI R6 load(1, XDATA, add(CFA_XSP16, literal(-9)))
          CFI CFA_SP SP+0
          CFI CFA_XSP16 add(XSP16, 9)
        ; Saved register size: 9
        ; Auto size: 16
        MOV     A,#-0x10
        LCALL   ?ALLOC_XSTACK8
          CFI CFA_XSP16 add(XSP16, 25)
        MOV     ?V0,R1
//  359   uint8 zgPreConfigKey[SEC_KEY_LEN];
//  360 
//  361   if ( ZG_SECURE_ENABLED && ZG_BUILD_COORDINATOR_TYPE && ZG_DEVICE_COORDINATOR_TYPE )
//  362   {
//  363     // Set the Trust Center bit
//  364     ZDO_Config_Node_Descriptor.ServerMask |= PRIM_TRUST_CENTER;
//  365   }
//  366 
//  367   // Initialize ZigBee Device Security Manager
//  368   ZDSecMgrInit(state);
        ; Setup parameters for call to function ZDSecMgrInit
        LCALL   ??ZDSecMgrInit?relay ; Banked call to: ZDSecMgrInit
//  369 
//  370   if ( ZG_SECURE_ENABLED )
//  371   {
//  372     if ( state != ZDO_INITDEV_RESTORED_NETWORK_STATE )
        MOV     A,?V0
        JZ      ??ZDApp_SecInit_0
//  373     {
//  374       nwkFrameCounter = 0;
        MOV     DPTR,#nwkFrameCounter
        CLR     A
        MOVX    @DPTR,A
        INC     DPTR
        MOVX    @DPTR,A
        INC     DPTR
        MOVX    @DPTR,A
        INC     DPTR
        MOVX    @DPTR,A
//  375 
//  376       if( _NIB.nwkKeyLoaded == FALSE )
        MOV     DPTR,#_NIB + 61
        MOVX    A,@DPTR
        JNZ     ??ZDApp_SecInit_0
//  377       {
//  378         if ( ( ZG_BUILD_COORDINATOR_TYPE && ZG_DEVICE_COORDINATOR_TYPE          ) ||
//  379              ( ( zgSecurityMode == ZG_SECURITY_RESIDENTIAL ) && zgPreConfigKeys )    )
        MOV     DPTR,#zgSecurityMode
        MOVX    A,@DPTR
        XRL     A,#0x1
        JNZ     ??ZDApp_SecInit_0
        MOV     DPTR,#zgPreConfigKeys
        MOVX    A,@DPTR
        JZ      ??ZDApp_SecInit_0
//  380         {
//  381             ZDSecMgrReadKeyFromNv(ZCD_NV_PRECFGKEY, zgPreConfigKey);
        ; Setup parameters for call to function ZDSecMgrReadKeyFromNv
        MOV     R4,?XSP + 0
        MOV     R5,?XSP + 1
        MOV     R2,#0x62
        MOV     R3,#0x0
        LCALL   ??ZDSecMgrReadKeyFromNv?relay; Banked call to: ZDSecMgrReadKeyFromNv
//  382             SSP_UpdateNwkKey( zgPreConfigKey, 0);
        ; Setup parameters for call to function SSP_UpdateNwkKey
        MOV     R1,#0x0
        MOV     R2,?XSP + 0
        MOV     R3,?XSP + 1
        LCALL   ??SSP_UpdateNwkKey?relay; Banked call to: SSP_UpdateNwkKey
//  383             SSP_SwitchNwkKey( 0 );
        ; Setup parameters for call to function SSP_SwitchNwkKey
        MOV     R1,#0x0
        LCALL   ??SSP_SwitchNwkKey?relay; Banked call to: SSP_SwitchNwkKey
//  384 
//  385             // clear local copy of key
//  386             osal_memset(zgPreConfigKey, 0x00, SEC_KEY_LEN);
        ; Setup parameters for call to function osal_memset
        MOV     R4,#0x10
        MOV     R5,#0x0
        MOV     R1,#0x0
        MOV     R2,?XSP + 0
        MOV     R3,?XSP + 1
        LCALL   ??osal_memset?relay  ; Banked call to: osal_memset
//  387         }
//  388       }
//  389     }
//  390 
//  391     // clean the new devices list when Security module is initialized
//  392     if ( ZDApp_NewDeviceList != NULL )
??ZDApp_SecInit_0:
        MOV     DPTR,#ZDApp_NewDeviceList
        LCALL   ??Subroutine46_0 & 0xFFFF
??CrossCallReturnLabel_67:
        JZ      ??ZDApp_SecInit_1
//  393     {
//  394       ZDAppNewDevice_t *pNewDeviceNext;
//  395 
//  396       while ( ZDApp_NewDeviceList )
//  397       {
//  398         pNewDeviceNext = (ZDAppNewDevice_t *) ZDApp_NewDeviceList->next;
??ZDApp_SecInit_2:
        MOV     DPTR,#ZDApp_NewDeviceList
        LCALL   ?Subroutine20 & 0xFFFF
??CrossCallReturnLabel_14:
        MOV     R6,A
        INC     DPTR
        MOVX    A,@DPTR
        MOV     R7,A
//  399         osal_mem_free( ZDApp_NewDeviceList );
        ; Setup parameters for call to function osal_mem_free
        MOV     DPTR,#ZDApp_NewDeviceList
        LCALL   ??Subroutine48_0 & 0xFFFF
??CrossCallReturnLabel_80:
        LCALL   ??osal_mem_free?relay; Banked call to: osal_mem_free
//  400         ZDApp_NewDeviceList = pNewDeviceNext;
        MOV     A,R6
        MOV     R0,A
        MOV     A,R7
        MOV     R1,A
        MOV     DPTR,#ZDApp_NewDeviceList
        LCALL   ??Subroutine41_0 & 0xFFFF
//  401       }
??CrossCallReturnLabel_49:
        MOV     A,R0
        ORL     A,R1
        JNZ     ??ZDApp_SecInit_2
//  402     }
//  403   }
//  404 }
??ZDApp_SecInit_1:
        MOV     A,#0x10
        LJMP    ??Subroutine47_0 & 0xFFFF
          CFI EndBlock cfiBlock1
//  405 
//  406 /*********************************************************************
//  407  * @fn      ZDApp_event_loop()
//  408  *
//  409  * @brief   Main event loop for Zigbee device objects task. This function
//  410  *          should be called at periodic intervals.
//  411  *
//  412  * @param   task_id - Task ID
//  413  * @param   events  - Bitmap of events
//  414  *
//  415  * @return  none
//  416  */

        RSEG BANKED_CODE:CODE:NOROOT(0)
//  417 UINT16 ZDApp_event_loop( uint8 task_id, UINT16 events )
ZDApp_event_loop:
          CFI Block cfiBlock2 Using cfiCommon0
          CFI Function ZDApp_event_loop
        CODE
//  418 {
        FUNCALL ZDApp_event_loop, osal_start_timerEx
        LOCFRAME ISTACK, 0, STACK
        LOCFRAME PSTACK, 0, STACK
        LOCFRAME XSTACK, 18, STACK
        LOCFRAME IOVERLAY, 0, STATIC
        LOCFRAME DOVERLAY, 0, STATIC
        ARGFRAME ISTACK, 0, STACK
        ARGFRAME PSTACK, 0, STACK
        ARGFRAME XSTACK, 18, STACK
        ARGFRAME IOVERLAY, 0, STATIC
        ARGFRAME DOVERLAY, 0, STATIC
        FUNCALL ZDApp_event_loop, ZDApp_ProcessOSALMsg
        LOCFRAME ISTACK, 0, STACK
        LOCFRAME PSTACK, 0, STACK
        LOCFRAME XSTACK, 14, STACK
        LOCFRAME IOVERLAY, 0, STATIC
        LOCFRAME DOVERLAY, 0, STATIC
        ARGFRAME ISTACK, 0, STACK
        ARGFRAME PSTACK, 0, STACK
        ARGFRAME XSTACK, 14, STACK
        ARGFRAME IOVERLAY, 0, STATIC
        ARGFRAME DOVERLAY, 0, STATIC
        FUNCALL ZDApp_event_loop, osal_msg_deallocate
        LOCFRAME ISTACK, 0, STACK
        LOCFRAME PSTACK, 0, STACK
        LOCFRAME XSTACK, 14, STACK
        LOCFRAME IOVERLAY, 0, STATIC
        LOCFRAME DOVERLAY, 0, STATIC
        ARGFRAME ISTACK, 0, STACK
        ARGFRAME PSTACK, 0, STACK
        ARGFRAME XSTACK, 14, STACK
        ARGFRAME IOVERLAY, 0, STATIC
        ARGFRAME DOVERLAY, 0, STATIC
        FUNCALL ZDApp_event_loop, osal_msg_receive
        LOCFRAME ISTACK, 0, STACK
        LOCFRAME PSTACK, 0, STACK
        LOCFRAME XSTACK, 14, STACK
        LOCFRAME IOVERLAY, 0, STATIC
        LOCFRAME DOVERLAY, 0, STATIC
        ARGFRAME ISTACK, 0, STACK
        ARGFRAME PSTACK, 0, STACK
        ARGFRAME XSTACK, 14, STACK
        ARGFRAME IOVERLAY, 0, STATIC
        ARGFRAME DOVERLAY, 0, STATIC
        FUNCALL ZDApp_event_loop, ZDApp_ChangeState
        LOCFRAME ISTACK, 0, STACK
        LOCFRAME PSTACK, 0, STACK
        LOCFRAME XSTACK, 14, STACK
        LOCFRAME IOVERLAY, 0, STATIC
        LOCFRAME DOVERLAY, 0, STATIC
        ARGFRAME ISTACK, 0, STACK
        ARGFRAME PSTACK, 0, STACK
        ARGFRAME XSTACK, 14, STACK
        ARGFRAME IOVERLAY, 0, STATIC
        ARGFRAME DOVERLAY, 0, STATIC
        FUNCALL ZDApp_event_loop, ZDO_StartDevice
        LOCFRAME ISTACK, 0, STACK
        LOCFRAME PSTACK, 0, STACK
        LOCFRAME XSTACK, 14, STACK
        LOCFRAME IOVERLAY, 0, STATIC
        LOCFRAME DOVERLAY, 0, STATIC
        ARGFRAME ISTACK, 0, STACK
        ARGFRAME PSTACK, 0, STACK
        ARGFRAME XSTACK, 14, STACK
        ARGFRAME IOVERLAY, 0, STATIC
        ARGFRAME DOVERLAY, 0, STATIC
        FUNCALL ZDApp_event_loop, ZDApp_ChangeState
        LOCFRAME ISTACK, 0, STACK
        LOCFRAME PSTACK, 0, STACK
        LOCFRAME XSTACK, 14, STACK
        LOCFRAME IOVERLAY, 0, STATIC
        LOCFRAME DOVERLAY, 0, STATIC
        ARGFRAME ISTACK, 0, STACK
        ARGFRAME PSTACK, 0, STACK
        ARGFRAME XSTACK, 14, STACK
        ARGFRAME IOVERLAY, 0, STATIC
        ARGFRAME DOVERLAY, 0, STATIC
        FUNCALL ZDApp_event_loop, ZDApp_StartJoiningCycle
        LOCFRAME ISTACK, 0, STACK
        LOCFRAME PSTACK, 0, STACK
        LOCFRAME XSTACK, 14, STACK
        LOCFRAME IOVERLAY, 0, STATIC
        LOCFRAME DOVERLAY, 0, STATIC
        ARGFRAME ISTACK, 0, STACK
        ARGFRAME PSTACK, 0, STACK
        ARGFRAME XSTACK, 14, STACK
        ARGFRAME IOVERLAY, 0, STATIC
        ARGFRAME DOVERLAY, 0, STATIC
        FUNCALL ZDApp_event_loop, osal_start_timerEx
        LOCFRAME ISTACK, 0, STACK
        LOCFRAME PSTACK, 0, STACK
        LOCFRAME XSTACK, 18, STACK
        LOCFRAME IOVERLAY, 0, STATIC
        LOCFRAME DOVERLAY, 0, STATIC
        ARGFRAME ISTACK, 0, STACK
        ARGFRAME PSTACK, 0, STACK
        ARGFRAME XSTACK, 18, STACK
        ARGFRAME IOVERLAY, 0, STATIC
        ARGFRAME DOVERLAY, 0, STATIC
        FUNCALL ZDApp_event_loop, ZDApp_ChangeState
        LOCFRAME ISTACK, 0, STACK
        LOCFRAME PSTACK, 0, STACK
        LOCFRAME XSTACK, 14, STACK
        LOCFRAME IOVERLAY, 0, STATIC
        LOCFRAME DOVERLAY, 0, STATIC
        ARGFRAME ISTACK, 0, STACK
        ARGFRAME PSTACK, 0, STACK
        ARGFRAME XSTACK, 14, STACK
        ARGFRAME IOVERLAY, 0, STATIC
        ARGFRAME DOVERLAY, 0, STATIC
        FUNCALL ZDApp_event_loop, ZDApp_StopJoiningCycle
        LOCFRAME ISTACK, 0, STACK
        LOCFRAME PSTACK, 0, STACK
        LOCFRAME XSTACK, 14, STACK
        LOCFRAME IOVERLAY, 0, STATIC
        LOCFRAME DOVERLAY, 0, STATIC
        ARGFRAME ISTACK, 0, STACK
        ARGFRAME PSTACK, 0, STACK
        ARGFRAME XSTACK, 14, STACK
        ARGFRAME IOVERLAY, 0, STATIC
        ARGFRAME DOVERLAY, 0, STATIC
        FUNCALL ZDApp_event_loop, osal_start_timerEx
        LOCFRAME ISTACK, 0, STACK
        LOCFRAME PSTACK, 0, STACK
        LOCFRAME XSTACK, 18, STACK
        LOCFRAME IOVERLAY, 0, STATIC
        LOCFRAME DOVERLAY, 0, STATIC
        ARGFRAME ISTACK, 0, STACK
        ARGFRAME PSTACK, 0, STACK
        ARGFRAME XSTACK, 18, STACK
        ARGFRAME IOVERLAY, 0, STATIC
        ARGFRAME DOVERLAY, 0, STATIC
        FUNCALL ZDApp_event_loop, ZDO_UpdateNwkStatus
        LOCFRAME ISTACK, 0, STACK
        LOCFRAME PSTACK, 0, STACK
        LOCFRAME XSTACK, 14, STACK
        LOCFRAME IOVERLAY, 0, STATIC
        LOCFRAME DOVERLAY, 0, STATIC
        ARGFRAME ISTACK, 0, STACK
        ARGFRAME PSTACK, 0, STACK
        ARGFRAME XSTACK, 14, STACK
        ARGFRAME IOVERLAY, 0, STATIC
        ARGFRAME DOVERLAY, 0, STATIC
        FUNCALL ZDApp_event_loop, osal_start_timerEx
        LOCFRAME ISTACK, 0, STACK
        LOCFRAME PSTACK, 0, STACK
        LOCFRAME XSTACK, 18, STACK
        LOCFRAME IOVERLAY, 0, STATIC
        LOCFRAME DOVERLAY, 0, STATIC
        ARGFRAME ISTACK, 0, STACK
        ARGFRAME PSTACK, 0, STACK
        ARGFRAME XSTACK, 18, STACK
        ARGFRAME IOVERLAY, 0, STATIC
        ARGFRAME DOVERLAY, 0, STATIC
        FUNCALL ZDApp_event_loop, ZDApp_SaveNetworkStateEvt
        LOCFRAME ISTACK, 0, STACK
        LOCFRAME PSTACK, 0, STACK
        LOCFRAME XSTACK, 14, STACK
        LOCFRAME IOVERLAY, 0, STATIC
        LOCFRAME DOVERLAY, 0, STATIC
        ARGFRAME ISTACK, 0, STACK
        ARGFRAME PSTACK, 0, STACK
        ARGFRAME XSTACK, 14, STACK
        ARGFRAME IOVERLAY, 0, STATIC
        ARGFRAME DOVERLAY, 0, STATIC
        FUNCALL ZDApp_event_loop, zgWriteStartupOptions
        LOCFRAME ISTACK, 0, STACK
        LOCFRAME PSTACK, 0, STACK
        LOCFRAME XSTACK, 14, STACK
        LOCFRAME IOVERLAY, 0, STATIC
        LOCFRAME DOVERLAY, 0, STATIC
        ARGFRAME ISTACK, 0, STACK
        ARGFRAME PSTACK, 0, STACK
        ARGFRAME XSTACK, 14, STACK
        ARGFRAME IOVERLAY, 0, STATIC
        ARGFRAME DOVERLAY, 0, STATIC
        FUNCALL ZDApp_event_loop, Onboard_soft_reset
        LOCFRAME ISTACK, 0, STACK
        LOCFRAME PSTACK, 0, STACK
        LOCFRAME XSTACK, 14, STACK
        LOCFRAME IOVERLAY, 0, STATIC
        LOCFRAME DOVERLAY, 0, STATIC
        ARGFRAME ISTACK, 0, STACK
        ARGFRAME PSTACK, 0, STACK
        ARGFRAME XSTACK, 14, STACK
        ARGFRAME IOVERLAY, 0, STATIC
        ARGFRAME DOVERLAY, 0, STATIC
        FUNCALL ZDApp_event_loop, ZDApp_AgeOutPendingBindEntry
        LOCFRAME ISTACK, 0, STACK
        LOCFRAME PSTACK, 0, STACK
        LOCFRAME XSTACK, 14, STACK
        LOCFRAME IOVERLAY, 0, STATIC
        LOCFRAME DOVERLAY, 0, STATIC
        ARGFRAME ISTACK, 0, STACK
        ARGFRAME PSTACK, 0, STACK
        ARGFRAME XSTACK, 14, STACK
        ARGFRAME IOVERLAY, 0, STATIC
        ARGFRAME DOVERLAY, 0, STATIC
        FUNCALL ZDApp_event_loop, ZDApp_ProcessSecEvent
        LOCFRAME ISTACK, 0, STACK
        LOCFRAME PSTACK, 0, STACK
        LOCFRAME XSTACK, 14, STACK
        LOCFRAME IOVERLAY, 0, STATIC
        LOCFRAME DOVERLAY, 0, STATIC
        ARGFRAME ISTACK, 0, STACK
        ARGFRAME PSTACK, 0, STACK
        ARGFRAME XSTACK, 14, STACK
        ARGFRAME IOVERLAY, 0, STATIC
        ARGFRAME DOVERLAY, 0, STATIC
        REQUIRE ?V0
        REQUIRE ?V1
        REQUIRE ?V2
        REQUIRE ?V4
        REQUIRE ?V5
        MOV     A,#-0xe
        LCALL   ?BANKED_ENTER_XDATA
          CFI DPH0 load(1, XDATA, add(CFA_XSP16, literal(-1)))
          CFI DPL0 load(1, XDATA, add(CFA_XSP16, literal(-2)))
          CFI ?BRET_EXT load(1, XDATA, add(CFA_XSP16, literal(-3)))
          CFI ?RET_HIGH load(1, XDATA, add(CFA_XSP16, literal(-4)))
          CFI ?RET_LOW load(1, XDATA, add(CFA_XSP16, literal(-5)))
          CFI R7 load(1, XDATA, add(CFA_XSP16, literal(-6)))
          CFI V5 load(1, XDATA, add(CFA_XSP16, literal(-7)))
          CFI V4 load(1, XDATA, add(CFA_XSP16, literal(-8)))
          CFI V3 load(1, XDATA, add(CFA_XSP16, literal(-9)))
          CFI V2 load(1, XDATA, add(CFA_XSP16, literal(-10)))
          CFI V1 load(1, XDATA, add(CFA_XSP16, literal(-11)))
          CFI V0 load(1, XDATA, add(CFA_XSP16, literal(-12)))
          CFI VB load(1, XDATA, add(CFA_XSP16, literal(-13)))
          CFI R6 load(1, XDATA, add(CFA_XSP16, literal(-14)))
          CFI CFA_SP SP+0
          CFI CFA_XSP16 add(XSP16, 14)
        ; Saved register size: 14
        ; Auto size: 0
        MOV     ?V2,R1
        MOV     A,R2
        MOV     R6,A
        MOV     A,R3
        MOV     R7,A
//  419   uint8 *msg_ptr;
//  420 
//  421   if ( events & SYS_EVENT_MSG )
        ANL     A,#0x80
        JNZ     ??ZDApp_event_loop_0
//  422   {
//  423     while ( (msg_ptr = osal_msg_receive( ZDAppTaskID )) )
//  424     {
//  425       ZDApp_ProcessOSALMsg( (osal_event_hdr_t *)msg_ptr );
//  426 
//  427       // Release the memory
//  428       osal_msg_deallocate( msg_ptr );
//  429     }
//  430 
//  431     // Return unprocessed events
//  432     return (events ^ SYS_EVENT_MSG);
//  433   }
//  434 
//  435   if ( events & ZDO_NETWORK_INIT )
        MOV     A,R6
        MOV     C,0xE0 /* A   */.0
        JNC     ??ZDApp_event_loop_1
//  436   {
//  437 		//add by jc,for 加网失败10次后，等待1分钟再加网
//  438 		static int8 initFailCounter = 0;
//  439 		
//  440 		if(initFailCounter++ >= 10)
        MOV     DPTR,#??initFailCounter
        MOVX    A,@DPTR
        MOV     R0,A
        MOV     A,#0x1
        ADD     A,R0
        MOVX    @DPTR,A
        MOV     A,R6
        XRL     A,#0x1
        MOV     R6,A
        MOV     A,R0
        CLR     C
        SUBB    A,#0xa
        MOV     C,0xD0 /* PSW */.2
        XRL     A,PSW
        RLC     A
        JC      ??ZDApp_event_loop_2
//  441 		{
//  442 			osal_start_timerEx(ZDAppTaskID, ZDO_NETWORK_INIT, 6000);
        ; Setup parameters for call to function osal_start_timerEx
        MOV     DPTR,#__Constant_1770
        LCALL   ?PUSH_XSTACK8_X_FOUR
          CFI CFA_XSP16 add(XSP16, 18)
        MOV     R2,#0x1
        MOV     R3,#0x0
        MOV     DPTR,#ZDAppTaskID
        MOVX    A,@DPTR
        MOV     R1,A
        LCALL   ??osal_start_timerEx?relay; Banked call to: osal_start_timerEx
        MOV     A,#0x4
        LCALL   ?DEALLOC_XSTACK8
          CFI CFA_XSP16 add(XSP16, 14)
//  443 			initFailCounter = 0;
        MOV     DPTR,#??initFailCounter
        CLR     A
        MOVX    @DPTR,A
//  444 			
//  445 			return (events ^ ZDO_NETWORK_INIT);
        SJMP    ??ZDApp_event_loop_3
//  446 		}
??ZDApp_event_loop_4:
        ; Setup parameters for call to function ZDApp_ProcessOSALMsg
        LCALL   ??ZDApp_ProcessOSALMsg?relay; Banked call to: ZDApp_ProcessOSALMsg
        ; Setup parameters for call to function osal_msg_deallocate
        MOV     R2,?V0
        MOV     R3,?V1
        LCALL   ??osal_msg_deallocate?relay; Banked call to: osal_msg_deallocate
??ZDApp_event_loop_0:
        ; Setup parameters for call to function osal_msg_receive
        MOV     DPTR,#ZDAppTaskID
        MOVX    A,@DPTR
        MOV     R1,A
        LCALL   ??osal_msg_receive?relay; Banked call to: osal_msg_receive
        MOV     ?V0,R2
        MOV     ?V1,R3
        MOV     A,R2
        ORL     A,?V1
        JNZ     ??ZDApp_event_loop_4
        MOV     A,R6
        MOV     R2,A
        MOV     A,R7
        XRL     A,#0x80
        LJMP    ??ZDApp_event_loop_5 & 0xFFFF
//  447 		// end of add by jc
//  448 		
//  449     // Initialize apps and start the network
//  450     ZDApp_ChangeState( DEV_INIT );
??ZDApp_event_loop_2:
        ; Setup parameters for call to function ZDApp_ChangeState
        MOV     R1,#0x1
        LCALL   ??ZDApp_ChangeState?relay; Banked call to: ZDApp_ChangeState
//  451 
//  452     ZDO_StartDevice( (uint8)ZDO_Config_Node_Descriptor.LogicalType, devStartMode,
//  453                      DEFAULT_BEACON_ORDER, DEFAULT_SUPERFRAME_ORDER );
        ; Setup parameters for call to function ZDO_StartDevice
        MOV     R4,#0xf
        MOV     R3,#0xf
        MOV     DPTR,#devStartMode
        MOVX    A,@DPTR
        MOV     R2,A
        MOV     DPTR,#ZDO_Config_Node_Descriptor
        MOVX    A,@DPTR
        ANL     A,#0x7
        MOV     R1,A
        LCALL   ??ZDO_StartDevice?relay; Banked call to: ZDO_StartDevice
//  454 
//  455     // Return unprocessed events
//  456     return (events ^ ZDO_NETWORK_INIT);
??ZDApp_event_loop_3:
        MOV     A,R6
        SJMP    ??ZDApp_event_loop_6
//  457   }
//  458 
//  459   if ( ZSTACK_ROUTER_BUILD )
//  460   {
//  461     if ( events & ZDO_NETWORK_START )
//  462     {
//  463       ZDApp_NetworkStartEvt();
//  464 
//  465       // Return unprocessed events
//  466       return (events ^ ZDO_NETWORK_START);
//  467     }
//  468 
//  469     if ( events & ZDO_ROUTER_START )
//  470     {
//  471       if ( nwkStatus == ZSuccess )
//  472       {
//  473         if ( devState == DEV_END_DEVICE )
//  474         {
//  475           ZDApp_ChangeState( DEV_ROUTER );
//  476         }
//  477 
//  478         osal_pwrmgr_device( PWRMGR_ALWAYS_ON );
//  479 
//  480         if ( zgChildAgingEnable == TRUE )
//  481         {
//  482           // Once the device has changed its state to a ROUTER set the timer to send
//  483           // Parent annce
//  484           ZDApp_SetParentAnnceTimer();
//  485         }
//  486       }
//  487       else
//  488       {
//  489         // remain as end device
//  490       }
//  491       osal_set_event( ZDAppTaskID, ZDO_STATE_CHANGE_EVT );
//  492 
//  493       // Return unprocessed events
//  494       return (events ^ ZDO_ROUTER_START);
//  495     }
//  496 
//  497     if ( events & ZDO_PARENT_ANNCE_EVT )
//  498     {
//  499       ZDApp_SendParentAnnce();
//  500 
//  501       // Return unprocessed events
//  502       return (events ^ ZDO_PARENT_ANNCE_EVT);
//  503     }
//  504   }
//  505 
//  506   if( events & ZDO_REJOIN_BACKOFF )
??ZDApp_event_loop_1:
        MOV     A,R7
        ANL     A,#0x20
        JZ      ??ZDApp_event_loop_7
//  507   {
//  508     if( devState == DEV_NWK_BACKOFF )
        MOV     DPTR,#devState
        MOVX    A,@DPTR
        XRL     A,#0xc
        JNZ     ??ZDApp_event_loop_8
//  509     {
//  510       ZDApp_ChangeState(DEV_NWK_DISC);
        ; Setup parameters for call to function ZDApp_ChangeState
        MOV     R1,#0x2
        LCALL   ??ZDApp_ChangeState?relay; Banked call to: ZDApp_ChangeState
//  511       // Restart scan for rejoin	  
//  512       ZDApp_StartJoiningCycle();
        ; Setup parameters for call to function ZDApp_StartJoiningCycle
        LCALL   ??ZDApp_StartJoiningCycle?relay; Banked call to: ZDApp_StartJoiningCycle
//  513       osal_start_timerEx( ZDAppTaskID, ZDO_REJOIN_BACKOFF, zgDefaultRejoinScan );
        ; Setup parameters for call to function osal_start_timerEx
        MOV     DPTR,#zgDefaultRejoinScan
        SJMP    ??ZDApp_event_loop_9
//  514     }
//  515     else
//  516     {
//  517       // Rejoin backoff, silent period
//  518       ZDApp_ChangeState(DEV_NWK_BACKOFF);
??ZDApp_event_loop_8:
        ; Setup parameters for call to function ZDApp_ChangeState
        MOV     R1,#0xc
        LCALL   ??ZDApp_ChangeState?relay; Banked call to: ZDApp_ChangeState
//  519       ZDApp_StopJoiningCycle();
        ; Setup parameters for call to function ZDApp_StopJoiningCycle
        LCALL   ??ZDApp_StopJoiningCycle?relay; Banked call to: ZDApp_StopJoiningCycle
//  520       osal_start_timerEx( ZDAppTaskID, ZDO_REJOIN_BACKOFF, zgDefaultRejoinBackoff );	  
        ; Setup parameters for call to function osal_start_timerEx
        MOV     DPTR,#zgDefaultRejoinBackoff
??ZDApp_event_loop_9:
        LCALL   ?PUSH_XSTACK8_X_FOUR
          CFI CFA_XSP16 add(XSP16, 18)
        MOV     R2,#0x0
        MOV     R3,#0x20
        MOV     DPTR,#ZDAppTaskID
        MOVX    A,@DPTR
        MOV     R1,A
        LCALL   ??osal_start_timerEx?relay; Banked call to: osal_start_timerEx
        MOV     A,#0x4
        LCALL   ?DEALLOC_XSTACK8
          CFI CFA_XSP16 add(XSP16, 14)
//  521     }
//  522 
//  523     return ( events ^ ZDO_REJOIN_BACKOFF);
        MOV     A,R6
        MOV     R2,A
        MOV     A,R7
        XRL     A,#0x20
        SJMP    ??ZDApp_event_loop_5
//  524   }
//  525 
//  526   if ( events & ZDO_STATE_CHANGE_EVT )
??ZDApp_event_loop_7:
        MOV     A,R6
        ANL     A,#0x10
        JZ      ??ZDApp_event_loop_10
//  527   {
//  528     ZDO_UpdateNwkStatus( devState );
        ; Setup parameters for call to function ZDO_UpdateNwkStatus
        MOV     DPTR,#devState
        MOVX    A,@DPTR
        MOV     R1,A
        LCALL   ??ZDO_UpdateNwkStatus?relay; Banked call to: ZDO_UpdateNwkStatus
//  529 
//  530     // At start up, do one MTO route discovery if the device is a concentrator
//  531     if ( zgConcentratorEnable == TRUE )
        MOV     DPTR,#zgConcentratorEnable
        MOVX    A,@DPTR
        XRL     A,#0x1
        JNZ     ??ZDApp_event_loop_11
//  532     {
//  533       // Start next event
//  534       osal_start_timerEx( NWK_TaskID, NWK_MTO_RTG_REQ_EVT, 100 );
        ; Setup parameters for call to function osal_start_timerEx
        MOV     DPTR,#__Constant_64
        LCALL   ?PUSH_XSTACK8_X_FOUR
          CFI CFA_XSP16 add(XSP16, 18)
        MOV     R2,#0x0
        MOV     R3,#0x8
        MOV     DPTR,#NWK_TaskID
        MOVX    A,@DPTR
        MOV     R1,A
        LCALL   ??osal_start_timerEx?relay; Banked call to: osal_start_timerEx
        MOV     A,#0x4
        LCALL   ?DEALLOC_XSTACK8
          CFI CFA_XSP16 add(XSP16, 14)
//  535     }
//  536 
//  537     // Return unprocessed events
//  538     return (events ^ ZDO_STATE_CHANGE_EVT);
??ZDApp_event_loop_11:
        MOV     A,R6
        XRL     A,#0x10
??ZDApp_event_loop_6:
        MOV     R2,A
        MOV     A,R7
        SJMP    ??ZDApp_event_loop_5
//  539   }
//  540 
//  541   if ( events & ZDO_COMMAND_CNF )
??ZDApp_event_loop_10:
        MOV     A,R6
        ANL     A,#0x8
        JZ      ??ZDApp_event_loop_12
//  542   {
//  543     // User defined logic
//  544 
//  545     // Return unprocessed events
//  546     return (events ^ ZDO_COMMAND_CNF);
        MOV     A,R6
        XRL     A,#0x8
        MOV     R2,A
        SJMP    ??ZDApp_event_loop_13
//  547   }
//  548 
//  549   if ( events & ZDO_NWK_UPDATE_NV )
??ZDApp_event_loop_12:
        MOV     A,R7
        ANL     A,#0x1
        JZ      ??ZDApp_event_loop_14
//  550   {
//  551     // Save only in valid state
//  552     if ( _NIB.nwkState == NWK_ROUTER || _NIB.nwkState == NWK_ENDDEVICE )
        MOV     DPTR,#_NIB + 35
        MOVX    A,@DPTR
        MOV     R0,A
        MOV     A,#0x8
        XRL     A,R0
        JZ      ??ZDApp_event_loop_15
        MOV     A,#0x4
        XRL     A,R0
        JNZ     ??ZDApp_event_loop_16
//  553     {
//  554       ZDApp_SaveNetworkStateEvt();
??ZDApp_event_loop_15:
        ; Setup parameters for call to function ZDApp_SaveNetworkStateEvt
        LCALL   ??ZDApp_SaveNetworkStateEvt?relay; Banked call to: ZDApp_SaveNetworkStateEvt
//  555     }
//  556 
//  557     // Return unprocessed events
//  558     return (events ^ ZDO_NWK_UPDATE_NV);
??ZDApp_event_loop_16:
        MOV     A,R6
        MOV     R2,A
        MOV     A,R7
        XRL     A,#0x1
        SJMP    ??ZDApp_event_loop_5
//  559   }
//  560 
//  561   if ( events & ZDO_DEVICE_RESET )
??ZDApp_event_loop_14:
        MOV     A,R6
        ANL     A,#0x4
        JZ      ??ZDApp_event_loop_17
//  562   {
//  563 #ifdef ZBA_FALLBACK_NWKKEY
//  564     if ( devState == DEV_END_DEVICE_UNAUTH )
//  565     {
//  566       ZDSecMgrFallbackNwkKey();
//  567     }
//  568     else
//  569 #endif
//  570     {
//  571       // Set the NV startup option to force a "new" join.
//  572       zgWriteStartupOptions( ZG_STARTUP_SET, ZCD_STARTOPT_DEFAULT_NETWORK_STATE );
        ; Setup parameters for call to function zgWriteStartupOptions
        MOV     R2,#0x2
        MOV     R1,#-0x1
        LCALL   ??zgWriteStartupOptions?relay; Banked call to: zgWriteStartupOptions
//  573 
//  574       // The device has been in the UNAUTH state, so reset
//  575       // Note: there will be no return from this call
//  576       SystemResetSoft();
        ; Setup parameters for call to function Onboard_soft_reset
        LCALL   Onboard_soft_reset & 0xFFFF
//  577     }
//  578   }
//  579 
//  580 #if !defined ( ZDP_BIND_SKIP_VALIDATION )
//  581   if ( events & ZDO_PENDING_BIND_REQ_EVT )
??ZDApp_event_loop_17:
        MOV     A,R7
        ANL     A,#0x10
        JZ      ??ZDApp_event_loop_18
//  582   {
//  583 #if defined ( REFLECTOR )
//  584     ZDApp_AgeOutPendingBindEntry();
        ; Setup parameters for call to function ZDApp_AgeOutPendingBindEntry
        LCALL   ??ZDApp_AgeOutPendingBindEntry?relay; Banked call to: ZDApp_AgeOutPendingBindEntry
//  585 #endif
//  586     // Return unprocessed events
//  587     return (events ^ ZDO_PENDING_BIND_REQ_EVT);
        MOV     A,R6
        MOV     R2,A
        MOV     A,R7
        XRL     A,#0x10
??ZDApp_event_loop_5:
        MOV     R3,A
        SJMP    ??ZDApp_event_loop_13
//  588   }
//  589 #endif
//  590 
//  591   if ( ZG_SECURE_ENABLED )
//  592   {
//  593     return ( ZDApp_ProcessSecEvent( task_id, events ) );
??ZDApp_event_loop_18:
        ; Setup parameters for call to function ZDApp_ProcessSecEvent
        MOV     A,R6
        MOV     R2,A
        MOV     A,R7
        MOV     R3,A
        MOV     R1,?V2
        LCALL   ??ZDApp_ProcessSecEvent?relay; Banked call to: ZDApp_ProcessSecEvent
//  594   }
??ZDApp_event_loop_13:
        LJMP    ?Subroutine1 & 0xFFFF
          CFI EndBlock cfiBlock2
//  595   else
//  596   {
//  597     // Discard or make more handlers
//  598     return 0;
//  599   }
//  600 }

        RSEG XDATA_Z:XDATA:NOROOT(0)
        DATA8
??initFailCounter:
        DS 1
        REQUIRE __INIT_XDATA_Z
//  601 
//  602 /*********************************************************************
//  603  * @fn      ZDApp_ProcessSecEvent()
//  604  *
//  605  * @brief   Process incoming security events.
//  606  *
//  607  * @param   task_id - Task ID
//  608  * @param   events  - Bitmap of events
//  609  *
//  610  * @return  none
//  611  */

        RSEG BANKED_CODE:CODE:NOROOT(0)
//  612 UINT16 ZDApp_ProcessSecEvent( uint8 task_id, UINT16 events )
ZDApp_ProcessSecEvent:
          CFI Block cfiBlock3 Using cfiCommon0
          CFI Function ZDApp_ProcessSecEvent
        CODE
//  613 {
        FUNCALL ZDApp_ProcessSecEvent, ZDApp_DeviceAuthEvt
        LOCFRAME ISTACK, 0, STACK
        LOCFRAME PSTACK, 0, STACK
        LOCFRAME XSTACK, 9, STACK
        LOCFRAME IOVERLAY, 0, STATIC
        LOCFRAME DOVERLAY, 0, STATIC
        ARGFRAME ISTACK, 0, STACK
        ARGFRAME PSTACK, 0, STACK
        ARGFRAME XSTACK, 9, STACK
        ARGFRAME IOVERLAY, 0, STATIC
        ARGFRAME DOVERLAY, 0, STATIC
        FUNCALL ZDApp_ProcessSecEvent, ZDApp_SaveNwkKey
        LOCFRAME ISTACK, 0, STACK
        LOCFRAME PSTACK, 0, STACK
        LOCFRAME XSTACK, 9, STACK
        LOCFRAME IOVERLAY, 0, STATIC
        LOCFRAME DOVERLAY, 0, STATIC
        ARGFRAME ISTACK, 0, STACK
        ARGFRAME PSTACK, 0, STACK
        ARGFRAME XSTACK, 9, STACK
        ARGFRAME IOVERLAY, 0, STATIC
        ARGFRAME DOVERLAY, 0, STATIC
        FUNCALL ZDApp_ProcessSecEvent, ZDSecMgrSaveApsLinkKey
        LOCFRAME ISTACK, 0, STACK
        LOCFRAME PSTACK, 0, STACK
        LOCFRAME XSTACK, 9, STACK
        LOCFRAME IOVERLAY, 0, STATIC
        LOCFRAME DOVERLAY, 0, STATIC
        ARGFRAME ISTACK, 0, STACK
        ARGFRAME PSTACK, 0, STACK
        ARGFRAME XSTACK, 9, STACK
        ARGFRAME IOVERLAY, 0, STATIC
        ARGFRAME DOVERLAY, 0, STATIC
        FUNCALL ZDApp_ProcessSecEvent, ZDSecMgrSaveTCLinkKey
        LOCFRAME ISTACK, 0, STACK
        LOCFRAME PSTACK, 0, STACK
        LOCFRAME XSTACK, 9, STACK
        LOCFRAME IOVERLAY, 0, STATIC
        LOCFRAME DOVERLAY, 0, STATIC
        ARGFRAME ISTACK, 0, STACK
        ARGFRAME PSTACK, 0, STACK
        ARGFRAME XSTACK, 9, STACK
        ARGFRAME IOVERLAY, 0, STATIC
        ARGFRAME DOVERLAY, 0, STATIC
        MOV     A,#-0x9
        LCALL   ?BANKED_ENTER_XDATA
          CFI DPH0 load(1, XDATA, add(CFA_XSP16, literal(-1)))
          CFI DPL0 load(1, XDATA, add(CFA_XSP16, literal(-2)))
          CFI ?BRET_EXT load(1, XDATA, add(CFA_XSP16, literal(-3)))
          CFI ?RET_HIGH load(1, XDATA, add(CFA_XSP16, literal(-4)))
          CFI ?RET_LOW load(1, XDATA, add(CFA_XSP16, literal(-5)))
          CFI R7 load(1, XDATA, add(CFA_XSP16, literal(-6)))
          CFI V0 load(1, XDATA, add(CFA_XSP16, literal(-7)))
          CFI VB load(1, XDATA, add(CFA_XSP16, literal(-8)))
          CFI R6 load(1, XDATA, add(CFA_XSP16, literal(-9)))
          CFI CFA_SP SP+0
          CFI CFA_XSP16 add(XSP16, 9)
        ; Saved register size: 9
        ; Auto size: 0
        MOV     A,R2
        MOV     R6,A
        MOV     A,R3
        MOV     R7,A
//  614   (void)task_id;  // Intentionally unreferenced parameter
//  615 
//  616   if ( ZSTACK_ROUTER_BUILD )
//  617   {
//  618     if ( events & ZDO_NEW_DEVICE )
//  619     {
//  620       // process the new device event
//  621       if ( ZDApp_NewDeviceList )
//  622       {
//  623         ZDAppNewDevice_t *pNewDevice;
//  624         uint16 timeDelta;
//  625 
//  626         (void) ZDSecMgrNewDeviceEvent( ZDApp_NewDeviceList->shortAddr );
//  627 
//  628         pNewDevice = (ZDAppNewDevice_t *) ZDApp_NewDeviceList->next;
//  629         osal_mem_free( ZDApp_NewDeviceList );
//  630         ZDApp_NewDeviceList = pNewDevice;
//  631 
//  632         if ( pNewDevice )
//  633         {
//  634           timeDelta = pNewDevice->timeDelta;
//  635           pNewDevice = pNewDevice->next;
//  636 
//  637           while ( pNewDevice )
//  638           {
//  639             pNewDevice->timeDelta -= timeDelta;
//  640             pNewDevice = pNewDevice->next;
//  641           }
//  642 
//  643           osal_start_timerEx( ZDAppTaskID, ZDO_NEW_DEVICE, timeDelta );
//  644         }
//  645       }
//  646 
//  647       // Return unprocessed events
//  648       return (events ^ ZDO_NEW_DEVICE);
//  649     }
//  650   }
//  651 
//  652   if ( events & ZDO_DEVICE_AUTH )
        MOV     A,R6
        ANL     A,#0x80
        JZ      ??ZDApp_ProcessSecEvent_0
//  653   {
//  654     ZDApp_DeviceAuthEvt();
        ; Setup parameters for call to function ZDApp_DeviceAuthEvt
        LCALL   ??ZDApp_DeviceAuthEvt?relay; Banked call to: ZDApp_DeviceAuthEvt
//  655 
//  656     // Return unprocessed events
//  657     return (events ^ ZDO_DEVICE_AUTH);
        MOV     A,R6
        XRL     A,#0x80
        MOV     R2,A
        MOV     A,R7
        SJMP    ??ZDApp_ProcessSecEvent_1
//  658   }
//  659 
//  660   if ( events & ZDO_FRAMECOUNTER_CHANGE )
??ZDApp_ProcessSecEvent_0:
        MOV     A,R7
        ANL     A,#0x2
        JZ      ??ZDApp_ProcessSecEvent_2
//  661   {
//  662     ZDApp_SaveNwkKey();
        ; Setup parameters for call to function ZDApp_SaveNwkKey
        LCALL   ??ZDApp_SaveNwkKey?relay; Banked call to: ZDApp_SaveNwkKey
//  663 
//  664     // Return unprocessed events
//  665     return (events ^ ZDO_FRAMECOUNTER_CHANGE);
        MOV     A,R6
        MOV     R2,A
        MOV     A,R7
        XRL     A,#0x2
        SJMP    ??ZDApp_ProcessSecEvent_1
//  666   }
//  667 
//  668   if ( events & ZDO_APS_FRAMECOUNTER_CHANGE )
??ZDApp_ProcessSecEvent_2:
        MOV     A,R7
        ANL     A,#0x8
        JZ      ??ZDApp_ProcessSecEvent_3
//  669   {
//  670 #if defined (NV_RESTORE)
//  671     ZDSecMgrSaveApsLinkKey();
        ; Setup parameters for call to function ZDSecMgrSaveApsLinkKey
        LCALL   ??ZDSecMgrSaveApsLinkKey?relay; Banked call to: ZDSecMgrSaveApsLinkKey
//  672 #endif // (NV_RESTORE)
//  673 
//  674     // Return unprocessed events
//  675     return (events ^ ZDO_APS_FRAMECOUNTER_CHANGE);
        MOV     A,R6
        MOV     R2,A
        MOV     A,R7
        XRL     A,#0x8
        SJMP    ??ZDApp_ProcessSecEvent_1
//  676   }
//  677 
//  678   if ( events & ZDO_TCLK_FRAMECOUNTER_CHANGE )
??ZDApp_ProcessSecEvent_3:
        MOV     A,R7
        ANL     A,#0x4
        JZ      ??ZDApp_ProcessSecEvent_4
//  679   {
//  680     ZDSecMgrSaveTCLinkKey();
        ; Setup parameters for call to function ZDSecMgrSaveTCLinkKey
        LCALL   ??ZDSecMgrSaveTCLinkKey?relay; Banked call to: ZDSecMgrSaveTCLinkKey
//  681 
//  682     // Return unprocessed events
//  683     return (events ^ ZDO_TCLK_FRAMECOUNTER_CHANGE);
        MOV     A,R6
        MOV     R2,A
        MOV     A,R7
        XRL     A,#0x4
??ZDApp_ProcessSecEvent_1:
        MOV     R3,A
        SJMP    ??ZDApp_ProcessSecEvent_5
//  684   }
//  685 
//  686   // Discard or make more handlers
//  687   return 0;
??ZDApp_ProcessSecEvent_4:
        MOV     R2,#0x0
        MOV     R3,#0x0
??ZDApp_ProcessSecEvent_5:
        LJMP    ??Subroutine44_0 & 0xFFFF
          CFI EndBlock cfiBlock3
//  688 }
//  689 
//  690 /*********************************************************************
//  691  * Application Functions
//  692  */
//  693 
//  694 /*********************************************************************
//  695  * @fn      ZDOInitDevice
//  696  *
//  697  * @brief   Start the device in the network.  This function will read
//  698  *   ZCD_NV_STARTUP_OPTION (NV item) to determine whether or not to
//  699  *   restore the network state of the device.
//  700  *
//  701  * @param   startDelay - timeDelay to start device (in milliseconds).
//  702  *                       There is a jitter added to this delay:
//  703  *                       ((NWK_START_DELAY + startDelay)
//  704  *                       + (osal_rand() & EXTENDED_JOINING_RANDOM_MASK))
//  705  *                       When startDelay is set to ZDO_INIT_HOLD_NWK_START
//  706  *                       this function will hold the network init. Application
//  707  *                       can start the device.
//  708  *
//  709  * NOTE:    If the application would like to force a "new" join, the
//  710  *          application should set the ZCD_STARTOPT_DEFAULT_NETWORK_STATE
//  711  *          bit in the ZCD_NV_STARTUP_OPTION NV item before calling
//  712  *          this function. "new" join means to not restore the network
//  713  *          state of the device. Use zgWriteStartupOptions() to set these
//  714  *          options.
//  715  *
//  716  * @return
//  717  *    ZDO_INITDEV_RESTORED_NETWORK_STATE  - The device's network state was
//  718  *          restored.
//  719  *    ZDO_INITDEV_NEW_NETWORK_STATE - The network state was initialized.
//  720  *          This could mean that ZCD_NV_STARTUP_OPTION said to not restore, or
//  721  *          it could mean that there was no network state to restore.
//  722  */

        RSEG BANKED_CODE:CODE:NOROOT(0)
//  723 uint8 ZDOInitDevice( uint16 startDelay )
ZDOInitDevice:
          CFI Block cfiBlock4 Using cfiCommon0
          CFI Function ZDOInitDevice
        CODE
//  724 {
        FUNCALL ZDOInitDevice, zgInitItems
        LOCFRAME ISTACK, 0, STACK
        LOCFRAME PSTACK, 0, STACK
        LOCFRAME XSTACK, 16, STACK
        LOCFRAME IOVERLAY, 0, STATIC
        LOCFRAME DOVERLAY, 0, STATIC
        ARGFRAME ISTACK, 0, STACK
        ARGFRAME PSTACK, 0, STACK
        ARGFRAME XSTACK, 16, STACK
        ARGFRAME IOVERLAY, 0, STATIC
        ARGFRAME DOVERLAY, 0, STATIC
        FUNCALL ZDOInitDevice, ZDConfig_InitDescriptors
        LOCFRAME ISTACK, 0, STACK
        LOCFRAME PSTACK, 0, STACK
        LOCFRAME XSTACK, 16, STACK
        LOCFRAME IOVERLAY, 0, STATIC
        LOCFRAME DOVERLAY, 0, STATIC
        ARGFRAME ISTACK, 0, STACK
        ARGFRAME PSTACK, 0, STACK
        ARGFRAME XSTACK, 16, STACK
        ARGFRAME IOVERLAY, 0, STATIC
        ARGFRAME DOVERLAY, 0, STATIC
        FUNCALL ZDOInitDevice, NLME_InitNV
        LOCFRAME ISTACK, 0, STACK
        LOCFRAME PSTACK, 0, STACK
        LOCFRAME XSTACK, 16, STACK
        LOCFRAME IOVERLAY, 0, STATIC
        LOCFRAME DOVERLAY, 0, STATIC
        ARGFRAME ISTACK, 0, STACK
        ARGFRAME PSTACK, 0, STACK
        ARGFRAME XSTACK, 16, STACK
        ARGFRAME IOVERLAY, 0, STATIC
        ARGFRAME DOVERLAY, 0, STATIC
        FUNCALL ZDOInitDevice, NLME_SetDefaultNV
        LOCFRAME ISTACK, 0, STACK
        LOCFRAME PSTACK, 0, STACK
        LOCFRAME XSTACK, 16, STACK
        LOCFRAME IOVERLAY, 0, STATIC
        LOCFRAME DOVERLAY, 0, STATIC
        ARGFRAME ISTACK, 0, STACK
        ARGFRAME PSTACK, 0, STACK
        ARGFRAME XSTACK, 16, STACK
        ARGFRAME IOVERLAY, 0, STATIC
        ARGFRAME DOVERLAY, 0, STATIC
        FUNCALL ZDOInitDevice, ZDSecMgrClearNVKeyValues
        LOCFRAME ISTACK, 0, STACK
        LOCFRAME PSTACK, 0, STACK
        LOCFRAME XSTACK, 16, STACK
        LOCFRAME IOVERLAY, 0, STATIC
        LOCFRAME DOVERLAY, 0, STATIC
        ARGFRAME ISTACK, 0, STACK
        ARGFRAME PSTACK, 0, STACK
        ARGFRAME XSTACK, 16, STACK
        ARGFRAME IOVERLAY, 0, STATIC
        ARGFRAME DOVERLAY, 0, STATIC
        FUNCALL ZDOInitDevice, ZDAppDetermineDeviceType
        LOCFRAME ISTACK, 0, STACK
        LOCFRAME PSTACK, 0, STACK
        LOCFRAME XSTACK, 16, STACK
        LOCFRAME IOVERLAY, 0, STATIC
        LOCFRAME DOVERLAY, 0, STATIC
        ARGFRAME ISTACK, 0, STACK
        ARGFRAME PSTACK, 0, STACK
        ARGFRAME XSTACK, 16, STACK
        ARGFRAME IOVERLAY, 0, STATIC
        ARGFRAME DOVERLAY, 0, STATIC
        FUNCALL ZDOInitDevice, osal_rand
        LOCFRAME ISTACK, 0, STACK
        LOCFRAME PSTACK, 0, STACK
        LOCFRAME XSTACK, 16, STACK
        LOCFRAME IOVERLAY, 0, STATIC
        LOCFRAME DOVERLAY, 0, STATIC
        ARGFRAME ISTACK, 0, STACK
        ARGFRAME PSTACK, 0, STACK
        ARGFRAME XSTACK, 16, STACK
        ARGFRAME IOVERLAY, 0, STATIC
        ARGFRAME DOVERLAY, 0, STATIC
        FUNCALL ZDOInitDevice, ZDApp_SecInit
        LOCFRAME ISTACK, 0, STACK
        LOCFRAME PSTACK, 0, STACK
        LOCFRAME XSTACK, 16, STACK
        LOCFRAME IOVERLAY, 0, STATIC
        LOCFRAME DOVERLAY, 0, STATIC
        ARGFRAME ISTACK, 0, STACK
        ARGFRAME PSTACK, 0, STACK
        ARGFRAME XSTACK, 16, STACK
        ARGFRAME IOVERLAY, 0, STATIC
        ARGFRAME DOVERLAY, 0, STATIC
        FUNCALL ZDOInitDevice, ZDApp_LeaveCtrlInit
        LOCFRAME ISTACK, 0, STACK
        LOCFRAME PSTACK, 0, STACK
        LOCFRAME XSTACK, 16, STACK
        LOCFRAME IOVERLAY, 0, STATIC
        LOCFRAME DOVERLAY, 0, STATIC
        ARGFRAME ISTACK, 0, STACK
        ARGFRAME PSTACK, 0, STACK
        ARGFRAME XSTACK, 16, STACK
        ARGFRAME IOVERLAY, 0, STATIC
        ARGFRAME DOVERLAY, 0, STATIC
        FUNCALL ZDOInitDevice, ZDApp_NetworkInit
        LOCFRAME ISTACK, 0, STACK
        LOCFRAME PSTACK, 0, STACK
        LOCFRAME XSTACK, 16, STACK
        LOCFRAME IOVERLAY, 0, STATIC
        LOCFRAME DOVERLAY, 0, STATIC
        ARGFRAME ISTACK, 0, STACK
        ARGFRAME PSTACK, 0, STACK
        ARGFRAME XSTACK, 16, STACK
        ARGFRAME IOVERLAY, 0, STATIC
        ARGFRAME DOVERLAY, 0, STATIC
        FUNCALL ZDOInitDevice, NLME_SetBroadcastFilter
        LOCFRAME ISTACK, 0, STACK
        LOCFRAME PSTACK, 0, STACK
        LOCFRAME XSTACK, 16, STACK
        LOCFRAME IOVERLAY, 0, STATIC
        LOCFRAME DOVERLAY, 0, STATIC
        ARGFRAME ISTACK, 0, STACK
        ARGFRAME PSTACK, 0, STACK
        ARGFRAME XSTACK, 16, STACK
        ARGFRAME IOVERLAY, 0, STATIC
        ARGFRAME DOVERLAY, 0, STATIC
        FUNCALL ZDOInitDevice, ZDApp_ReadNetworkRestoreState
        LOCFRAME ISTACK, 0, STACK
        LOCFRAME PSTACK, 0, STACK
        LOCFRAME XSTACK, 16, STACK
        LOCFRAME IOVERLAY, 0, STATIC
        LOCFRAME DOVERLAY, 0, STATIC
        ARGFRAME ISTACK, 0, STACK
        ARGFRAME PSTACK, 0, STACK
        ARGFRAME XSTACK, 16, STACK
        ARGFRAME IOVERLAY, 0, STATIC
        ARGFRAME DOVERLAY, 0, STATIC
        FUNCALL ZDOInitDevice, ZDApp_RestoreNetworkState
        LOCFRAME ISTACK, 0, STACK
        LOCFRAME PSTACK, 0, STACK
        LOCFRAME XSTACK, 16, STACK
        LOCFRAME IOVERLAY, 0, STATIC
        LOCFRAME DOVERLAY, 0, STATIC
        ARGFRAME ISTACK, 0, STACK
        ARGFRAME PSTACK, 0, STACK
        ARGFRAME XSTACK, 16, STACK
        ARGFRAME IOVERLAY, 0, STATIC
        ARGFRAME DOVERLAY, 0, STATIC
        REQUIRE ?V0
        REQUIRE ?V2
        REQUIRE ?V3
        REQUIRE ?V4
        REQUIRE ?V5
        REQUIRE ?V6
        REQUIRE ?V7
        MOV     A,#-0x10
        LCALL   ?BANKED_ENTER_XDATA
          CFI DPH0 load(1, XDATA, add(CFA_XSP16, literal(-1)))
          CFI DPL0 load(1, XDATA, add(CFA_XSP16, literal(-2)))
          CFI ?BRET_EXT load(1, XDATA, add(CFA_XSP16, literal(-3)))
          CFI ?RET_HIGH load(1, XDATA, add(CFA_XSP16, literal(-4)))
          CFI ?RET_LOW load(1, XDATA, add(CFA_XSP16, literal(-5)))
          CFI R7 load(1, XDATA, add(CFA_XSP16, literal(-6)))
          CFI V7 load(1, XDATA, add(CFA_XSP16, literal(-7)))
          CFI V6 load(1, XDATA, add(CFA_XSP16, literal(-8)))
          CFI V5 load(1, XDATA, add(CFA_XSP16, literal(-9)))
          CFI V4 load(1, XDATA, add(CFA_XSP16, literal(-10)))
          CFI V3 load(1, XDATA, add(CFA_XSP16, literal(-11)))
          CFI V2 load(1, XDATA, add(CFA_XSP16, literal(-12)))
          CFI V1 load(1, XDATA, add(CFA_XSP16, literal(-13)))
          CFI V0 load(1, XDATA, add(CFA_XSP16, literal(-14)))
          CFI VB load(1, XDATA, add(CFA_XSP16, literal(-15)))
          CFI R6 load(1, XDATA, add(CFA_XSP16, literal(-16)))
          CFI CFA_SP SP+0
          CFI CFA_XSP16 add(XSP16, 16)
        ; Saved register size: 16
        ; Auto size: 0
        MOV     ?V2,R2
        MOV     ?V3,R3
//  725   uint8 networkStateNV = ZDO_INITDEV_NEW_NETWORK_STATE;
        MOV     ?V0,#0x1
//  726   uint16 extendedDelay = 0;
        MOV     R6,#0x0
        MOV     R7,#0x0
//  727 
//  728   if ( devState == DEV_HOLD )
        MOV     DPTR,#devState
        MOVX    A,@DPTR
        JNZ     ??ZDOInitDevice_0
//  729   {
//  730     // Initialize the RAM items table, in case an NV item has been updated.
//  731     zgInitItems( FALSE );
        ; Setup parameters for call to function zgInitItems
        MOV     R1,#0x0
        LCALL   ??zgInitItems?relay  ; Banked call to: zgInitItems
//  732   }
//  733 
//  734   ZDConfig_InitDescriptors();
??ZDOInitDevice_0:
        ; Setup parameters for call to function ZDConfig_InitDescriptors
        LCALL   ??ZDConfig_InitDescriptors?relay; Banked call to: ZDConfig_InitDescriptors
//  735   //devtag.071807.todo - fix this temporary solution
//  736   _NIB.CapabilityFlags = ZDO_Config_Node_Descriptor.CapabilityFlags;
        MOV     DPTR,#ZDO_Config_Node_Descriptor + 2
        MOVX    A,@DPTR
        MOV     DPTR,#_NIB + 14
        MOVX    @DPTR,A
//  737 
//  738 #if defined ( NV_RESTORE )
//  739   // Hold down the SW_BYPASS_NV key (defined in OnBoard.h)
//  740   // while booting to skip past NV Restore.
//  741   if ( zdappHoldKeys == SW_BYPASS_NV )
        MOV     DPTR,#zdappHoldKeys
        MOVX    A,@DPTR
        XRL     A,#0x4
        JNZ     ??ZDOInitDevice_1
//  742   {
//  743     zdappHoldKeys = 0;   // Only once
        CLR     A
        MOVX    @DPTR,A
//  744     networkStateNV = ZDO_INITDEV_NEW_NETWORK_STATE;
//  745   }
//  746   else
//  747   {
//  748     // Determine if NV should be restored
//  749     networkStateNV = ZDApp_ReadNetworkRestoreState();
//  750   }
//  751 
//  752   if ( networkStateNV == ZDO_INITDEV_RESTORED_NETWORK_STATE )
//  753   {
//  754     networkStateNV = ZDApp_RestoreNetworkState();
//  755     runtimeChannel = (uint32) (1L << _NIB.nwkLogicalChannel);
//  756   }
//  757   else
//  758   {
//  759     // Wipe out the network state in NV
//  760     NLME_InitNV();
??ZDOInitDevice_2:
        ; Setup parameters for call to function NLME_InitNV
        LCALL   ??NLME_InitNV?relay  ; Banked call to: NLME_InitNV
//  761     NLME_SetDefaultNV();
        ; Setup parameters for call to function NLME_SetDefaultNV
        LCALL   ??NLME_SetDefaultNV?relay; Banked call to: NLME_SetDefaultNV
//  762     // clear NWK key values
//  763     ZDSecMgrClearNVKeyValues();
        ; Setup parameters for call to function ZDSecMgrClearNVKeyValues
        LCALL   ??ZDSecMgrClearNVKeyValues?relay; Banked call to: ZDSecMgrClearNVKeyValues
//  764   }
//  765 #endif
//  766 
//  767   if ( networkStateNV == ZDO_INITDEV_NEW_NETWORK_STATE )
??ZDOInitDevice_3:
        MOV     A,#0x1
        XRL     A,?V0
        JNZ     ??ZDOInitDevice_4
//  768   {
//  769     ZDAppDetermineDeviceType();
        ; Setup parameters for call to function ZDAppDetermineDeviceType
        LCALL   ??ZDAppDetermineDeviceType?relay; Banked call to: ZDAppDetermineDeviceType
//  770 
//  771     // Only delay if joining network - not restoring network state
//  772     extendedDelay = (uint16)((NWK_START_DELAY + startDelay)
//  773               + (osal_rand() & EXTENDED_JOINING_RANDOM_MASK));
        ; Setup parameters for call to function osal_rand
        LCALL   ??osal_rand?relay    ; Banked call to: osal_rand
        MOV     A,R2
        ANL     A,#0x7f
        MOV     R0,A
        MOV     A,?V2
        ADD     A,R0
        MOV     R0,A
        CLR     A
        ADDC    A,?V3
        MOV     R1,A
        MOV     A,R0
        ADD     A,#0x64
        MOV     R6,A
        CLR     A
        ADDC    A,R1
        MOV     R7,A
//  774 
//  775     runtimeChannel = zgDefaultChannelList;
        MOV     DPTR,#zgDefaultChannelList
        LCALL   ?XLOAD_R0123
        MOV     DPTR,#runtimeChannel
        LCALL   ?XSTORE_R0123
//  776   }
//  777 
//  778   // Initialize the security for type of device
//  779   ZDApp_SecInit( networkStateNV );
??ZDOInitDevice_4:
        ; Setup parameters for call to function ZDApp_SecInit
        MOV     R1,?V0
        LCALL   ??ZDApp_SecInit?relay; Banked call to: ZDApp_SecInit
//  780 
//  781   if( ZDO_INIT_HOLD_NWK_START != startDelay )
        MOV     A,#-0x1
        XRL     A,?V2
        JNZ     ??ZDOInitDevice_5
        MOV     A,#-0x1
        XRL     A,?V3
??ZDOInitDevice_5:
        JZ      ??ZDOInitDevice_6
//  782   {
//  783     devState = DEV_INIT;    // Remove the Hold state
        MOV     DPTR,#devState
        MOV     A,#0x1
        MOVX    @DPTR,A
//  784 
//  785     // Initialize leave control logic
//  786     ZDApp_LeaveCtrlInit();
        ; Setup parameters for call to function ZDApp_LeaveCtrlInit
        LCALL   ??ZDApp_LeaveCtrlInit?relay; Banked call to: ZDApp_LeaveCtrlInit
//  787 
//  788     // Trigger the network start
//  789     ZDApp_NetworkInit( extendedDelay );
        ; Setup parameters for call to function ZDApp_NetworkInit
        MOV     A,R6
        MOV     R2,A
        MOV     A,R7
        MOV     R3,A
        LCALL   ??ZDApp_NetworkInit?relay; Banked call to: ZDApp_NetworkInit
//  790   }
//  791 
//  792   // set broadcast address mask to support broadcast filtering
//  793   NLME_SetBroadcastFilter( ZDO_Config_Node_Descriptor.CapabilityFlags );
??ZDOInitDevice_6:
        ; Setup parameters for call to function NLME_SetBroadcastFilter
        MOV     DPTR,#ZDO_Config_Node_Descriptor + 2
        MOVX    A,@DPTR
        MOV     R1,A
        LCALL   ??NLME_SetBroadcastFilter?relay; Banked call to: NLME_SetBroadcastFilter
//  794 
//  795   return ( networkStateNV );
        MOV     R1,?V0
        LJMP    ?Subroutine2 & 0xFFFF
??ZDOInitDevice_1:
        ; Setup parameters for call to function ZDApp_ReadNetworkRestoreState
        LCALL   ??ZDApp_ReadNetworkRestoreState?relay; Banked call to: ZDApp_ReadNetworkRestoreState
        MOV     A,R1
        MOV     ?V0,A
        JNZ     ??ZDOInitDevice_2
        ; Setup parameters for call to function ZDApp_RestoreNetworkState
        LCALL   ??ZDApp_RestoreNetworkState?relay; Banked call to: ZDApp_RestoreNetworkState
        MOV     A,R1
        MOV     ?V0,A
        MOV     ?V4,#0x1
        MOV     ?V5,R6
        MOV     ?V6,R6
        MOV     ?V7,R6
        MOV     DPTR,#_NIB + 22
        MOVX    A,@DPTR
        MOV     R0,#?V4
        LCALL   ?L_SHL
        MOV     DPTR,#runtimeChannel
        MOV     R0,#?V4
        LCALL   ?L_MOV_TO_X
        LJMP    ??ZDOInitDevice_3 & 0xFFFF
          CFI EndBlock cfiBlock4
//  796 }
//  797 
//  798 /*********************************************************************
//  799  * @fn      ZDApp_ReadNetworkRestoreState
//  800  *
//  801  * @brief   Read the ZCD_NV_STARTUP_OPTION NV Item to state whether
//  802  *          or not to restore the network state.
//  803  *          If the read value has the ZCD_STARTOPT_DEFAULT_NETWORK_STATE
//  804  *          bit set return the ZDO_INITDEV_NEW_NETWORK_STATE.
//  805  *
//  806  * @param   none
//  807  *
//  808  * @return  ZDO_INITDEV_NEW_NETWORK_STATE
//  809  *          or ZDO_INITDEV_RESTORED_NETWORK_STATE based on whether or
//  810  *          not ZCD_STARTOPT_DEFAULT_NETWORK_STATE bit is set in
//  811  *          ZCD_NV_STARTUP_OPTION
//  812  */

        RSEG BANKED_CODE:CODE:NOROOT(0)
//  813 uint8 ZDApp_ReadNetworkRestoreState( void )
ZDApp_ReadNetworkRestoreState:
          CFI Block cfiBlock5 Using cfiCommon0
          CFI Function ZDApp_ReadNetworkRestoreState
        CODE
//  814 {
        FUNCALL ZDApp_ReadNetworkRestoreState, zgReadStartupOptions
        LOCFRAME ISTACK, 0, STACK
        LOCFRAME PSTACK, 0, STACK
        LOCFRAME XSTACK, 9, STACK
        LOCFRAME IOVERLAY, 0, STATIC
        LOCFRAME DOVERLAY, 0, STATIC
        ARGFRAME ISTACK, 0, STACK
        ARGFRAME PSTACK, 0, STACK
        ARGFRAME XSTACK, 9, STACK
        ARGFRAME IOVERLAY, 0, STATIC
        ARGFRAME DOVERLAY, 0, STATIC
        MOV     A,#-0x9
        LCALL   ?BANKED_ENTER_XDATA
          CFI DPH0 load(1, XDATA, add(CFA_XSP16, literal(-1)))
          CFI DPL0 load(1, XDATA, add(CFA_XSP16, literal(-2)))
          CFI ?BRET_EXT load(1, XDATA, add(CFA_XSP16, literal(-3)))
          CFI ?RET_HIGH load(1, XDATA, add(CFA_XSP16, literal(-4)))
          CFI ?RET_LOW load(1, XDATA, add(CFA_XSP16, literal(-5)))
          CFI R7 load(1, XDATA, add(CFA_XSP16, literal(-6)))
          CFI V0 load(1, XDATA, add(CFA_XSP16, literal(-7)))
          CFI VB load(1, XDATA, add(CFA_XSP16, literal(-8)))
          CFI R6 load(1, XDATA, add(CFA_XSP16, literal(-9)))
          CFI CFA_SP SP+0
          CFI CFA_XSP16 add(XSP16, 9)
        ; Saved register size: 9
        ; Auto size: 0
//  815   uint8 networkStateNV = ZDO_INITDEV_RESTORED_NETWORK_STATE;
        MOV     R6,#0x0
//  816 
//  817   // Look for the New Network State option.
//  818   if ( zgReadStartupOptions() & ZCD_STARTOPT_DEFAULT_NETWORK_STATE )
        ; Setup parameters for call to function zgReadStartupOptions
        LCALL   ??zgReadStartupOptions?relay; Banked call to: zgReadStartupOptions
        MOV     A,R1
        MOV     R0,A
        MOV     C,0xE0 /* A   */.1
        JNC     ??ZDApp_ReadNetworkRestoreState_0
//  819   {
//  820     networkStateNV = ZDO_INITDEV_NEW_NETWORK_STATE;
        MOV     R6,#0x1
//  821   }
//  822 
//  823   return ( networkStateNV );
??ZDApp_ReadNetworkRestoreState_0:
        MOV     A,R6
        MOV     R1,A
        LJMP    ??Subroutine44_0 & 0xFFFF
          CFI EndBlock cfiBlock5
//  824 }
//  825 
//  826 /*********************************************************************
//  827  * @fn      ZDAppDetermineDeviceType()
//  828  *
//  829  * @brief   Determines the type of device to start.
//  830  *
//  831  *          Looks at zgDeviceLogicalType and determines what type of
//  832  *          device to start.  The types are:
//  833  *            ZG_DEVICETYPE_COORDINATOR
//  834  *            ZG_DEVICETYPE_ROUTER
//  835  *            ZG_DEVICETYPE_ENDDEVICE
//  836  *
//  837  * @param   none
//  838  *
//  839  * @return  none
//  840  */

        RSEG BANKED_CODE:CODE:NOROOT(0)
//  841 void ZDAppDetermineDeviceType( void )
ZDAppDetermineDeviceType:
          CFI Block cfiBlock6 Using cfiCommon0
          CFI Function ZDAppDetermineDeviceType
        CODE
//  842 {
        FUNCALL ZDAppDetermineDeviceType, nwk_ExtPANIDValid
        LOCFRAME ISTACK, 2, STACK
        LOCFRAME PSTACK, 0, STACK
        LOCFRAME XSTACK, 0, STACK
        LOCFRAME IOVERLAY, 0, STATIC
        LOCFRAME DOVERLAY, 0, STATIC
        ARGFRAME ISTACK, 2, STACK
        ARGFRAME PSTACK, 0, STACK
        ARGFRAME XSTACK, 0, STACK
        ARGFRAME IOVERLAY, 0, STATIC
        ARGFRAME DOVERLAY, 0, STATIC
        PUSH    DPL
          CFI DPL0 Frame(CFA_SP, 4)
          CFI CFA_SP SP+-4
        PUSH    DPH
          CFI DPH0 Frame(CFA_SP, 5)
          CFI CFA_SP SP+-5
        ; Saved register size: 2
        ; Auto size: 0
//  843   if ( zgDeviceLogicalType == ZG_DEVICETYPE_COORDINATOR )
        MOV     DPTR,#zgDeviceLogicalType
        MOVX    A,@DPTR
        JNZ     ??ZDAppDetermineDeviceType_0
//  844   {
//  845     devStartMode = MODE_HARD;     // Start as a coordinator
        MOV     DPTR,#devStartMode
        MOV     A,#0x2
        MOVX    @DPTR,A
//  846     ZDO_Config_Node_Descriptor.LogicalType = NODETYPE_COORDINATOR;
        MOV     DPTR,#ZDO_Config_Node_Descriptor
        MOVX    A,@DPTR
        ANL     A,#0xf8
        SJMP    ??ZDAppDetermineDeviceType_1
//  847   }
//  848   else
//  849   {
//  850     if ( zgDeviceLogicalType == ZG_DEVICETYPE_ROUTER  )
??ZDAppDetermineDeviceType_0:
        MOV     DPTR,#ZDO_Config_Node_Descriptor
        MOVX    A,@DPTR
        ANL     A,#0xf8
        MOV     R0,A
        MOV     DPTR,#zgDeviceLogicalType
        MOVX    A,@DPTR
        XRL     A,#0x1
        JNZ     ??ZDAppDetermineDeviceType_2
//  851       ZDO_Config_Node_Descriptor.LogicalType = NODETYPE_ROUTER;
        MOV     A,#0x1
        SJMP    ??ZDAppDetermineDeviceType_3
//  852     else if ( zgDeviceLogicalType == ZG_DEVICETYPE_ENDDEVICE )
??ZDAppDetermineDeviceType_2:
        MOVX    A,@DPTR
        XRL     A,#0x2
        JNZ     ??ZDAppDetermineDeviceType_4
//  853       ZDO_Config_Node_Descriptor.LogicalType = NODETYPE_DEVICE;
        MOV     A,#0x2
??ZDAppDetermineDeviceType_3:
        ORL     A,R0
        MOV     DPTR,#ZDO_Config_Node_Descriptor
        MOVX    @DPTR,A
//  854 
//  855     // If AIB_apsUseExtendedPANID is set to a non-zero value by commissioning
//  856     // The device shall do rejoin the network. Otherwise, do normal join
//  857     if ( nwk_ExtPANIDValid( AIB_apsUseExtendedPANID ) == false )
??ZDAppDetermineDeviceType_4:
        ; Setup parameters for call to function nwk_ExtPANIDValid
        MOV     R2,#AIB_apsUseExtendedPANID & 0xff
        MOV     R3,#(AIB_apsUseExtendedPANID >> 8) & 0xff
        LCALL   ??nwk_ExtPANIDValid?relay; Banked call to: nwk_ExtPANIDValid
        MOV     A,R1
        MOV     DPTR,#devStartMode
        JNZ     ??ZDAppDetermineDeviceType_5
//  858     {
//  859       devStartMode = MODE_JOIN;     // Assume joining
        CLR     A
        SJMP    ??ZDAppDetermineDeviceType_1
//  860     }
//  861     else
//  862     {
//  863       devStartMode = MODE_REJOIN;
??ZDAppDetermineDeviceType_5:
        MOV     A,#0x3
        MOVX    @DPTR,A
//  864       prevDevState = DEV_NWK_SEC_REJOIN_CURR_CHANNEL;
        MOV     DPTR,#prevDevState
        INC     A
??ZDAppDetermineDeviceType_1:
        MOVX    @DPTR,A
//  865     }
//  866   }
//  867 }
        LJMP    ??Subroutine40_0 & 0xFFFF
          CFI EndBlock cfiBlock6
//  868 
//  869 /*********************************************************************
//  870  * @fn      ZDApp_NetworkStartEvt()
//  871  *
//  872  * @brief   Process the Network Start Event
//  873  *
//  874  * @param   none
//  875  *
//  876  * @return  none
//  877  */

        RSEG BANKED_CODE:CODE:NOROOT(0)
//  878 void ZDApp_NetworkStartEvt( void )
ZDApp_NetworkStartEvt:
          CFI Block cfiBlock7 Using cfiCommon0
          CFI Function ZDApp_NetworkStartEvt
        CODE
//  879 {
        FUNCALL ZDApp_NetworkStartEvt, AddrMgrWriteNVRequest
        LOCFRAME ISTACK, 2, STACK
        LOCFRAME PSTACK, 0, STACK
        LOCFRAME XSTACK, 0, STACK
        LOCFRAME IOVERLAY, 0, STATIC
        LOCFRAME DOVERLAY, 0, STATIC
        ARGFRAME ISTACK, 2, STACK
        ARGFRAME PSTACK, 0, STACK
        ARGFRAME XSTACK, 0, STACK
        ARGFRAME IOVERLAY, 0, STATIC
        ARGFRAME DOVERLAY, 0, STATIC
        FUNCALL ZDApp_NetworkStartEvt, ZDApp_ChangeState
        LOCFRAME ISTACK, 2, STACK
        LOCFRAME PSTACK, 0, STACK
        LOCFRAME XSTACK, 0, STACK
        LOCFRAME IOVERLAY, 0, STATIC
        LOCFRAME DOVERLAY, 0, STATIC
        ARGFRAME ISTACK, 2, STACK
        ARGFRAME PSTACK, 0, STACK
        ARGFRAME XSTACK, 0, STACK
        ARGFRAME IOVERLAY, 0, STATIC
        ARGFRAME DOVERLAY, 0, STATIC
        FUNCALL ZDApp_NetworkStartEvt, ZDApp_SetParentAnnceTimer
        LOCFRAME ISTACK, 2, STACK
        LOCFRAME PSTACK, 0, STACK
        LOCFRAME XSTACK, 0, STACK
        LOCFRAME IOVERLAY, 0, STATIC
        LOCFRAME DOVERLAY, 0, STATIC
        ARGFRAME ISTACK, 2, STACK
        ARGFRAME PSTACK, 0, STACK
        ARGFRAME XSTACK, 0, STACK
        ARGFRAME IOVERLAY, 0, STATIC
        ARGFRAME DOVERLAY, 0, STATIC
        FUNCALL ZDApp_NetworkStartEvt, osal_set_event
        LOCFRAME ISTACK, 2, STACK
        LOCFRAME PSTACK, 0, STACK
        LOCFRAME XSTACK, 0, STACK
        LOCFRAME IOVERLAY, 0, STATIC
        LOCFRAME DOVERLAY, 0, STATIC
        ARGFRAME ISTACK, 2, STACK
        ARGFRAME PSTACK, 0, STACK
        ARGFRAME XSTACK, 0, STACK
        ARGFRAME IOVERLAY, 0, STATIC
        ARGFRAME DOVERLAY, 0, STATIC
        FUNCALL ZDApp_NetworkStartEvt, osal_pwrmgr_device
        LOCFRAME ISTACK, 2, STACK
        LOCFRAME PSTACK, 0, STACK
        LOCFRAME XSTACK, 0, STACK
        LOCFRAME IOVERLAY, 0, STATIC
        LOCFRAME DOVERLAY, 0, STATIC
        ARGFRAME ISTACK, 2, STACK
        ARGFRAME PSTACK, 0, STACK
        ARGFRAME XSTACK, 0, STACK
        ARGFRAME IOVERLAY, 0, STATIC
        ARGFRAME DOVERLAY, 0, STATIC
        FUNCALL ZDApp_NetworkStartEvt, NLME_GetEnergyThreshold
        LOCFRAME ISTACK, 2, STACK
        LOCFRAME PSTACK, 0, STACK
        LOCFRAME XSTACK, 0, STACK
        LOCFRAME IOVERLAY, 0, STATIC
        LOCFRAME DOVERLAY, 0, STATIC
        ARGFRAME ISTACK, 2, STACK
        ARGFRAME PSTACK, 0, STACK
        ARGFRAME XSTACK, 0, STACK
        ARGFRAME IOVERLAY, 0, STATIC
        ARGFRAME DOVERLAY, 0, STATIC
        FUNCALL ZDApp_NetworkStartEvt, NLME_GetEnergyThreshold
        LOCFRAME ISTACK, 2, STACK
        LOCFRAME PSTACK, 0, STACK
        LOCFRAME XSTACK, 0, STACK
        LOCFRAME IOVERLAY, 0, STATIC
        LOCFRAME DOVERLAY, 0, STATIC
        ARGFRAME ISTACK, 2, STACK
        ARGFRAME PSTACK, 0, STACK
        ARGFRAME XSTACK, 0, STACK
        ARGFRAME IOVERLAY, 0, STATIC
        ARGFRAME DOVERLAY, 0, STATIC
        FUNCALL ZDApp_NetworkStartEvt, NLME_SetEnergyThreshold
        LOCFRAME ISTACK, 2, STACK
        LOCFRAME PSTACK, 0, STACK
        LOCFRAME XSTACK, 0, STACK
        LOCFRAME IOVERLAY, 0, STATIC
        LOCFRAME DOVERLAY, 0, STATIC
        ARGFRAME ISTACK, 2, STACK
        ARGFRAME PSTACK, 0, STACK
        ARGFRAME XSTACK, 0, STACK
        ARGFRAME IOVERLAY, 0, STATIC
        ARGFRAME DOVERLAY, 0, STATIC
        FUNCALL ZDApp_NetworkStartEvt, osal_set_event
        LOCFRAME ISTACK, 2, STACK
        LOCFRAME PSTACK, 0, STACK
        LOCFRAME XSTACK, 0, STACK
        LOCFRAME IOVERLAY, 0, STATIC
        LOCFRAME DOVERLAY, 0, STATIC
        ARGFRAME ISTACK, 2, STACK
        ARGFRAME PSTACK, 0, STACK
        ARGFRAME XSTACK, 0, STACK
        ARGFRAME IOVERLAY, 0, STATIC
        ARGFRAME DOVERLAY, 0, STATIC
        FUNCALL ZDApp_NetworkStartEvt, ZDApp_ChangeState
        LOCFRAME ISTACK, 2, STACK
        LOCFRAME PSTACK, 0, STACK
        LOCFRAME XSTACK, 0, STACK
        LOCFRAME IOVERLAY, 0, STATIC
        LOCFRAME DOVERLAY, 0, STATIC
        ARGFRAME ISTACK, 2, STACK
        ARGFRAME PSTACK, 0, STACK
        ARGFRAME XSTACK, 0, STACK
        ARGFRAME IOVERLAY, 0, STATIC
        ARGFRAME DOVERLAY, 0, STATIC
        PUSH    DPL
          CFI DPL0 Frame(CFA_SP, 4)
          CFI CFA_SP SP+-4
        PUSH    DPH
          CFI DPH0 Frame(CFA_SP, 5)
          CFI CFA_SP SP+-5
        ; Saved register size: 2
        ; Auto size: 0
//  880   if ( nwkStatus == ZSuccess )
        MOV     DPTR,#nwkStatus
        MOVX    A,@DPTR
        JNZ     ??ZDApp_NetworkStartEvt_0
//  881   {
//  882     // Successfully started a ZigBee network
//  883     if ( devState == DEV_COORD_STARTING )
        MOV     DPTR,#devState
        MOVX    A,@DPTR
        XRL     A,#0x8
        JNZ     ??ZDApp_NetworkStartEvt_1
//  884     {
//  885       //save NIB to NV before child joins if NV_RESTORE is defined
//  886       ZDApp_NwkWriteNVRequest();
        ; Setup parameters for call to function AddrMgrWriteNVRequest
        LCALL   ??AddrMgrWriteNVRequest?relay; Banked call to: AddrMgrWriteNVRequest
//  887       ZDApp_ChangeState( DEV_ZB_COORD );
        ; Setup parameters for call to function ZDApp_ChangeState
        MOV     R1,#0x9
        LCALL   ??ZDApp_ChangeState?relay; Banked call to: ZDApp_ChangeState
//  888 
//  889       if ( zgChildAgingEnable == TRUE )
        MOV     DPTR,#zgChildAgingEnable
        MOVX    A,@DPTR
        XRL     A,#0x1
        JNZ     ??ZDApp_NetworkStartEvt_2
//  890       {
//  891         // Once the device has changed its state to a COORDINATOR set the timer to send
//  892         // Parent annce
//  893         ZDApp_SetParentAnnceTimer();
        ; Setup parameters for call to function ZDApp_SetParentAnnceTimer
        LCALL   ??ZDApp_SetParentAnnceTimer?relay; Banked call to: ZDApp_SetParentAnnceTimer
        SJMP    ??ZDApp_NetworkStartEvt_2
//  894       }
//  895     }
//  896     else
//  897     {
//  898       osal_set_event( ZDAppTaskID, ZDO_STATE_CHANGE_EVT );
??ZDApp_NetworkStartEvt_1:
        ; Setup parameters for call to function osal_set_event
        MOV     R2,#0x10
        MOV     R3,#0x0
        MOV     DPTR,#ZDAppTaskID
        MOVX    A,@DPTR
        MOV     R1,A
        LCALL   ??osal_set_event?relay; Banked call to: osal_set_event
//  899     }
//  900 
//  901     osal_pwrmgr_device( PWRMGR_ALWAYS_ON );
??ZDApp_NetworkStartEvt_2:
        ; Setup parameters for call to function osal_pwrmgr_device
        MOV     R1,#0x0
        LCALL   ??osal_pwrmgr_device?relay; Banked call to: osal_pwrmgr_device
        SJMP    ??ZDApp_NetworkStartEvt_3
//  902   }
//  903   else
//  904   {
//  905     // Try again with a higher energy threshold
//  906     if ( ( NLME_GetEnergyThreshold() + ENERGY_SCAN_INCREMENT ) < 0xff )
??ZDApp_NetworkStartEvt_0:
        ; Setup parameters for call to function NLME_GetEnergyThreshold
        LCALL   ??NLME_GetEnergyThreshold?relay; Banked call to: NLME_GetEnergyThreshold
        MOV     A,R1
        MOV     R1,#0x0
        ADD     A,#0x10
        JNC     ??ZDApp_NetworkStartEvt_4
        INC     R1
??ZDApp_NetworkStartEvt_4:
        CLR     C
        SUBB    A,#-0x1
        MOV     A,R1
        SUBB    A,#0x0
        MOV     C,0xD0 /* PSW */.2
        XRL     A,PSW
        RLC     A
        JNC     ??ZDApp_NetworkStartEvt_5
//  907     {
//  908       NLME_SetEnergyThreshold( (uint8)(NLME_GetEnergyThreshold() + ENERGY_SCAN_INCREMENT) );
        ; Setup parameters for call to function NLME_GetEnergyThreshold
        LCALL   ??NLME_GetEnergyThreshold?relay; Banked call to: NLME_GetEnergyThreshold
        MOV     A,R1
        MOV     R0,A
        ; Setup parameters for call to function NLME_SetEnergyThreshold
        MOV     A,#0x10
        ADD     A,R1
        MOV     R1,A
        LCALL   ??NLME_SetEnergyThreshold?relay; Banked call to: NLME_SetEnergyThreshold
//  909       osal_set_event( ZDAppTaskID, ZDO_NETWORK_INIT );
        ; Setup parameters for call to function osal_set_event
        MOV     R2,#0x1
        MOV     R3,#0x0
        MOV     DPTR,#ZDAppTaskID
        MOVX    A,@DPTR
        MOV     R1,A
        LCALL   ??osal_set_event?relay; Banked call to: osal_set_event
        SJMP    ??ZDApp_NetworkStartEvt_3
//  910     }
//  911     else
//  912     {
//  913       // Failed to start network. Enter a dormant state (until user intervenes)
//  914       ZDApp_ChangeState( DEV_INIT );
??ZDApp_NetworkStartEvt_5:
        ; Setup parameters for call to function ZDApp_ChangeState
        MOV     R1,#0x1
        LCALL   ??ZDApp_ChangeState?relay; Banked call to: ZDApp_ChangeState
//  915     }
//  916   }
//  917 }
??ZDApp_NetworkStartEvt_3:
        LJMP    ??Subroutine40_0 & 0xFFFF
          CFI EndBlock cfiBlock7
//  918 
//  919 /*********************************************************************
//  920  * @fn      ZDApp_DeviceAuthEvt()
//  921  *
//  922  * @brief   Process the Device Authentic Event
//  923  *
//  924  * @param   none
//  925  *
//  926  * @return  none
//  927  */

        RSEG BANKED_CODE:CODE:NOROOT(0)
//  928 void ZDApp_DeviceAuthEvt( void )
ZDApp_DeviceAuthEvt:
          CFI Block cfiBlock8 Using cfiCommon0
          CFI Function ZDApp_DeviceAuthEvt
        CODE
//  929 {
        FUNCALL ZDApp_DeviceAuthEvt, ZDApp_ResetTimerCancel
        LOCFRAME ISTACK, 2, STACK
        LOCFRAME PSTACK, 0, STACK
        LOCFRAME XSTACK, 0, STACK
        LOCFRAME IOVERLAY, 0, STATIC
        LOCFRAME DOVERLAY, 0, STATIC
        ARGFRAME ISTACK, 2, STACK
        ARGFRAME PSTACK, 0, STACK
        ARGFRAME XSTACK, 0, STACK
        ARGFRAME IOVERLAY, 0, STATIC
        ARGFRAME DOVERLAY, 0, STATIC
        FUNCALL ZDApp_DeviceAuthEvt, ZDApp_ChangeState
        LOCFRAME ISTACK, 2, STACK
        LOCFRAME PSTACK, 0, STACK
        LOCFRAME XSTACK, 0, STACK
        LOCFRAME IOVERLAY, 0, STATIC
        LOCFRAME DOVERLAY, 0, STATIC
        ARGFRAME ISTACK, 2, STACK
        ARGFRAME PSTACK, 0, STACK
        ARGFRAME XSTACK, 0, STACK
        ARGFRAME IOVERLAY, 0, STATIC
        ARGFRAME DOVERLAY, 0, STATIC
        FUNCALL ZDApp_DeviceAuthEvt, osal_pwrmgr_device
        LOCFRAME ISTACK, 2, STACK
        LOCFRAME PSTACK, 0, STACK
        LOCFRAME XSTACK, 0, STACK
        LOCFRAME IOVERLAY, 0, STATIC
        LOCFRAME DOVERLAY, 0, STATIC
        ARGFRAME ISTACK, 2, STACK
        ARGFRAME PSTACK, 0, STACK
        ARGFRAME XSTACK, 0, STACK
        ARGFRAME IOVERLAY, 0, STATIC
        ARGFRAME DOVERLAY, 0, STATIC
        FUNCALL ZDApp_DeviceAuthEvt, ZDApp_NVUpdate
        LOCFRAME ISTACK, 2, STACK
        LOCFRAME PSTACK, 0, STACK
        LOCFRAME XSTACK, 0, STACK
        LOCFRAME IOVERLAY, 0, STATIC
        LOCFRAME DOVERLAY, 0, STATIC
        ARGFRAME ISTACK, 2, STACK
        ARGFRAME PSTACK, 0, STACK
        ARGFRAME XSTACK, 0, STACK
        ARGFRAME IOVERLAY, 0, STATIC
        ARGFRAME DOVERLAY, 0, STATIC
        FUNCALL ZDApp_DeviceAuthEvt, ZDApp_SaveNwkKey
        LOCFRAME ISTACK, 2, STACK
        LOCFRAME PSTACK, 0, STACK
        LOCFRAME XSTACK, 0, STACK
        LOCFRAME IOVERLAY, 0, STATIC
        LOCFRAME DOVERLAY, 0, STATIC
        ARGFRAME ISTACK, 2, STACK
        ARGFRAME PSTACK, 0, STACK
        ARGFRAME XSTACK, 0, STACK
        ARGFRAME IOVERLAY, 0, STATIC
        ARGFRAME DOVERLAY, 0, STATIC
        FUNCALL ZDApp_DeviceAuthEvt, ZDApp_AnnounceNewAddress
        LOCFRAME ISTACK, 2, STACK
        LOCFRAME PSTACK, 0, STACK
        LOCFRAME XSTACK, 0, STACK
        LOCFRAME IOVERLAY, 0, STATIC
        LOCFRAME DOVERLAY, 0, STATIC
        ARGFRAME ISTACK, 2, STACK
        ARGFRAME PSTACK, 0, STACK
        ARGFRAME XSTACK, 0, STACK
        ARGFRAME IOVERLAY, 0, STATIC
        ARGFRAME DOVERLAY, 0, STATIC
        FUNCALL ZDApp_DeviceAuthEvt, NLME_SetPollRate
        LOCFRAME ISTACK, 2, STACK
        LOCFRAME PSTACK, 0, STACK
        LOCFRAME XSTACK, 0, STACK
        LOCFRAME IOVERLAY, 0, STATIC
        LOCFRAME DOVERLAY, 0, STATIC
        ARGFRAME ISTACK, 2, STACK
        ARGFRAME PSTACK, 0, STACK
        ARGFRAME XSTACK, 0, STACK
        ARGFRAME IOVERLAY, 0, STATIC
        ARGFRAME DOVERLAY, 0, STATIC
        FUNCALL ZDApp_DeviceAuthEvt, ZDApp_NVUpdate
        LOCFRAME ISTACK, 2, STACK
        LOCFRAME PSTACK, 0, STACK
        LOCFRAME XSTACK, 0, STACK
        LOCFRAME IOVERLAY, 0, STATIC
        LOCFRAME DOVERLAY, 0, STATIC
        ARGFRAME ISTACK, 2, STACK
        ARGFRAME PSTACK, 0, STACK
        ARGFRAME XSTACK, 0, STACK
        ARGFRAME IOVERLAY, 0, STATIC
        ARGFRAME DOVERLAY, 0, STATIC
        PUSH    DPL
          CFI DPL0 Frame(CFA_SP, 4)
          CFI CFA_SP SP+-4
        PUSH    DPH
          CFI DPH0 Frame(CFA_SP, 5)
          CFI CFA_SP SP+-5
        ; Saved register size: 2
        ; Auto size: 0
//  930   // received authentication from trust center
//  931   if ( devState == DEV_END_DEVICE_UNAUTH )
        MOV     DPTR,#devState
        MOVX    A,@DPTR
        XRL     A,#0x5
        JNZ     ??ZDApp_DeviceAuthEvt_0
//  932   {
//  933     // Stop the reset timer so it doesn't reset
//  934     ZDApp_ResetTimerCancel();
        ; Setup parameters for call to function ZDApp_ResetTimerCancel
        LCALL   ??ZDApp_ResetTimerCancel?relay; Banked call to: ZDApp_ResetTimerCancel
//  935 
//  936     ZDApp_ChangeState( DEV_END_DEVICE );
        ; Setup parameters for call to function ZDApp_ChangeState
        MOV     R1,#0x6
        LCALL   ??ZDApp_ChangeState?relay; Banked call to: ZDApp_ChangeState
//  937 
//  938     // Set the Power Manager Device
//  939 #if defined ( POWER_SAVING )
//  940     osal_pwrmgr_device( PWRMGR_BATTERY );
        ; Setup parameters for call to function osal_pwrmgr_device
        MOV     R1,#0x1
        LCALL   ??osal_pwrmgr_device?relay; Banked call to: osal_pwrmgr_device
//  941 #endif
//  942 
//  943     if ( ZSTACK_ROUTER_BUILD )
//  944     {
//  945       if ( ZDO_Config_Node_Descriptor.LogicalType != NODETYPE_DEVICE )
//  946       {
//  947         // NOTE: first two parameters are not used, see NLMEDE.h for details
//  948         NLME_StartRouterRequest( 0, 0, false );
//  949       }
//  950     }
//  951 
//  952     // Notify to save info into NV
//  953     ZDApp_NVUpdate();
        ; Setup parameters for call to function ZDApp_NVUpdate
        LCALL   ??ZDApp_NVUpdate?relay; Banked call to: ZDApp_NVUpdate
//  954 
//  955     // Save off the security
//  956     ZDApp_SaveNwkKey();
        ; Setup parameters for call to function ZDApp_SaveNwkKey
        LCALL   ??ZDApp_SaveNwkKey?relay; Banked call to: ZDApp_SaveNwkKey
//  957 
//  958     ZDApp_AnnounceNewAddress();
        ; Setup parameters for call to function ZDApp_AnnounceNewAddress
        LCALL   ??ZDApp_AnnounceNewAddress?relay; Banked call to: ZDApp_AnnounceNewAddress
//  959 
//  960     if ( ( (ZDO_Config_Node_Descriptor.CapabilityFlags & CAPINFO_RCVR_ON_IDLE) == 0 )
//  961         || ( (ZDO_Config_Node_Descriptor.CapabilityFlags & CAPINFO_RCVR_ON_IDLE)
//  962           && (zgChildAgingEnable == TRUE) ) )
        MOV     DPTR,#ZDO_Config_Node_Descriptor + 2
        MOVX    A,@DPTR
        MOV     C,0xE0 /* A   */.3
        JNC     ??ZDApp_DeviceAuthEvt_1
        MOV     DPTR,#zgChildAgingEnable
        MOVX    A,@DPTR
        XRL     A,#0x1
        JNZ     ??ZDApp_DeviceAuthEvt_2
//  963     {
//  964       NLME_SetPollRate( ZDApp_SavedPollRate );
??ZDApp_DeviceAuthEvt_1:
        ; Setup parameters for call to function NLME_SetPollRate
        MOV     DPTR,#ZDApp_SavedPollRate
        LCALL   ?XLOAD_R2345
        LCALL   ??NLME_SetPollRate?relay; Banked call to: NLME_SetPollRate
        SJMP    ??ZDApp_DeviceAuthEvt_2
//  965     }
//  966   }
//  967   else
//  968   {
//  969     ZDApp_NVUpdate();
??ZDApp_DeviceAuthEvt_0:
        ; Setup parameters for call to function ZDApp_NVUpdate
        LCALL   ??ZDApp_NVUpdate?relay; Banked call to: ZDApp_NVUpdate
//  970   }
//  971 }
??ZDApp_DeviceAuthEvt_2:
        LJMP    ??Subroutine40_0 & 0xFFFF
          CFI EndBlock cfiBlock8
//  972 
//  973 /*********************************************************************
//  974  * @fn      ZDApp_SaveNetworkStateEvt()
//  975  *
//  976  * @brief   Process the Save the Network State Event
//  977  *
//  978  * @param   none
//  979  *
//  980  * @return  none
//  981  */

        RSEG BANKED_CODE:CODE:NOROOT(0)
//  982 void ZDApp_SaveNetworkStateEvt( void )
ZDApp_SaveNetworkStateEvt:
          CFI Block cfiBlock9 Using cfiCommon0
          CFI Function ZDApp_SaveNetworkStateEvt
        CODE
//  983 {
        FUNCALL ZDApp_SaveNetworkStateEvt, NLME_UpdateNV
        LOCFRAME ISTACK, 2, STACK
        LOCFRAME PSTACK, 0, STACK
        LOCFRAME XSTACK, 0, STACK
        LOCFRAME IOVERLAY, 0, STATIC
        LOCFRAME DOVERLAY, 0, STATIC
        ARGFRAME ISTACK, 2, STACK
        ARGFRAME PSTACK, 0, STACK
        ARGFRAME XSTACK, 0, STACK
        ARGFRAME IOVERLAY, 0, STATIC
        ARGFRAME DOVERLAY, 0, STATIC
        FUNCALL ZDApp_SaveNetworkStateEvt, zgWriteStartupOptions
        LOCFRAME ISTACK, 2, STACK
        LOCFRAME PSTACK, 0, STACK
        LOCFRAME XSTACK, 0, STACK
        LOCFRAME IOVERLAY, 0, STATIC
        LOCFRAME DOVERLAY, 0, STATIC
        ARGFRAME ISTACK, 2, STACK
        ARGFRAME PSTACK, 0, STACK
        ARGFRAME XSTACK, 0, STACK
        ARGFRAME IOVERLAY, 0, STATIC
        ARGFRAME DOVERLAY, 0, STATIC
        PUSH    DPL
          CFI DPL0 Frame(CFA_SP, 4)
          CFI CFA_SP SP+-4
        PUSH    DPH
          CFI DPH0 Frame(CFA_SP, 5)
          CFI CFA_SP SP+-5
        ; Saved register size: 2
        ; Auto size: 0
//  984 #if defined ( NV_RESTORE )
//  985  #if defined ( NV_TURN_OFF_RADIO )
//  986   // Turn off the radio's receiver during an NV update
//  987   uint8 RxOnIdle;
//  988   uint8 x = false;
//  989   ZMacGetReq( ZMacRxOnIdle, &RxOnIdle );
//  990   ZMacSetReq( ZMacRxOnIdle, &x );
//  991  #endif
//  992 
//  993   // Update the Network State in NV
//  994   NLME_UpdateNV( NWK_NV_NIB_ENABLE        |
//  995                  NWK_NV_DEVICELIST_ENABLE |
//  996                  NWK_NV_BINDING_ENABLE    |
//  997                  NWK_NV_ADDRMGR_ENABLE );
        ; Setup parameters for call to function NLME_UpdateNV
        MOV     R1,#0xf
        LCALL   ??NLME_UpdateNV?relay; Banked call to: NLME_UpdateNV
//  998 
//  999   // Reset the NV startup option to resume from NV by
// 1000   // clearing the "New" join option.
// 1001   zgWriteStartupOptions( FALSE, ZCD_STARTOPT_DEFAULT_NETWORK_STATE );
        ; Setup parameters for call to function zgWriteStartupOptions
        MOV     R2,#0x2
        MOV     R1,#0x0
        LCALL   ??zgWriteStartupOptions?relay; Banked call to: zgWriteStartupOptions
// 1002 
// 1003  #if defined ( NV_TURN_OFF_RADIO )
// 1004   ZMacSetReq( ZMacRxOnIdle, &RxOnIdle );
// 1005  #endif
// 1006 #endif // NV_RESTORE
// 1007 }
        LJMP    ??Subroutine40_0 & 0xFFFF
          CFI EndBlock cfiBlock9
// 1008 
// 1009 #if defined ( NV_RESTORE )
// 1010 /*********************************************************************
// 1011  * @fn      ZDApp_RestoreNetworkState()
// 1012  *
// 1013  * @brief   This function will restore the network state of the
// 1014  *          device if the network state is stored in NV.
// 1015  *
// 1016  * @param   none
// 1017  *
// 1018  * @return
// 1019  *    ZDO_INITDEV_RESTORED_NETWORK_STATE  - The device's network state was
// 1020  *          restored.
// 1021  *    ZDO_INITDEV_NEW_NETWORK_STATE - The network state was not used.
// 1022  *          This could mean that zgStartupOption said to not restore, or
// 1023  *          it could mean that there was no network state to restore.
// 1024  *
// 1025  */

        RSEG BANKED_CODE:CODE:NOROOT(0)
// 1026 uint8 ZDApp_RestoreNetworkState( void )
ZDApp_RestoreNetworkState:
          CFI Block cfiBlock10 Using cfiCommon0
          CFI Function ZDApp_RestoreNetworkState
        CODE
// 1027 {
        FUNCALL ZDApp_RestoreNetworkState, NLME_InitNV
        LOCFRAME ISTACK, 0, STACK
        LOCFRAME PSTACK, 0, STACK
        LOCFRAME XSTACK, 9, STACK
        LOCFRAME IOVERLAY, 0, STATIC
        LOCFRAME DOVERLAY, 0, STATIC
        ARGFRAME ISTACK, 0, STACK
        ARGFRAME PSTACK, 0, STACK
        ARGFRAME XSTACK, 9, STACK
        ARGFRAME IOVERLAY, 0, STATIC
        ARGFRAME DOVERLAY, 0, STATIC
        FUNCALL ZDApp_RestoreNetworkState, NLME_RestoreFromNV
        LOCFRAME ISTACK, 0, STACK
        LOCFRAME PSTACK, 0, STACK
        LOCFRAME XSTACK, 9, STACK
        LOCFRAME IOVERLAY, 0, STATIC
        LOCFRAME DOVERLAY, 0, STATIC
        ARGFRAME ISTACK, 0, STACK
        ARGFRAME PSTACK, 0, STACK
        ARGFRAME XSTACK, 9, STACK
        ARGFRAME IOVERLAY, 0, STATIC
        ARGFRAME DOVERLAY, 0, STATIC
        FUNCALL ZDApp_RestoreNetworkState, NLME_GetShortAddr
        LOCFRAME ISTACK, 0, STACK
        LOCFRAME PSTACK, 0, STACK
        LOCFRAME XSTACK, 9, STACK
        LOCFRAME IOVERLAY, 0, STATIC
        LOCFRAME DOVERLAY, 0, STATIC
        ARGFRAME ISTACK, 0, STACK
        ARGFRAME PSTACK, 0, STACK
        ARGFRAME XSTACK, 9, STACK
        ARGFRAME IOVERLAY, 0, STATIC
        ARGFRAME DOVERLAY, 0, STATIC
        FUNCALL ZDApp_RestoreNetworkState, sAddrExtCpy
        LOCFRAME ISTACK, 0, STACK
        LOCFRAME PSTACK, 0, STACK
        LOCFRAME XSTACK, 9, STACK
        LOCFRAME IOVERLAY, 0, STATIC
        LOCFRAME DOVERLAY, 0, STATIC
        ARGFRAME ISTACK, 0, STACK
        ARGFRAME PSTACK, 0, STACK
        ARGFRAME XSTACK, 9, STACK
        ARGFRAME IOVERLAY, 0, STATIC
        ARGFRAME DOVERLAY, 0, STATIC
        MOV     A,#-0x9
        LCALL   ?BANKED_ENTER_XDATA
          CFI DPH0 load(1, XDATA, add(CFA_XSP16, literal(-1)))
          CFI DPL0 load(1, XDATA, add(CFA_XSP16, literal(-2)))
          CFI ?BRET_EXT load(1, XDATA, add(CFA_XSP16, literal(-3)))
          CFI ?RET_HIGH load(1, XDATA, add(CFA_XSP16, literal(-4)))
          CFI ?RET_LOW load(1, XDATA, add(CFA_XSP16, literal(-5)))
          CFI R7 load(1, XDATA, add(CFA_XSP16, literal(-6)))
          CFI V0 load(1, XDATA, add(CFA_XSP16, literal(-7)))
          CFI VB load(1, XDATA, add(CFA_XSP16, literal(-8)))
          CFI R6 load(1, XDATA, add(CFA_XSP16, literal(-9)))
          CFI CFA_SP SP+0
          CFI CFA_XSP16 add(XSP16, 9)
        ; Saved register size: 9
        ; Auto size: 0
// 1028   uint8 nvStat;
// 1029 
// 1030   // Initialize NWK NV items
// 1031   nvStat = NLME_InitNV();
        ; Setup parameters for call to function NLME_InitNV
        LCALL   ??NLME_InitNV?relay  ; Banked call to: NLME_InitNV
        MOV     A,R1
        MOV     R6,A
// 1032 
// 1033   if ( nvStat != NV_OPER_FAILED )
        MOV     A,#0xa
        XRL     A,R6
        JZ      ??ZDApp_RestoreNetworkState_0
// 1034   {
// 1035     if ( NLME_RestoreFromNV() )
        ; Setup parameters for call to function NLME_RestoreFromNV
        LCALL   ??NLME_RestoreFromNV?relay; Banked call to: NLME_RestoreFromNV
        MOV     A,R1
        JZ      ??ZDApp_RestoreNetworkState_1
// 1036     {
// 1037       // Are we a coordinator
// 1038       ZDAppNwkAddr.addr.shortAddr = NLME_GetShortAddr();
        ; Setup parameters for call to function NLME_GetShortAddr
        LCALL   ??NLME_GetShortAddr?relay; Banked call to: NLME_GetShortAddr
        MOV     DPTR,#ZDAppNwkAddr
        LCALL   ??Subroutine52_0 & 0xFFFF
// 1039       if ( ZDAppNwkAddr.addr.shortAddr == 0 )
??CrossCallReturnLabel_99:
        MOV     DPTR,#ZDAppNwkAddr
        LCALL   ??Subroutine46_0 & 0xFFFF
??CrossCallReturnLabel_68:
        JNZ     ??ZDApp_RestoreNetworkState_2
// 1040         ZDO_Config_Node_Descriptor.LogicalType = NODETYPE_COORDINATOR;
        MOV     DPTR,#ZDO_Config_Node_Descriptor
        MOVX    A,@DPTR
        ANL     A,#0xf8
        MOVX    @DPTR,A
// 1041       devStartMode = MODE_RESUME;
??ZDApp_RestoreNetworkState_2:
        MOV     DPTR,#devStartMode
        LCALL   ?Subroutine12 & 0xFFFF
// 1042       osal_cpyExtAddr( ZDO_UseExtendedPANID, _NIB.extendedPANID );
// 1043     }
??CrossCallReturnLabel_46:
        LCALL   ??sAddrExtCpy?relay  ; Banked call to: sAddrExtCpy
        SJMP    ??ZDApp_RestoreNetworkState_3
// 1044     else
// 1045       nvStat = NV_ITEM_UNINIT;
??ZDApp_RestoreNetworkState_1:
        MOV     R6,#0x9
// 1046 
// 1047     if ( ZG_SECURE_ENABLED )
// 1048     {
// 1049       nwkFrameCounterChanges = 0;
??ZDApp_RestoreNetworkState_3:
        MOV     DPTR,#nwkFrameCounterChanges
        CLR     A
        MOVX    @DPTR,A
        INC     DPTR
        MOVX    @DPTR,A
// 1050 
// 1051       if ( ZG_BUILD_COORDINATOR_TYPE && ZG_DEVICE_COORDINATOR_TYPE )
// 1052       {
// 1053         ZDApp_RestoreNwkKey( TRUE );
// 1054       }
// 1055     }
// 1056 
// 1057     // The default for RxOnWhenIdle is true for Routers and false for end devices
// 1058     // [setup in the NLME_RestoreFromNV()].  Change it here if you want something
// 1059     // other than default.
// 1060   }
// 1061 
// 1062   if ( nvStat == ZSUCCESS )
        MOV     A,R6
        JNZ     ??ZDApp_RestoreNetworkState_0
// 1063     return ( ZDO_INITDEV_RESTORED_NETWORK_STATE );
        MOV     R1,#0x0
        SJMP    ??ZDApp_RestoreNetworkState_4
// 1064   else
// 1065     return ( ZDO_INITDEV_NEW_NETWORK_STATE );
??ZDApp_RestoreNetworkState_0:
        MOV     R1,#0x1
??ZDApp_RestoreNetworkState_4:
        LJMP    ??Subroutine44_0 & 0xFFFF
          CFI EndBlock cfiBlock10
// 1066 }

        RSEG BANKED_CODE:CODE:NOROOT(0)
?Subroutine12:
          CFI Block cfiCond11 Using cfiCommon0
          CFI Function ZDApp_RestoreNetworkState
          CFI Conditional ??CrossCallReturnLabel_46
          CFI R6 load(1, XDATA, add(CFA_XSP16, literal(-9)))
          CFI VB load(1, XDATA, add(CFA_XSP16, literal(-8)))
          CFI V0 load(1, XDATA, add(CFA_XSP16, literal(-7)))
          CFI R7 load(1, XDATA, add(CFA_XSP16, literal(-6)))
          CFI ?RET_LOW load(1, XDATA, add(CFA_XSP16, literal(-5)))
          CFI ?RET_HIGH load(1, XDATA, add(CFA_XSP16, literal(-4)))
          CFI ?BRET_EXT load(1, XDATA, add(CFA_XSP16, literal(-3)))
          CFI DPL0 load(1, XDATA, add(CFA_XSP16, literal(-2)))
          CFI DPH0 load(1, XDATA, add(CFA_XSP16, literal(-1)))
          CFI CFA_SP SP+-2
          CFI CFA_XSP16 add(XSP16, 9)
          CFI Block cfiCond12 Using cfiCommon0
          CFI (cfiCond12) Function ZDApp_LeaveReset
          CFI (cfiCond12) Conditional ??CrossCallReturnLabel_47
          CFI (cfiCond12) R6 load(1, XDATA, add(CFA_XSP16, literal(-10)))
          CFI (cfiCond12) VB load(1, XDATA, add(CFA_XSP16, literal(-9)))
          CFI (cfiCond12) V0 load(1, XDATA, add(CFA_XSP16, literal(-8)))
          CFI (cfiCond12) V1 load(1, XDATA, add(CFA_XSP16, literal(-7)))
          CFI (cfiCond12) R7 load(1, XDATA, add(CFA_XSP16, literal(-6)))
          CFI (cfiCond12) ?RET_LOW load(1, XDATA, add(CFA_XSP16, literal(-5)))
          CFI (cfiCond12) ?RET_HIGH load(1, XDATA, add(CFA_XSP16, literal(-4)))
          CFI (cfiCond12) ?BRET_EXT load(1, XDATA, add(CFA_XSP16, literal(-3)))
          CFI (cfiCond12) DPL0 load(1, XDATA, add(CFA_XSP16, literal(-2)))
          CFI (cfiCond12) DPH0 load(1, XDATA, add(CFA_XSP16, literal(-1)))
          CFI (cfiCond12) CFA_SP SP+-2
          CFI (cfiCond12) CFA_XSP16 add(XSP16, 10)
          CFI Block cfiPicker13 Using cfiCommon1
          CFI (cfiPicker13) NoFunction
          CFI (cfiPicker13) Picker
        MOV     A,#0x1
          CFI EndBlock cfiCond11
          CFI EndBlock cfiCond12
          CFI EndBlock cfiPicker13
        REQUIRE ??Subroutine39_0
        ; // Fall through to label ??Subroutine39_0

        RSEG BANKED_CODE:CODE:NOROOT(0)
??Subroutine39_0:
          CFI Block cfiCond14 Using cfiCommon0
          CFI Function ZDApp_ProcessOSALMsg
          CFI Conditional ??CrossCallReturnLabel_48
          CFI R6 load(1, XDATA, add(CFA_XSP16, literal(-12)))
          CFI VB load(1, XDATA, add(CFA_XSP16, literal(-11)))
          CFI V0 load(1, XDATA, add(CFA_XSP16, literal(-10)))
          CFI V1 load(1, XDATA, add(CFA_XSP16, literal(-9)))
          CFI V2 load(1, XDATA, add(CFA_XSP16, literal(-8)))
          CFI V3 load(1, XDATA, add(CFA_XSP16, literal(-7)))
          CFI R7 load(1, XDATA, add(CFA_XSP16, literal(-6)))
          CFI ?RET_LOW load(1, XDATA, add(CFA_XSP16, literal(-5)))
          CFI ?RET_HIGH load(1, XDATA, add(CFA_XSP16, literal(-4)))
          CFI ?BRET_EXT load(1, XDATA, add(CFA_XSP16, literal(-3)))
          CFI DPL0 load(1, XDATA, add(CFA_XSP16, literal(-2)))
          CFI DPH0 load(1, XDATA, add(CFA_XSP16, literal(-1)))
          CFI CFA_SP SP+-2
          CFI CFA_XSP16 add(XSP16, 15)
          CFI Block cfiCond15 Using cfiCommon0
          CFI (cfiCond15) Function ZDApp_RestoreNetworkState
          CFI (cfiCond15) Conditional ??CrossCallReturnLabel_46
          CFI (cfiCond15) R6 load(1, XDATA, add(CFA_XSP16, literal(-9)))
          CFI (cfiCond15) VB load(1, XDATA, add(CFA_XSP16, literal(-8)))
          CFI (cfiCond15) V0 load(1, XDATA, add(CFA_XSP16, literal(-7)))
          CFI (cfiCond15) R7 load(1, XDATA, add(CFA_XSP16, literal(-6)))
          CFI (cfiCond15) ?RET_LOW load(1, XDATA, add(CFA_XSP16, literal(-5)))
          CFI (cfiCond15) ?RET_HIGH load(1, XDATA, add(CFA_XSP16, literal(-4)))
          CFI (cfiCond15) ?BRET_EXT load(1, XDATA, add(CFA_XSP16, literal(-3)))
          CFI (cfiCond15) DPL0 load(1, XDATA, add(CFA_XSP16, literal(-2)))
          CFI (cfiCond15) DPH0 load(1, XDATA, add(CFA_XSP16, literal(-1)))
          CFI (cfiCond15) CFA_SP SP+-2
          CFI (cfiCond15) CFA_XSP16 add(XSP16, 9)
          CFI Block cfiCond16 Using cfiCommon0
          CFI (cfiCond16) Function ZDApp_LeaveReset
          CFI (cfiCond16) Conditional ??CrossCallReturnLabel_47
          CFI (cfiCond16) R6 load(1, XDATA, add(CFA_XSP16, literal(-10)))
          CFI (cfiCond16) VB load(1, XDATA, add(CFA_XSP16, literal(-9)))
          CFI (cfiCond16) V0 load(1, XDATA, add(CFA_XSP16, literal(-8)))
          CFI (cfiCond16) V1 load(1, XDATA, add(CFA_XSP16, literal(-7)))
          CFI (cfiCond16) R7 load(1, XDATA, add(CFA_XSP16, literal(-6)))
          CFI (cfiCond16) ?RET_LOW load(1, XDATA, add(CFA_XSP16, literal(-5)))
          CFI (cfiCond16) ?RET_HIGH load(1, XDATA, add(CFA_XSP16, literal(-4)))
          CFI (cfiCond16) ?BRET_EXT load(1, XDATA, add(CFA_XSP16, literal(-3)))
          CFI (cfiCond16) DPL0 load(1, XDATA, add(CFA_XSP16, literal(-2)))
          CFI (cfiCond16) DPH0 load(1, XDATA, add(CFA_XSP16, literal(-1)))
          CFI (cfiCond16) CFA_SP SP+-2
          CFI (cfiCond16) CFA_XSP16 add(XSP16, 10)
          CFI Block cfiPicker17 Using cfiCommon1
          CFI (cfiPicker17) NoFunction
          CFI (cfiPicker17) Picker
        MOVX    @DPTR,A
        ; Setup parameters for call to function sAddrExtCpy
        ; Setup parameters for call to function sAddrExtCpy
        ; Setup parameters for call to function sAddrExtCpy
        MOV     R4,#(_NIB + 53) & 0xff
        MOV     R5,#((_NIB + 53) >> 8) & 0xff
        MOV     R2,#ZDO_UseExtendedPANID & 0xff
        MOV     R3,#(ZDO_UseExtendedPANID >> 8) & 0xff
        RET
          CFI EndBlock cfiCond14
          CFI EndBlock cfiCond15
          CFI EndBlock cfiCond16
          CFI EndBlock cfiPicker17
// 1067 #endif // NV_RESTORE
// 1068 
// 1069 /*********************************************************************
// 1070  * @fn      ZDApp_InitUserDesc()
// 1071  *
// 1072  * @brief   Initialize the User Descriptor, the descriptor is read from NV
// 1073  *          when needed.  If you want to initialize the User descriptor to
// 1074  *          something other than all zero, do it here.
// 1075  *
// 1076  * @param   none
// 1077  *
// 1078  * @return  none
// 1079  */

        RSEG BANKED_CODE:CODE:NOROOT(0)
// 1080 void ZDApp_InitUserDesc( void )
ZDApp_InitUserDesc:
          CFI Block cfiBlock18 Using cfiCommon0
          CFI Function ZDApp_InitUserDesc
        CODE
// 1081 {
        FUNCALL ZDApp_InitUserDesc, osal_memset
        LOCFRAME ISTACK, 0, STACK
        LOCFRAME PSTACK, 0, STACK
        LOCFRAME XSTACK, 27, STACK
        LOCFRAME IOVERLAY, 0, STATIC
        LOCFRAME DOVERLAY, 0, STATIC
        ARGFRAME ISTACK, 0, STACK
        ARGFRAME PSTACK, 0, STACK
        ARGFRAME XSTACK, 27, STACK
        ARGFRAME IOVERLAY, 0, STATIC
        ARGFRAME DOVERLAY, 0, STATIC
        FUNCALL ZDApp_InitUserDesc, osal_nv_item_init
        LOCFRAME ISTACK, 0, STACK
        LOCFRAME PSTACK, 0, STACK
        LOCFRAME XSTACK, 29, STACK
        LOCFRAME IOVERLAY, 0, STATIC
        LOCFRAME DOVERLAY, 0, STATIC
        ARGFRAME ISTACK, 0, STACK
        ARGFRAME PSTACK, 0, STACK
        ARGFRAME XSTACK, 29, STACK
        ARGFRAME IOVERLAY, 0, STATIC
        ARGFRAME DOVERLAY, 0, STATIC
        FUNCALL ZDApp_InitUserDesc, osal_nv_read
        LOCFRAME ISTACK, 0, STACK
        LOCFRAME PSTACK, 0, STACK
        LOCFRAME XSTACK, 31, STACK
        LOCFRAME IOVERLAY, 0, STATIC
        LOCFRAME DOVERLAY, 0, STATIC
        ARGFRAME ISTACK, 0, STACK
        ARGFRAME PSTACK, 0, STACK
        ARGFRAME XSTACK, 31, STACK
        ARGFRAME IOVERLAY, 0, STATIC
        ARGFRAME DOVERLAY, 0, STATIC
        REQUIRE ?V0
        REQUIRE ?V1
        MOV     A,#-0xa
        LCALL   ?BANKED_ENTER_XDATA
          CFI DPH0 load(1, XDATA, add(CFA_XSP16, literal(-1)))
          CFI DPL0 load(1, XDATA, add(CFA_XSP16, literal(-2)))
          CFI ?BRET_EXT load(1, XDATA, add(CFA_XSP16, literal(-3)))
          CFI ?RET_HIGH load(1, XDATA, add(CFA_XSP16, literal(-4)))
          CFI ?RET_LOW load(1, XDATA, add(CFA_XSP16, literal(-5)))
          CFI R7 load(1, XDATA, add(CFA_XSP16, literal(-6)))
          CFI V1 load(1, XDATA, add(CFA_XSP16, literal(-7)))
          CFI V0 load(1, XDATA, add(CFA_XSP16, literal(-8)))
          CFI VB load(1, XDATA, add(CFA_XSP16, literal(-9)))
          CFI R6 load(1, XDATA, add(CFA_XSP16, literal(-10)))
          CFI CFA_SP SP+0
          CFI CFA_XSP16 add(XSP16, 10)
        ; Saved register size: 10
        ; Auto size: 17
        MOV     A,#-0x11
        LCALL   ?ALLOC_XSTACK8
          CFI CFA_XSP16 add(XSP16, 27)
// 1082   UserDescriptorFormat_t ZDO_DefaultUserDescriptor;
// 1083 
// 1084   // Initialize the User Descriptor, the descriptor is read from NV
// 1085   // when needed.  If you want to initialize the User descriptor to something
// 1086   // other than all zero, do it here.
// 1087   osal_memset( &ZDO_DefaultUserDescriptor, 0, sizeof( UserDescriptorFormat_t ) );
        ; Setup parameters for call to function osal_memset
        MOV     R4,#0x11
        MOV     R5,#0x0
        MOV     R1,#0x0
        MOV     R2,?XSP + 0
        MOV     R3,?XSP + 1
        LCALL   ??osal_memset?relay  ; Banked call to: osal_memset
// 1088   if ( ZSUCCESS == osal_nv_item_init( ZCD_NV_USERDESC,
// 1089          sizeof(UserDescriptorFormat_t), (void*)&ZDO_DefaultUserDescriptor ) )
        ; Setup parameters for call to function osal_nv_item_init
        MOV     R0,?XSP + 0
        MOV     R1,?XSP + 1
        MOV     ?V0,R0
        MOV     ?V1,R1
        MOV     R0,#?V0
        LCALL   ?PUSH_XSTACK_I_TWO
          CFI CFA_XSP16 add(XSP16, 29)
        MOV     R4,#0x11
        MOV     R5,#0x0
        MOV     R2,#-0x7f
        MOV     R3,#0x0
        LCALL   ??osal_nv_item_init?relay; Banked call to: osal_nv_item_init
        MOV     A,#0x2
        LCALL   ?DEALLOC_XSTACK8
          CFI CFA_XSP16 add(XSP16, 27)
        MOV     A,R1
        JNZ     ??ZDApp_InitUserDesc_0
// 1090   {
// 1091     if ( ZSUCCESS == osal_nv_read( ZCD_NV_USERDESC, 0,
// 1092          sizeof(UserDescriptorFormat_t), (void*)&ZDO_DefaultUserDescriptor ) )
        ; Setup parameters for call to function osal_nv_read
        MOV     R0,#?V0
        LCALL   ?PUSH_XSTACK_I_TWO
          CFI CFA_XSP16 add(XSP16, 29)
        MOV     ?V0,#0x11
        MOV     ?V1,#0x0
        MOV     R0,#?V0
        LCALL   ?PUSH_XSTACK_I_TWO
          CFI CFA_XSP16 add(XSP16, 31)
        MOV     R4,#0x0
        MOV     R5,#0x0
        MOV     R2,#-0x7f
        MOV     R3,#0x0
        LCALL   ??osal_nv_read?relay ; Banked call to: osal_nv_read
        MOV     A,#0x4
        LCALL   ?DEALLOC_XSTACK8
          CFI CFA_XSP16 add(XSP16, 27)
        MOV     A,R1
        JNZ     ??ZDApp_InitUserDesc_0
// 1093     {
// 1094       if ( ZDO_DefaultUserDescriptor.len != 0 )
        MOV     DPL,?XSP + 0
        MOV     DPH,?XSP + 1
        MOVX    A,@DPTR
        JZ      ??ZDApp_InitUserDesc_0
// 1095       {
// 1096         ZDO_Config_Node_Descriptor.UserDescAvail = TRUE;
        MOV     DPTR,#ZDO_Config_Node_Descriptor
        MOVX    A,@DPTR
        SETB    0xE0 /* A   */.4
        MOVX    @DPTR,A
// 1097       }
// 1098     }
// 1099   }
// 1100 }
??ZDApp_InitUserDesc_0:
        MOV     A,#0x11
        LJMP    ??Subroutine50_0 & 0xFFFF
          CFI EndBlock cfiBlock18
// 1101 
// 1102 /*********************************************************************
// 1103  * @fn      ZDAppCheckForHoldKey()
// 1104  *
// 1105  * @brief   Check for key to set the device into Hold Auto Start
// 1106  *
// 1107  * @param   none
// 1108  *
// 1109  * @return  none
// 1110  */

        RSEG BANKED_CODE:CODE:NOROOT(0)
// 1111 void ZDAppCheckForHoldKey( void )
ZDAppCheckForHoldKey:
          CFI Block cfiBlock19 Using cfiCommon0
          CFI Function ZDAppCheckForHoldKey
        CODE
// 1112 {
        FUNCALL ZDAppCheckForHoldKey, HalKeyRead
        LOCFRAME ISTACK, 2, STACK
        LOCFRAME PSTACK, 0, STACK
        LOCFRAME XSTACK, 0, STACK
        LOCFRAME IOVERLAY, 0, STATIC
        LOCFRAME DOVERLAY, 0, STATIC
        ARGFRAME ISTACK, 2, STACK
        ARGFRAME PSTACK, 0, STACK
        ARGFRAME XSTACK, 0, STACK
        ARGFRAME IOVERLAY, 0, STATIC
        ARGFRAME DOVERLAY, 0, STATIC
        PUSH    DPL
          CFI DPL0 Frame(CFA_SP, 4)
          CFI CFA_SP SP+-4
        PUSH    DPH
          CFI DPH0 Frame(CFA_SP, 5)
          CFI CFA_SP SP+-5
        ; Saved register size: 2
        ; Auto size: 0
// 1113 #if (defined HAL_KEY) && (HAL_KEY == TRUE)
// 1114 
// 1115   // Get Keypad directly to see if a HOLD is needed
// 1116   zdappHoldKeys = HalKeyRead();
        ; Setup parameters for call to function HalKeyRead
        LCALL   ??HalKeyRead?relay   ; Banked call to: HalKeyRead
        MOV     A,R1
        MOV     DPTR,#zdappHoldKeys
        MOVX    @DPTR,A
// 1117 
// 1118   // Hold down the SW_BYPASS_START key (see OnBoard.h)
// 1119   // while booting to avoid starting up the device.
// 1120   if ( zdappHoldKeys == SW_BYPASS_START )
        XRL     A,#0x1
        JNZ     ??ZDAppCheckForHoldKey_0
// 1121   {
// 1122     // Change the device state to HOLD on start up
// 1123     devState = DEV_HOLD;
        MOV     DPTR,#devState
        CLR     A
        MOVX    @DPTR,A
// 1124   }
// 1125 #endif // HAL_KEY
// 1126 }
??ZDAppCheckForHoldKey_0:
        LJMP    ??Subroutine40_0 & 0xFFFF
          CFI EndBlock cfiBlock19
// 1127 
// 1128 /*********************************************************************
// 1129  * @fn      ZDApp_ProcessOSALMsg()
// 1130  *
// 1131  * @brief   Process the incoming task message.
// 1132  *
// 1133  * @param   msgPtr - message to process
// 1134  *
// 1135  * @return  none
// 1136  */

        RSEG BANKED_CODE:CODE:NOROOT(0)
// 1137 void ZDApp_ProcessOSALMsg( osal_event_hdr_t *msgPtr )
ZDApp_ProcessOSALMsg:
          CFI Block cfiBlock20 Using cfiCommon0
          CFI Function ZDApp_ProcessOSALMsg
        CODE
// 1138 {
        FUNCALL ZDApp_ProcessOSALMsg, ZDP_IncomingData
        LOCFRAME ISTACK, 0, STACK
        LOCFRAME PSTACK, 0, STACK
        LOCFRAME XSTACK, 15, STACK
        LOCFRAME IOVERLAY, 0, STATIC
        LOCFRAME DOVERLAY, 0, STATIC
        ARGFRAME ISTACK, 0, STACK
        ARGFRAME PSTACK, 0, STACK
        ARGFRAME XSTACK, 15, STACK
        ARGFRAME IOVERLAY, 0, STATIC
        ARGFRAME DOVERLAY, 0, STATIC
        FUNCALL ZDApp_ProcessOSALMsg, ZDApp_ProcessMsgCBs
        LOCFRAME ISTACK, 0, STACK
        LOCFRAME PSTACK, 0, STACK
        LOCFRAME XSTACK, 15, STACK
        LOCFRAME IOVERLAY, 0, STATIC
        LOCFRAME DOVERLAY, 0, STATIC
        ARGFRAME ISTACK, 0, STACK
        ARGFRAME PSTACK, 0, STACK
        ARGFRAME XSTACK, 15, STACK
        ARGFRAME IOVERLAY, 0, STATIC
        ARGFRAME DOVERLAY, 0, STATIC
        FUNCALL ZDApp_ProcessOSALMsg, ZDApp_NwkDescListProcessing
        LOCFRAME ISTACK, 0, STACK
        LOCFRAME PSTACK, 0, STACK
        LOCFRAME XSTACK, 15, STACK
        LOCFRAME IOVERLAY, 0, STATIC
        LOCFRAME DOVERLAY, 0, STATIC
        ARGFRAME ISTACK, 0, STACK
        ARGFRAME PSTACK, 0, STACK
        ARGFRAME XSTACK, 15, STACK
        ARGFRAME IOVERLAY, 0, STATIC
        ARGFRAME DOVERLAY, 0, STATIC
        FUNCALL ZDApp_ProcessOSALMsg, ZDApp_ChangeState
        LOCFRAME ISTACK, 0, STACK
        LOCFRAME PSTACK, 0, STACK
        LOCFRAME XSTACK, 15, STACK
        LOCFRAME IOVERLAY, 0, STATIC
        LOCFRAME DOVERLAY, 0, STATIC
        ARGFRAME ISTACK, 0, STACK
        ARGFRAME PSTACK, 0, STACK
        ARGFRAME XSTACK, 15, STACK
        ARGFRAME IOVERLAY, 0, STATIC
        ARGFRAME DOVERLAY, 0, STATIC
        FUNCALL ZDApp_ProcessOSALMsg, ZDApp_NodeProfileSync
        LOCFRAME ISTACK, 0, STACK
        LOCFRAME PSTACK, 0, STACK
        LOCFRAME XSTACK, 15, STACK
        LOCFRAME IOVERLAY, 0, STATIC
        LOCFRAME DOVERLAY, 0, STATIC
        ARGFRAME ISTACK, 0, STACK
        ARGFRAME PSTACK, 0, STACK
        ARGFRAME XSTACK, 15, STACK
        ARGFRAME IOVERLAY, 0, STATIC
        ARGFRAME DOVERLAY, 0, STATIC
        FUNCALL ZDApp_ProcessOSALMsg, NLME_JoinRequest
        LOCFRAME ISTACK, 0, STACK
        LOCFRAME PSTACK, 0, STACK
        LOCFRAME XSTACK, 19, STACK
        LOCFRAME IOVERLAY, 0, STATIC
        LOCFRAME DOVERLAY, 0, STATIC
        ARGFRAME ISTACK, 0, STACK
        ARGFRAME PSTACK, 0, STACK
        ARGFRAME XSTACK, 19, STACK
        ARGFRAME IOVERLAY, 0, STATIC
        ARGFRAME DOVERLAY, 0, STATIC
        FUNCALL ZDApp_ProcessOSALMsg, osal_rand
        LOCFRAME ISTACK, 0, STACK
        LOCFRAME PSTACK, 0, STACK
        LOCFRAME XSTACK, 15, STACK
        LOCFRAME IOVERLAY, 0, STATIC
        LOCFRAME DOVERLAY, 0, STATIC
        ARGFRAME ISTACK, 0, STACK
        ARGFRAME PSTACK, 0, STACK
        ARGFRAME XSTACK, 15, STACK
        ARGFRAME IOVERLAY, 0, STATIC
        ARGFRAME DOVERLAY, 0, STATIC
        FUNCALL ZDApp_ProcessOSALMsg, ZDApp_NetworkInit
        LOCFRAME ISTACK, 0, STACK
        LOCFRAME PSTACK, 0, STACK
        LOCFRAME XSTACK, 15, STACK
        LOCFRAME IOVERLAY, 0, STATIC
        LOCFRAME DOVERLAY, 0, STATIC
        ARGFRAME ISTACK, 0, STACK
        ARGFRAME PSTACK, 0, STACK
        ARGFRAME XSTACK, 15, STACK
        ARGFRAME IOVERLAY, 0, STATIC
        ARGFRAME DOVERLAY, 0, STATIC
        FUNCALL ZDApp_ProcessOSALMsg, ZDApp_RestoreNwkKey
        LOCFRAME ISTACK, 0, STACK
        LOCFRAME PSTACK, 0, STACK
        LOCFRAME XSTACK, 15, STACK
        LOCFRAME IOVERLAY, 0, STATIC
        LOCFRAME DOVERLAY, 0, STATIC
        ARGFRAME ISTACK, 0, STACK
        ARGFRAME PSTACK, 0, STACK
        ARGFRAME XSTACK, 15, STACK
        ARGFRAME IOVERLAY, 0, STATIC
        ARGFRAME DOVERLAY, 0, STATIC
        FUNCALL ZDApp_ProcessOSALMsg, ZDApp_ChangeState
        LOCFRAME ISTACK, 0, STACK
        LOCFRAME PSTACK, 0, STACK
        LOCFRAME XSTACK, 15, STACK
        LOCFRAME IOVERLAY, 0, STATIC
        LOCFRAME DOVERLAY, 0, STATIC
        ARGFRAME ISTACK, 0, STACK
        ARGFRAME PSTACK, 0, STACK
        ARGFRAME XSTACK, 15, STACK
        ARGFRAME IOVERLAY, 0, STATIC
        ARGFRAME DOVERLAY, 0, STATIC
        FUNCALL ZDApp_ProcessOSALMsg, ZDApp_ChangeState
        LOCFRAME ISTACK, 0, STACK
        LOCFRAME PSTACK, 0, STACK
        LOCFRAME XSTACK, 15, STACK
        LOCFRAME IOVERLAY, 0, STATIC
        LOCFRAME DOVERLAY, 0, STATIC
        ARGFRAME ISTACK, 0, STACK
        ARGFRAME PSTACK, 0, STACK
        ARGFRAME XSTACK, 15, STACK
        ARGFRAME IOVERLAY, 0, STATIC
        ARGFRAME DOVERLAY, 0, STATIC
        FUNCALL ZDApp_ProcessOSALMsg, ZDApp_ChangeState
        LOCFRAME ISTACK, 0, STACK
        LOCFRAME PSTACK, 0, STACK
        LOCFRAME XSTACK, 15, STACK
        LOCFRAME IOVERLAY, 0, STATIC
        LOCFRAME DOVERLAY, 0, STATIC
        ARGFRAME ISTACK, 0, STACK
        ARGFRAME PSTACK, 0, STACK
        ARGFRAME XSTACK, 15, STACK
        ARGFRAME IOVERLAY, 0, STATIC
        ARGFRAME DOVERLAY, 0, STATIC
        FUNCALL ZDApp_ProcessOSALMsg, ZDApp_ChangeState
        LOCFRAME ISTACK, 0, STACK
        LOCFRAME PSTACK, 0, STACK
        LOCFRAME XSTACK, 15, STACK
        LOCFRAME IOVERLAY, 0, STATIC
        LOCFRAME DOVERLAY, 0, STATIC
        ARGFRAME ISTACK, 0, STACK
        ARGFRAME PSTACK, 0, STACK
        ARGFRAME XSTACK, 15, STACK
        ARGFRAME IOVERLAY, 0, STATIC
        ARGFRAME DOVERLAY, 0, STATIC
        FUNCALL ZDApp_ProcessOSALMsg, osal_nv_read
        LOCFRAME ISTACK, 0, STACK
        LOCFRAME PSTACK, 0, STACK
        LOCFRAME XSTACK, 19, STACK
        LOCFRAME IOVERLAY, 0, STATIC
        LOCFRAME DOVERLAY, 0, STATIC
        ARGFRAME ISTACK, 0, STACK
        ARGFRAME PSTACK, 0, STACK
        ARGFRAME XSTACK, 19, STACK
        ARGFRAME IOVERLAY, 0, STATIC
        ARGFRAME DOVERLAY, 0, STATIC
        FUNCALL ZDApp_ProcessOSALMsg, osal_rand
        LOCFRAME ISTACK, 0, STACK
        LOCFRAME PSTACK, 0, STACK
        LOCFRAME XSTACK, 15, STACK
        LOCFRAME IOVERLAY, 0, STATIC
        LOCFRAME DOVERLAY, 0, STATIC
        ARGFRAME ISTACK, 0, STACK
        ARGFRAME PSTACK, 0, STACK
        ARGFRAME XSTACK, 15, STACK
        ARGFRAME IOVERLAY, 0, STATIC
        ARGFRAME DOVERLAY, 0, STATIC
        FUNCALL ZDApp_ProcessOSALMsg, ZMacSetReq
        LOCFRAME ISTACK, 0, STACK
        LOCFRAME PSTACK, 0, STACK
        LOCFRAME XSTACK, 15, STACK
        LOCFRAME IOVERLAY, 0, STATIC
        LOCFRAME DOVERLAY, 0, STATIC
        ARGFRAME ISTACK, 0, STACK
        ARGFRAME PSTACK, 0, STACK
        ARGFRAME XSTACK, 15, STACK
        ARGFRAME IOVERLAY, 0, STATIC
        ARGFRAME DOVERLAY, 0, STATIC
        FUNCALL ZDApp_ProcessOSALMsg, ZMacSetReq
        LOCFRAME ISTACK, 0, STACK
        LOCFRAME PSTACK, 0, STACK
        LOCFRAME XSTACK, 15, STACK
        LOCFRAME IOVERLAY, 0, STATIC
        LOCFRAME DOVERLAY, 0, STATIC
        ARGFRAME ISTACK, 0, STACK
        ARGFRAME PSTACK, 0, STACK
        ARGFRAME XSTACK, 15, STACK
        ARGFRAME IOVERLAY, 0, STATIC
        ARGFRAME DOVERLAY, 0, STATIC
        FUNCALL ZDApp_ProcessOSALMsg, ZMacSetReq
        LOCFRAME ISTACK, 0, STACK
        LOCFRAME PSTACK, 0, STACK
        LOCFRAME XSTACK, 15, STACK
        LOCFRAME IOVERLAY, 0, STATIC
        LOCFRAME DOVERLAY, 0, STATIC
        ARGFRAME ISTACK, 0, STACK
        ARGFRAME PSTACK, 0, STACK
        ARGFRAME XSTACK, 15, STACK
        ARGFRAME IOVERLAY, 0, STATIC
        ARGFRAME DOVERLAY, 0, STATIC
        FUNCALL ZDApp_ProcessOSALMsg, ZDApp_RestoreNwkKey
        LOCFRAME ISTACK, 0, STACK
        LOCFRAME PSTACK, 0, STACK
        LOCFRAME XSTACK, 15, STACK
        LOCFRAME IOVERLAY, 0, STATIC
        LOCFRAME DOVERLAY, 0, STATIC
        ARGFRAME ISTACK, 0, STACK
        ARGFRAME PSTACK, 0, STACK
        ARGFRAME XSTACK, 15, STACK
        ARGFRAME IOVERLAY, 0, STATIC
        ARGFRAME DOVERLAY, 0, STATIC
        FUNCALL ZDApp_ProcessOSALMsg, NLME_ReJoinRequest
        LOCFRAME ISTACK, 0, STACK
        LOCFRAME PSTACK, 0, STACK
        LOCFRAME XSTACK, 15, STACK
        LOCFRAME IOVERLAY, 0, STATIC
        LOCFRAME DOVERLAY, 0, STATIC
        ARGFRAME ISTACK, 0, STACK
        ARGFRAME PSTACK, 0, STACK
        ARGFRAME XSTACK, 15, STACK
        ARGFRAME IOVERLAY, 0, STATIC
        ARGFRAME DOVERLAY, 0, STATIC
        FUNCALL ZDApp_ProcessOSALMsg, NLME_ReJoinRequestUnsecure
        LOCFRAME ISTACK, 0, STACK
        LOCFRAME PSTACK, 0, STACK
        LOCFRAME XSTACK, 15, STACK
        LOCFRAME IOVERLAY, 0, STATIC
        LOCFRAME DOVERLAY, 0, STATIC
        ARGFRAME ISTACK, 0, STACK
        ARGFRAME PSTACK, 0, STACK
        ARGFRAME XSTACK, 15, STACK
        ARGFRAME IOVERLAY, 0, STATIC
        ARGFRAME DOVERLAY, 0, STATIC
        FUNCALL ZDApp_ProcessOSALMsg, osal_rand
        LOCFRAME ISTACK, 0, STACK
        LOCFRAME PSTACK, 0, STACK
        LOCFRAME XSTACK, 15, STACK
        LOCFRAME IOVERLAY, 0, STATIC
        LOCFRAME DOVERLAY, 0, STATIC
        ARGFRAME ISTACK, 0, STACK
        ARGFRAME PSTACK, 0, STACK
        ARGFRAME XSTACK, 15, STACK
        ARGFRAME IOVERLAY, 0, STATIC
        ARGFRAME DOVERLAY, 0, STATIC
        FUNCALL ZDApp_ProcessOSALMsg, ZDApp_NetworkInit
        LOCFRAME ISTACK, 0, STACK
        LOCFRAME PSTACK, 0, STACK
        LOCFRAME XSTACK, 15, STACK
        LOCFRAME IOVERLAY, 0, STATIC
        LOCFRAME DOVERLAY, 0, STATIC
        ARGFRAME ISTACK, 0, STACK
        ARGFRAME PSTACK, 0, STACK
        ARGFRAME XSTACK, 15, STACK
        ARGFRAME IOVERLAY, 0, STATIC
        ARGFRAME DOVERLAY, 0, STATIC
        FUNCALL ZDApp_ProcessOSALMsg, NLME_SetPollRate
        LOCFRAME ISTACK, 0, STACK
        LOCFRAME PSTACK, 0, STACK
        LOCFRAME XSTACK, 15, STACK
        LOCFRAME IOVERLAY, 0, STATIC
        LOCFRAME DOVERLAY, 0, STATIC
        ARGFRAME ISTACK, 0, STACK
        ARGFRAME PSTACK, 0, STACK
        ARGFRAME XSTACK, 15, STACK
        ARGFRAME IOVERLAY, 0, STATIC
        ARGFRAME DOVERLAY, 0, STATIC
        FUNCALL ZDApp_ProcessOSALMsg, NLME_SetQueuedPollRate
        LOCFRAME ISTACK, 0, STACK
        LOCFRAME PSTACK, 0, STACK
        LOCFRAME XSTACK, 15, STACK
        LOCFRAME IOVERLAY, 0, STATIC
        LOCFRAME DOVERLAY, 0, STATIC
        ARGFRAME ISTACK, 0, STACK
        ARGFRAME PSTACK, 0, STACK
        ARGFRAME XSTACK, 15, STACK
        ARGFRAME IOVERLAY, 0, STATIC
        ARGFRAME DOVERLAY, 0, STATIC
        FUNCALL ZDApp_ProcessOSALMsg, NLME_SetResponseRate
        LOCFRAME ISTACK, 0, STACK
        LOCFRAME PSTACK, 0, STACK
        LOCFRAME XSTACK, 15, STACK
        LOCFRAME IOVERLAY, 0, STATIC
        LOCFRAME DOVERLAY, 0, STATIC
        ARGFRAME ISTACK, 0, STACK
        ARGFRAME PSTACK, 0, STACK
        ARGFRAME XSTACK, 15, STACK
        ARGFRAME IOVERLAY, 0, STATIC
        ARGFRAME DOVERLAY, 0, STATIC
        FUNCALL ZDApp_ProcessOSALMsg, NLME_SetPollRate
        LOCFRAME ISTACK, 0, STACK
        LOCFRAME PSTACK, 0, STACK
        LOCFRAME XSTACK, 15, STACK
        LOCFRAME IOVERLAY, 0, STATIC
        LOCFRAME DOVERLAY, 0, STATIC
        ARGFRAME ISTACK, 0, STACK
        ARGFRAME PSTACK, 0, STACK
        ARGFRAME XSTACK, 15, STACK
        ARGFRAME IOVERLAY, 0, STATIC
        ARGFRAME DOVERLAY, 0, STATIC
        FUNCALL ZDApp_ProcessOSALMsg, osal_rand
        LOCFRAME ISTACK, 0, STACK
        LOCFRAME PSTACK, 0, STACK
        LOCFRAME XSTACK, 15, STACK
        LOCFRAME IOVERLAY, 0, STATIC
        LOCFRAME DOVERLAY, 0, STATIC
        ARGFRAME ISTACK, 0, STACK
        ARGFRAME PSTACK, 0, STACK
        ARGFRAME XSTACK, 15, STACK
        ARGFRAME IOVERLAY, 0, STATIC
        ARGFRAME DOVERLAY, 0, STATIC
        FUNCALL ZDApp_ProcessOSALMsg, ZDApp_NetworkInit
        LOCFRAME ISTACK, 0, STACK
        LOCFRAME PSTACK, 0, STACK
        LOCFRAME XSTACK, 15, STACK
        LOCFRAME IOVERLAY, 0, STATIC
        LOCFRAME DOVERLAY, 0, STATIC
        ARGFRAME ISTACK, 0, STACK
        ARGFRAME PSTACK, 0, STACK
        ARGFRAME XSTACK, 15, STACK
        ARGFRAME IOVERLAY, 0, STATIC
        ARGFRAME DOVERLAY, 0, STATIC
        FUNCALL ZDApp_ProcessOSALMsg, ZDApp_ProcessNetworkJoin
        LOCFRAME ISTACK, 0, STACK
        LOCFRAME PSTACK, 0, STACK
        LOCFRAME XSTACK, 15, STACK
        LOCFRAME IOVERLAY, 0, STATIC
        LOCFRAME DOVERLAY, 0, STATIC
        ARGFRAME ISTACK, 0, STACK
        ARGFRAME PSTACK, 0, STACK
        ARGFRAME XSTACK, 15, STACK
        ARGFRAME IOVERLAY, 0, STATIC
        ARGFRAME DOVERLAY, 0, STATIC
        FUNCALL ZDApp_ProcessOSALMsg, sAddrExtCpy
        LOCFRAME ISTACK, 0, STACK
        LOCFRAME PSTACK, 0, STACK
        LOCFRAME XSTACK, 15, STACK
        LOCFRAME IOVERLAY, 0, STATIC
        LOCFRAME DOVERLAY, 0, STATIC
        ARGFRAME ISTACK, 0, STACK
        ARGFRAME PSTACK, 0, STACK
        ARGFRAME XSTACK, 15, STACK
        ARGFRAME IOVERLAY, 0, STATIC
        ARGFRAME DOVERLAY, 0, STATIC
        FUNCALL ZDApp_ProcessOSALMsg, ZDApp_NetworkInit
        LOCFRAME ISTACK, 0, STACK
        LOCFRAME PSTACK, 0, STACK
        LOCFRAME XSTACK, 15, STACK
        LOCFRAME IOVERLAY, 0, STATIC
        LOCFRAME DOVERLAY, 0, STATIC
        ARGFRAME ISTACK, 0, STACK
        ARGFRAME PSTACK, 0, STACK
        ARGFRAME XSTACK, 15, STACK
        ARGFRAME IOVERLAY, 0, STATIC
        ARGFRAME DOVERLAY, 0, STATIC
        FUNCALL ZDApp_ProcessOSALMsg, ZDApp_ProcessSecMsg
        LOCFRAME ISTACK, 0, STACK
        LOCFRAME PSTACK, 0, STACK
        LOCFRAME XSTACK, 15, STACK
        LOCFRAME IOVERLAY, 0, STATIC
        LOCFRAME DOVERLAY, 0, STATIC
        ARGFRAME ISTACK, 0, STACK
        ARGFRAME PSTACK, 0, STACK
        ARGFRAME XSTACK, 15, STACK
        ARGFRAME IOVERLAY, 0, STATIC
        ARGFRAME DOVERLAY, 0, STATIC
        REQUIRE ?V0
        REQUIRE ?V1
        REQUIRE ?V2
        REQUIRE ?V3
        MOV     A,#-0xc
        LCALL   ?BANKED_ENTER_XDATA
          CFI DPH0 load(1, XDATA, add(CFA_XSP16, literal(-1)))
          CFI DPL0 load(1, XDATA, add(CFA_XSP16, literal(-2)))
          CFI ?BRET_EXT load(1, XDATA, add(CFA_XSP16, literal(-3)))
          CFI ?RET_HIGH load(1, XDATA, add(CFA_XSP16, literal(-4)))
          CFI ?RET_LOW load(1, XDATA, add(CFA_XSP16, literal(-5)))
          CFI R7 load(1, XDATA, add(CFA_XSP16, literal(-6)))
          CFI V3 load(1, XDATA, add(CFA_XSP16, literal(-7)))
          CFI V2 load(1, XDATA, add(CFA_XSP16, literal(-8)))
          CFI V1 load(1, XDATA, add(CFA_XSP16, literal(-9)))
          CFI V0 load(1, XDATA, add(CFA_XSP16, literal(-10)))
          CFI VB load(1, XDATA, add(CFA_XSP16, literal(-11)))
          CFI R6 load(1, XDATA, add(CFA_XSP16, literal(-12)))
          CFI CFA_SP SP+0
          CFI CFA_XSP16 add(XSP16, 12)
        ; Saved register size: 12
        ; Auto size: 3
        MOV     A,#-0x3
        LCALL   ?ALLOC_XSTACK8
          CFI CFA_XSP16 add(XSP16, 15)
// 1139   // Data Confirmation message fields
// 1140   uint8 sentEP;       // This should always be 0
// 1141   uint8 sentStatus;
// 1142   afDataConfirm_t *afDataConfirm;
// 1143   uint8 tmp;
// 1144 
// 1145   switch ( msgPtr->event )
        MOV     DPL,R2
        MOV     DPH,R3
        MOVX    A,@DPTR
        DEC     A
        JZ      ??ZDApp_ProcessOSALMsg_0
        DEC     A
        JNZ     $+5
        LJMP    ??ZDApp_ProcessOSALMsg_1 & 0xFFFF
        DEC     A
        JNZ     $+5
        LJMP    ??ZDApp_ProcessOSALMsg_2 & 0xFFFF
        ADD     A,#-0x17
        JZ      ??ZDApp_ProcessOSALMsg_3
        ADD     A,#0x47
        JZ      ??ZDApp_ProcessOSALMsg_4
        ADD     A,#-0x2a
        JNZ     $+5
        LJMP    ??ZDApp_ProcessOSALMsg_5 & 0xFFFF
        LJMP    ??ZDApp_ProcessOSALMsg_6 & 0xFFFF
// 1146   {
// 1147     // Incoming ZDO Message
// 1148     case AF_INCOMING_MSG_CMD:
// 1149       ZDP_IncomingData( (afIncomingMSGPacket_t *)msgPtr );
??ZDApp_ProcessOSALMsg_3:
        ; Setup parameters for call to function ZDP_IncomingData
        LCALL   ??ZDP_IncomingData?relay; Banked call to: ZDP_IncomingData
// 1150       break;
        LJMP    ??ZDApp_ProcessOSALMsg_5 & 0xFFFF
// 1151 
// 1152     case ZDO_CB_MSG:
// 1153       ZDApp_ProcessMsgCBs( (zdoIncomingMsg_t *)msgPtr );
??ZDApp_ProcessOSALMsg_4:
        ; Setup parameters for call to function ZDApp_ProcessMsgCBs
        LCALL   ??ZDApp_ProcessMsgCBs?relay; Banked call to: ZDApp_ProcessMsgCBs
// 1154       break;
        LJMP    ??ZDApp_ProcessOSALMsg_5 & 0xFFFF
// 1155 
// 1156     case AF_DATA_CONFIRM_CMD:
// 1157       // This message is received as a confirmation of a data packet sent.
// 1158       // The status is of ZStatus_t type [defined in NLMEDE.h]
// 1159       // The message fields are defined in AF.h
// 1160       afDataConfirm = (afDataConfirm_t *)msgPtr;
// 1161       sentEP = afDataConfirm->endpoint;
// 1162       sentStatus = afDataConfirm->hdr.status;
// 1163 
// 1164       // Action taken when confirmation is received.
// 1165 #if defined ( ZIGBEE_FREQ_AGILITY )
// 1166       if ( pZDNwkMgr_ProcessDataConfirm )
// 1167         pZDNwkMgr_ProcessDataConfirm( afDataConfirm );
// 1168 #endif
// 1169       (void)sentEP;
// 1170       (void)sentStatus;
// 1171       break;
// 1172 
// 1173     case ZDO_NWK_DISC_CNF:
// 1174       if (devState != DEV_NWK_DISC)
??ZDApp_ProcessOSALMsg_0:
        MOV     DPTR,#devState
        MOVX    A,@DPTR
        XRL     A,#0x2
        JZ      $+5
        LJMP    ??ZDApp_ProcessOSALMsg_5 & 0xFFFF
// 1175         break;
// 1176 
// 1177       if ( ZG_BUILD_JOINING_TYPE && ZG_DEVICE_JOINING_TYPE )
        MOV     DPTR,#zgDeviceLogicalType
        MOVX    A,@DPTR
        XRL     A,#0x1
        JZ      ??ZDApp_ProcessOSALMsg_7
        MOVX    A,@DPTR
        XRL     A,#0x2
        JZ      $+5
        LJMP    ??ZDApp_ProcessOSALMsg_5 & 0xFFFF
// 1178       {
// 1179         // Process the network discovery scan results and choose a parent
// 1180         // device to join/rejoin itself
// 1181         networkDesc_t *pChosenNwk;
// 1182         if ( ( (pChosenNwk = ZDApp_NwkDescListProcessing()) != NULL ) && (zdoDiscCounter > NUM_DISC_ATTEMPTS) )
??ZDApp_ProcessOSALMsg_7:
        ; Setup parameters for call to function ZDApp_NwkDescListProcessing
        LCALL   ??ZDApp_NwkDescListProcessing?relay; Banked call to: ZDApp_NwkDescListProcessing
        MOV     ?V0,R2
        MOV     ?V1,R3
        MOV     A,R2
        ORL     A,?V1
        JNZ     $+5
        LJMP    ??ZDApp_ProcessOSALMsg_8 & 0xFFFF
        MOV     DPTR,#zdoDiscCounter
        MOVX    A,@DPTR
        CLR     C
        SUBB    A,#0x3
        JNC     $+5
        LJMP    ??ZDApp_ProcessOSALMsg_8 & 0xFFFF
// 1183         {
// 1184           if ( devStartMode == MODE_JOIN )
        MOV     A,R2
        ADD     A,#0x2
        MOV     R0,A
        CLR     A
        ADDC    A,?V1
        MOV     R1,A
        MOV     A,R0
        MOV     R6,A
        MOV     A,R1
        MOV     R7,A
        MOV     DPTR,#devStartMode
        MOVX    A,@DPTR
        JNZ     ??ZDApp_ProcessOSALMsg_9
// 1185           {
// 1186             ZDApp_ChangeState( DEV_NWK_JOINING );
        ; Setup parameters for call to function ZDApp_ChangeState
        MOV     R1,#0x3
        LCALL   ??ZDApp_ChangeState?relay; Banked call to: ZDApp_ChangeState
// 1187 
// 1188             ZDApp_NodeProfileSync( pChosenNwk->stackProfile);
        ; Setup parameters for call to function ZDApp_NodeProfileSync
        MOV     DPL,?V0
        MOV     DPH,?V1
        INC     DPTR
        INC     DPTR
        INC     DPTR
        INC     DPTR
        INC     DPTR
        INC     DPTR
        MOVX    A,@DPTR
        MOV     R1,A
        LCALL   ??ZDApp_NodeProfileSync?relay; Banked call to: ZDApp_NodeProfileSync
// 1189 
// 1190             if ( NLME_JoinRequest( pChosenNwk->extendedPANID, pChosenNwk->panId,
// 1191                                   pChosenNwk->logicalChannel,
// 1192                                   ZDO_Config_Node_Descriptor.CapabilityFlags,
// 1193                                   pChosenNwk->chosenRouter, pChosenNwk->chosenRouterDepth ) != ZSuccess )
        ; Setup parameters for call to function NLME_JoinRequest
        MOV     DPL,?V0
        MOV     DPH,?V1
        INC     DPTR
        INC     DPTR
        INC     DPTR
        INC     DPTR
        INC     DPTR
        INC     DPTR
        INC     DPTR
        INC     DPTR
        INC     DPTR
        INC     DPTR
        MOVX    A,@DPTR
        MOV     ?V2,A
        MOV     R0,#?V2
        LCALL   ?PUSH_XSTACK_I_ONE
          CFI CFA_XSP16 add(XSP16, 16)
        MOV     DPL,?V0
        MOV     DPH,?V1
        INC     DPTR
        INC     DPTR
        INC     DPTR
        INC     DPTR
        INC     DPTR
        INC     DPTR
        INC     DPTR
        LCALL   ?PUSH_XSTACK8_X_TWO
          CFI CFA_XSP16 add(XSP16, 18)
        MOV     DPTR,#ZDO_Config_Node_Descriptor + 2
        MOVX    A,@DPTR
        MOV     ?V2,A
        MOV     R0,#?V2
        LCALL   ?PUSH_XSTACK_I_ONE
          CFI CFA_XSP16 add(XSP16, 19)
        MOV     DPL,R6
        MOV     DPH,R7
        MOVX    A,@DPTR
        MOV     R1,A
        MOV     DPL,?V0
        MOV     DPH,?V1
        MOVX    A,@DPTR
        MOV     R4,A
        INC     DPTR
        MOVX    A,@DPTR
        MOV     R5,A
        MOV     A,?V0
        ADD     A,#0xb
        MOV     R2,A
        CLR     A
        ADDC    A,?V1
        MOV     R3,A
        LCALL   ??NLME_JoinRequest?relay; Banked call to: NLME_JoinRequest
        MOV     A,#0x4
        LCALL   ?DEALLOC_XSTACK8
          CFI CFA_XSP16 add(XSP16, 15)
        LJMP    ??ZDApp_ProcessOSALMsg_10 & 0xFFFF
// 1194             {
// 1195               ZDApp_NetworkInit( (uint16)(NWK_START_DELAY
// 1196                                           + ((uint16)(osal_rand()& EXTENDED_JOINING_RANDOM_MASK))) );
// 1197             }
// 1198           } // if ( devStartMode == MODE_JOIN )
// 1199           else if ( devStartMode == MODE_REJOIN )
??ZDApp_ProcessOSALMsg_9:
        XRL     A,#0x3
        JZ      $+5
        LJMP    ??ZDApp_ProcessOSALMsg_11 & 0xFFFF
// 1200           {
// 1201             ZStatus_t rejoinStatus;
// 1202 
// 1203             // Transition state machine to correct rejoin state based on previous state before network discovery
// 1204             if ( ZDApp_RestoreNwkKey( FALSE )== TRUE )
        ; Setup parameters for call to function ZDApp_RestoreNwkKey
        MOV     R1,#0x0
        LCALL   ??ZDApp_RestoreNwkKey?relay; Banked call to: ZDApp_RestoreNwkKey
        MOV     A,R1
        XRL     A,#0x1
        MOV     DPTR,#prevDevState
        JNZ     ??ZDApp_ProcessOSALMsg_12
// 1205             {
// 1206               if ( prevDevState == DEV_NWK_SEC_REJOIN_CURR_CHANNEL )
        MOVX    A,@DPTR
        XRL     A,#0x4
        JNZ     ??ZDApp_ProcessOSALMsg_13
// 1207               {
// 1208                 ZDApp_ChangeState(DEV_NWK_SEC_REJOIN_ALL_CHANNEL);
        ; Setup parameters for call to function ZDApp_ChangeState
        MOV     R1,#0xd
        SJMP    ??ZDApp_ProcessOSALMsg_14
// 1209               }
// 1210               else
// 1211               {
// 1212                 ZDApp_ChangeState( DEV_NWK_SEC_REJOIN_CURR_CHANNEL );
??ZDApp_ProcessOSALMsg_13:
        ; Setup parameters for call to function ZDApp_ChangeState
        MOV     R1,#0x4
        SJMP    ??ZDApp_ProcessOSALMsg_14
// 1213               }
// 1214             }
// 1215             else
// 1216             {
// 1217               if( prevDevState == DEV_NWK_SEC_REJOIN_ALL_CHANNEL )
??ZDApp_ProcessOSALMsg_12:
        MOVX    A,@DPTR
        XRL     A,#0xd
        JNZ     ??ZDApp_ProcessOSALMsg_15
// 1218               {
// 1219                 ZDApp_ChangeState( DEV_NWK_TC_REJOIN_CURR_CHANNEL );
        ; Setup parameters for call to function ZDApp_ChangeState
        MOV     R1,#0xe
        SJMP    ??ZDApp_ProcessOSALMsg_14
// 1220               }
// 1221               else
// 1222               {
// 1223                 ZDApp_ChangeState( DEV_NWK_TC_REJOIN_ALL_CHANNEL );
??ZDApp_ProcessOSALMsg_15:
        ; Setup parameters for call to function ZDApp_ChangeState
        MOV     R1,#0xf
??ZDApp_ProcessOSALMsg_14:
        LCALL   ??ZDApp_ChangeState?relay; Banked call to: ZDApp_ChangeState
// 1224               }
// 1225             }
// 1226 
// 1227             // Before trying to do rejoin, check if the device has a valid short address
// 1228             // If not, generate a random short address for itself
// 1229             if ( _NIB.nwkDevAddress == INVALID_NODE_ADDR )
        MOV     DPTR,#_NIB + 20
        MOVX    A,@DPTR
        XRL     A,#0xfe
        JNZ     ??ZDApp_ProcessOSALMsg_16
        INC     DPTR
        MOVX    A,@DPTR
        CPL     A
??ZDApp_ProcessOSALMsg_16:
        JNZ     ??ZDApp_ProcessOSALMsg_17
// 1230             {
// 1231               uint16 commNwkAddr;
// 1232 
// 1233               // Verify if the Network address has been commissioned by external tool
// 1234               if ( ( osal_nv_read( ZCD_NV_COMMISSIONED_NWK_ADDR, 0,
// 1235                                  sizeof(commNwkAddr),
// 1236                                  (void*)&commNwkAddr ) == ZSUCCESS )   &&
// 1237                    ( commNwkAddr != INVALID_NODE_ADDR ) )
        ; Setup parameters for call to function osal_nv_read
        MOV     A,#0x1
        LCALL   ?XSTACK_DISP100_8
        MOV     ?V2,R0
        MOV     ?V3,R1
        MOV     R0,#?V2
        LCALL   ?PUSH_XSTACK_I_TWO
          CFI CFA_XSP16 add(XSP16, 17)
        MOV     ?V2,#0x2
        MOV     ?V3,#0x0
        MOV     R0,#?V2
        LCALL   ?PUSH_XSTACK_I_TWO
          CFI CFA_XSP16 add(XSP16, 19)
        MOV     R4,#0x0
        MOV     R5,#0x0
        MOV     R2,#0x49
        MOV     R3,#0x0
        LCALL   ??osal_nv_read?relay ; Banked call to: osal_nv_read
        MOV     A,#0x4
        LCALL   ?DEALLOC_XSTACK8
          CFI CFA_XSP16 add(XSP16, 15)
        MOV     A,R1
        JNZ     ??ZDApp_ProcessOSALMsg_18
        MOV     A,#0x1
        LCALL   ?XSTACK_DISP0_8
        MOVX    A,@DPTR
        XRL     A,#0xfe
        JNZ     ??ZDApp_ProcessOSALMsg_19
        INC     DPTR
        MOVX    A,@DPTR
        CPL     A
??ZDApp_ProcessOSALMsg_19:
        JZ      ??ZDApp_ProcessOSALMsg_18
// 1238               {
// 1239                 _NIB.nwkDevAddress = commNwkAddr;
        MOV     A,#0x1
        LCALL   ?XSTACK_DISP0_8
        LCALL   ??Subroutine49_0 & 0xFFFF
??CrossCallReturnLabel_87:
        MOV     DPTR,#_NIB + 20
        LCALL   ??Subroutine41_0 & 0xFFFF
// 1240 
// 1241                 // clear Allocate address bit because device has a commissioned address
// 1242                 _NIB.CapabilityFlags &= ~CAPINFO_ALLOC_ADDR;
??CrossCallReturnLabel_50:
        MOV     DPTR,#_NIB + 14
        MOVX    A,@DPTR
        CLR     0xE0 /* A   */.7
        SJMP    ??ZDApp_ProcessOSALMsg_20
// 1243               }
// 1244               else
// 1245               {
// 1246                 _NIB.nwkDevAddress = osal_rand();
??ZDApp_ProcessOSALMsg_18:
        ; Setup parameters for call to function osal_rand
        LCALL   ??osal_rand?relay    ; Banked call to: osal_rand
        MOV     DPTR,#_NIB + 20
        MOV     A,R2
        MOVX    @DPTR,A
        INC     DPTR
        MOV     A,R3
??ZDApp_ProcessOSALMsg_20:
        MOVX    @DPTR,A
// 1247               }
// 1248 
// 1249               ZMacSetReq( ZMacShortAddress, (byte*)&_NIB.nwkDevAddress );
        ; Setup parameters for call to function ZMacSetReq
        MOV     R2,#(_NIB + 20) & 0xff
        MOV     R3,#((_NIB + 20) >> 8) & 0xff
        MOV     R1,#0x53
        LCALL   ??ZMacSetReq?relay   ; Banked call to: ZMacSetReq
// 1250             }
// 1251 
// 1252             // Check if the device has a valid PanID, if not, set it to the discovered Pan
// 1253             if ( _NIB.nwkPanId == 0xFFFF )
??ZDApp_ProcessOSALMsg_17:
        MOV     DPTR,#_NIB + 33
        MOVX    A,@DPTR
        CPL     A
        JNZ     ??ZDApp_ProcessOSALMsg_21
        INC     DPTR
        MOVX    A,@DPTR
        CPL     A
??ZDApp_ProcessOSALMsg_21:
        JNZ     ??ZDApp_ProcessOSALMsg_22
// 1254             {
// 1255               _NIB.nwkPanId = pChosenNwk->panId;
        MOV     DPL,?V0
        MOV     DPH,?V1
        LCALL   ??Subroutine49_0 & 0xFFFF
??CrossCallReturnLabel_88:
        MOV     DPTR,#_NIB + 33
        LCALL   ??Subroutine41_0 & 0xFFFF
// 1256               ZMacSetReq( ZMacPanId, (byte*)&(_NIB.nwkPanId) );
??CrossCallReturnLabel_51:
        ; Setup parameters for call to function ZMacSetReq
        MOV     R2,#(_NIB + 33) & 0xff
        MOV     R3,#((_NIB + 33) >> 8) & 0xff
        MOV     R1,#0x50
        LCALL   ??ZMacSetReq?relay   ; Banked call to: ZMacSetReq
// 1257             }
// 1258 
// 1259             tmp = true;
??ZDApp_ProcessOSALMsg_22:
        MOV     DPL,?XSP + 0
        MOV     DPH,?XSP + 1
        MOV     A,#0x1
        MOVX    @DPTR,A
// 1260             ZMacSetReq( ZMacRxOnIdle, &tmp ); // Set receiver always on during rejoin
        ; Setup parameters for call to function ZMacSetReq
        MOV     R2,?XSP + 0
        MOV     R3,?XSP + 1
        MOV     R1,#0x52
        LCALL   ??ZMacSetReq?relay   ; Banked call to: ZMacSetReq
// 1261 
// 1262             // Perform Secure or Unsecure Rejoin depending on available configuration
// 1263             if ( ZG_SECURE_ENABLED && ( ZDApp_RestoreNwkKey( TRUE ) == TRUE ) )
        ; Setup parameters for call to function ZDApp_RestoreNwkKey
        MOV     R1,#0x1
        LCALL   ??ZDApp_RestoreNwkKey?relay; Banked call to: ZDApp_RestoreNwkKey
        MOV     A,R1
        XRL     A,#0x1
        MOV     DPL,R6
        MOV     DPH,R7
        JNZ     ??ZDApp_ProcessOSALMsg_23
// 1264             {
// 1265               rejoinStatus = NLME_ReJoinRequest( ZDO_UseExtendedPANID, pChosenNwk->logicalChannel);
        ; Setup parameters for call to function NLME_ReJoinRequest
        MOVX    A,@DPTR
        MOV     R1,A
        MOV     R2,#ZDO_UseExtendedPANID & 0xff
        MOV     R3,#(ZDO_UseExtendedPANID >> 8) & 0xff
        LCALL   ??NLME_ReJoinRequest?relay; Banked call to: NLME_ReJoinRequest
        SJMP    ??ZDApp_ProcessOSALMsg_10
// 1266             }
// 1267             else
// 1268             {
// 1269               rejoinStatus = NLME_ReJoinRequestUnsecure( ZDO_UseExtendedPANID, pChosenNwk->logicalChannel);
??ZDApp_ProcessOSALMsg_23:
        ; Setup parameters for call to function NLME_ReJoinRequestUnsecure
        MOVX    A,@DPTR
        MOV     R1,A
        MOV     R2,#ZDO_UseExtendedPANID & 0xff
        MOV     R3,#(ZDO_UseExtendedPANID >> 8) & 0xff
        LCALL   ??NLME_ReJoinRequestUnsecure?relay; Banked call to: NLME_ReJoinRequestUnsecure
??ZDApp_ProcessOSALMsg_10:
        MOV     A,R1
// 1270             }
// 1271 
// 1272             if ( rejoinStatus != ZSuccess )
        JZ      ??ZDApp_ProcessOSALMsg_11
// 1273             {
// 1274               ZDApp_NetworkInit( (uint16)(NWK_START_DELAY
// 1275                                           + ((uint16)(osal_rand()& EXTENDED_JOINING_RANDOM_MASK))) );
        ; Setup parameters for call to function osal_rand
        LCALL   ??osal_rand?relay    ; Banked call to: osal_rand
        ; Setup parameters for call to function ZDApp_NetworkInit
        LCALL   ?Subroutine28 & 0xFFFF
// 1276             }
// 1277           } // else if ( devStartMode == MODE_REJOIN )
??CrossCallReturnLabel_25:
        LCALL   ??ZDApp_NetworkInit?relay; Banked call to: ZDApp_NetworkInit
// 1278 
// 1279           // The receiver is on, turn network layer polling off.
// 1280           if ( ZDO_Config_Node_Descriptor.CapabilityFlags & CAPINFO_RCVR_ON_IDLE )
??ZDApp_ProcessOSALMsg_11:
        MOV     DPTR,#ZDO_Config_Node_Descriptor + 2
        MOVX    A,@DPTR
        MOV     C,0xE0 /* A   */.3
        JNC     ??ZDApp_ProcessOSALMsg_24
// 1281           {
// 1282             // for an End Device with NO Child Table Management process or for a Router
// 1283             if ( ( ZG_DEVICE_RTR_TYPE )  ||
// 1284                  ( (ZG_DEVICE_ENDDEVICE_TYPE) && ( zgChildAgingEnable == FALSE ) ) )
        MOV     DPTR,#zgDeviceLogicalType
        MOVX    A,@DPTR
        JZ      ??ZDApp_ProcessOSALMsg_25
        XRL     A,#0x1
        JZ      ??ZDApp_ProcessOSALMsg_25
        MOV     DPTR,#zgChildAgingEnable
        MOVX    A,@DPTR
        JZ      $+5
        LJMP    ??ZDApp_ProcessOSALMsg_5 & 0xFFFF
// 1285             {
// 1286               NLME_SetPollRate( 0 );
??ZDApp_ProcessOSALMsg_25:
        ; Setup parameters for call to function NLME_SetPollRate
        MOV     DPTR,#__Constant_0
        LCALL   ?XLOAD_R2345
        LCALL   ??NLME_SetPollRate?relay; Banked call to: NLME_SetPollRate
// 1287               NLME_SetQueuedPollRate( 0 );
        ; Setup parameters for call to function NLME_SetQueuedPollRate
        MOV     R2,#0x0
        MOV     R3,#0x0
        LCALL   ??NLME_SetQueuedPollRate?relay; Banked call to: NLME_SetQueuedPollRate
// 1288               NLME_SetResponseRate( 0 );
        ; Setup parameters for call to function NLME_SetResponseRate
        MOV     R2,#0x0
        MOV     R3,#0x0
        LCALL   ??NLME_SetResponseRate?relay; Banked call to: NLME_SetResponseRate
        SJMP    ??ZDApp_ProcessOSALMsg_5
// 1289             }
// 1290           }
// 1291           else
// 1292           {
// 1293             if ( (ZG_SECURE_ENABLED) && (devStartMode == MODE_JOIN) )
??ZDApp_ProcessOSALMsg_24:
        MOV     DPTR,#devStartMode
        MOVX    A,@DPTR
        JNZ     ??ZDApp_ProcessOSALMsg_5
// 1294             {
// 1295               ZDApp_SavedPollRate = zgPollRate;
        MOV     DPTR,#zgPollRate
        LCALL   ?XLOAD_R0123
        MOV     DPTR,#ZDApp_SavedPollRate
        LCALL   ?XSTORE_R0123
// 1296               NLME_SetPollRate( zgRejoinPollRate );
        ; Setup parameters for call to function NLME_SetPollRate
        MOV     DPTR,#zgRejoinPollRate
        MOVX    A,@DPTR
        MOV     ?V0,A
        INC     DPTR
        MOVX    A,@DPTR
        MOV     R2,?V0
        MOV     R3,A
        CLR     A
        MOV     R4,A
        MOV     R5,A
        LCALL   ??NLME_SetPollRate?relay; Banked call to: NLME_SetPollRate
        SJMP    ??ZDApp_ProcessOSALMsg_5
// 1297             }
// 1298           }
// 1299         }
// 1300         else
// 1301         {
// 1302           if ( continueJoining )
??ZDApp_ProcessOSALMsg_8:
        MOV     DPTR,#continueJoining
        MOVX    A,@DPTR
        JZ      ??ZDApp_ProcessOSALMsg_5
// 1303           {
// 1304 #if defined ( MANAGED_SCAN )
// 1305             ZDApp_NetworkInit( MANAGEDSCAN_DELAY_BETWEEN_SCANS );
// 1306 #else
// 1307             zdoDiscCounter++;
        MOV     DPTR,#zdoDiscCounter
        MOVX    A,@DPTR
        INC     A
        MOVX    @DPTR,A
// 1308             ZDApp_NetworkInit( (uint16)(BEACON_REQUEST_DELAY
// 1309                                         + ((uint16)(osal_rand()& BEACON_REQ_DELAY_MASK))) );
        ; Setup parameters for call to function osal_rand
        LCALL   ??osal_rand?relay    ; Banked call to: osal_rand
        ; Setup parameters for call to function ZDApp_NetworkInit
        MOV     A,R2
        ADD     A,#0x64
        MOV     R2,A
        CLR     A
        ADDC    A,#0x0
        MOV     R3,A
        SJMP    ??ZDApp_ProcessOSALMsg_26
// 1310 #endif
// 1311           }
// 1312         }
// 1313       }
// 1314       break;
// 1315 
// 1316     case ZDO_NWK_JOIN_IND:
// 1317       if ( ZG_BUILD_JOINING_TYPE && ZG_DEVICE_JOINING_TYPE )
??ZDApp_ProcessOSALMsg_1:
        MOV     DPTR,#zgDeviceLogicalType
        MOVX    A,@DPTR
        XRL     A,#0x1
        JZ      ??ZDApp_ProcessOSALMsg_27
        MOVX    A,@DPTR
        XRL     A,#0x2
        JNZ     ??ZDApp_ProcessOSALMsg_5
// 1318       {
// 1319         ZDApp_ProcessNetworkJoin();
??ZDApp_ProcessOSALMsg_27:
        ; Setup parameters for call to function ZDApp_ProcessNetworkJoin
        LCALL   ??ZDApp_ProcessNetworkJoin?relay; Banked call to: ZDApp_ProcessNetworkJoin
        SJMP    ??ZDApp_ProcessOSALMsg_5
// 1320       }
// 1321       break;
// 1322 
// 1323     case ZDO_NWK_JOIN_REQ:
// 1324       if ( ZG_BUILD_JOINING_TYPE && ZG_DEVICE_JOINING_TYPE )
??ZDApp_ProcessOSALMsg_2:
        MOV     DPTR,#zgDeviceLogicalType
        MOVX    A,@DPTR
        XRL     A,#0x1
        JZ      ??ZDApp_ProcessOSALMsg_28
        MOVX    A,@DPTR
        XRL     A,#0x2
        JNZ     ??ZDApp_ProcessOSALMsg_5
// 1325       {
// 1326         retryCnt = 0;
??ZDApp_ProcessOSALMsg_28:
        MOV     DPTR,#retryCnt
        CLR     A
        LCALL   ?Subroutine15 & 0xFFFF
// 1327         devStartMode = MODE_RESUME;
// 1328         _tmpRejoinState = true;
??CrossCallReturnLabel_2:
        LCALL   ??Subroutine39_0 & 0xFFFF
// 1329         osal_cpyExtAddr( ZDO_UseExtendedPANID, _NIB.extendedPANID );
??CrossCallReturnLabel_48:
        LCALL   ??sAddrExtCpy?relay  ; Banked call to: sAddrExtCpy
// 1330         zgDefaultStartingScanDuration = BEACON_ORDER_60_MSEC;
        MOV     DPTR,#zgDefaultStartingScanDuration
        MOV     A,#0x2
        MOVX    @DPTR,A
// 1331         ZDApp_NetworkInit( 0 );
        ; Setup parameters for call to function ZDApp_NetworkInit
        MOV     R2,#0x0
        MOV     R3,#0x0
??ZDApp_ProcessOSALMsg_26:
        LCALL   ??ZDApp_NetworkInit?relay; Banked call to: ZDApp_NetworkInit
        SJMP    ??ZDApp_ProcessOSALMsg_5
// 1332       }
// 1333       break;
// 1334 
// 1335     default:
// 1336       if ( ZG_SECURE_ENABLED )
// 1337         ZDApp_ProcessSecMsg( msgPtr );
??ZDApp_ProcessOSALMsg_6:
        ; Setup parameters for call to function ZDApp_ProcessSecMsg
        LCALL   ??ZDApp_ProcessSecMsg?relay; Banked call to: ZDApp_ProcessSecMsg
// 1338       break;
// 1339   }
// 1340 
// 1341 }
??ZDApp_ProcessOSALMsg_5:
        MOV     A,#0x3
        LJMP    ??Subroutine53_0 & 0xFFFF
          CFI EndBlock cfiBlock20
// 1342 
// 1343 /*********************************************************************
// 1344  * @fn      ZDApp_ProcessMsgCBs()
// 1345  *
// 1346  * @brief   Process response messages
// 1347  *
// 1348  * @param   none
// 1349  *
// 1350  * @return  none
// 1351  */

        RSEG BANKED_CODE:CODE:NOROOT(0)
// 1352 void ZDApp_ProcessMsgCBs( zdoIncomingMsg_t *inMsg )
ZDApp_ProcessMsgCBs:
          CFI Block cfiBlock21 Using cfiCommon0
          CFI Function ZDApp_ProcessMsgCBs
        CODE
// 1353 {
        FUNCALL ZDApp_ProcessMsgCBs, ZDO_ParseAddrRsp
        LOCFRAME ISTACK, 0, STACK
        LOCFRAME PSTACK, 0, STACK
        LOCFRAME XSTACK, 35, STACK
        LOCFRAME IOVERLAY, 0, STATIC
        LOCFRAME DOVERLAY, 0, STATIC
        ARGFRAME ISTACK, 0, STACK
        ARGFRAME PSTACK, 0, STACK
        ARGFRAME XSTACK, 35, STACK
        ARGFRAME IOVERLAY, 0, STATIC
        ARGFRAME DOVERLAY, 0, STATIC
        FUNCALL ZDApp_ProcessMsgCBs, ZDO_UpdateAddrManager
        LOCFRAME ISTACK, 0, STACK
        LOCFRAME PSTACK, 0, STACK
        LOCFRAME XSTACK, 35, STACK
        LOCFRAME IOVERLAY, 0, STATIC
        LOCFRAME DOVERLAY, 0, STATIC
        ARGFRAME ISTACK, 0, STACK
        ARGFRAME PSTACK, 0, STACK
        ARGFRAME XSTACK, 35, STACK
        ARGFRAME IOVERLAY, 0, STATIC
        ARGFRAME DOVERLAY, 0, STATIC
        FUNCALL ZDApp_ProcessMsgCBs, ZDApp_ProcessPendingBindReq
        LOCFRAME ISTACK, 0, STACK
        LOCFRAME PSTACK, 0, STACK
        LOCFRAME XSTACK, 35, STACK
        LOCFRAME IOVERLAY, 0, STATIC
        LOCFRAME DOVERLAY, 0, STATIC
        ARGFRAME ISTACK, 0, STACK
        ARGFRAME PSTACK, 0, STACK
        ARGFRAME XSTACK, 35, STACK
        ARGFRAME IOVERLAY, 0, STATIC
        ARGFRAME DOVERLAY, 0, STATIC
        FUNCALL ZDApp_ProcessMsgCBs, osal_mem_free
        LOCFRAME ISTACK, 0, STACK
        LOCFRAME PSTACK, 0, STACK
        LOCFRAME XSTACK, 35, STACK
        LOCFRAME IOVERLAY, 0, STATIC
        LOCFRAME DOVERLAY, 0, STATIC
        ARGFRAME ISTACK, 0, STACK
        ARGFRAME PSTACK, 0, STACK
        ARGFRAME XSTACK, 35, STACK
        ARGFRAME IOVERLAY, 0, STATIC
        ARGFRAME DOVERLAY, 0, STATIC
        FUNCALL ZDApp_ProcessMsgCBs, ZDO_ParseBindUnbindReq
        LOCFRAME ISTACK, 0, STACK
        LOCFRAME PSTACK, 0, STACK
        LOCFRAME XSTACK, 35, STACK
        LOCFRAME IOVERLAY, 0, STATIC
        LOCFRAME DOVERLAY, 0, STATIC
        ARGFRAME ISTACK, 0, STACK
        ARGFRAME PSTACK, 0, STACK
        ARGFRAME XSTACK, 35, STACK
        ARGFRAME IOVERLAY, 0, STATIC
        ARGFRAME DOVERLAY, 0, STATIC
        FUNCALL ZDApp_ProcessMsgCBs, ZDO_ProcessBindUnbindReq
        LOCFRAME ISTACK, 0, STACK
        LOCFRAME PSTACK, 0, STACK
        LOCFRAME XSTACK, 35, STACK
        LOCFRAME IOVERLAY, 0, STATIC
        LOCFRAME DOVERLAY, 0, STATIC
        ARGFRAME ISTACK, 0, STACK
        ARGFRAME PSTACK, 0, STACK
        ARGFRAME XSTACK, 35, STACK
        ARGFRAME IOVERLAY, 0, STATIC
        ARGFRAME DOVERLAY, 0, STATIC
        REQUIRE ?V0
        REQUIRE ?V1
        REQUIRE ?V2
        REQUIRE ?V3
        REQUIRE ?V4
        REQUIRE ?V5
        MOV     A,#-0xe
        LCALL   ?BANKED_ENTER_XDATA
          CFI DPH0 load(1, XDATA, add(CFA_XSP16, literal(-1)))
          CFI DPL0 load(1, XDATA, add(CFA_XSP16, literal(-2)))
          CFI ?BRET_EXT load(1, XDATA, add(CFA_XSP16, literal(-3)))
          CFI ?RET_HIGH load(1, XDATA, add(CFA_XSP16, literal(-4)))
          CFI ?RET_LOW load(1, XDATA, add(CFA_XSP16, literal(-5)))
          CFI R7 load(1, XDATA, add(CFA_XSP16, literal(-6)))
          CFI V5 load(1, XDATA, add(CFA_XSP16, literal(-7)))
          CFI V4 load(1, XDATA, add(CFA_XSP16, literal(-8)))
          CFI V3 load(1, XDATA, add(CFA_XSP16, literal(-9)))
          CFI V2 load(1, XDATA, add(CFA_XSP16, literal(-10)))
          CFI V1 load(1, XDATA, add(CFA_XSP16, literal(-11)))
          CFI V0 load(1, XDATA, add(CFA_XSP16, literal(-12)))
          CFI VB load(1, XDATA, add(CFA_XSP16, literal(-13)))
          CFI R6 load(1, XDATA, add(CFA_XSP16, literal(-14)))
          CFI CFA_SP SP+0
          CFI CFA_XSP16 add(XSP16, 14)
        ; Saved register size: 14
        ; Auto size: 21
        MOV     A,#-0x15
        LCALL   ?ALLOC_XSTACK8
          CFI CFA_XSP16 add(XSP16, 35)
        MOV     A,R2
        MOV     R6,A
        MOV     A,R3
        MOV     R7,A
// 1354   switch ( inMsg->clusterID )
        MOV     A,R6
        ADD     A,#0xc
        MOV     ?V0,A
        CLR     A
        ADDC    A,R7
        MOV     ?V1,A
        MOV     DPL,?V0
        MOV     DPH,A
        MOVX    A,@DPTR
        MOV     ?V2,A
        INC     DPTR
        MOVX    A,@DPTR
        MOV     ?V3,A
        MOV     R0,#?V2
        LCALL   ?US_SWITCH_SPARSE
`?<Jumptable for ZDApp_ProcessMsgCBs>_0`:
        DATA
        DATA16
        DATA
        DATA16
        DATA
        DATA16
        DW        2
        DATA
        DATA16
        DATA
        DATA16
        DATA
        DATA16
        DW        33
        DATA
        DATA16
        DATA
        DATA16
        DW        34
        DATA
        DATA16
        DATA
        DATA16
        DATA
        DATA16
        DW        ??ZDApp_ProcessMsgCBs_0
        DATA
        DATA16
        DATA
        DATA16
        DATA
        DATA16
        DW        32768
        DATA
        DATA16
        DATA
        DATA16
        DW        32769
        DATA
        DATA16
        DATA
        DATA16
        DATA
        DATA16
        DW        ??ZDApp_ProcessMsgCBs_1
        DATA
        DATA16
        DATA
        DATA16
        DATA
        DATA16
        DW        0
        DATA
        DATA16
        DATA
        DATA16
        DW        ??ZDApp_ProcessMsgCBs_2
        CODE
// 1355   {
// 1356 #if defined ( ZDO_NWKADDR_REQUEST ) || defined ( ZDO_IEEEADDR_REQUEST ) || defined ( REFLECTOR )
// 1357     case NWK_addr_rsp:
// 1358     case IEEE_addr_rsp:
// 1359       {
// 1360         ZDO_NwkIEEEAddrResp_t *pAddrRsp;
// 1361 
// 1362         pAddrRsp = ZDO_ParseAddrRsp( inMsg );
??ZDApp_ProcessMsgCBs_1:
        ; Setup parameters for call to function ZDO_ParseAddrRsp
        LCALL   ??ZDO_ParseAddrRsp?relay; Banked call to: ZDO_ParseAddrRsp
        MOV     ?V2,R2
        MOV     ?V3,R3
// 1363         if ( pAddrRsp )
        MOV     A,R2
        ORL     A,?V3
        JZ      ??ZDApp_ProcessMsgCBs_2
// 1364         {
// 1365           if ( pAddrRsp->status == ZSuccess )
        MOV     A,R2
        ADD     A,#0x3
        MOV     R6,A
        CLR     A
        ADDC    A,?V3
        MOV     R7,A
        MOV     DPL,R2
        MOV     DPH,R3
        MOVX    A,@DPTR
        JNZ     ??ZDApp_ProcessMsgCBs_3
// 1366           {
// 1367             ZDO_UpdateAddrManager( pAddrRsp->nwkAddr, pAddrRsp->extAddr );
        ; Setup parameters for call to function ZDO_UpdateAddrManager
        MOV     A,R6
        MOV     R4,A
        MOV     A,R7
        MOV     R5,A
        LCALL   ?Subroutine21 & 0xFFFF
// 1368           }
??CrossCallReturnLabel_85:
        LCALL   ??ZDO_UpdateAddrManager?relay; Banked call to: ZDO_UpdateAddrManager
// 1369 
// 1370 #if !defined ( ZDP_BIND_SKIP_VALIDATION )
// 1371           // look for pending bind entry for NWK_addr_rsp Only
// 1372           if ( inMsg->clusterID == NWK_addr_rsp )
??ZDApp_ProcessMsgCBs_3:
        MOV     DPL,?V0
        MOV     DPH,?V1
        MOVX    A,@DPTR
        JNZ     ??ZDApp_ProcessMsgCBs_4
        INC     DPTR
        MOVX    A,@DPTR
        XRL     A,#0x80
??ZDApp_ProcessMsgCBs_4:
        JNZ     ??ZDApp_ProcessMsgCBs_5
// 1373           {
// 1374 #if defined ( REFLECTOR )
// 1375             ZDApp_ProcessPendingBindReq( pAddrRsp->extAddr );
        ; Setup parameters for call to function ZDApp_ProcessPendingBindReq
        MOV     A,R6
        MOV     R2,A
        MOV     A,R7
        MOV     R3,A
        LCALL   ??ZDApp_ProcessPendingBindReq?relay; Banked call to: ZDApp_ProcessPendingBindReq
// 1376 #endif
// 1377           }
// 1378 #endif
// 1379 
// 1380           osal_mem_free( pAddrRsp );
??ZDApp_ProcessMsgCBs_5:
        ; Setup parameters for call to function osal_mem_free
        MOV     R2,?V2
        MOV     R3,?V3
        LCALL   ??osal_mem_free?relay; Banked call to: osal_mem_free
        SJMP    ??ZDApp_ProcessMsgCBs_2
// 1381         }
// 1382       }
// 1383       break;
// 1384 #endif
// 1385 
// 1386 #if defined ( REFLECTOR )
// 1387     case Bind_req:
// 1388     case Unbind_req:
// 1389       {
// 1390         ZDO_BindUnbindReq_t bindReq;
// 1391         ZDO_ParseBindUnbindReq( inMsg, &bindReq );
??ZDApp_ProcessMsgCBs_0:
        ; Setup parameters for call to function ZDO_ParseBindUnbindReq
        MOV     R4,?XSP + 0
        MOV     R5,?XSP + 1
        LCALL   ??ZDO_ParseBindUnbindReq?relay; Banked call to: ZDO_ParseBindUnbindReq
// 1392         ZDO_ProcessBindUnbindReq( inMsg, &bindReq );
        ; Setup parameters for call to function ZDO_ProcessBindUnbindReq
        MOV     R4,?XSP + 0
        MOV     R5,?XSP + 1
        MOV     A,R6
        MOV     R2,A
        MOV     A,R7
        MOV     R3,A
        LCALL   ??ZDO_ProcessBindUnbindReq?relay; Banked call to: ZDO_ProcessBindUnbindReq
// 1393       }
// 1394       break;
// 1395 #endif
// 1396 
// 1397 #if ( ZG_BUILD_COORDINATOR_TYPE )
// 1398     case Bind_rsp:
// 1399     case Unbind_rsp:
// 1400       if (ZG_DEVICE_COORDINATOR_TYPE && matchED)
// 1401       {
// 1402         ZDMatchSendState(
// 1403              (uint8)((inMsg->clusterID == Bind_rsp) ? ZDMATCH_REASON_BIND_RSP : ZDMATCH_REASON_UNBIND_RSP),
// 1404              ZDO_ParseBindRsp(inMsg), inMsg->TransSeq );
// 1405       }
// 1406       break;
// 1407 
// 1408     case End_Device_Bind_req:
// 1409       if (ZG_DEVICE_COORDINATOR_TYPE)
// 1410       {
// 1411         ZDEndDeviceBind_t bindReq;
// 1412         ZDO_ParseEndDeviceBindReq( inMsg, &bindReq );
// 1413         ZDO_MatchEndDeviceBind( &bindReq );
// 1414 
// 1415         // Freeing the cluster lists - if allocated.
// 1416         if ( bindReq.numInClusters )
// 1417           osal_mem_free( bindReq.inClusters );
// 1418         if ( bindReq.numOutClusters )
// 1419           osal_mem_free( bindReq.outClusters );
// 1420       }
// 1421       break;
// 1422 #endif
// 1423   }
// 1424 }
??ZDApp_ProcessMsgCBs_2:
        MOV     A,#0x15
        LCALL   ?DEALLOC_XSTACK8
          CFI CFA_XSP16 add(XSP16, 14)
        LJMP    ?Subroutine1 & 0xFFFF
          CFI EndBlock cfiBlock21
// 1425 
// 1426 /*********************************************************************
// 1427  * @fn      ZDApp_RegisterCBs()
// 1428  *
// 1429  * @brief   Process response messages
// 1430  *
// 1431  * @param   none
// 1432  *
// 1433  * @return  none
// 1434  */

        RSEG BANKED_CODE:CODE:NOROOT(0)
// 1435 void ZDApp_RegisterCBs( void )
ZDApp_RegisterCBs:
          CFI Block cfiBlock22 Using cfiCommon0
          CFI Function ZDApp_RegisterCBs
        CODE
// 1436 {
        FUNCALL ZDApp_RegisterCBs, ZDO_RegisterForZDOMsg
        LOCFRAME ISTACK, 2, STACK
        LOCFRAME PSTACK, 0, STACK
        LOCFRAME XSTACK, 0, STACK
        LOCFRAME IOVERLAY, 0, STATIC
        LOCFRAME DOVERLAY, 0, STATIC
        ARGFRAME ISTACK, 2, STACK
        ARGFRAME PSTACK, 0, STACK
        ARGFRAME XSTACK, 0, STACK
        ARGFRAME IOVERLAY, 0, STATIC
        ARGFRAME DOVERLAY, 0, STATIC
        FUNCALL ZDApp_RegisterCBs, ZDO_RegisterForZDOMsg
        LOCFRAME ISTACK, 2, STACK
        LOCFRAME PSTACK, 0, STACK
        LOCFRAME XSTACK, 0, STACK
        LOCFRAME IOVERLAY, 0, STATIC
        LOCFRAME DOVERLAY, 0, STATIC
        ARGFRAME ISTACK, 2, STACK
        ARGFRAME PSTACK, 0, STACK
        ARGFRAME XSTACK, 0, STACK
        ARGFRAME IOVERLAY, 0, STATIC
        ARGFRAME DOVERLAY, 0, STATIC
        FUNCALL ZDApp_RegisterCBs, ZDO_RegisterForZDOMsg
        LOCFRAME ISTACK, 2, STACK
        LOCFRAME PSTACK, 0, STACK
        LOCFRAME XSTACK, 0, STACK
        LOCFRAME IOVERLAY, 0, STATIC
        LOCFRAME DOVERLAY, 0, STATIC
        ARGFRAME ISTACK, 2, STACK
        ARGFRAME PSTACK, 0, STACK
        ARGFRAME XSTACK, 0, STACK
        ARGFRAME IOVERLAY, 0, STATIC
        ARGFRAME DOVERLAY, 0, STATIC
        FUNCALL ZDApp_RegisterCBs, ZDO_RegisterForZDOMsg
        LOCFRAME ISTACK, 2, STACK
        LOCFRAME PSTACK, 0, STACK
        LOCFRAME XSTACK, 0, STACK
        LOCFRAME IOVERLAY, 0, STATIC
        LOCFRAME DOVERLAY, 0, STATIC
        ARGFRAME ISTACK, 2, STACK
        ARGFRAME PSTACK, 0, STACK
        ARGFRAME XSTACK, 0, STACK
        ARGFRAME IOVERLAY, 0, STATIC
        ARGFRAME DOVERLAY, 0, STATIC
        PUSH    DPL
          CFI DPL0 Frame(CFA_SP, 4)
          CFI CFA_SP SP+-4
        PUSH    DPH
          CFI DPH0 Frame(CFA_SP, 5)
          CFI CFA_SP SP+-5
        ; Saved register size: 2
        ; Auto size: 0
// 1437 #if defined ( ZDO_IEEEADDR_REQUEST ) || defined ( REFLECTOR )
// 1438   ZDO_RegisterForZDOMsg( ZDAppTaskID, IEEE_addr_rsp );
        ; Setup parameters for call to function ZDO_RegisterForZDOMsg
        MOV     R2,#0x1
        MOV     R3,#-0x80
        MOV     DPTR,#ZDAppTaskID
        MOVX    A,@DPTR
        MOV     R1,A
        LCALL   ??ZDO_RegisterForZDOMsg?relay; Banked call to: ZDO_RegisterForZDOMsg
// 1439 #endif
// 1440 #if defined ( ZDO_NWKADDR_REQUEST ) || defined ( REFLECTOR )
// 1441   ZDO_RegisterForZDOMsg( ZDAppTaskID, NWK_addr_rsp );
        ; Setup parameters for call to function ZDO_RegisterForZDOMsg
        MOV     R2,#0x0
        MOV     R3,#-0x80
        MOV     DPTR,#ZDAppTaskID
        MOVX    A,@DPTR
        MOV     R1,A
        LCALL   ??ZDO_RegisterForZDOMsg?relay; Banked call to: ZDO_RegisterForZDOMsg
// 1442 #endif
// 1443 #if ZG_BUILD_COORDINATOR_TYPE
// 1444   ZDO_RegisterForZDOMsg( ZDAppTaskID, Bind_rsp );
// 1445   ZDO_RegisterForZDOMsg( ZDAppTaskID, Unbind_rsp );
// 1446   ZDO_RegisterForZDOMsg( ZDAppTaskID, End_Device_Bind_req );
// 1447 #endif
// 1448 #if defined ( REFLECTOR )
// 1449   ZDO_RegisterForZDOMsg( ZDAppTaskID, Bind_req );
        ; Setup parameters for call to function ZDO_RegisterForZDOMsg
        MOV     R2,#0x21
        MOV     R3,#0x0
        MOV     DPTR,#ZDAppTaskID
        MOVX    A,@DPTR
        MOV     R1,A
        LCALL   ??ZDO_RegisterForZDOMsg?relay; Banked call to: ZDO_RegisterForZDOMsg
// 1450   ZDO_RegisterForZDOMsg( ZDAppTaskID, Unbind_req );
        ; Setup parameters for call to function ZDO_RegisterForZDOMsg
        MOV     R2,#0x22
        MOV     R3,#0x0
        MOV     DPTR,#ZDAppTaskID
        MOVX    A,@DPTR
        MOV     R1,A
        LCALL   ??ZDO_RegisterForZDOMsg?relay; Banked call to: ZDO_RegisterForZDOMsg
// 1451 #endif
// 1452 }
        LJMP    ??Subroutine40_0 & 0xFFFF
          CFI EndBlock cfiBlock22
// 1453 
// 1454 /*********************************************************************
// 1455  * @fn      ZDApp_ProcessSecMsg()
// 1456  *
// 1457  * @brief   Process the incoming security message.
// 1458  *
// 1459  * @param   msgPtr - message to process
// 1460  *
// 1461  * @return  none
// 1462  */

        RSEG BANKED_CODE:CODE:NOROOT(0)
// 1463 void ZDApp_ProcessSecMsg( osal_event_hdr_t *msgPtr )
ZDApp_ProcessSecMsg:
          CFI Block cfiBlock23 Using cfiCommon0
          CFI Function ZDApp_ProcessSecMsg
        CODE
// 1464 {
        FUNCALL ZDApp_ProcessSecMsg, ZDSecMgrTransportKeyInd
        LOCFRAME ISTACK, 2, STACK
        LOCFRAME PSTACK, 0, STACK
        LOCFRAME XSTACK, 0, STACK
        LOCFRAME IOVERLAY, 0, STATIC
        LOCFRAME DOVERLAY, 0, STATIC
        ARGFRAME ISTACK, 2, STACK
        ARGFRAME PSTACK, 0, STACK
        ARGFRAME XSTACK, 0, STACK
        ARGFRAME IOVERLAY, 0, STATIC
        ARGFRAME DOVERLAY, 0, STATIC
        FUNCALL ZDApp_ProcessSecMsg, ZDSecMgrSwitchKeyInd
        LOCFRAME ISTACK, 2, STACK
        LOCFRAME PSTACK, 0, STACK
        LOCFRAME XSTACK, 0, STACK
        LOCFRAME IOVERLAY, 0, STATIC
        LOCFRAME DOVERLAY, 0, STATIC
        ARGFRAME ISTACK, 2, STACK
        ARGFRAME PSTACK, 0, STACK
        ARGFRAME XSTACK, 0, STACK
        ARGFRAME IOVERLAY, 0, STATIC
        ARGFRAME DOVERLAY, 0, STATIC
        PUSH    DPL
          CFI DPL0 Frame(CFA_SP, 4)
          CFI CFA_SP SP+-4
        PUSH    DPH
          CFI DPH0 Frame(CFA_SP, 5)
          CFI CFA_SP SP+-5
        ; Saved register size: 2
        ; Auto size: 0
// 1465   switch ( msgPtr->event )
        MOV     DPL,R2
        MOV     DPH,R3
        MOVX    A,@DPTR
        ADD     A,#-0x4
        JZ      ??ZDApp_ProcessSecMsg_0
        ADD     A,#-0x4
        JZ      ??ZDApp_ProcessSecMsg_1
        SJMP    ??ZDApp_ProcessSecMsg_2
// 1466   {
// 1467     case ZDO_TRANSPORT_KEY_IND:
// 1468       if ( ZG_BUILD_JOINING_TYPE && ZG_DEVICE_JOINING_TYPE )
??ZDApp_ProcessSecMsg_0:
        MOV     DPTR,#zgDeviceLogicalType
        MOVX    A,@DPTR
        XRL     A,#0x1
        JZ      ??ZDApp_ProcessSecMsg_3
        MOVX    A,@DPTR
        XRL     A,#0x2
        JNZ     ??ZDApp_ProcessSecMsg_2
// 1469       {
// 1470         ZDSecMgrTransportKeyInd( (ZDO_TransportKeyInd_t*)msgPtr );
??ZDApp_ProcessSecMsg_3:
        ; Setup parameters for call to function ZDSecMgrTransportKeyInd
        LCALL   ??ZDSecMgrTransportKeyInd?relay; Banked call to: ZDSecMgrTransportKeyInd
        SJMP    ??ZDApp_ProcessSecMsg_2
// 1471       }
// 1472       break;
// 1473 
// 1474     case ZDO_UPDATE_DEVICE_IND:
// 1475       if ( ZG_BUILD_COORDINATOR_TYPE && ZG_DEVICE_COORDINATOR_TYPE )
// 1476       {
// 1477         ZDSecMgrUpdateDeviceInd( (ZDO_UpdateDeviceInd_t*)msgPtr );
// 1478       }
// 1479       break;
// 1480 
// 1481     case ZDO_REMOVE_DEVICE_IND:
// 1482       if ( ZG_BUILD_RTRONLY_TYPE && ( zgDeviceLogicalType == ZG_DEVICETYPE_ROUTER ) )
// 1483       {
// 1484         ZDSecMgrRemoveDeviceInd( (ZDO_RemoveDeviceInd_t*)msgPtr );
// 1485       }
// 1486       break;
// 1487 
// 1488     case ZDO_REQUEST_KEY_IND:
// 1489       if ( ( ZG_CHECK_SECURITY_MODE == ZG_SECURITY_SE_STANDARD ) )
// 1490       {
// 1491         if ( ZG_BUILD_COORDINATOR_TYPE && ZG_DEVICE_COORDINATOR_TYPE )
// 1492         {
// 1493           ZDSecMgrRequestKeyInd( (ZDO_RequestKeyInd_t*)msgPtr );
// 1494         }
// 1495       }
// 1496       break;
// 1497 
// 1498     case ZDO_SWITCH_KEY_IND:
// 1499       if ( ZG_BUILD_JOINING_TYPE && ZG_DEVICE_JOINING_TYPE )
??ZDApp_ProcessSecMsg_1:
        MOV     DPTR,#zgDeviceLogicalType
        MOVX    A,@DPTR
        XRL     A,#0x1
        JZ      ??ZDApp_ProcessSecMsg_4
        MOVX    A,@DPTR
        XRL     A,#0x2
        JNZ     ??ZDApp_ProcessSecMsg_2
// 1500       {
// 1501         ZDSecMgrSwitchKeyInd( (ZDO_SwitchKeyInd_t*)msgPtr );
??ZDApp_ProcessSecMsg_4:
        ; Setup parameters for call to function ZDSecMgrSwitchKeyInd
        LCALL   ??ZDSecMgrSwitchKeyInd?relay; Banked call to: ZDSecMgrSwitchKeyInd
// 1502       }
// 1503       break;
// 1504 
// 1505     default:
// 1506       // Unsupported messages
// 1507       break;
// 1508   }
// 1509 }
??ZDApp_ProcessSecMsg_2:
        LJMP    ??Subroutine40_0 & 0xFFFF
          CFI EndBlock cfiBlock23
// 1510 
// 1511 /*********************************************************************
// 1512  * @fn      ZDApp_ProcessNetworkJoin()
// 1513  *
// 1514  * @brief
// 1515  *
// 1516  *   Save off the Network key information.
// 1517  *
// 1518  * @param   none
// 1519  *
// 1520  * @return  none
// 1521  */

        RSEG BANKED_CODE:CODE:NOROOT(0)
// 1522 void ZDApp_ProcessNetworkJoin( void )
ZDApp_ProcessNetworkJoin:
          CFI Block cfiBlock24 Using cfiCommon0
          CFI Function ZDApp_ProcessNetworkJoin
        CODE
// 1523 {
        FUNCALL ZDApp_ProcessNetworkJoin, osal_set_event
        LOCFRAME ISTACK, 0, STACK
        LOCFRAME PSTACK, 0, STACK
        LOCFRAME XSTACK, 14, STACK
        LOCFRAME IOVERLAY, 0, STATIC
        LOCFRAME DOVERLAY, 0, STATIC
        ARGFRAME ISTACK, 0, STACK
        ARGFRAME PSTACK, 0, STACK
        ARGFRAME XSTACK, 14, STACK
        ARGFRAME IOVERLAY, 0, STATIC
        ARGFRAME DOVERLAY, 0, STATIC
        FUNCALL ZDApp_ProcessNetworkJoin, osal_pwrmgr_device
        LOCFRAME ISTACK, 0, STACK
        LOCFRAME PSTACK, 0, STACK
        LOCFRAME XSTACK, 14, STACK
        LOCFRAME IOVERLAY, 0, STATIC
        LOCFRAME DOVERLAY, 0, STATIC
        ARGFRAME ISTACK, 0, STACK
        ARGFRAME PSTACK, 0, STACK
        ARGFRAME XSTACK, 14, STACK
        ARGFRAME IOVERLAY, 0, STATIC
        ARGFRAME DOVERLAY, 0, STATIC
        FUNCALL ZDApp_ProcessNetworkJoin, ZDApp_RestoreNwkKey
        LOCFRAME ISTACK, 0, STACK
        LOCFRAME PSTACK, 0, STACK
        LOCFRAME XSTACK, 14, STACK
        LOCFRAME IOVERLAY, 0, STATIC
        LOCFRAME DOVERLAY, 0, STATIC
        ARGFRAME ISTACK, 0, STACK
        ARGFRAME PSTACK, 0, STACK
        ARGFRAME XSTACK, 14, STACK
        ARGFRAME IOVERLAY, 0, STATIC
        ARGFRAME DOVERLAY, 0, STATIC
        FUNCALL ZDApp_ProcessNetworkJoin, ZDApp_AnnounceNewAddress
        LOCFRAME ISTACK, 0, STACK
        LOCFRAME PSTACK, 0, STACK
        LOCFRAME XSTACK, 14, STACK
        LOCFRAME IOVERLAY, 0, STATIC
        LOCFRAME DOVERLAY, 0, STATIC
        ARGFRAME ISTACK, 0, STACK
        ARGFRAME PSTACK, 0, STACK
        ARGFRAME XSTACK, 14, STACK
        ARGFRAME IOVERLAY, 0, STATIC
        ARGFRAME DOVERLAY, 0, STATIC
        FUNCALL ZDApp_ProcessNetworkJoin, ZDApp_ChangeState
        LOCFRAME ISTACK, 0, STACK
        LOCFRAME PSTACK, 0, STACK
        LOCFRAME XSTACK, 14, STACK
        LOCFRAME IOVERLAY, 0, STATIC
        LOCFRAME DOVERLAY, 0, STATIC
        ARGFRAME ISTACK, 0, STACK
        ARGFRAME PSTACK, 0, STACK
        ARGFRAME XSTACK, 14, STACK
        ARGFRAME IOVERLAY, 0, STATIC
        ARGFRAME DOVERLAY, 0, STATIC
        FUNCALL ZDApp_ProcessNetworkJoin, NLME_GetShortAddr
        LOCFRAME ISTACK, 0, STACK
        LOCFRAME PSTACK, 0, STACK
        LOCFRAME XSTACK, 14, STACK
        LOCFRAME IOVERLAY, 0, STATIC
        LOCFRAME DOVERLAY, 0, STATIC
        ARGFRAME ISTACK, 0, STACK
        ARGFRAME PSTACK, 0, STACK
        ARGFRAME XSTACK, 14, STACK
        ARGFRAME IOVERLAY, 0, STATIC
        ARGFRAME DOVERLAY, 0, STATIC
        FUNCALL ZDApp_ProcessNetworkJoin, ZMacSetReq
        LOCFRAME ISTACK, 0, STACK
        LOCFRAME PSTACK, 0, STACK
        LOCFRAME XSTACK, 14, STACK
        LOCFRAME IOVERLAY, 0, STATIC
        LOCFRAME DOVERLAY, 0, STATIC
        ARGFRAME ISTACK, 0, STACK
        ARGFRAME PSTACK, 0, STACK
        ARGFRAME XSTACK, 14, STACK
        ARGFRAME IOVERLAY, 0, STATIC
        ARGFRAME DOVERLAY, 0, STATIC
        FUNCALL ZDApp_ProcessNetworkJoin, nwkNeighborInitTable
        LOCFRAME ISTACK, 0, STACK
        LOCFRAME PSTACK, 0, STACK
        LOCFRAME XSTACK, 14, STACK
        LOCFRAME IOVERLAY, 0, STATIC
        LOCFRAME DOVERLAY, 0, STATIC
        ARGFRAME ISTACK, 0, STACK
        ARGFRAME PSTACK, 0, STACK
        ARGFRAME XSTACK, 14, STACK
        ARGFRAME IOVERLAY, 0, STATIC
        ARGFRAME DOVERLAY, 0, STATIC
        FUNCALL ZDApp_ProcessNetworkJoin, NLME_NwkDiscTerm
        LOCFRAME ISTACK, 0, STACK
        LOCFRAME PSTACK, 0, STACK
        LOCFRAME XSTACK, 14, STACK
        LOCFRAME IOVERLAY, 0, STATIC
        LOCFRAME DOVERLAY, 0, STATIC
        ARGFRAME ISTACK, 0, STACK
        ARGFRAME PSTACK, 0, STACK
        ARGFRAME XSTACK, 14, STACK
        ARGFRAME IOVERLAY, 0, STATIC
        ARGFRAME DOVERLAY, 0, STATIC
        FUNCALL ZDApp_ProcessNetworkJoin, osal_rand
        LOCFRAME ISTACK, 0, STACK
        LOCFRAME PSTACK, 0, STACK
        LOCFRAME XSTACK, 14, STACK
        LOCFRAME IOVERLAY, 0, STATIC
        LOCFRAME DOVERLAY, 0, STATIC
        ARGFRAME ISTACK, 0, STACK
        ARGFRAME PSTACK, 0, STACK
        ARGFRAME XSTACK, 14, STACK
        ARGFRAME IOVERLAY, 0, STATIC
        ARGFRAME DOVERLAY, 0, STATIC
        FUNCALL ZDApp_ProcessNetworkJoin, ZDApp_NetworkInit
        LOCFRAME ISTACK, 0, STACK
        LOCFRAME PSTACK, 0, STACK
        LOCFRAME XSTACK, 14, STACK
        LOCFRAME IOVERLAY, 0, STATIC
        LOCFRAME DOVERLAY, 0, STATIC
        ARGFRAME ISTACK, 0, STACK
        ARGFRAME PSTACK, 0, STACK
        ARGFRAME XSTACK, 14, STACK
        ARGFRAME IOVERLAY, 0, STATIC
        ARGFRAME DOVERLAY, 0, STATIC
        FUNCALL ZDApp_ProcessNetworkJoin, ZDApp_RestoreNwkKey
        LOCFRAME ISTACK, 0, STACK
        LOCFRAME PSTACK, 0, STACK
        LOCFRAME XSTACK, 14, STACK
        LOCFRAME IOVERLAY, 0, STATIC
        LOCFRAME DOVERLAY, 0, STATIC
        ARGFRAME ISTACK, 0, STACK
        ARGFRAME PSTACK, 0, STACK
        ARGFRAME XSTACK, 14, STACK
        ARGFRAME IOVERLAY, 0, STATIC
        ARGFRAME DOVERLAY, 0, STATIC
        FUNCALL ZDApp_ProcessNetworkJoin, ZDApp_ChangeState
        LOCFRAME ISTACK, 0, STACK
        LOCFRAME PSTACK, 0, STACK
        LOCFRAME XSTACK, 14, STACK
        LOCFRAME IOVERLAY, 0, STATIC
        LOCFRAME DOVERLAY, 0, STATIC
        ARGFRAME ISTACK, 0, STACK
        ARGFRAME PSTACK, 0, STACK
        ARGFRAME XSTACK, 14, STACK
        ARGFRAME IOVERLAY, 0, STATIC
        ARGFRAME DOVERLAY, 0, STATIC
        FUNCALL ZDApp_ProcessNetworkJoin, ZDApp_ResetTimerStart
        LOCFRAME ISTACK, 0, STACK
        LOCFRAME PSTACK, 0, STACK
        LOCFRAME XSTACK, 14, STACK
        LOCFRAME IOVERLAY, 0, STATIC
        LOCFRAME DOVERLAY, 0, STATIC
        ARGFRAME ISTACK, 0, STACK
        ARGFRAME PSTACK, 0, STACK
        ARGFRAME XSTACK, 14, STACK
        ARGFRAME IOVERLAY, 0, STATIC
        ARGFRAME DOVERLAY, 0, STATIC
        FUNCALL ZDApp_ProcessNetworkJoin, ZDApp_ChangeState
        LOCFRAME ISTACK, 0, STACK
        LOCFRAME PSTACK, 0, STACK
        LOCFRAME XSTACK, 14, STACK
        LOCFRAME IOVERLAY, 0, STATIC
        LOCFRAME DOVERLAY, 0, STATIC
        ARGFRAME ISTACK, 0, STACK
        ARGFRAME PSTACK, 0, STACK
        ARGFRAME XSTACK, 14, STACK
        ARGFRAME IOVERLAY, 0, STATIC
        ARGFRAME DOVERLAY, 0, STATIC
        FUNCALL ZDApp_ProcessNetworkJoin, osal_stop_timerEx
        LOCFRAME ISTACK, 0, STACK
        LOCFRAME PSTACK, 0, STACK
        LOCFRAME XSTACK, 14, STACK
        LOCFRAME IOVERLAY, 0, STATIC
        LOCFRAME DOVERLAY, 0, STATIC
        ARGFRAME ISTACK, 0, STACK
        ARGFRAME PSTACK, 0, STACK
        ARGFRAME XSTACK, 14, STACK
        ARGFRAME IOVERLAY, 0, STATIC
        ARGFRAME DOVERLAY, 0, STATIC
        FUNCALL ZDApp_ProcessNetworkJoin, osal_pwrmgr_device
        LOCFRAME ISTACK, 0, STACK
        LOCFRAME PSTACK, 0, STACK
        LOCFRAME XSTACK, 14, STACK
        LOCFRAME IOVERLAY, 0, STATIC
        LOCFRAME DOVERLAY, 0, STATIC
        ARGFRAME ISTACK, 0, STACK
        ARGFRAME PSTACK, 0, STACK
        ARGFRAME XSTACK, 14, STACK
        ARGFRAME IOVERLAY, 0, STATIC
        ARGFRAME DOVERLAY, 0, STATIC
        FUNCALL ZDApp_ProcessNetworkJoin, NLME_SetPollRate
        LOCFRAME ISTACK, 0, STACK
        LOCFRAME PSTACK, 0, STACK
        LOCFRAME XSTACK, 14, STACK
        LOCFRAME IOVERLAY, 0, STATIC
        LOCFRAME DOVERLAY, 0, STATIC
        ARGFRAME ISTACK, 0, STACK
        ARGFRAME PSTACK, 0, STACK
        ARGFRAME XSTACK, 14, STACK
        ARGFRAME IOVERLAY, 0, STATIC
        ARGFRAME DOVERLAY, 0, STATIC
        FUNCALL ZDApp_ProcessNetworkJoin, NLME_SetQueuedPollRate
        LOCFRAME ISTACK, 0, STACK
        LOCFRAME PSTACK, 0, STACK
        LOCFRAME XSTACK, 14, STACK
        LOCFRAME IOVERLAY, 0, STATIC
        LOCFRAME DOVERLAY, 0, STATIC
        ARGFRAME ISTACK, 0, STACK
        ARGFRAME PSTACK, 0, STACK
        ARGFRAME XSTACK, 14, STACK
        ARGFRAME IOVERLAY, 0, STATIC
        ARGFRAME DOVERLAY, 0, STATIC
        FUNCALL ZDApp_ProcessNetworkJoin, NLME_SetResponseRate
        LOCFRAME ISTACK, 0, STACK
        LOCFRAME PSTACK, 0, STACK
        LOCFRAME XSTACK, 14, STACK
        LOCFRAME IOVERLAY, 0, STATIC
        LOCFRAME DOVERLAY, 0, STATIC
        ARGFRAME ISTACK, 0, STACK
        ARGFRAME PSTACK, 0, STACK
        ARGFRAME XSTACK, 14, STACK
        ARGFRAME IOVERLAY, 0, STATIC
        ARGFRAME DOVERLAY, 0, STATIC
        FUNCALL ZDApp_ProcessNetworkJoin, ZDApp_AnnounceNewAddress
        LOCFRAME ISTACK, 0, STACK
        LOCFRAME PSTACK, 0, STACK
        LOCFRAME XSTACK, 14, STACK
        LOCFRAME IOVERLAY, 0, STATIC
        LOCFRAME DOVERLAY, 0, STATIC
        ARGFRAME ISTACK, 0, STACK
        ARGFRAME PSTACK, 0, STACK
        ARGFRAME XSTACK, 14, STACK
        ARGFRAME IOVERLAY, 0, STATIC
        ARGFRAME DOVERLAY, 0, STATIC
        FUNCALL ZDApp_ProcessNetworkJoin, NLME_SetPollRate
        LOCFRAME ISTACK, 0, STACK
        LOCFRAME PSTACK, 0, STACK
        LOCFRAME XSTACK, 14, STACK
        LOCFRAME IOVERLAY, 0, STATIC
        LOCFRAME DOVERLAY, 0, STATIC
        ARGFRAME ISTACK, 0, STACK
        ARGFRAME PSTACK, 0, STACK
        ARGFRAME XSTACK, 14, STACK
        ARGFRAME IOVERLAY, 0, STATIC
        ARGFRAME DOVERLAY, 0, STATIC
        FUNCALL ZDApp_ProcessNetworkJoin, nwkNeighborInitTable
        LOCFRAME ISTACK, 0, STACK
        LOCFRAME PSTACK, 0, STACK
        LOCFRAME XSTACK, 14, STACK
        LOCFRAME IOVERLAY, 0, STATIC
        LOCFRAME DOVERLAY, 0, STATIC
        ARGFRAME ISTACK, 0, STACK
        ARGFRAME PSTACK, 0, STACK
        ARGFRAME XSTACK, 14, STACK
        ARGFRAME IOVERLAY, 0, STATIC
        ARGFRAME DOVERLAY, 0, STATIC
        FUNCALL ZDApp_ProcessNetworkJoin, NLME_NwkDiscTerm
        LOCFRAME ISTACK, 0, STACK
        LOCFRAME PSTACK, 0, STACK
        LOCFRAME XSTACK, 14, STACK
        LOCFRAME IOVERLAY, 0, STATIC
        LOCFRAME DOVERLAY, 0, STATIC
        ARGFRAME ISTACK, 0, STACK
        ARGFRAME PSTACK, 0, STACK
        ARGFRAME XSTACK, 14, STACK
        ARGFRAME IOVERLAY, 0, STATIC
        ARGFRAME DOVERLAY, 0, STATIC
        FUNCALL ZDApp_ProcessNetworkJoin, osal_rand
        LOCFRAME ISTACK, 0, STACK
        LOCFRAME PSTACK, 0, STACK
        LOCFRAME XSTACK, 14, STACK
        LOCFRAME IOVERLAY, 0, STATIC
        LOCFRAME DOVERLAY, 0, STATIC
        ARGFRAME ISTACK, 0, STACK
        ARGFRAME PSTACK, 0, STACK
        ARGFRAME XSTACK, 14, STACK
        ARGFRAME IOVERLAY, 0, STATIC
        ARGFRAME DOVERLAY, 0, STATIC
        FUNCALL ZDApp_ProcessNetworkJoin, ZDApp_NetworkInit
        LOCFRAME ISTACK, 0, STACK
        LOCFRAME PSTACK, 0, STACK
        LOCFRAME XSTACK, 14, STACK
        LOCFRAME IOVERLAY, 0, STATIC
        LOCFRAME DOVERLAY, 0, STATIC
        ARGFRAME ISTACK, 0, STACK
        ARGFRAME PSTACK, 0, STACK
        ARGFRAME XSTACK, 14, STACK
        ARGFRAME IOVERLAY, 0, STATIC
        ARGFRAME DOVERLAY, 0, STATIC
        FUNCALL ZDApp_ProcessNetworkJoin, ZDApp_AnnounceNewAddress
        LOCFRAME ISTACK, 0, STACK
        LOCFRAME PSTACK, 0, STACK
        LOCFRAME XSTACK, 14, STACK
        LOCFRAME IOVERLAY, 0, STATIC
        LOCFRAME DOVERLAY, 0, STATIC
        ARGFRAME ISTACK, 0, STACK
        ARGFRAME PSTACK, 0, STACK
        ARGFRAME XSTACK, 14, STACK
        ARGFRAME IOVERLAY, 0, STATIC
        ARGFRAME DOVERLAY, 0, STATIC
        FUNCALL ZDApp_ProcessNetworkJoin, osal_set_event
        LOCFRAME ISTACK, 0, STACK
        LOCFRAME PSTACK, 0, STACK
        LOCFRAME XSTACK, 14, STACK
        LOCFRAME IOVERLAY, 0, STATIC
        LOCFRAME DOVERLAY, 0, STATIC
        ARGFRAME ISTACK, 0, STACK
        ARGFRAME PSTACK, 0, STACK
        ARGFRAME XSTACK, 14, STACK
        ARGFRAME IOVERLAY, 0, STATIC
        ARGFRAME DOVERLAY, 0, STATIC
        REQUIRE ?V0
        REQUIRE ?V1
        REQUIRE ?V2
        REQUIRE ?V3
        MOV     A,#-0xc
        LCALL   ?BANKED_ENTER_XDATA
          CFI DPH0 load(1, XDATA, add(CFA_XSP16, literal(-1)))
          CFI DPL0 load(1, XDATA, add(CFA_XSP16, literal(-2)))
          CFI ?BRET_EXT load(1, XDATA, add(CFA_XSP16, literal(-3)))
          CFI ?RET_HIGH load(1, XDATA, add(CFA_XSP16, literal(-4)))
          CFI ?RET_LOW load(1, XDATA, add(CFA_XSP16, literal(-5)))
          CFI R7 load(1, XDATA, add(CFA_XSP16, literal(-6)))
          CFI V3 load(1, XDATA, add(CFA_XSP16, literal(-7)))
          CFI V2 load(1, XDATA, add(CFA_XSP16, literal(-8)))
          CFI V1 load(1, XDATA, add(CFA_XSP16, literal(-9)))
          CFI V0 load(1, XDATA, add(CFA_XSP16, literal(-10)))
          CFI VB load(1, XDATA, add(CFA_XSP16, literal(-11)))
          CFI R6 load(1, XDATA, add(CFA_XSP16, literal(-12)))
          CFI CFA_SP SP+0
          CFI CFA_XSP16 add(XSP16, 12)
        ; Saved register size: 12
        ; Auto size: 2
        MOV     A,#-0x2
        LCALL   ?ALLOC_XSTACK8
          CFI CFA_XSP16 add(XSP16, 14)
// 1524   if ( (devState == DEV_NWK_JOINING) ||
// 1525       ((devState == DEV_NWK_ORPHAN)  &&
// 1526        (ZDO_Config_Node_Descriptor.LogicalType == NODETYPE_ROUTER)) )
        MOV     DPTR,#devState
        MOVX    A,@DPTR
        XRL     A,#0x3
        JZ      ??ZDApp_ProcessNetworkJoin_0
        MOVX    A,@DPTR
        XRL     A,#0xa
        JZ      $+5
        LJMP    ??ZDApp_ProcessNetworkJoin_1 & 0xFFFF
        MOV     DPTR,#ZDO_Config_Node_Descriptor
        MOVX    A,@DPTR
        ANL     A,#0x7
        XRL     A,#0x1
        JZ      $+5
        LJMP    ??ZDApp_ProcessNetworkJoin_2 & 0xFFFF
// 1527   {
// 1528     // Result of a Join attempt by this device.
// 1529     if ( nwkStatus == ZSuccess )
??ZDApp_ProcessNetworkJoin_0:
        MOV     DPTR,#nwkStatus
        MOVX    A,@DPTR
        JNZ     ??ZDApp_ProcessNetworkJoin_3
// 1530     {
// 1531       osal_set_event( ZDAppTaskID, ZDO_STATE_CHANGE_EVT );
        ; Setup parameters for call to function osal_set_event
        MOV     R2,#0x10
        MOV     R3,#0x0
        MOV     DPTR,#ZDAppTaskID
        MOVX    A,@DPTR
        MOV     R1,A
        LCALL   ??osal_set_event?relay; Banked call to: osal_set_event
// 1532 
// 1533 #if defined ( POWER_SAVING )
// 1534       osal_pwrmgr_device( PWRMGR_BATTERY );
        ; Setup parameters for call to function osal_pwrmgr_device
        MOV     R1,#0x1
        LCALL   ??osal_pwrmgr_device?relay; Banked call to: osal_pwrmgr_device
// 1535 #endif
// 1536 
// 1537       if ( ZG_SECURE_ENABLED && ( ZDApp_RestoreNwkKey( TRUE ) == false ) )
        ; Setup parameters for call to function ZDApp_RestoreNwkKey
        MOV     R1,#0x1
        LCALL   ??ZDApp_RestoreNwkKey?relay; Banked call to: ZDApp_RestoreNwkKey
        MOV     A,R1
        JNZ     $+5
        LJMP    ??ZDApp_ProcessNetworkJoin_4 & 0xFFFF
// 1538       {
// 1539         // wait for auth from trust center
// 1540         ZDApp_ChangeState( DEV_END_DEVICE_UNAUTH );
// 1541 
// 1542         // Start the reset timer for MAX UNAUTH time
// 1543         ZDApp_ResetTimerStart( MAX_DEVICE_UNAUTH_TIMEOUT );
// 1544       }
// 1545       else
// 1546       {
// 1547         if ( ZSTACK_ROUTER_BUILD )
// 1548         {
// 1549           if ( devState == DEV_NWK_ORPHAN
// 1550             && ZDO_Config_Node_Descriptor.LogicalType != NODETYPE_DEVICE )
// 1551           {
// 1552             // Change NIB state to router for restore
// 1553             _NIB.nwkState = NWK_ROUTER;
// 1554           }
// 1555         }
// 1556 
// 1557         if ( devState == DEV_NWK_JOINING )
        MOV     DPTR,#devState
        MOVX    A,@DPTR
        XRL     A,#0x3
        JNZ     ??ZDApp_ProcessNetworkJoin_5
// 1558         {
// 1559           ZDApp_AnnounceNewAddress();
        ; Setup parameters for call to function ZDApp_AnnounceNewAddress
        LCALL   ??ZDApp_AnnounceNewAddress?relay; Banked call to: ZDApp_AnnounceNewAddress
// 1560         }
// 1561 
// 1562         ZDApp_ChangeState( DEV_END_DEVICE );
??ZDApp_ProcessNetworkJoin_5:
        ; Setup parameters for call to function ZDApp_ChangeState
        MOV     R1,#0x6
        LCALL   ??ZDApp_ChangeState?relay; Banked call to: ZDApp_ChangeState
// 1563 
// 1564         if ( ZSTACK_ROUTER_BUILD )
        LJMP    ??ZDApp_ProcessNetworkJoin_6 & 0xFFFF
// 1565         {
// 1566           // NOTE: first two parameters are not used, see NLMEDE.h for details
// 1567           if ( ZDO_Config_Node_Descriptor.LogicalType != NODETYPE_DEVICE )
// 1568           {
// 1569             NLME_StartRouterRequest( 0, 0, false );
// 1570           }
// 1571         }
// 1572       }
// 1573     }
// 1574     else
// 1575     {
// 1576       if ( (devStartMode == MODE_RESUME) && (++retryCnt >= MAX_RESUME_RETRY) )
??ZDApp_ProcessNetworkJoin_3:
        MOV     DPTR,#devStartMode
        MOVX    A,@DPTR
        XRL     A,#0x1
        JNZ     ??ZDApp_ProcessNetworkJoin_7
        MOV     DPTR,#retryCnt
        MOVX    A,@DPTR
        INC     A
        MOVX    @DPTR,A
        CLR     C
        SUBB    A,#0x3
        JC      ??ZDApp_ProcessNetworkJoin_7
// 1577       {
// 1578         if ( _NIB.nwkPanId == 0xFFFF )
        MOV     DPTR,#_NIB + 33
        MOVX    A,@DPTR
        CPL     A
        JNZ     ??ZDApp_ProcessNetworkJoin_8
        INC     DPTR
        MOVX    A,@DPTR
        CPL     A
??ZDApp_ProcessNetworkJoin_8:
        MOV     DPTR,#devStartMode
        JNZ     ??ZDApp_ProcessNetworkJoin_9
// 1579           devStartMode = MODE_JOIN;
        CLR     A
        SJMP    ??ZDApp_ProcessNetworkJoin_10
// 1580         else
// 1581         {
// 1582           devStartMode = MODE_REJOIN;
??ZDApp_ProcessNetworkJoin_9:
        MOV     A,#0x3
        MOVX    @DPTR,A
// 1583           _tmpRejoinState = true;
        MOV     DPTR,#_tmpRejoinState
        MOV     A,#0x1
??ZDApp_ProcessNetworkJoin_10:
        MOVX    @DPTR,A
// 1584         }
// 1585       }
// 1586 
// 1587       if ( (NLME_GetShortAddr() != INVALID_NODE_ADDR) ||
// 1588            (_NIB.nwkDevAddress != INVALID_NODE_ADDR) )
??ZDApp_ProcessNetworkJoin_7:
        ; Setup parameters for call to function NLME_GetShortAddr
        LCALL   ??NLME_GetShortAddr?relay; Banked call to: NLME_GetShortAddr
        MOV     ?V0,R2
        MOV     ?V1,R3
        MOV     A,#-0x2
        XRL     A,?V0
        JNZ     ??ZDApp_ProcessNetworkJoin_11
        MOV     A,#-0x1
        XRL     A,?V1
??ZDApp_ProcessNetworkJoin_11:
        JNZ     ??ZDApp_ProcessNetworkJoin_12
        MOV     DPTR,#_NIB + 20
        MOVX    A,@DPTR
        XRL     A,#0xfe
        JNZ     ??ZDApp_ProcessNetworkJoin_13
        INC     DPTR
        MOVX    A,@DPTR
        CPL     A
??ZDApp_ProcessNetworkJoin_13:
        JZ      ??ZDApp_ProcessNetworkJoin_14
// 1589       {
// 1590         uint16 addr = INVALID_NODE_ADDR;
??ZDApp_ProcessNetworkJoin_12:
        MOV     DPL,?XSP + 0
        MOV     DPH,?XSP + 1
        MOV     A,#-0x2
        MOVX    @DPTR,A
        INC     DPTR
        INC     A
        MOVX    @DPTR,A
// 1591         // Invalidate nwk addr so end device does not use in its data reqs.
// 1592         _NIB.nwkDevAddress = INVALID_NODE_ADDR;
        MOV     DPTR,#_NIB + 20
        DEC     A
        MOVX    @DPTR,A
        INC     DPTR
        INC     A
        MOVX    @DPTR,A
// 1593         ZMacSetReq( ZMacShortAddress, (uint8 *)&addr );
        ; Setup parameters for call to function ZMacSetReq
        MOV     R2,?XSP + 0
        MOV     R3,?XSP + 1
        MOV     R1,#0x53
        LCALL   ??ZMacSetReq?relay   ; Banked call to: ZMacSetReq
// 1594       }
// 1595 
// 1596       // Clear the neighbor Table and network discovery tables.
// 1597       nwkNeighborInitTable();
??ZDApp_ProcessNetworkJoin_14:
        ; Setup parameters for call to function nwkNeighborInitTable
        LCALL   ??nwkNeighborInitTable?relay; Banked call to: nwkNeighborInitTable
// 1598       NLME_NwkDiscTerm();
        ; Setup parameters for call to function NLME_NwkDiscTerm
        LCALL   ??NLME_NwkDiscTerm?relay; Banked call to: NLME_NwkDiscTerm
// 1599 
// 1600       zdoDiscCounter = 1;
        MOV     DPTR,#zdoDiscCounter
        MOV     A,#0x1
        MOVX    @DPTR,A
// 1601 
// 1602       ZDApp_NetworkInit( (uint16)(NWK_START_DELAY
// 1603            + ((uint16)(osal_rand()& EXTENDED_JOINING_RANDOM_MASK))) );
        ; Setup parameters for call to function osal_rand
        LJMP    ??ZDApp_ProcessNetworkJoin_15 & 0xFFFF
// 1604     }
// 1605   }
// 1606   else if ( devState == DEV_NWK_ORPHAN ||
// 1607             devState == DEV_NWK_SEC_REJOIN_CURR_CHANNEL ||
// 1608             devState == DEV_NWK_TC_REJOIN_CURR_CHANNEL ||
// 1609             devState == DEV_NWK_TC_REJOIN_ALL_CHANNEL ||
// 1610             devState == DEV_NWK_SEC_REJOIN_ALL_CHANNEL )
??ZDApp_ProcessNetworkJoin_1:
        MOVX    A,@DPTR
        XRL     A,#0x4
        JZ      ??ZDApp_ProcessNetworkJoin_2
        MOVX    A,@DPTR
        XRL     A,#0xe
        JZ      ??ZDApp_ProcessNetworkJoin_2
        MOVX    A,@DPTR
        XRL     A,#0xf
        JZ      ??ZDApp_ProcessNetworkJoin_2
        MOVX    A,@DPTR
        XRL     A,#0xd
        JZ      $+5
        LJMP    ??ZDApp_ProcessNetworkJoin_16 & 0xFFFF
// 1611   {
// 1612     // results of an orphaning attempt by this device
// 1613     if (nwkStatus == ZSuccess)
??ZDApp_ProcessNetworkJoin_2:
        MOV     DPTR,#nwkStatus
        MOVX    A,@DPTR
        JNZ     ??ZDApp_ProcessNetworkJoin_17
// 1614     {
// 1615       //When the device has successfully rejoined then reset retryCnt
// 1616       retryCnt = 0;
        MOV     DPTR,#retryCnt
        CLR     A
        MOVX    @DPTR,A
// 1617 
// 1618       // Verify NWK key is available before sending Device_annce
// 1619       if ( ZG_SECURE_ENABLED && ( ZDApp_RestoreNwkKey( TRUE ) == false ) )
        ; Setup parameters for call to function ZDApp_RestoreNwkKey
        MOV     R1,#0x1
        LCALL   ??ZDApp_RestoreNwkKey?relay; Banked call to: ZDApp_RestoreNwkKey
        MOV     A,R1
        JNZ     ??ZDApp_ProcessNetworkJoin_18
// 1620       {
// 1621         // wait for auth from trust center
// 1622         ZDApp_ChangeState( DEV_END_DEVICE_UNAUTH );
??ZDApp_ProcessNetworkJoin_4:
        ; Setup parameters for call to function ZDApp_ChangeState
        MOV     R1,#0x5
        LCALL   ??ZDApp_ChangeState?relay; Banked call to: ZDApp_ChangeState
// 1623 
// 1624         // Start the reset timer for MAX UNAUTH time
// 1625         ZDApp_ResetTimerStart( MAX_DEVICE_UNAUTH_TIMEOUT );
        ; Setup parameters for call to function ZDApp_ResetTimerStart
        MOV     R2,#0x10
        MOV     R3,#0x27
        LCALL   ??ZDApp_ResetTimerStart?relay; Banked call to: ZDApp_ResetTimerStart
        LJMP    ??ZDApp_ProcessNetworkJoin_6 & 0xFFFF
// 1626       }
// 1627       else
// 1628       {
// 1629         ZDApp_ChangeState( DEV_END_DEVICE );
??ZDApp_ProcessNetworkJoin_18:
        ; Setup parameters for call to function ZDApp_ChangeState
        MOV     R1,#0x6
        LCALL   ??ZDApp_ChangeState?relay; Banked call to: ZDApp_ChangeState
// 1630 
// 1631         osal_stop_timerEx( ZDAppTaskID, ZDO_REJOIN_BACKOFF );
        ; Setup parameters for call to function osal_stop_timerEx
        MOV     R2,#0x0
        MOV     R3,#0x20
        MOV     DPTR,#ZDAppTaskID
        MOVX    A,@DPTR
        MOV     R1,A
        LCALL   ??osal_stop_timerEx?relay; Banked call to: osal_stop_timerEx
// 1632 
// 1633         // setup Power Manager Device
// 1634 #if defined ( POWER_SAVING )
// 1635         osal_pwrmgr_device( PWRMGR_BATTERY );
        ; Setup parameters for call to function osal_pwrmgr_device
        MOV     R1,#0x1
        LCALL   ??osal_pwrmgr_device?relay; Banked call to: osal_pwrmgr_device
// 1636 #endif
// 1637 
// 1638         // The receiver is on, turn network layer polling off.
// 1639         if ( ZDO_Config_Node_Descriptor.CapabilityFlags & CAPINFO_RCVR_ON_IDLE )
        MOV     DPTR,#ZDO_Config_Node_Descriptor + 2
        MOVX    A,@DPTR
        MOV     C,0xE0 /* A   */.3
        JNC     ??ZDApp_ProcessNetworkJoin_19
// 1640         {
// 1641           // if Child Table Management process is not enabled
// 1642           if ( zgChildAgingEnable == FALSE )
        MOV     DPTR,#zgChildAgingEnable
        MOVX    A,@DPTR
        JNZ     ??ZDApp_ProcessNetworkJoin_19
// 1643           {
// 1644             NLME_SetPollRate( 0 );
        ; Setup parameters for call to function NLME_SetPollRate
        MOV     DPTR,#__Constant_0
        LCALL   ?XLOAD_R2345
        LCALL   ??NLME_SetPollRate?relay; Banked call to: NLME_SetPollRate
// 1645             NLME_SetQueuedPollRate( 0 );
        ; Setup parameters for call to function NLME_SetQueuedPollRate
        MOV     R2,#0x0
        MOV     R3,#0x0
        LCALL   ??NLME_SetQueuedPollRate?relay; Banked call to: NLME_SetQueuedPollRate
// 1646             NLME_SetResponseRate( 0 );
        ; Setup parameters for call to function NLME_SetResponseRate
        MOV     R2,#0x0
        MOV     R3,#0x0
        LCALL   ??NLME_SetResponseRate?relay; Banked call to: NLME_SetResponseRate
// 1647           }
// 1648         }
// 1649 
// 1650         if ( ZSTACK_ROUTER_BUILD )
// 1651         {
// 1652           // NOTE: first two parameters are not used, see NLMEDE.h for details
// 1653           if ( ZDO_Config_Node_Descriptor.LogicalType != NODETYPE_DEVICE )
// 1654           {
// 1655             NLME_StartRouterRequest( 0, 0, false );
// 1656           }
// 1657         }
// 1658 
// 1659         ZDApp_AnnounceNewAddress();
??ZDApp_ProcessNetworkJoin_19:
        ; Setup parameters for call to function ZDApp_AnnounceNewAddress
        LCALL   ??ZDApp_AnnounceNewAddress?relay; Banked call to: ZDApp_AnnounceNewAddress
// 1660 
// 1661         if ( ( (ZDO_Config_Node_Descriptor.CapabilityFlags & CAPINFO_RCVR_ON_IDLE) == 0 )
// 1662             || ( (ZDO_Config_Node_Descriptor.CapabilityFlags & CAPINFO_RCVR_ON_IDLE)
// 1663               && (zgChildAgingEnable == TRUE) ) )
        MOV     DPTR,#ZDO_Config_Node_Descriptor + 2
        MOVX    A,@DPTR
        MOV     C,0xE0 /* A   */.3
        JNC     ??ZDApp_ProcessNetworkJoin_20
        MOV     DPTR,#zgChildAgingEnable
        MOVX    A,@DPTR
        XRL     A,#0x1
        JZ      $+5
        LJMP    ??ZDApp_ProcessNetworkJoin_6 & 0xFFFF
// 1664         {
// 1665           NLME_SetPollRate( ZDApp_SavedPollRate );
??ZDApp_ProcessNetworkJoin_20:
        ; Setup parameters for call to function NLME_SetPollRate
        MOV     DPTR,#ZDApp_SavedPollRate
        LCALL   ?XLOAD_R2345
        LCALL   ??NLME_SetPollRate?relay; Banked call to: NLME_SetPollRate
        LJMP    ??ZDApp_ProcessNetworkJoin_6 & 0xFFFF
// 1666         }
// 1667       }
// 1668     }
// 1669     else
// 1670     {
// 1671       if ( devStartMode == MODE_RESUME )
??ZDApp_ProcessNetworkJoin_17:
        MOV     DPTR,#devStartMode
        MOVX    A,@DPTR
        XRL     A,#0x1
        JNZ     ??ZDApp_ProcessNetworkJoin_21
// 1672       {
// 1673         if ( ++retryCnt <= MAX_RESUME_RETRY )
        MOV     DPTR,#retryCnt
        MOVX    A,@DPTR
        INC     A
        MOVX    @DPTR,A
        CLR     C
        SUBB    A,#0x4
        JNC     ??ZDApp_ProcessNetworkJoin_22
// 1674         {
// 1675           if ( _NIB.nwkPanId == 0xFFFF )
        MOV     DPTR,#_NIB + 33
        MOVX    A,@DPTR
        CPL     A
        JNZ     ??ZDApp_ProcessNetworkJoin_23
        INC     DPTR
        MOVX    A,@DPTR
        CPL     A
??ZDApp_ProcessNetworkJoin_23:
        JZ      ??ZDApp_ProcessNetworkJoin_24
// 1676             devStartMode = MODE_JOIN;
// 1677           else
// 1678           {
// 1679             devStartMode = MODE_REJOIN;
        MOV     DPTR,#devStartMode
        MOV     A,#0x3
        MOVX    @DPTR,A
// 1680             _tmpRejoinState = true;
        MOV     DPTR,#_tmpRejoinState
        MOV     A,#0x1
        MOVX    @DPTR,A
// 1681             prevDevState = DEV_NWK_SEC_REJOIN_CURR_CHANNEL;
        MOV     DPTR,#prevDevState
        MOV     A,#0x4
        SJMP    ??ZDApp_ProcessNetworkJoin_25
// 1682           }
// 1683         }
// 1684         // Do a normal join to the network after certain times of rejoin retries
// 1685         else if( AIB_apsUseInsecureJoin == true )
??ZDApp_ProcessNetworkJoin_22:
        MOV     DPTR,#AIB_apsUseInsecureJoin
        MOVX    A,@DPTR
        XRL     A,#0x1
        JNZ     ??ZDApp_ProcessNetworkJoin_26
// 1686         {
// 1687           devStartMode = MODE_JOIN;
??ZDApp_ProcessNetworkJoin_24:
        MOV     DPTR,#devStartMode
        CLR     A
        SJMP    ??ZDApp_ProcessNetworkJoin_25
// 1688         }
// 1689       }
// 1690       else if(devStartMode == MODE_REJOIN)
??ZDApp_ProcessNetworkJoin_21:
        MOVX    A,@DPTR
        XRL     A,#0x3
        JNZ     ??ZDApp_ProcessNetworkJoin_26
// 1691       {
// 1692         if ( ZSTACK_END_DEVICE_BUILD )
// 1693         {
// 1694           devStartMode = MODE_REJOIN;
// 1695           _tmpRejoinState = true;
        MOV     DPTR,#_tmpRejoinState
        MOV     A,#0x1
        MOVX    @DPTR,A
// 1696           _NIB.nwkState = NWK_INIT;
        MOV     DPTR,#_NIB + 35
        CLR     A
        MOVX    @DPTR,A
// 1697 
// 1698           if( prevDevState == DEV_NWK_SEC_REJOIN_CURR_CHANNEL )
        MOV     DPTR,#prevDevState
        MOVX    A,@DPTR
        XRL     A,#0x4
        JNZ     ??ZDApp_ProcessNetworkJoin_27
// 1699           {
// 1700             runtimeChannel = MAX_CHANNELS_24GHZ;
        LCALL   ?Subroutine11 & 0xFFFF
// 1701             prevDevState = DEV_NWK_SEC_REJOIN_ALL_CHANNEL ;
// 1702           }
??CrossCallReturnLabel_0:
        MOV     A,#0xd
        SJMP    ??ZDApp_ProcessNetworkJoin_25
// 1703           else if ( prevDevState == DEV_NWK_SEC_REJOIN_ALL_CHANNEL)
??ZDApp_ProcessNetworkJoin_27:
        MOVX    A,@DPTR
        XRL     A,#0xd
        JNZ     ??ZDApp_ProcessNetworkJoin_28
// 1704           {
// 1705             // Set the flag that will ask the device to do trust center network layer rejoin.
// 1706             //将这两句注释后，可能导致重入网到网关没保存在的节点？2018.1.18
// 1707 						//不注释会使节点重加网失败，不停发Beacon request，rejoin到协调器，它也不给转发Recall Scene 2018.1.18
// 1708 						//_NIB.nwkKeyLoaded = FALSE;             //add by jc，不清除旧的keys，不以TC加入的方式加网
// 1709             //ZDApp_ResetNwkKey(); // Clear up the old network key.
// 1710 						//end of add by jc
// 1711             runtimeChannel = (uint32) (1L << _NIB.nwkLogicalChannel);
        MOV     ?V0,#0x1
        MOV     ?V1,#0x0
        MOV     ?V2,#0x0
        MOV     ?V3,#0x0
        MOV     DPTR,#_NIB + 22
        MOVX    A,@DPTR
        MOV     R0,#?V0
        LCALL   ?L_SHL
        MOV     DPTR,#runtimeChannel
        MOV     R0,#?V0
        LCALL   ?L_MOV_TO_X
// 1712             prevDevState = DEV_NWK_TC_REJOIN_CURR_CHANNEL ;
        MOV     DPTR,#prevDevState
        MOV     A,#0xe
        SJMP    ??ZDApp_ProcessNetworkJoin_25
// 1713           }
// 1714           else if ( prevDevState == DEV_NWK_TC_REJOIN_CURR_CHANNEL )
??ZDApp_ProcessNetworkJoin_28:
        MOVX    A,@DPTR
        XRL     A,#0xe
        JNZ     ??ZDApp_ProcessNetworkJoin_26
// 1715           {
// 1716             runtimeChannel = MAX_CHANNELS_24GHZ;
        LCALL   ?Subroutine11 & 0xFFFF
// 1717             prevDevState= DEV_NWK_TC_REJOIN_ALL_CHANNEL ;
// 1718           }
// 1719 
// 1720         }
// 1721       }
??CrossCallReturnLabel_1:
        MOV     A,#0xf
??ZDApp_ProcessNetworkJoin_25:
        MOVX    @DPTR,A
// 1722 
// 1723       // Clear the neighbor Table and network discovery tables.
// 1724       nwkNeighborInitTable();
??ZDApp_ProcessNetworkJoin_26:
        ; Setup parameters for call to function nwkNeighborInitTable
        LCALL   ??nwkNeighborInitTable?relay; Banked call to: nwkNeighborInitTable
// 1725       NLME_NwkDiscTerm();
        ; Setup parameters for call to function NLME_NwkDiscTerm
        LCALL   ??NLME_NwkDiscTerm?relay; Banked call to: NLME_NwkDiscTerm
// 1726 
// 1727       // setup a retry for later...
// 1728       ZDApp_NetworkInit( (uint16)(NWK_START_DELAY
// 1729            + (osal_rand()& EXTENDED_JOINING_RANDOM_MASK)) );
        ; Setup parameters for call to function osal_rand
??ZDApp_ProcessNetworkJoin_15:
        LCALL   ??osal_rand?relay    ; Banked call to: osal_rand
        ; Setup parameters for call to function ZDApp_NetworkInit
// 1730     }
// 1731   }
        LCALL   ?Subroutine28 & 0xFFFF
??CrossCallReturnLabel_26:
        LCALL   ??ZDApp_NetworkInit?relay; Banked call to: ZDApp_NetworkInit
        SJMP    ??ZDApp_ProcessNetworkJoin_6
// 1732 #if defined ( ZIGBEEPRO )
// 1733   else if ( devState != DEV_HOLD )
??ZDApp_ProcessNetworkJoin_16:
        MOVX    A,@DPTR
        JZ      ??ZDApp_ProcessNetworkJoin_6
// 1734   {
// 1735     // Assume from address conflict
// 1736 
// 1737     // Notify the network
// 1738     ZDApp_AnnounceNewAddress();
        ; Setup parameters for call to function ZDApp_AnnounceNewAddress
        LCALL   ??ZDApp_AnnounceNewAddress?relay; Banked call to: ZDApp_AnnounceNewAddress
// 1739 
// 1740     // Notify apps
// 1741     osal_set_event( ZDAppTaskID, ZDO_STATE_CHANGE_EVT );
        ; Setup parameters for call to function osal_set_event
        MOV     R2,#0x10
        MOV     R3,#0x0
        MOV     DPTR,#ZDAppTaskID
        MOVX    A,@DPTR
        MOV     R1,A
        LCALL   ??osal_set_event?relay; Banked call to: osal_set_event
// 1742   }
// 1743 #endif
// 1744 }
??ZDApp_ProcessNetworkJoin_6:
        LJMP    ?Subroutine5 & 0xFFFF
          CFI EndBlock cfiBlock24

        RSEG BANKED_CODE:CODE:NOROOT(0)
?Subroutine28:
          CFI Block cfiCond25 Using cfiCommon0
          CFI Function ZDApp_ProcessOSALMsg
          CFI Conditional ??CrossCallReturnLabel_25
          CFI R6 load(1, XDATA, add(CFA_XSP16, literal(-12)))
          CFI VB load(1, XDATA, add(CFA_XSP16, literal(-11)))
          CFI V0 load(1, XDATA, add(CFA_XSP16, literal(-10)))
          CFI V1 load(1, XDATA, add(CFA_XSP16, literal(-9)))
          CFI V2 load(1, XDATA, add(CFA_XSP16, literal(-8)))
          CFI V3 load(1, XDATA, add(CFA_XSP16, literal(-7)))
          CFI R7 load(1, XDATA, add(CFA_XSP16, literal(-6)))
          CFI ?RET_LOW load(1, XDATA, add(CFA_XSP16, literal(-5)))
          CFI ?RET_HIGH load(1, XDATA, add(CFA_XSP16, literal(-4)))
          CFI ?BRET_EXT load(1, XDATA, add(CFA_XSP16, literal(-3)))
          CFI DPL0 load(1, XDATA, add(CFA_XSP16, literal(-2)))
          CFI DPH0 load(1, XDATA, add(CFA_XSP16, literal(-1)))
          CFI CFA_SP SP+-2
          CFI CFA_XSP16 add(XSP16, 15)
          CFI Block cfiCond26 Using cfiCommon0
          CFI (cfiCond26) Function ZDApp_ProcessNetworkJoin
          CFI (cfiCond26) Conditional ??CrossCallReturnLabel_26
          CFI (cfiCond26) R6 load(1, XDATA, add(CFA_XSP16, literal(-12)))
          CFI (cfiCond26) VB load(1, XDATA, add(CFA_XSP16, literal(-11)))
          CFI (cfiCond26) V0 load(1, XDATA, add(CFA_XSP16, literal(-10)))
          CFI (cfiCond26) V1 load(1, XDATA, add(CFA_XSP16, literal(-9)))
          CFI (cfiCond26) V2 load(1, XDATA, add(CFA_XSP16, literal(-8)))
          CFI (cfiCond26) V3 load(1, XDATA, add(CFA_XSP16, literal(-7)))
          CFI (cfiCond26) R7 load(1, XDATA, add(CFA_XSP16, literal(-6)))
          CFI (cfiCond26) ?RET_LOW load(1, XDATA, add(CFA_XSP16, literal(-5)))
          CFI (cfiCond26) ?RET_HIGH load(1, XDATA, add(CFA_XSP16, literal(-4)))
          CFI (cfiCond26) ?BRET_EXT load(1, XDATA, add(CFA_XSP16, literal(-3)))
          CFI (cfiCond26) DPL0 load(1, XDATA, add(CFA_XSP16, literal(-2)))
          CFI (cfiCond26) DPH0 load(1, XDATA, add(CFA_XSP16, literal(-1)))
          CFI (cfiCond26) CFA_SP SP+-2
          CFI (cfiCond26) CFA_XSP16 add(XSP16, 14)
          CFI Block cfiCond27 Using cfiCommon0
          CFI (cfiCond27) Function ZDApp_LeaveReset
          CFI (cfiCond27) Conditional ??CrossCallReturnLabel_27
          CFI (cfiCond27) R6 load(1, XDATA, add(CFA_XSP16, literal(-10)))
          CFI (cfiCond27) VB load(1, XDATA, add(CFA_XSP16, literal(-9)))
          CFI (cfiCond27) V0 load(1, XDATA, add(CFA_XSP16, literal(-8)))
          CFI (cfiCond27) V1 load(1, XDATA, add(CFA_XSP16, literal(-7)))
          CFI (cfiCond27) R7 load(1, XDATA, add(CFA_XSP16, literal(-6)))
          CFI (cfiCond27) ?RET_LOW load(1, XDATA, add(CFA_XSP16, literal(-5)))
          CFI (cfiCond27) ?RET_HIGH load(1, XDATA, add(CFA_XSP16, literal(-4)))
          CFI (cfiCond27) ?BRET_EXT load(1, XDATA, add(CFA_XSP16, literal(-3)))
          CFI (cfiCond27) DPL0 load(1, XDATA, add(CFA_XSP16, literal(-2)))
          CFI (cfiCond27) DPH0 load(1, XDATA, add(CFA_XSP16, literal(-1)))
          CFI (cfiCond27) CFA_SP SP+-2
          CFI (cfiCond27) CFA_XSP16 add(XSP16, 10)
          CFI Block cfiPicker28 Using cfiCommon1
          CFI (cfiPicker28) NoFunction
          CFI (cfiPicker28) Picker
        MOV     A,R2
        ANL     A,#0x7f
        ADD     A,#0x64
        MOV     R2,A
        MOV     R3,#0x0
        RET
          CFI EndBlock cfiCond25
          CFI EndBlock cfiCond26
          CFI EndBlock cfiCond27
          CFI EndBlock cfiPicker28

        RSEG BANKED_CODE:CODE:NOROOT(0)
?Subroutine11:
          CFI Block cfiCond29 Using cfiCommon0
          CFI Function ZDApp_ProcessNetworkJoin
          CFI Conditional ??CrossCallReturnLabel_0
          CFI R6 load(1, XDATA, add(CFA_XSP16, literal(-12)))
          CFI VB load(1, XDATA, add(CFA_XSP16, literal(-11)))
          CFI V0 load(1, XDATA, add(CFA_XSP16, literal(-10)))
          CFI V1 load(1, XDATA, add(CFA_XSP16, literal(-9)))
          CFI V2 load(1, XDATA, add(CFA_XSP16, literal(-8)))
          CFI V3 load(1, XDATA, add(CFA_XSP16, literal(-7)))
          CFI R7 load(1, XDATA, add(CFA_XSP16, literal(-6)))
          CFI ?RET_LOW load(1, XDATA, add(CFA_XSP16, literal(-5)))
          CFI ?RET_HIGH load(1, XDATA, add(CFA_XSP16, literal(-4)))
          CFI ?BRET_EXT load(1, XDATA, add(CFA_XSP16, literal(-3)))
          CFI DPL0 load(1, XDATA, add(CFA_XSP16, literal(-2)))
          CFI DPH0 load(1, XDATA, add(CFA_XSP16, literal(-1)))
          CFI CFA_SP SP+-2
          CFI CFA_XSP16 add(XSP16, 14)
          CFI Block cfiCond30 Using cfiCommon0
          CFI (cfiCond30) Function ZDApp_ProcessNetworkJoin
          CFI (cfiCond30) Conditional ??CrossCallReturnLabel_1
          CFI (cfiCond30) R6 load(1, XDATA, add(CFA_XSP16, literal(-12)))
          CFI (cfiCond30) VB load(1, XDATA, add(CFA_XSP16, literal(-11)))
          CFI (cfiCond30) V0 load(1, XDATA, add(CFA_XSP16, literal(-10)))
          CFI (cfiCond30) V1 load(1, XDATA, add(CFA_XSP16, literal(-9)))
          CFI (cfiCond30) V2 load(1, XDATA, add(CFA_XSP16, literal(-8)))
          CFI (cfiCond30) V3 load(1, XDATA, add(CFA_XSP16, literal(-7)))
          CFI (cfiCond30) R7 load(1, XDATA, add(CFA_XSP16, literal(-6)))
          CFI (cfiCond30) ?RET_LOW load(1, XDATA, add(CFA_XSP16, literal(-5)))
          CFI (cfiCond30) ?RET_HIGH load(1, XDATA, add(CFA_XSP16, literal(-4)))
          CFI (cfiCond30) ?BRET_EXT load(1, XDATA, add(CFA_XSP16, literal(-3)))
          CFI (cfiCond30) DPL0 load(1, XDATA, add(CFA_XSP16, literal(-2)))
          CFI (cfiCond30) DPH0 load(1, XDATA, add(CFA_XSP16, literal(-1)))
          CFI (cfiCond30) CFA_SP SP+-2
          CFI (cfiCond30) CFA_XSP16 add(XSP16, 14)
          CFI Block cfiPicker31 Using cfiCommon1
          CFI (cfiPicker31) NoFunction
          CFI (cfiPicker31) Picker
        MOV     DPTR,#runtimeChannel
        CLR     A
        MOVX    @DPTR,A
        INC     DPTR
        MOV     A,#-0x8
        MOVX    @DPTR,A
        INC     DPTR
        MOV     A,#-0x1
        MOVX    @DPTR,A
        INC     DPTR
        MOV     A,#0x7
        MOVX    @DPTR,A
        MOV     DPTR,#prevDevState
        RET
          CFI EndBlock cfiCond29
          CFI EndBlock cfiCond30
          CFI EndBlock cfiPicker31
// 1745 
// 1746 /*********************************************************************
// 1747  * @fn      ZDApp_SaveNwkKey()
// 1748  *
// 1749  * @brief   Save off the Network key information.
// 1750  *
// 1751  * @param   none
// 1752  *
// 1753  * @return  none
// 1754  */

        RSEG BANKED_CODE:CODE:NOROOT(0)
// 1755 void ZDApp_SaveNwkKey( void )
ZDApp_SaveNwkKey:
          CFI Block cfiBlock32 Using cfiCommon0
          CFI Function ZDApp_SaveNwkKey
        CODE
// 1756 {
        FUNCALL ZDApp_SaveNwkKey, SSP_ReadNwkActiveKey
        LOCFRAME ISTACK, 0, STACK
        LOCFRAME PSTACK, 0, STACK
        LOCFRAME XSTACK, 31, STACK
        LOCFRAME IOVERLAY, 0, STATIC
        LOCFRAME DOVERLAY, 0, STATIC
        ARGFRAME ISTACK, 0, STACK
        ARGFRAME PSTACK, 0, STACK
        ARGFRAME XSTACK, 31, STACK
        ARGFRAME IOVERLAY, 0, STATIC
        ARGFRAME DOVERLAY, 0, STATIC
        FUNCALL ZDApp_SaveNwkKey, osal_nv_write
        LOCFRAME ISTACK, 0, STACK
        LOCFRAME PSTACK, 0, STACK
        LOCFRAME XSTACK, 35, STACK
        LOCFRAME IOVERLAY, 0, STATIC
        LOCFRAME DOVERLAY, 0, STATIC
        ARGFRAME ISTACK, 0, STACK
        ARGFRAME PSTACK, 0, STACK
        ARGFRAME XSTACK, 35, STACK
        ARGFRAME IOVERLAY, 0, STATIC
        ARGFRAME DOVERLAY, 0, STATIC
        FUNCALL ZDApp_SaveNwkKey, osal_memset
        LOCFRAME ISTACK, 0, STACK
        LOCFRAME PSTACK, 0, STACK
        LOCFRAME XSTACK, 31, STACK
        LOCFRAME IOVERLAY, 0, STATIC
        LOCFRAME DOVERLAY, 0, STATIC
        ARGFRAME ISTACK, 0, STACK
        ARGFRAME PSTACK, 0, STACK
        ARGFRAME XSTACK, 31, STACK
        ARGFRAME IOVERLAY, 0, STATIC
        ARGFRAME DOVERLAY, 0, STATIC
        REQUIRE ?V0
        REQUIRE ?V1
        MOV     A,#-0xa
        LCALL   ?BANKED_ENTER_XDATA
          CFI DPH0 load(1, XDATA, add(CFA_XSP16, literal(-1)))
          CFI DPL0 load(1, XDATA, add(CFA_XSP16, literal(-2)))
          CFI ?BRET_EXT load(1, XDATA, add(CFA_XSP16, literal(-3)))
          CFI ?RET_HIGH load(1, XDATA, add(CFA_XSP16, literal(-4)))
          CFI ?RET_LOW load(1, XDATA, add(CFA_XSP16, literal(-5)))
          CFI R7 load(1, XDATA, add(CFA_XSP16, literal(-6)))
          CFI V1 load(1, XDATA, add(CFA_XSP16, literal(-7)))
          CFI V0 load(1, XDATA, add(CFA_XSP16, literal(-8)))
          CFI VB load(1, XDATA, add(CFA_XSP16, literal(-9)))
          CFI R6 load(1, XDATA, add(CFA_XSP16, literal(-10)))
          CFI CFA_SP SP+0
          CFI CFA_XSP16 add(XSP16, 10)
        ; Saved register size: 10
        ; Auto size: 21
        MOV     A,#-0x15
        LCALL   ?ALLOC_XSTACK8
          CFI CFA_XSP16 add(XSP16, 31)
// 1757   nwkActiveKeyItems keyItems;
// 1758 
// 1759   SSP_ReadNwkActiveKey( &keyItems );
        ; Setup parameters for call to function SSP_ReadNwkActiveKey
        MOV     R2,?XSP + 0
        MOV     R3,?XSP + 1
        LCALL   ??SSP_ReadNwkActiveKey?relay; Banked call to: SSP_ReadNwkActiveKey
// 1760 
// 1761   osal_nv_write( ZCD_NV_NWKKEY, 0, sizeof( nwkActiveKeyItems ),
// 1762                 (void *)&keyItems );
        ; Setup parameters for call to function osal_nv_write
        MOV     R0,?XSP + 0
        MOV     R1,?XSP + 1
        MOV     ?V0,R0
        MOV     ?V1,R1
        MOV     R0,#?V0
        LCALL   ?PUSH_XSTACK_I_TWO
          CFI CFA_XSP16 add(XSP16, 33)
        MOV     ?V0,#0x15
        MOV     ?V1,#0x0
        MOV     R0,#?V0
        LCALL   ?PUSH_XSTACK_I_TWO
          CFI CFA_XSP16 add(XSP16, 35)
        MOV     R4,#0x0
        MOV     R5,#0x0
        MOV     R2,#-0x7e
        MOV     R3,#0x0
        LCALL   ??osal_nv_write?relay; Banked call to: osal_nv_write
        MOV     A,#0x4
        LCALL   ?DEALLOC_XSTACK8
          CFI CFA_XSP16 add(XSP16, 31)
// 1763 
// 1764   nwkFrameCounterChanges = 0;
        MOV     DPTR,#nwkFrameCounterChanges
        CLR     A
        MOVX    @DPTR,A
        INC     DPTR
        MOVX    @DPTR,A
// 1765 
// 1766   // Clear copy in RAM before return.
// 1767   osal_memset( &keyItems, 0x00, sizeof(keyItems) );
        ; Setup parameters for call to function osal_memset
        MOV     R4,#0x15
        MOV     R5,A
        MOV     R1,A
        MOV     R2,?XSP + 0
        MOV     R3,?XSP + 1
        LCALL   ??osal_memset?relay  ; Banked call to: osal_memset
          CFI EndBlock cfiBlock32
// 1768 
// 1769 }
        REQUIRE ?Subroutine8
        ; // Fall through to label ?Subroutine8

        RSEG BANKED_CODE:CODE:NOROOT(0)
?Subroutine8:
          CFI Block cfiBlock33 Using cfiCommon0
          CFI NoFunction
          CFI CFA_SP SP+0
          CFI CFA_XSP16 add(XSP16, 31)
          CFI VB load(1, XDATA, add(CFA_XSP16, literal(-9)))
          CFI DPL0 load(1, XDATA, add(CFA_XSP16, literal(-2)))
          CFI DPH0 load(1, XDATA, add(CFA_XSP16, literal(-1)))
          CFI R6 load(1, XDATA, add(CFA_XSP16, literal(-10)))
          CFI R7 load(1, XDATA, add(CFA_XSP16, literal(-6)))
          CFI V0 load(1, XDATA, add(CFA_XSP16, literal(-8)))
          CFI V1 load(1, XDATA, add(CFA_XSP16, literal(-7)))
          CFI ?BRET_EXT load(1, XDATA, add(CFA_XSP16, literal(-3)))
          CFI ?RET_HIGH load(1, XDATA, add(CFA_XSP16, literal(-4)))
          CFI ?RET_LOW load(1, XDATA, add(CFA_XSP16, literal(-5)))
        MOV     A,#0x15
        LJMP    ??Subroutine50_0 & 0xFFFF
          CFI EndBlock cfiBlock33
// 1770 
// 1771 /*********************************************************************
// 1772  * @fn      ZDApp_ForceConcentratorChange()
// 1773  *
// 1774  * @brief   Force a network concentrator change by resetting
// 1775  *          zgConcentratorEnable and zgConcentratorDiscoveryTime
// 1776  *          from NV and set nwk event.
// 1777  *
// 1778  * @param   none
// 1779  *
// 1780  * @return  none
// 1781  */

        RSEG BANKED_CODE:CODE:NOROOT(0)
// 1782 void ZDApp_ForceConcentratorChange( void )
ZDApp_ForceConcentratorChange:
          CFI Block cfiBlock34 Using cfiCommon0
          CFI Function ZDApp_ForceConcentratorChange
        CODE
// 1783 {
        FUNCALL ZDApp_ForceConcentratorChange, osal_nv_read
        LOCFRAME ISTACK, 0, STACK
        LOCFRAME PSTACK, 0, STACK
        LOCFRAME XSTACK, 14, STACK
        LOCFRAME IOVERLAY, 0, STATIC
        LOCFRAME DOVERLAY, 0, STATIC
        ARGFRAME ISTACK, 0, STACK
        ARGFRAME PSTACK, 0, STACK
        ARGFRAME XSTACK, 14, STACK
        ARGFRAME IOVERLAY, 0, STATIC
        ARGFRAME DOVERLAY, 0, STATIC
        FUNCALL ZDApp_ForceConcentratorChange, osal_nv_read
        LOCFRAME ISTACK, 0, STACK
        LOCFRAME PSTACK, 0, STACK
        LOCFRAME XSTACK, 14, STACK
        LOCFRAME IOVERLAY, 0, STATIC
        LOCFRAME DOVERLAY, 0, STATIC
        ARGFRAME ISTACK, 0, STACK
        ARGFRAME PSTACK, 0, STACK
        ARGFRAME XSTACK, 14, STACK
        ARGFRAME IOVERLAY, 0, STATIC
        ARGFRAME DOVERLAY, 0, STATIC
        FUNCALL ZDApp_ForceConcentratorChange, osal_start_timerEx
        LOCFRAME ISTACK, 0, STACK
        LOCFRAME PSTACK, 0, STACK
        LOCFRAME XSTACK, 14, STACK
        LOCFRAME IOVERLAY, 0, STATIC
        LOCFRAME DOVERLAY, 0, STATIC
        ARGFRAME ISTACK, 0, STACK
        ARGFRAME PSTACK, 0, STACK
        ARGFRAME XSTACK, 14, STACK
        ARGFRAME IOVERLAY, 0, STATIC
        ARGFRAME DOVERLAY, 0, STATIC
        FUNCALL ZDApp_ForceConcentratorChange, osal_stop_timerEx
        LOCFRAME ISTACK, 0, STACK
        LOCFRAME PSTACK, 0, STACK
        LOCFRAME XSTACK, 10, STACK
        LOCFRAME IOVERLAY, 0, STATIC
        LOCFRAME DOVERLAY, 0, STATIC
        ARGFRAME ISTACK, 0, STACK
        ARGFRAME PSTACK, 0, STACK
        ARGFRAME XSTACK, 10, STACK
        ARGFRAME IOVERLAY, 0, STATIC
        ARGFRAME DOVERLAY, 0, STATIC
        REQUIRE ?V0
        REQUIRE ?V1
        MOV     A,#-0xa
        LCALL   ?BANKED_ENTER_XDATA
          CFI DPH0 load(1, XDATA, add(CFA_XSP16, literal(-1)))
          CFI DPL0 load(1, XDATA, add(CFA_XSP16, literal(-2)))
          CFI ?BRET_EXT load(1, XDATA, add(CFA_XSP16, literal(-3)))
          CFI ?RET_HIGH load(1, XDATA, add(CFA_XSP16, literal(-4)))
          CFI ?RET_LOW load(1, XDATA, add(CFA_XSP16, literal(-5)))
          CFI R7 load(1, XDATA, add(CFA_XSP16, literal(-6)))
          CFI V1 load(1, XDATA, add(CFA_XSP16, literal(-7)))
          CFI V0 load(1, XDATA, add(CFA_XSP16, literal(-8)))
          CFI VB load(1, XDATA, add(CFA_XSP16, literal(-9)))
          CFI R6 load(1, XDATA, add(CFA_XSP16, literal(-10)))
          CFI CFA_SP SP+0
          CFI CFA_XSP16 add(XSP16, 10)
        ; Saved register size: 10
        ; Auto size: 0
// 1784   osal_nv_read( ZCD_NV_CONCENTRATOR_ENABLE, 0, sizeof(zgConcentratorEnable), &zgConcentratorEnable );
        ; Setup parameters for call to function osal_nv_read
        MOV     ?V0,#zgConcentratorEnable & 0xff
        MOV     ?V1,#(zgConcentratorEnable >> 8) & 0xff
        MOV     R0,#?V0
        LCALL   ?PUSH_XSTACK_I_TWO
          CFI CFA_XSP16 add(XSP16, 12)
        MOV     ?V0,#0x1
        MOV     ?V1,#0x0
        MOV     R0,#?V0
        LCALL   ?PUSH_XSTACK_I_TWO
          CFI CFA_XSP16 add(XSP16, 14)
        MOV     R4,#0x0
        MOV     R5,#0x0
        MOV     R2,#0x32
        MOV     R3,#0x0
        LCALL   ??osal_nv_read?relay ; Banked call to: osal_nv_read
        MOV     A,#0x4
        LCALL   ?DEALLOC_XSTACK8
          CFI CFA_XSP16 add(XSP16, 10)
// 1785   osal_nv_read( ZCD_NV_CONCENTRATOR_DISCOVERY, 0, sizeof(zgConcentratorDiscoveryTime), &zgConcentratorDiscoveryTime );
        ; Setup parameters for call to function osal_nv_read
        MOV     ?V0,#zgConcentratorDiscoveryTime & 0xff
        MOV     ?V1,#(zgConcentratorDiscoveryTime >> 8) & 0xff
        MOV     R0,#?V0
        LCALL   ?PUSH_XSTACK_I_TWO
          CFI CFA_XSP16 add(XSP16, 12)
        MOV     ?V0,#0x1
        MOV     ?V1,#0x0
        MOV     R0,#?V0
        LCALL   ?PUSH_XSTACK_I_TWO
          CFI CFA_XSP16 add(XSP16, 14)
        MOV     R4,#0x0
        MOV     R5,#0x0
        MOV     R2,#0x33
        MOV     R3,#0x0
        LCALL   ??osal_nv_read?relay ; Banked call to: osal_nv_read
        MOV     A,#0x4
        LCALL   ?DEALLOC_XSTACK8
          CFI CFA_XSP16 add(XSP16, 10)
// 1786 
// 1787   if ( zgConcentratorEnable == TRUE )
        MOV     DPTR,#zgConcentratorEnable
        MOVX    A,@DPTR
        XRL     A,#0x1
        JNZ     ??ZDApp_ForceConcentratorChange_0
// 1788   {
// 1789     // Start next event
// 1790     osal_start_timerEx( NWK_TaskID, NWK_MTO_RTG_REQ_EVT, 100 );
        ; Setup parameters for call to function osal_start_timerEx
        MOV     DPTR,#__Constant_64
        LCALL   ?PUSH_XSTACK8_X_FOUR
          CFI CFA_XSP16 add(XSP16, 14)
        MOV     R2,#0x0
        MOV     R3,#0x8
        MOV     DPTR,#NWK_TaskID
        MOVX    A,@DPTR
        MOV     R1,A
        LCALL   ??osal_start_timerEx?relay; Banked call to: osal_start_timerEx
        MOV     A,#0x4
        LCALL   ?DEALLOC_XSTACK8
          CFI CFA_XSP16 add(XSP16, 10)
        SJMP    ??ZDApp_ForceConcentratorChange_1
// 1791   }
// 1792   else
// 1793   {
// 1794     // Stop the next event
// 1795     osal_stop_timerEx( NWK_TaskID, NWK_MTO_RTG_REQ_EVT );
??ZDApp_ForceConcentratorChange_0:
        ; Setup parameters for call to function osal_stop_timerEx
        MOV     R2,#0x0
        MOV     R3,#0x8
        MOV     DPTR,#NWK_TaskID
        MOVX    A,@DPTR
        MOV     R1,A
        LCALL   ??osal_stop_timerEx?relay; Banked call to: osal_stop_timerEx
// 1796   }
// 1797 }
??ZDApp_ForceConcentratorChange_1:
        LJMP    ??Subroutine51_0 & 0xFFFF
          CFI EndBlock cfiBlock34
// 1798 
// 1799 /*********************************************************************
// 1800  * @fn      ZDApp_ResetNwkKey()
// 1801  *
// 1802  * @brief   Reset the Network key information in NV.
// 1803  *
// 1804  * @param   none
// 1805  *
// 1806  * @return  none
// 1807  */

        RSEG BANKED_CODE:CODE:NOROOT(0)
// 1808 void ZDApp_ResetNwkKey( void )
ZDApp_ResetNwkKey:
          CFI Block cfiBlock35 Using cfiCommon0
          CFI Function ZDApp_ResetNwkKey
        CODE
// 1809 {
        FUNCALL ZDApp_ResetNwkKey, osal_memset
        LOCFRAME ISTACK, 0, STACK
        LOCFRAME PSTACK, 0, STACK
        LOCFRAME XSTACK, 31, STACK
        LOCFRAME IOVERLAY, 0, STATIC
        LOCFRAME DOVERLAY, 0, STATIC
        ARGFRAME ISTACK, 0, STACK
        ARGFRAME PSTACK, 0, STACK
        ARGFRAME XSTACK, 31, STACK
        ARGFRAME IOVERLAY, 0, STATIC
        ARGFRAME DOVERLAY, 0, STATIC
        FUNCALL ZDApp_ResetNwkKey, osal_nv_write
        LOCFRAME ISTACK, 0, STACK
        LOCFRAME PSTACK, 0, STACK
        LOCFRAME XSTACK, 35, STACK
        LOCFRAME IOVERLAY, 0, STATIC
        LOCFRAME DOVERLAY, 0, STATIC
        ARGFRAME ISTACK, 0, STACK
        ARGFRAME PSTACK, 0, STACK
        ARGFRAME XSTACK, 35, STACK
        ARGFRAME IOVERLAY, 0, STATIC
        ARGFRAME DOVERLAY, 0, STATIC
        REQUIRE ?V0
        REQUIRE ?V1
        MOV     A,#-0xa
        LCALL   ?BANKED_ENTER_XDATA
          CFI DPH0 load(1, XDATA, add(CFA_XSP16, literal(-1)))
          CFI DPL0 load(1, XDATA, add(CFA_XSP16, literal(-2)))
          CFI ?BRET_EXT load(1, XDATA, add(CFA_XSP16, literal(-3)))
          CFI ?RET_HIGH load(1, XDATA, add(CFA_XSP16, literal(-4)))
          CFI ?RET_LOW load(1, XDATA, add(CFA_XSP16, literal(-5)))
          CFI R7 load(1, XDATA, add(CFA_XSP16, literal(-6)))
          CFI V1 load(1, XDATA, add(CFA_XSP16, literal(-7)))
          CFI V0 load(1, XDATA, add(CFA_XSP16, literal(-8)))
          CFI VB load(1, XDATA, add(CFA_XSP16, literal(-9)))
          CFI R6 load(1, XDATA, add(CFA_XSP16, literal(-10)))
          CFI CFA_SP SP+0
          CFI CFA_XSP16 add(XSP16, 10)
        ; Saved register size: 10
        ; Auto size: 21
        MOV     A,#-0x15
        LCALL   ?ALLOC_XSTACK8
          CFI CFA_XSP16 add(XSP16, 31)
// 1810   nwkActiveKeyItems keyItems;
// 1811 
// 1812   osal_memset( &keyItems, 0, sizeof( nwkActiveKeyItems ) );
        ; Setup parameters for call to function osal_memset
        MOV     R4,#0x15
        MOV     R5,#0x0
        MOV     R1,#0x0
        MOV     R2,?XSP + 0
        MOV     R3,?XSP + 1
        LCALL   ??osal_memset?relay  ; Banked call to: osal_memset
// 1813   osal_nv_write( ZCD_NV_NWKKEY, 0, sizeof( nwkActiveKeyItems ),
// 1814                 (void *)&keyItems );
        ; Setup parameters for call to function osal_nv_write
        MOV     R0,?XSP + 0
        MOV     R1,?XSP + 1
        MOV     ?V0,R0
        MOV     ?V1,R1
        MOV     R0,#?V0
        LCALL   ?PUSH_XSTACK_I_TWO
          CFI CFA_XSP16 add(XSP16, 33)
        MOV     ?V0,#0x15
        MOV     ?V1,#0x0
        MOV     R0,#?V0
        LCALL   ?PUSH_XSTACK_I_TWO
          CFI CFA_XSP16 add(XSP16, 35)
        MOV     R4,#0x0
        MOV     R5,#0x0
        MOV     R2,#-0x7e
        MOV     R3,#0x0
        LCALL   ??osal_nv_write?relay; Banked call to: osal_nv_write
        MOV     A,#0x4
        LCALL   ?DEALLOC_XSTACK8
          CFI CFA_XSP16 add(XSP16, 31)
// 1815 }
        LJMP    ?Subroutine8 & 0xFFFF
          CFI EndBlock cfiBlock35
// 1816 
// 1817 /*********************************************************************
// 1818  * @fn      ZDApp_RestoreNwkKey(uint8 incrFrmCnt)
// 1819  *
// 1820  * @brief
// 1821  *
// 1822  *   Save off the Network key information.
// 1823  *
// 1824  * @param   incrFrmCnt - set to true if we want to increment the network
// 1825             frame counter, else set to false
// 1826  *
// 1827  * @return  true if restored from NV, false if not
// 1828  */

        RSEG BANKED_CODE:CODE:NOROOT(0)
// 1829 uint8 ZDApp_RestoreNwkKey( uint8 incrFrmCnt )
ZDApp_RestoreNwkKey:
          CFI Block cfiBlock36 Using cfiCommon0
          CFI Function ZDApp_RestoreNwkKey
        CODE
// 1830 {
        FUNCALL ZDApp_RestoreNwkKey, osal_nv_read
        LOCFRAME ISTACK, 0, STACK
        LOCFRAME PSTACK, 0, STACK
        LOCFRAME XSTACK, 53, STACK
        LOCFRAME IOVERLAY, 0, STATIC
        LOCFRAME DOVERLAY, 0, STATIC
        ARGFRAME ISTACK, 0, STACK
        ARGFRAME PSTACK, 0, STACK
        ARGFRAME XSTACK, 53, STACK
        ARGFRAME IOVERLAY, 0, STATIC
        ARGFRAME DOVERLAY, 0, STATIC
        FUNCALL ZDApp_RestoreNwkKey, osal_memset
        LOCFRAME ISTACK, 0, STACK
        LOCFRAME PSTACK, 0, STACK
        LOCFRAME XSTACK, 49, STACK
        LOCFRAME IOVERLAY, 0, STATIC
        LOCFRAME DOVERLAY, 0, STATIC
        ARGFRAME ISTACK, 0, STACK
        ARGFRAME PSTACK, 0, STACK
        ARGFRAME XSTACK, 49, STACK
        ARGFRAME IOVERLAY, 0, STATIC
        ARGFRAME DOVERLAY, 0, STATIC
        FUNCALL ZDApp_RestoreNwkKey, osal_memcmp
        LOCFRAME ISTACK, 0, STACK
        LOCFRAME PSTACK, 0, STACK
        LOCFRAME XSTACK, 52, STACK
        LOCFRAME IOVERLAY, 0, STATIC
        LOCFRAME DOVERLAY, 0, STATIC
        ARGFRAME ISTACK, 0, STACK
        ARGFRAME PSTACK, 0, STACK
        ARGFRAME XSTACK, 52, STACK
        ARGFRAME IOVERLAY, 0, STATIC
        ARGFRAME DOVERLAY, 0, STATIC
        FUNCALL ZDApp_RestoreNwkKey, osal_nv_write
        LOCFRAME ISTACK, 0, STACK
        LOCFRAME PSTACK, 0, STACK
        LOCFRAME XSTACK, 53, STACK
        LOCFRAME IOVERLAY, 0, STATIC
        LOCFRAME DOVERLAY, 0, STATIC
        ARGFRAME ISTACK, 0, STACK
        ARGFRAME PSTACK, 0, STACK
        ARGFRAME XSTACK, 53, STACK
        ARGFRAME IOVERLAY, 0, STATIC
        ARGFRAME DOVERLAY, 0, STATIC
        FUNCALL ZDApp_RestoreNwkKey, osal_memset
        LOCFRAME ISTACK, 0, STACK
        LOCFRAME PSTACK, 0, STACK
        LOCFRAME XSTACK, 49, STACK
        LOCFRAME IOVERLAY, 0, STATIC
        LOCFRAME DOVERLAY, 0, STATIC
        ARGFRAME ISTACK, 0, STACK
        ARGFRAME PSTACK, 0, STACK
        ARGFRAME XSTACK, 49, STACK
        ARGFRAME IOVERLAY, 0, STATIC
        ARGFRAME DOVERLAY, 0, STATIC
        REQUIRE ?V0
        REQUIRE ?V1
        REQUIRE ?V2
        REQUIRE ?V3
        MOV     A,#-0xc
        LCALL   ?BANKED_ENTER_XDATA
          CFI DPH0 load(1, XDATA, add(CFA_XSP16, literal(-1)))
          CFI DPL0 load(1, XDATA, add(CFA_XSP16, literal(-2)))
          CFI ?BRET_EXT load(1, XDATA, add(CFA_XSP16, literal(-3)))
          CFI ?RET_HIGH load(1, XDATA, add(CFA_XSP16, literal(-4)))
          CFI ?RET_LOW load(1, XDATA, add(CFA_XSP16, literal(-5)))
          CFI R7 load(1, XDATA, add(CFA_XSP16, literal(-6)))
          CFI V3 load(1, XDATA, add(CFA_XSP16, literal(-7)))
          CFI V2 load(1, XDATA, add(CFA_XSP16, literal(-8)))
          CFI V1 load(1, XDATA, add(CFA_XSP16, literal(-9)))
          CFI V0 load(1, XDATA, add(CFA_XSP16, literal(-10)))
          CFI VB load(1, XDATA, add(CFA_XSP16, literal(-11)))
          CFI R6 load(1, XDATA, add(CFA_XSP16, literal(-12)))
          CFI CFA_SP SP+0
          CFI CFA_XSP16 add(XSP16, 12)
        ; Saved register size: 12
        ; Auto size: 37
        MOV     A,#-0x25
        LCALL   ?ALLOC_XSTACK8
          CFI CFA_XSP16 add(XSP16, 49)
        MOV     A,R1
        MOV     R6,A
// 1831   nwkActiveKeyItems keyItems;
// 1832   uint8 ret = FALSE;
        MOV     R7,#0x0
// 1833 
// 1834   // Restore the key information
// 1835   if ( osal_nv_read( ZCD_NV_NWKKEY, 0, sizeof(nwkActiveKeyItems), (void*)&keyItems )
// 1836       == ZSUCCESS )
        ; Setup parameters for call to function osal_nv_read
        MOV     R0,?XSP + 0
        MOV     R1,?XSP + 1
        MOV     ?V0,R0
        MOV     ?V1,R1
        MOV     R0,#?V0
        LCALL   ?PUSH_XSTACK_I_TWO
          CFI CFA_XSP16 add(XSP16, 51)
        MOV     ?V0,#0x15
        MOV     ?V1,R7
        MOV     R0,#?V0
        LCALL   ?PUSH_XSTACK_I_TWO
          CFI CFA_XSP16 add(XSP16, 53)
        MOV     R4,#0x0
        MOV     R5,#0x0
        MOV     R2,#-0x7e
        MOV     R3,#0x0
        LCALL   ??osal_nv_read?relay ; Banked call to: osal_nv_read
        MOV     A,#0x4
        LCALL   ?DEALLOC_XSTACK8
          CFI CFA_XSP16 add(XSP16, 49)
        MOV     A,R1
        JZ      $+5
        LJMP    ??ZDApp_RestoreNwkKey_0 & 0xFFFF
// 1837   {
// 1838     uint8 nullKey[SEC_KEY_LEN];
// 1839 
// 1840     // initialize default value to compare to
// 1841     osal_memset( nullKey, 0x00, SEC_KEY_LEN );
        ; Setup parameters for call to function osal_memset
        MOV     R4,#0x10
        MOV     R5,#0x0
        MOV     R1,#0x0
        MOV     A,#0x15
        LCALL   ?XSTACK_DISP101_8
        LCALL   ??osal_memset?relay  ; Banked call to: osal_memset
// 1842 
// 1843     // if stored key is different than default value, then a key has been established
// 1844     if ( !osal_memcmp( keyItems.active.key, nullKey, SEC_KEY_LEN ) )
        ; Setup parameters for call to function osal_memcmp
        MOV     A,#0x15
        LCALL   ?XSTACK_DISP100_8
        MOV     ?V0,R0
        MOV     ?V1,R1
        MOV     ?V2,R7
        MOV     R0,#?V0
        LCALL   ?PUSH_XSTACK_I_THREE
          CFI CFA_XSP16 add(XSP16, 52)
        MOV     R4,#0x10
        MOV     R5,#0x0
        MOV     A,#0x4
        LCALL   ?XSTACK_DISP0_8
        MOV     R1,DPL
        MOV     R2,DPH
        MOV     R3,#0x0
        LCALL   ??osal_memcmp?relay  ; Banked call to: osal_memcmp
        MOV     A,#0x3
        LCALL   ?DEALLOC_XSTACK8
          CFI CFA_XSP16 add(XSP16, 49)
        MOV     A,R1
        JNZ     ??ZDApp_RestoreNwkKey_0
// 1845     {
// 1846       if ( incrFrmCnt )
        MOV     A,R6
        JZ      ??ZDApp_RestoreNwkKey_1
// 1847       {
// 1848         // Increment the frame counter stored in NV
// 1849         keyItems.frameCounter += ( MAX_NWK_FRAMECOUNTER_CHANGES +
// 1850                                   NWK_FRAMECOUNTER_CHANGES_RESTORE_DELTA );
        MOV     DPTR,#__Constant_4e2
        MOV     R0,#?V0
        LCALL   ?L_MOV_X
        MOV     A,#0x11
        LCALL   ?XSTACK_DISP0_8
        MOV     R0,#?V0
        LCALL   ?L_ADD_TO_X
// 1851 
// 1852         nwkFrameCounter = keyItems.frameCounter;
        MOV     A,#0x11
        LCALL   ?XSTACK_DISP0_8
        LCALL   ?XLOAD_R0123
        MOV     DPTR,#nwkFrameCounter
        LCALL   ?XSTORE_R0123
// 1853 
// 1854         // Save the updated Frame Counter right away
// 1855         osal_nv_write( ZCD_NV_NWKKEY, 0, sizeof( nwkActiveKeyItems ),
// 1856                       (void *)&keyItems );
        ; Setup parameters for call to function osal_nv_write
        MOV     R0,?XSP + 0
        MOV     R1,?XSP + 1
        MOV     ?V0,R0
        MOV     ?V1,R1
        MOV     R0,#?V0
        LCALL   ?PUSH_XSTACK_I_TWO
          CFI CFA_XSP16 add(XSP16, 51)
        MOV     ?V0,#0x15
        MOV     ?V1,R7
        MOV     R0,#?V0
        LCALL   ?PUSH_XSTACK_I_TWO
          CFI CFA_XSP16 add(XSP16, 53)
        MOV     R4,#0x0
        MOV     R5,#0x0
        MOV     R2,#-0x7e
        MOV     R3,#0x0
        LCALL   ??osal_nv_write?relay; Banked call to: osal_nv_write
        MOV     A,#0x4
        LCALL   ?DEALLOC_XSTACK8
          CFI CFA_XSP16 add(XSP16, 49)
// 1857 
// 1858         nwkFrameCounterChanges = 0;
        MOV     DPTR,#nwkFrameCounterChanges
        CLR     A
        MOVX    @DPTR,A
        INC     DPTR
        MOVX    @DPTR,A
// 1859       }
// 1860 
// 1861       ret = TRUE;
??ZDApp_RestoreNwkKey_1:
        MOV     R7,#0x1
// 1862 
// 1863       // Clear copy in RAM before return.
// 1864       osal_memset( &keyItems, 0x00, sizeof(keyItems) );
        ; Setup parameters for call to function osal_memset
        MOV     R4,#0x15
        MOV     R5,#0x0
        MOV     R1,#0x0
        MOV     R2,?XSP + 0
        MOV     R3,?XSP + 1
        LCALL   ??osal_memset?relay  ; Banked call to: osal_memset
// 1865     }
// 1866   }
// 1867 
// 1868   return ( ret );
??ZDApp_RestoreNwkKey_0:
        MOV     A,R7
        MOV     R1,A
        MOV     A,#0x25
        LJMP    ??Subroutine53_0 & 0xFFFF
          CFI EndBlock cfiBlock36
// 1869 }
// 1870 
// 1871 /*********************************************************************
// 1872  * @fn      ZDApp_ResetTimerStart
// 1873  *
// 1874  * @brief   Start the reset timer.
// 1875  *
// 1876  * @param   delay - delay time(ms) before reset
// 1877  *
// 1878  * @return  none
// 1879  */

        RSEG BANKED_CODE:CODE:NOROOT(0)
// 1880 void ZDApp_ResetTimerStart( uint16 delay )
ZDApp_ResetTimerStart:
          CFI Block cfiBlock37 Using cfiCommon0
          CFI Function ZDApp_ResetTimerStart
        CODE
// 1881 {
        FUNCALL ZDApp_ResetTimerStart, osal_get_timeoutEx
        LOCFRAME ISTACK, 0, STACK
        LOCFRAME PSTACK, 0, STACK
        LOCFRAME XSTACK, 12, STACK
        LOCFRAME IOVERLAY, 0, STATIC
        LOCFRAME DOVERLAY, 0, STATIC
        ARGFRAME ISTACK, 0, STACK
        ARGFRAME PSTACK, 0, STACK
        ARGFRAME XSTACK, 12, STACK
        ARGFRAME IOVERLAY, 0, STATIC
        ARGFRAME DOVERLAY, 0, STATIC
        FUNCALL ZDApp_ResetTimerStart, osal_start_timerEx
        LOCFRAME ISTACK, 0, STACK
        LOCFRAME PSTACK, 0, STACK
        LOCFRAME XSTACK, 16, STACK
        LOCFRAME IOVERLAY, 0, STATIC
        LOCFRAME DOVERLAY, 0, STATIC
        ARGFRAME ISTACK, 0, STACK
        ARGFRAME PSTACK, 0, STACK
        ARGFRAME XSTACK, 16, STACK
        ARGFRAME IOVERLAY, 0, STATIC
        ARGFRAME DOVERLAY, 0, STATIC
        REQUIRE ?V0
        REQUIRE ?V1
        REQUIRE ?V2
        REQUIRE ?V3
        MOV     A,#-0xc
        LCALL   ?BANKED_ENTER_XDATA
          CFI DPH0 load(1, XDATA, add(CFA_XSP16, literal(-1)))
          CFI DPL0 load(1, XDATA, add(CFA_XSP16, literal(-2)))
          CFI ?BRET_EXT load(1, XDATA, add(CFA_XSP16, literal(-3)))
          CFI ?RET_HIGH load(1, XDATA, add(CFA_XSP16, literal(-4)))
          CFI ?RET_LOW load(1, XDATA, add(CFA_XSP16, literal(-5)))
          CFI R7 load(1, XDATA, add(CFA_XSP16, literal(-6)))
          CFI V3 load(1, XDATA, add(CFA_XSP16, literal(-7)))
          CFI V2 load(1, XDATA, add(CFA_XSP16, literal(-8)))
          CFI V1 load(1, XDATA, add(CFA_XSP16, literal(-9)))
          CFI V0 load(1, XDATA, add(CFA_XSP16, literal(-10)))
          CFI VB load(1, XDATA, add(CFA_XSP16, literal(-11)))
          CFI R6 load(1, XDATA, add(CFA_XSP16, literal(-12)))
          CFI CFA_SP SP+0
          CFI CFA_XSP16 add(XSP16, 12)
        ; Saved register size: 12
        ; Auto size: 0
        MOV     ?V0,R2
        MOV     ?V1,R3
// 1882   if ( !osal_get_timeoutEx( ZDAppTaskID, ZDO_DEVICE_RESET ) )
        ; Setup parameters for call to function osal_get_timeoutEx
        MOV     R2,#0x4
        MOV     R3,#0x0
        MOV     DPTR,#ZDAppTaskID
        MOVX    A,@DPTR
        MOV     R1,A
        LCALL   ??osal_get_timeoutEx?relay; Banked call to: osal_get_timeoutEx
        MOV     A,R2
        ORL     A,R3
        ORL     A,R4
        ORL     A,R5
        JNZ     ??ZDApp_ResetTimerStart_0
// 1883   {
// 1884     // Start the rest timer
// 1885     osal_start_timerEx( ZDAppTaskID, ZDO_DEVICE_RESET, delay );
        ; Setup parameters for call to function osal_start_timerEx
        CLR     A
        MOV     ?V2,A
        MOV     ?V3,A
        MOV     R0,#?V0
        LCALL   ?PUSH_XSTACK_I_FOUR
          CFI CFA_XSP16 add(XSP16, 16)
        MOV     R2,#0x4
        MOV     R3,#0x0
        MOV     DPTR,#ZDAppTaskID
        MOVX    A,@DPTR
        MOV     R1,A
        LCALL   ??osal_start_timerEx?relay; Banked call to: osal_start_timerEx
        MOV     A,#0x4
        LCALL   ?DEALLOC_XSTACK8
          CFI CFA_XSP16 add(XSP16, 12)
// 1886   }
// 1887 }
??ZDApp_ResetTimerStart_0:
        LJMP    ??Subroutine54_0 & 0xFFFF
          CFI EndBlock cfiBlock37
// 1888 
// 1889 /*********************************************************************
// 1890  * @fn      ZDApp_ResetTimerCancel
// 1891  *
// 1892  * @brief   Cancel the reset timer.
// 1893  *
// 1894  * @param   none
// 1895  *
// 1896  * @return  none
// 1897  */

        RSEG BANKED_CODE:CODE:NOROOT(0)
// 1898 void ZDApp_ResetTimerCancel( void )
ZDApp_ResetTimerCancel:
          CFI Block cfiBlock38 Using cfiCommon0
          CFI Function ZDApp_ResetTimerCancel
        CODE
// 1899 {
        FUNCALL ZDApp_ResetTimerCancel, osal_stop_timerEx
        LOCFRAME ISTACK, 2, STACK
        LOCFRAME PSTACK, 0, STACK
        LOCFRAME XSTACK, 0, STACK
        LOCFRAME IOVERLAY, 0, STATIC
        LOCFRAME DOVERLAY, 0, STATIC
        ARGFRAME ISTACK, 2, STACK
        ARGFRAME PSTACK, 0, STACK
        ARGFRAME XSTACK, 0, STACK
        ARGFRAME IOVERLAY, 0, STATIC
        ARGFRAME DOVERLAY, 0, STATIC
        FUNCALL ZDApp_ResetTimerCancel, osal_clear_event
        LOCFRAME ISTACK, 2, STACK
        LOCFRAME PSTACK, 0, STACK
        LOCFRAME XSTACK, 0, STACK
        LOCFRAME IOVERLAY, 0, STATIC
        LOCFRAME DOVERLAY, 0, STATIC
        ARGFRAME ISTACK, 2, STACK
        ARGFRAME PSTACK, 0, STACK
        ARGFRAME XSTACK, 0, STACK
        ARGFRAME IOVERLAY, 0, STATIC
        ARGFRAME DOVERLAY, 0, STATIC
        PUSH    DPL
          CFI DPL0 Frame(CFA_SP, 4)
          CFI CFA_SP SP+-4
        PUSH    DPH
          CFI DPH0 Frame(CFA_SP, 5)
          CFI CFA_SP SP+-5
        ; Saved register size: 2
        ; Auto size: 0
// 1900   (void)osal_stop_timerEx(ZDAppTaskID, ZDO_DEVICE_RESET);
        ; Setup parameters for call to function osal_stop_timerEx
        MOV     R2,#0x4
        MOV     R3,#0x0
        MOV     DPTR,#ZDAppTaskID
        MOVX    A,@DPTR
        MOV     R1,A
        LCALL   ??osal_stop_timerEx?relay; Banked call to: osal_stop_timerEx
// 1901   (void)osal_clear_event(ZDAppTaskID, ZDO_DEVICE_RESET);
        ; Setup parameters for call to function osal_clear_event
        MOV     R2,#0x4
        MOV     R3,#0x0
        MOV     DPTR,#ZDAppTaskID
        MOVX    A,@DPTR
        MOV     R1,A
        LCALL   ??osal_clear_event?relay; Banked call to: osal_clear_event
// 1902 }
        LJMP    ??Subroutine40_0 & 0xFFFF
          CFI EndBlock cfiBlock38
// 1903 
// 1904 /*********************************************************************
// 1905  * @fn      ZDApp_LeaveCtrlInit
// 1906  *
// 1907  * @brief   Initialize the leave control logic.
// 1908  *
// 1909  * @param   none
// 1910  *
// 1911  * @return  none
// 1912  */

        RSEG BANKED_CODE:CODE:NOROOT(0)
// 1913 void ZDApp_LeaveCtrlInit( void )
ZDApp_LeaveCtrlInit:
          CFI Block cfiBlock39 Using cfiCommon0
          CFI Function ZDApp_LeaveCtrlInit
        CODE
// 1914 {
        FUNCALL ZDApp_LeaveCtrlInit, osal_nv_item_init
        LOCFRAME ISTACK, 0, STACK
        LOCFRAME PSTACK, 0, STACK
        LOCFRAME XSTACK, 12, STACK
        LOCFRAME IOVERLAY, 0, STATIC
        LOCFRAME DOVERLAY, 0, STATIC
        ARGFRAME ISTACK, 0, STACK
        ARGFRAME PSTACK, 0, STACK
        ARGFRAME XSTACK, 12, STACK
        ARGFRAME IOVERLAY, 0, STATIC
        ARGFRAME DOVERLAY, 0, STATIC
        FUNCALL ZDApp_LeaveCtrlInit, osal_nv_read
        LOCFRAME ISTACK, 0, STACK
        LOCFRAME PSTACK, 0, STACK
        LOCFRAME XSTACK, 14, STACK
        LOCFRAME IOVERLAY, 0, STATIC
        LOCFRAME DOVERLAY, 0, STATIC
        ARGFRAME ISTACK, 0, STACK
        ARGFRAME PSTACK, 0, STACK
        ARGFRAME XSTACK, 14, STACK
        ARGFRAME IOVERLAY, 0, STATIC
        ARGFRAME DOVERLAY, 0, STATIC
        REQUIRE ?V0
        REQUIRE ?V1
        MOV     A,#-0xa
        LCALL   ?BANKED_ENTER_XDATA
          CFI DPH0 load(1, XDATA, add(CFA_XSP16, literal(-1)))
          CFI DPL0 load(1, XDATA, add(CFA_XSP16, literal(-2)))
          CFI ?BRET_EXT load(1, XDATA, add(CFA_XSP16, literal(-3)))
          CFI ?RET_HIGH load(1, XDATA, add(CFA_XSP16, literal(-4)))
          CFI ?RET_LOW load(1, XDATA, add(CFA_XSP16, literal(-5)))
          CFI R7 load(1, XDATA, add(CFA_XSP16, literal(-6)))
          CFI V1 load(1, XDATA, add(CFA_XSP16, literal(-7)))
          CFI V0 load(1, XDATA, add(CFA_XSP16, literal(-8)))
          CFI VB load(1, XDATA, add(CFA_XSP16, literal(-9)))
          CFI R6 load(1, XDATA, add(CFA_XSP16, literal(-10)))
          CFI CFA_SP SP+0
          CFI CFA_XSP16 add(XSP16, 10)
        ; Saved register size: 10
        ; Auto size: 0
// 1915   uint8 status;
// 1916 
// 1917 
// 1918   // Initialize control state
// 1919   ZDApp_LeaveCtrl = ZDAPP_LEAVE_CTRL_INIT;
        MOV     DPTR,#ZDApp_LeaveCtrl
        CLR     A
        MOVX    @DPTR,A
// 1920 
// 1921   status = osal_nv_item_init( ZCD_NV_LEAVE_CTRL,
// 1922                               sizeof(ZDApp_LeaveCtrl),
// 1923                               &ZDApp_LeaveCtrl );
// 1924 
// 1925   if ( status == ZSUCCESS )
        ; Setup parameters for call to function osal_nv_item_init
        MOV     ?V0,#ZDApp_LeaveCtrl & 0xff
        MOV     ?V1,#(ZDApp_LeaveCtrl >> 8) & 0xff
        MOV     R0,#?V0
        LCALL   ?PUSH_XSTACK_I_TWO
          CFI CFA_XSP16 add(XSP16, 12)
        MOV     R4,#0x1
        MOV     R5,#0x0
        MOV     R2,#-0x7b
        MOV     R3,#0x0
        LCALL   ??osal_nv_item_init?relay; Banked call to: osal_nv_item_init
        MOV     A,#0x2
        LCALL   ?DEALLOC_XSTACK8
          CFI CFA_XSP16 add(XSP16, 10)
        MOV     A,R1
        JNZ     ??ZDApp_LeaveCtrlInit_0
// 1926   {
// 1927     // Read saved control
// 1928     osal_nv_read( ZCD_NV_LEAVE_CTRL,
// 1929                   0,
// 1930                   sizeof( uint8 ),
// 1931                   &ZDApp_LeaveCtrl);
        ; Setup parameters for call to function osal_nv_read
        MOV     R0,#?V0
        LCALL   ?PUSH_XSTACK_I_TWO
          CFI CFA_XSP16 add(XSP16, 12)
        MOV     ?V0,#0x1
        MOV     ?V1,#0x0
        MOV     R0,#?V0
        LCALL   ?PUSH_XSTACK_I_TWO
          CFI CFA_XSP16 add(XSP16, 14)
        MOV     R4,#0x0
        MOV     R5,#0x0
        MOV     R2,#-0x7b
        MOV     R3,#0x0
        LCALL   ??osal_nv_read?relay ; Banked call to: osal_nv_read
        MOV     A,#0x4
        LCALL   ?DEALLOC_XSTACK8
          CFI CFA_XSP16 add(XSP16, 10)
// 1932   }
// 1933 }
??ZDApp_LeaveCtrlInit_0:
        LJMP    ??Subroutine51_0 & 0xFFFF
          CFI EndBlock cfiBlock39
// 1934 
// 1935 /*********************************************************************
// 1936  * @fn      ZDApp_LeaveCtrlSet
// 1937  *
// 1938  * @brief   Set the leave control logic.
// 1939  *
// 1940  * @param   ra - reassociate flag
// 1941  *
// 1942  * @return  none
// 1943  */

        RSEG BANKED_CODE:CODE:NOROOT(0)
// 1944 void ZDApp_LeaveCtrlSet( uint8 ra )
ZDApp_LeaveCtrlSet:
          CFI Block cfiBlock40 Using cfiCommon0
          CFI Function ZDApp_LeaveCtrlSet
        CODE
// 1945 {
        FUNCALL ZDApp_LeaveCtrlSet, osal_nv_write
        LOCFRAME ISTACK, 0, STACK
        LOCFRAME PSTACK, 0, STACK
        LOCFRAME XSTACK, 14, STACK
        LOCFRAME IOVERLAY, 0, STATIC
        LOCFRAME DOVERLAY, 0, STATIC
        ARGFRAME ISTACK, 0, STACK
        ARGFRAME PSTACK, 0, STACK
        ARGFRAME XSTACK, 14, STACK
        ARGFRAME IOVERLAY, 0, STATIC
        ARGFRAME DOVERLAY, 0, STATIC
        REQUIRE ?V0
        REQUIRE ?V1
        MOV     A,#-0xa
        LCALL   ?BANKED_ENTER_XDATA
          CFI DPH0 load(1, XDATA, add(CFA_XSP16, literal(-1)))
          CFI DPL0 load(1, XDATA, add(CFA_XSP16, literal(-2)))
          CFI ?BRET_EXT load(1, XDATA, add(CFA_XSP16, literal(-3)))
          CFI ?RET_HIGH load(1, XDATA, add(CFA_XSP16, literal(-4)))
          CFI ?RET_LOW load(1, XDATA, add(CFA_XSP16, literal(-5)))
          CFI R7 load(1, XDATA, add(CFA_XSP16, literal(-6)))
          CFI V1 load(1, XDATA, add(CFA_XSP16, literal(-7)))
          CFI V0 load(1, XDATA, add(CFA_XSP16, literal(-8)))
          CFI VB load(1, XDATA, add(CFA_XSP16, literal(-9)))
          CFI R6 load(1, XDATA, add(CFA_XSP16, literal(-10)))
          CFI CFA_SP SP+0
          CFI CFA_XSP16 add(XSP16, 10)
        ; Saved register size: 10
        ; Auto size: 0
        MOV     A,R1
        MOV     R6,A
// 1946   ZDApp_LeaveCtrl = ZDAPP_LEAVE_CTRL_SET;
        MOV     DPTR,#ZDApp_LeaveCtrl
        MOV     A,#0x1
        MOVX    @DPTR,A
// 1947 
// 1948   if ( ra == TRUE )
        XRL     A,R6
        JNZ     ??ZDApp_LeaveCtrlSet_0
// 1949   {
// 1950     ZDApp_LeaveCtrl |= ZDAPP_LEAVE_CTRL_RA;
        MOV     A,#0x3
        MOVX    @DPTR,A
// 1951   }
// 1952 
// 1953   // Write the leave control
// 1954   osal_nv_write( ZCD_NV_LEAVE_CTRL,
// 1955                  0,
// 1956                  sizeof( uint8 ),
// 1957                  &ZDApp_LeaveCtrl);
??ZDApp_LeaveCtrlSet_0:
        ; Setup parameters for call to function osal_nv_write
        LJMP    ?Subroutine4 & 0xFFFF
          CFI EndBlock cfiBlock40
// 1958 }
// 1959 
// 1960 /*********************************************************************
// 1961  * @fn      ZDApp_LeaveCtrlReset
// 1962  *
// 1963  * @brief   Re-initialize the leave control logic.
// 1964  *
// 1965  * @param   none
// 1966  *
// 1967  * @return  none
// 1968  */

        RSEG BANKED_CODE:CODE:NOROOT(0)
// 1969 void ZDApp_LeaveCtrlReset( void )
ZDApp_LeaveCtrlReset:
          CFI Block cfiBlock41 Using cfiCommon0
          CFI Function ZDApp_LeaveCtrlReset
        CODE
// 1970 {
        FUNCALL ZDApp_LeaveCtrlReset, osal_nv_write
        LOCFRAME ISTACK, 0, STACK
        LOCFRAME PSTACK, 0, STACK
        LOCFRAME XSTACK, 14, STACK
        LOCFRAME IOVERLAY, 0, STATIC
        LOCFRAME DOVERLAY, 0, STATIC
        ARGFRAME ISTACK, 0, STACK
        ARGFRAME PSTACK, 0, STACK
        ARGFRAME XSTACK, 14, STACK
        ARGFRAME IOVERLAY, 0, STATIC
        ARGFRAME DOVERLAY, 0, STATIC
        REQUIRE ?V0
        REQUIRE ?V1
        MOV     A,#-0xa
        LCALL   ?BANKED_ENTER_XDATA
          CFI DPH0 load(1, XDATA, add(CFA_XSP16, literal(-1)))
          CFI DPL0 load(1, XDATA, add(CFA_XSP16, literal(-2)))
          CFI ?BRET_EXT load(1, XDATA, add(CFA_XSP16, literal(-3)))
          CFI ?RET_HIGH load(1, XDATA, add(CFA_XSP16, literal(-4)))
          CFI ?RET_LOW load(1, XDATA, add(CFA_XSP16, literal(-5)))
          CFI R7 load(1, XDATA, add(CFA_XSP16, literal(-6)))
          CFI V1 load(1, XDATA, add(CFA_XSP16, literal(-7)))
          CFI V0 load(1, XDATA, add(CFA_XSP16, literal(-8)))
          CFI VB load(1, XDATA, add(CFA_XSP16, literal(-9)))
          CFI R6 load(1, XDATA, add(CFA_XSP16, literal(-10)))
          CFI CFA_SP SP+0
          CFI CFA_XSP16 add(XSP16, 10)
        ; Saved register size: 10
        ; Auto size: 0
// 1971   // Set leave control to initialized state
// 1972   ZDApp_LeaveCtrl = ZDAPP_LEAVE_CTRL_INIT;
        MOV     DPTR,#ZDApp_LeaveCtrl
        CLR     A
        MOVX    @DPTR,A
// 1973 
// 1974   // Write initialized control
// 1975   osal_nv_write( ZCD_NV_LEAVE_CTRL,
// 1976                 0,
// 1977                 sizeof( uint8 ),
// 1978                 &ZDApp_LeaveCtrl);
        ; Setup parameters for call to function osal_nv_write
        LJMP    ?Subroutine4 & 0xFFFF
          CFI EndBlock cfiBlock41
// 1979 }
// 1980 
// 1981 /*********************************************************************
// 1982  * @fn      ZDApp_LeaveCtrlBypass
// 1983  *
// 1984  * @brief   Check if NV restore should be skipped during a leave reset.
// 1985  *
// 1986  * @param   none
// 1987  *
// 1988  * @return  uint8 - (TRUE bypass:FALSE do not bypass)
// 1989  */

        RSEG BANKED_CODE:CODE:NOROOT(0)
// 1990 uint8 ZDApp_LeaveCtrlBypass( void )
ZDApp_LeaveCtrlBypass:
          CFI Block cfiBlock42 Using cfiCommon0
          CFI Function ZDApp_LeaveCtrlBypass
        CODE
// 1991 {
        PUSH    DPL
          CFI DPL0 Frame(CFA_SP, 4)
          CFI CFA_SP SP+-4
        PUSH    DPH
          CFI DPH0 Frame(CFA_SP, 5)
          CFI CFA_SP SP+-5
        ; Saved register size: 2
        ; Auto size: 0
// 1992   uint8 bypass;
// 1993 
// 1994   if ( ZDApp_LeaveCtrl & ZDAPP_LEAVE_CTRL_SET )
// 1995   {
// 1996     bypass = TRUE;
// 1997   }
// 1998   else
// 1999   {
// 2000     bypass = FALSE;
// 2001   }
// 2002 
// 2003   return bypass;
        MOV     DPTR,#ZDApp_LeaveCtrl
        MOVX    A,@DPTR
        MOV     C,0xE0 /* A   */.0
        CLR     A
        RLC     A
        MOV     R1,A
        SJMP    ??Subroutine40_0
          CFI EndBlock cfiBlock42
// 2004 }
// 2005 
// 2006 /*********************************************************************
// 2007  * @fn      ZDApp_LeaveCtrlStartup
// 2008  *
// 2009  * @brief   Check for startup conditions during a leave reset.
// 2010  *
// 2011  * @param   state      - devState_t determined by leave control logic
// 2012  * @param   startDelay - startup delay
// 2013  *
// 2014  * @return  none
// 2015  */

        RSEG BANKED_CODE:CODE:NOROOT(0)
// 2016 void ZDApp_LeaveCtrlStartup( devStates_t* state, uint16* startDelay )
ZDApp_LeaveCtrlStartup:
          CFI Block cfiBlock43 Using cfiCommon0
          CFI Function ZDApp_LeaveCtrlStartup
        CODE
// 2017 {
        FUNCALL ZDApp_LeaveCtrlStartup, ZDApp_LeaveCtrlReset
        LOCFRAME ISTACK, 2, STACK
        LOCFRAME PSTACK, 0, STACK
        LOCFRAME XSTACK, 0, STACK
        LOCFRAME IOVERLAY, 0, STATIC
        LOCFRAME DOVERLAY, 0, STATIC
        ARGFRAME ISTACK, 2, STACK
        ARGFRAME PSTACK, 0, STACK
        ARGFRAME XSTACK, 0, STACK
        ARGFRAME IOVERLAY, 0, STATIC
        ARGFRAME DOVERLAY, 0, STATIC
        PUSH    DPL
          CFI DPL0 Frame(CFA_SP, 4)
          CFI CFA_SP SP+-4
        PUSH    DPH
          CFI DPH0 Frame(CFA_SP, 5)
          CFI CFA_SP SP+-5
        ; Saved register size: 2
        ; Auto size: 0
// 2018   *startDelay = 0;
        MOV     DPL,R4
        MOV     DPH,R5
        CLR     A
        MOVX    @DPTR,A
        INC     DPTR
        MOVX    @DPTR,A
// 2019 
// 2020   if ( ZDApp_LeaveCtrl & ZDAPP_LEAVE_CTRL_SET )
        MOV     DPTR,#ZDApp_LeaveCtrl
        MOVX    A,@DPTR
        MOV     C,0xE0 /* A   */.0
        JNC     ??ZDApp_LeaveCtrlStartup_0
// 2021   {
// 2022     if ( ZDApp_LeaveCtrl & ZDAPP_LEAVE_CTRL_RA )
        MOV     C,0xE0 /* A   */.1
        JNC     ??ZDApp_LeaveCtrlStartup_1
// 2023     {
// 2024       *startDelay = LEAVE_RESET_DELAY;
        MOV     DPL,R4
        MOV     DPH,R5
        MOV     A,#-0x78
        MOVX    @DPTR,A
        INC     DPTR
        MOV     A,#0x13
        SJMP    ??ZDApp_LeaveCtrlStartup_2
// 2025     }
// 2026     else
// 2027     {
// 2028       *state = DEV_HOLD;
??ZDApp_LeaveCtrlStartup_1:
        MOV     DPL,R2
        MOV     DPH,R3
        CLR     A
??ZDApp_LeaveCtrlStartup_2:
        MOVX    @DPTR,A
// 2029     }
// 2030 
// 2031     // Reset leave control logic
// 2032     ZDApp_LeaveCtrlReset();
        ; Setup parameters for call to function ZDApp_LeaveCtrlReset
        LCALL   ??ZDApp_LeaveCtrlReset?relay; Banked call to: ZDApp_LeaveCtrlReset
// 2033   }
// 2034 }
??ZDApp_LeaveCtrlStartup_0:
        SJMP    ??Subroutine40_0
          CFI EndBlock cfiBlock43

        RSEG BANKED_CODE:CODE:NOROOT(0)
?Subroutine3:
          CFI Block cfiBlock44 Using cfiCommon0
          CFI NoFunction
          CFI CFA_SP SP+-5
          CFI CFA_XSP16 add(XSP16, 3)
          CFI DPL0 Frame(CFA_SP, 4)
          CFI DPH0 Frame(CFA_SP, 5)
          CFI Invalid
        LCALL   ?DEALLOC_XSTACK8
          CFI EndBlock cfiBlock44
        REQUIRE ??Subroutine40_0
        ; // Fall through to label ??Subroutine40_0

        RSEG BANKED_CODE:CODE:NOROOT(0)
??Subroutine40_0:
          CFI Block cfiBlock45 Using cfiCommon0
          CFI NoFunction
          CFI CFA_SP SP+-5
          CFI DPL0 Frame(CFA_SP, 4)
          CFI DPH0 Frame(CFA_SP, 5)
        POP     DPH
          CFI CFA_SP SP+-4
          CFI DPH0 SameValue
        POP     DPL
          CFI CFA_SP SP+-3
          CFI DPL0 SameValue
        LJMP    ?BRET
          CFI EndBlock cfiBlock45
// 2035 
// 2036 /*********************************************************************
// 2037  * @fn      ZDApp_LeaveReset
// 2038  *
// 2039  * @brief   Setup a device reset due to a leave indication/confirm.
// 2040  *
// 2041  * @param   ra - reassociate flag
// 2042  *
// 2043  * @return  none
// 2044  */

        RSEG BANKED_CODE:CODE:NOROOT(0)
// 2045 void ZDApp_LeaveReset( uint8 ra )
ZDApp_LeaveReset:
          CFI Block cfiBlock46 Using cfiCommon0
          CFI Function ZDApp_LeaveReset
        CODE
// 2046 {
        FUNCALL ZDApp_LeaveReset, ZDApp_LeaveCtrlSet
        LOCFRAME ISTACK, 0, STACK
        LOCFRAME PSTACK, 0, STACK
        LOCFRAME XSTACK, 10, STACK
        LOCFRAME IOVERLAY, 0, STATIC
        LOCFRAME DOVERLAY, 0, STATIC
        ARGFRAME ISTACK, 0, STACK
        ARGFRAME PSTACK, 0, STACK
        ARGFRAME XSTACK, 10, STACK
        ARGFRAME IOVERLAY, 0, STATIC
        ARGFRAME DOVERLAY, 0, STATIC
        FUNCALL ZDApp_LeaveReset, APSME_HoldDataRequests
        LOCFRAME ISTACK, 0, STACK
        LOCFRAME PSTACK, 0, STACK
        LOCFRAME XSTACK, 10, STACK
        LOCFRAME IOVERLAY, 0, STATIC
        LOCFRAME DOVERLAY, 0, STATIC
        ARGFRAME ISTACK, 0, STACK
        ARGFRAME PSTACK, 0, STACK
        ARGFRAME XSTACK, 10, STACK
        ARGFRAME IOVERLAY, 0, STATIC
        ARGFRAME DOVERLAY, 0, STATIC
        FUNCALL ZDApp_LeaveReset, NLME_SetPollRate
        LOCFRAME ISTACK, 0, STACK
        LOCFRAME PSTACK, 0, STACK
        LOCFRAME XSTACK, 10, STACK
        LOCFRAME IOVERLAY, 0, STATIC
        LOCFRAME DOVERLAY, 0, STATIC
        ARGFRAME ISTACK, 0, STACK
        ARGFRAME PSTACK, 0, STACK
        ARGFRAME XSTACK, 10, STACK
        ARGFRAME IOVERLAY, 0, STATIC
        ARGFRAME DOVERLAY, 0, STATIC
        FUNCALL ZDApp_LeaveReset, NLME_SetResponseRate
        LOCFRAME ISTACK, 0, STACK
        LOCFRAME PSTACK, 0, STACK
        LOCFRAME XSTACK, 10, STACK
        LOCFRAME IOVERLAY, 0, STATIC
        LOCFRAME DOVERLAY, 0, STATIC
        ARGFRAME ISTACK, 0, STACK
        ARGFRAME PSTACK, 0, STACK
        ARGFRAME XSTACK, 10, STACK
        ARGFRAME IOVERLAY, 0, STATIC
        ARGFRAME DOVERLAY, 0, STATIC
        FUNCALL ZDApp_LeaveReset, NLME_SetQueuedPollRate
        LOCFRAME ISTACK, 0, STACK
        LOCFRAME PSTACK, 0, STACK
        LOCFRAME XSTACK, 10, STACK
        LOCFRAME IOVERLAY, 0, STATIC
        LOCFRAME DOVERLAY, 0, STATIC
        ARGFRAME ISTACK, 0, STACK
        ARGFRAME PSTACK, 0, STACK
        ARGFRAME XSTACK, 10, STACK
        ARGFRAME IOVERLAY, 0, STATIC
        ARGFRAME DOVERLAY, 0, STATIC
        FUNCALL ZDApp_LeaveReset, sAddrExtCpy
        LOCFRAME ISTACK, 0, STACK
        LOCFRAME PSTACK, 0, STACK
        LOCFRAME XSTACK, 10, STACK
        LOCFRAME IOVERLAY, 0, STATIC
        LOCFRAME DOVERLAY, 0, STATIC
        ARGFRAME ISTACK, 0, STACK
        ARGFRAME PSTACK, 0, STACK
        ARGFRAME XSTACK, 10, STACK
        ARGFRAME IOVERLAY, 0, STATIC
        ARGFRAME DOVERLAY, 0, STATIC
        FUNCALL ZDApp_LeaveReset, NLME_NwkDiscTerm
        LOCFRAME ISTACK, 0, STACK
        LOCFRAME PSTACK, 0, STACK
        LOCFRAME XSTACK, 10, STACK
        LOCFRAME IOVERLAY, 0, STATIC
        LOCFRAME DOVERLAY, 0, STATIC
        ARGFRAME ISTACK, 0, STACK
        ARGFRAME PSTACK, 0, STACK
        ARGFRAME XSTACK, 10, STACK
        ARGFRAME IOVERLAY, 0, STATIC
        ARGFRAME DOVERLAY, 0, STATIC
        FUNCALL ZDApp_LeaveReset, osal_rand
        LOCFRAME ISTACK, 0, STACK
        LOCFRAME PSTACK, 0, STACK
        LOCFRAME XSTACK, 10, STACK
        LOCFRAME IOVERLAY, 0, STATIC
        LOCFRAME DOVERLAY, 0, STATIC
        ARGFRAME ISTACK, 0, STACK
        ARGFRAME PSTACK, 0, STACK
        ARGFRAME XSTACK, 10, STACK
        ARGFRAME IOVERLAY, 0, STATIC
        ARGFRAME DOVERLAY, 0, STATIC
        FUNCALL ZDApp_LeaveReset, ZDApp_NetworkInit
        LOCFRAME ISTACK, 0, STACK
        LOCFRAME PSTACK, 0, STACK
        LOCFRAME XSTACK, 10, STACK
        LOCFRAME IOVERLAY, 0, STATIC
        LOCFRAME DOVERLAY, 0, STATIC
        ARGFRAME ISTACK, 0, STACK
        ARGFRAME PSTACK, 0, STACK
        ARGFRAME XSTACK, 10, STACK
        ARGFRAME IOVERLAY, 0, STATIC
        ARGFRAME DOVERLAY, 0, STATIC
        FUNCALL ZDApp_LeaveReset, ZDApp_ResetTimerStart
        LOCFRAME ISTACK, 0, STACK
        LOCFRAME PSTACK, 0, STACK
        LOCFRAME XSTACK, 10, STACK
        LOCFRAME IOVERLAY, 0, STATIC
        LOCFRAME DOVERLAY, 0, STATIC
        ARGFRAME ISTACK, 0, STACK
        ARGFRAME PSTACK, 0, STACK
        ARGFRAME XSTACK, 10, STACK
        ARGFRAME IOVERLAY, 0, STATIC
        ARGFRAME DOVERLAY, 0, STATIC
        REQUIRE ?V0
        REQUIRE ?V1
        MOV     A,#-0xa
        LCALL   ?BANKED_ENTER_XDATA
          CFI DPH0 load(1, XDATA, add(CFA_XSP16, literal(-1)))
          CFI DPL0 load(1, XDATA, add(CFA_XSP16, literal(-2)))
          CFI ?BRET_EXT load(1, XDATA, add(CFA_XSP16, literal(-3)))
          CFI ?RET_HIGH load(1, XDATA, add(CFA_XSP16, literal(-4)))
          CFI ?RET_LOW load(1, XDATA, add(CFA_XSP16, literal(-5)))
          CFI R7 load(1, XDATA, add(CFA_XSP16, literal(-6)))
          CFI V1 load(1, XDATA, add(CFA_XSP16, literal(-7)))
          CFI V0 load(1, XDATA, add(CFA_XSP16, literal(-8)))
          CFI VB load(1, XDATA, add(CFA_XSP16, literal(-9)))
          CFI R6 load(1, XDATA, add(CFA_XSP16, literal(-10)))
          CFI CFA_SP SP+0
          CFI CFA_XSP16 add(XSP16, 10)
        ; Saved register size: 10
        ; Auto size: 0
        MOV     A,R1
        MOV     R6,A
// 2047   ZDApp_LeaveCtrlSet( ra );
        ; Setup parameters for call to function ZDApp_LeaveCtrlSet
        LCALL   ??ZDApp_LeaveCtrlSet?relay; Banked call to: ZDApp_LeaveCtrlSet
// 2048 
// 2049   APSME_HoldDataRequests( LEAVE_RESET_DELAY);
        ; Setup parameters for call to function APSME_HoldDataRequests
        MOV     R2,#-0x78
        MOV     R3,#0x13
        LCALL   ??APSME_HoldDataRequests?relay; Banked call to: APSME_HoldDataRequests
// 2050 
// 2051   if ( ZSTACK_ROUTER_BUILD )
// 2052   {
// 2053     osal_stop_timerEx( NWK_TaskID, NWK_LINK_STATUS_EVT );
// 2054     osal_clear_event( NWK_TaskID, NWK_LINK_STATUS_EVT );
// 2055   }
// 2056 
// 2057   if (ZG_DEVICE_ENDDEVICE_TYPE)
// 2058   {
// 2059     // Save polling values to be restored after rejoin
// 2060     if ( ra == TRUE )
        MOV     A,#0x1
        XRL     A,R6
        JNZ     ??CrossCallReturnLabel_53
// 2061     {
// 2062        ZDApp_SavedPollRate = zgPollRate;
        MOV     DPTR,#zgPollRate
        LCALL   ?XLOAD_R0123
        MOV     DPTR,#ZDApp_SavedPollRate
        LCALL   ?XSTORE_R0123
// 2063        savedResponseRate = zgResponsePollRate;
        MOV     DPTR,#zgResponsePollRate
        LCALL   ??Subroutine49_0 & 0xFFFF
??CrossCallReturnLabel_89:
        MOV     DPTR,#savedResponseRate
        LCALL   ??Subroutine41_0 & 0xFFFF
// 2064        savedQueuedPollRate = zgQueuedPollRate;
??CrossCallReturnLabel_52:
        MOV     DPTR,#zgQueuedPollRate
        LCALL   ??Subroutine49_0 & 0xFFFF
// 2065     }
??CrossCallReturnLabel_90:
        MOV     DPTR,#savedQueuedPollRate
        LCALL   ??Subroutine41_0 & 0xFFFF
// 2066 
// 2067     // Disable polling
// 2068     NLME_SetPollRate(0);
??CrossCallReturnLabel_53:
        ; Setup parameters for call to function NLME_SetPollRate
        MOV     DPTR,#__Constant_0
        LCALL   ?XLOAD_R2345
        LCALL   ??NLME_SetPollRate?relay; Banked call to: NLME_SetPollRate
// 2069     NLME_SetResponseRate(0);
        ; Setup parameters for call to function NLME_SetResponseRate
        MOV     R2,#0x0
        MOV     R3,#0x0
        LCALL   ??NLME_SetResponseRate?relay; Banked call to: NLME_SetResponseRate
// 2070     NLME_SetQueuedPollRate(0);
        ; Setup parameters for call to function NLME_SetQueuedPollRate
        MOV     R2,#0x0
        MOV     R3,#0x0
        LCALL   ??NLME_SetQueuedPollRate?relay; Banked call to: NLME_SetQueuedPollRate
// 2071   }
// 2072 
// 2073   if ( ra == TRUE )
        MOV     A,#0x1
        XRL     A,R6
        JNZ     ??ZDApp_LeaveReset_0
// 2074   {
// 2075     devState = DEV_NWK_DISC;
        MOV     DPTR,#devState
        MOV     A,#0x2
        LCALL   ?Subroutine15 & 0xFFFF
// 2076     devStartMode = MODE_REJOIN;
// 2077     _tmpRejoinState = true;
??CrossCallReturnLabel_3:
        LCALL   ?Subroutine12 & 0xFFFF
// 2078 
// 2079     // For rejoin, specify the extended PANID to look for
// 2080     osal_cpyExtAddr( ZDO_UseExtendedPANID, _NIB.extendedPANID );
??CrossCallReturnLabel_47:
        LCALL   ??sAddrExtCpy?relay  ; Banked call to: sAddrExtCpy
// 2081 
// 2082     _NIB.nwkState = NWK_DISC;
        MOV     DPTR,#_NIB + 35
        MOV     A,#0x2
        MOVX    @DPTR,A
// 2083 
// 2084     zdoDiscCounter = 3;
        MOV     DPTR,#zdoDiscCounter
        INC     A
        MOVX    @DPTR,A
// 2085     NLME_NwkDiscTerm();
        ; Setup parameters for call to function NLME_NwkDiscTerm
        LCALL   ??NLME_NwkDiscTerm?relay; Banked call to: NLME_NwkDiscTerm
// 2086 
// 2087     ZDApp_NetworkInit((uint16)(NWK_START_DELAY + ((uint16) (osal_rand() & EXTENDED_JOINING_RANDOM_MASK ))));
        ; Setup parameters for call to function osal_rand
        LCALL   ??osal_rand?relay    ; Banked call to: osal_rand
        ; Setup parameters for call to function ZDApp_NetworkInit
        LCALL   ?Subroutine28 & 0xFFFF
// 2088   }
??CrossCallReturnLabel_27:
        LCALL   ??ZDApp_NetworkInit?relay; Banked call to: ZDApp_NetworkInit
        SJMP    ??ZDApp_LeaveReset_1
// 2089   else
// 2090   {
// 2091     ZDApp_ResetTimerStart( LEAVE_RESET_DELAY );
??ZDApp_LeaveReset_0:
        ; Setup parameters for call to function ZDApp_ResetTimerStart
        MOV     R2,#-0x78
        MOV     R3,#0x13
        LCALL   ??ZDApp_ResetTimerStart?relay; Banked call to: ZDApp_ResetTimerStart
// 2092   }
// 2093 }
??ZDApp_LeaveReset_1:
        LJMP    ??Subroutine51_0 & 0xFFFF
          CFI EndBlock cfiBlock46

        RSEG BANKED_CODE:CODE:NOROOT(0)
?Subroutine15:
          CFI Block cfiCond47 Using cfiCommon0
          CFI Function ZDApp_ProcessOSALMsg
          CFI Conditional ??CrossCallReturnLabel_2
          CFI R6 load(1, XDATA, add(CFA_XSP16, literal(-12)))
          CFI VB load(1, XDATA, add(CFA_XSP16, literal(-11)))
          CFI V0 load(1, XDATA, add(CFA_XSP16, literal(-10)))
          CFI V1 load(1, XDATA, add(CFA_XSP16, literal(-9)))
          CFI V2 load(1, XDATA, add(CFA_XSP16, literal(-8)))
          CFI V3 load(1, XDATA, add(CFA_XSP16, literal(-7)))
          CFI R7 load(1, XDATA, add(CFA_XSP16, literal(-6)))
          CFI ?RET_LOW load(1, XDATA, add(CFA_XSP16, literal(-5)))
          CFI ?RET_HIGH load(1, XDATA, add(CFA_XSP16, literal(-4)))
          CFI ?BRET_EXT load(1, XDATA, add(CFA_XSP16, literal(-3)))
          CFI DPL0 load(1, XDATA, add(CFA_XSP16, literal(-2)))
          CFI DPH0 load(1, XDATA, add(CFA_XSP16, literal(-1)))
          CFI CFA_SP SP+-2
          CFI CFA_XSP16 add(XSP16, 15)
          CFI Block cfiCond48 Using cfiCommon0
          CFI (cfiCond48) Function ZDApp_LeaveReset
          CFI (cfiCond48) Conditional ??CrossCallReturnLabel_3
          CFI (cfiCond48) R6 load(1, XDATA, add(CFA_XSP16, literal(-10)))
          CFI (cfiCond48) VB load(1, XDATA, add(CFA_XSP16, literal(-9)))
          CFI (cfiCond48) V0 load(1, XDATA, add(CFA_XSP16, literal(-8)))
          CFI (cfiCond48) V1 load(1, XDATA, add(CFA_XSP16, literal(-7)))
          CFI (cfiCond48) R7 load(1, XDATA, add(CFA_XSP16, literal(-6)))
          CFI (cfiCond48) ?RET_LOW load(1, XDATA, add(CFA_XSP16, literal(-5)))
          CFI (cfiCond48) ?RET_HIGH load(1, XDATA, add(CFA_XSP16, literal(-4)))
          CFI (cfiCond48) ?BRET_EXT load(1, XDATA, add(CFA_XSP16, literal(-3)))
          CFI (cfiCond48) DPL0 load(1, XDATA, add(CFA_XSP16, literal(-2)))
          CFI (cfiCond48) DPH0 load(1, XDATA, add(CFA_XSP16, literal(-1)))
          CFI (cfiCond48) CFA_SP SP+-2
          CFI (cfiCond48) CFA_XSP16 add(XSP16, 10)
          CFI Block cfiPicker49 Using cfiCommon1
          CFI (cfiPicker49) NoFunction
          CFI (cfiPicker49) Picker
        MOVX    @DPTR,A
        MOV     DPTR,#devStartMode
        INC     A
        MOVX    @DPTR,A
        MOV     DPTR,#_tmpRejoinState
        RET
          CFI EndBlock cfiCond47
          CFI EndBlock cfiCond48
          CFI EndBlock cfiPicker49

        RSEG BANKED_CODE:CODE:NOROOT(0)
?Subroutine13:
          CFI Block cfiCond50 Using cfiCommon0
          CFI Function ZDO_JoinConfirmCB
          CFI Conditional ??CrossCallReturnLabel_55
          CFI R6 load(1, XDATA, add(CFA_XSP16, literal(-12)))
          CFI VB load(1, XDATA, add(CFA_XSP16, literal(-11)))
          CFI V0 load(1, XDATA, add(CFA_XSP16, literal(-10)))
          CFI V1 load(1, XDATA, add(CFA_XSP16, literal(-9)))
          CFI V2 load(1, XDATA, add(CFA_XSP16, literal(-8)))
          CFI V3 load(1, XDATA, add(CFA_XSP16, literal(-7)))
          CFI R7 load(1, XDATA, add(CFA_XSP16, literal(-6)))
          CFI ?RET_LOW load(1, XDATA, add(CFA_XSP16, literal(-5)))
          CFI ?RET_HIGH load(1, XDATA, add(CFA_XSP16, literal(-4)))
          CFI ?BRET_EXT load(1, XDATA, add(CFA_XSP16, literal(-3)))
          CFI DPL0 load(1, XDATA, add(CFA_XSP16, literal(-2)))
          CFI DPH0 load(1, XDATA, add(CFA_XSP16, literal(-1)))
          CFI CFA_SP SP+-2
          CFI CFA_XSP16 add(XSP16, 17)
          CFI Block cfiCond51 Using cfiCommon0
          CFI (cfiCond51) Function ZDO_JoinIndicationCB
          CFI (cfiCond51) Conditional ??CrossCallReturnLabel_56
          CFI (cfiCond51) R6 load(1, XDATA, add(CFA_XSP16, literal(-16)))
          CFI (cfiCond51) VB load(1, XDATA, add(CFA_XSP16, literal(-15)))
          CFI (cfiCond51) V0 load(1, XDATA, add(CFA_XSP16, literal(-14)))
          CFI (cfiCond51) V1 load(1, XDATA, add(CFA_XSP16, literal(-13)))
          CFI (cfiCond51) V2 load(1, XDATA, add(CFA_XSP16, literal(-12)))
          CFI (cfiCond51) V3 load(1, XDATA, add(CFA_XSP16, literal(-11)))
          CFI (cfiCond51) V4 load(1, XDATA, add(CFA_XSP16, literal(-10)))
          CFI (cfiCond51) V5 load(1, XDATA, add(CFA_XSP16, literal(-9)))
          CFI (cfiCond51) V6 load(1, XDATA, add(CFA_XSP16, literal(-8)))
          CFI (cfiCond51) V7 load(1, XDATA, add(CFA_XSP16, literal(-7)))
          CFI (cfiCond51) R7 load(1, XDATA, add(CFA_XSP16, literal(-6)))
          CFI (cfiCond51) ?RET_LOW load(1, XDATA, add(CFA_XSP16, literal(-5)))
          CFI (cfiCond51) ?RET_HIGH load(1, XDATA, add(CFA_XSP16, literal(-4)))
          CFI (cfiCond51) ?BRET_EXT load(1, XDATA, add(CFA_XSP16, literal(-3)))
          CFI (cfiCond51) DPL0 load(1, XDATA, add(CFA_XSP16, literal(-2)))
          CFI (cfiCond51) DPH0 load(1, XDATA, add(CFA_XSP16, literal(-1)))
          CFI (cfiCond51) CFA_SP SP+-2
          CFI (cfiCond51) CFA_XSP16 add(XSP16, 16)
          CFI Block cfiPicker52 Using cfiCommon1
          CFI (cfiPicker52) NoFunction
          CFI (cfiPicker52) Picker
        INC     DPTR
        INC     DPTR
        INC     DPTR
        INC     DPTR
          CFI EndBlock cfiCond50
          CFI EndBlock cfiCond51
          CFI EndBlock cfiPicker52
        REQUIRE ??Subroutine41_0
        ; // Fall through to label ??Subroutine41_0

        RSEG BANKED_CODE:CODE:NOROOT(0)
??Subroutine41_0:
          CFI Block cfiCond53 Using cfiCommon0
          CFI Function ZDApp_SecInit
          CFI Conditional ??CrossCallReturnLabel_49
          CFI R6 load(1, XDATA, add(CFA_XSP16, literal(-9)))
          CFI VB load(1, XDATA, add(CFA_XSP16, literal(-8)))
          CFI V0 load(1, XDATA, add(CFA_XSP16, literal(-7)))
          CFI R7 load(1, XDATA, add(CFA_XSP16, literal(-6)))
          CFI ?RET_LOW load(1, XDATA, add(CFA_XSP16, literal(-5)))
          CFI ?RET_HIGH load(1, XDATA, add(CFA_XSP16, literal(-4)))
          CFI ?BRET_EXT load(1, XDATA, add(CFA_XSP16, literal(-3)))
          CFI DPL0 load(1, XDATA, add(CFA_XSP16, literal(-2)))
          CFI DPH0 load(1, XDATA, add(CFA_XSP16, literal(-1)))
          CFI CFA_SP SP+-2
          CFI CFA_XSP16 add(XSP16, 25)
          CFI Block cfiCond54 Using cfiCommon0
          CFI (cfiCond54) Function ZDApp_ProcessOSALMsg
          CFI (cfiCond54) Conditional ??CrossCallReturnLabel_50
          CFI (cfiCond54) R6 load(1, XDATA, add(CFA_XSP16, literal(-12)))
          CFI (cfiCond54) VB load(1, XDATA, add(CFA_XSP16, literal(-11)))
          CFI (cfiCond54) V0 load(1, XDATA, add(CFA_XSP16, literal(-10)))
          CFI (cfiCond54) V1 load(1, XDATA, add(CFA_XSP16, literal(-9)))
          CFI (cfiCond54) V2 load(1, XDATA, add(CFA_XSP16, literal(-8)))
          CFI (cfiCond54) V3 load(1, XDATA, add(CFA_XSP16, literal(-7)))
          CFI (cfiCond54) R7 load(1, XDATA, add(CFA_XSP16, literal(-6)))
          CFI (cfiCond54) ?RET_LOW load(1, XDATA, add(CFA_XSP16, literal(-5)))
          CFI (cfiCond54) ?RET_HIGH load(1, XDATA, add(CFA_XSP16, literal(-4)))
          CFI (cfiCond54) ?BRET_EXT load(1, XDATA, add(CFA_XSP16, literal(-3)))
          CFI (cfiCond54) DPL0 load(1, XDATA, add(CFA_XSP16, literal(-2)))
          CFI (cfiCond54) DPH0 load(1, XDATA, add(CFA_XSP16, literal(-1)))
          CFI (cfiCond54) CFA_SP SP+-2
          CFI (cfiCond54) CFA_XSP16 add(XSP16, 15)
          CFI Block cfiCond55 Using cfiCommon0
          CFI (cfiCond55) Function ZDApp_ProcessOSALMsg
          CFI (cfiCond55) Conditional ??CrossCallReturnLabel_51
          CFI (cfiCond55) R6 load(1, XDATA, add(CFA_XSP16, literal(-12)))
          CFI (cfiCond55) VB load(1, XDATA, add(CFA_XSP16, literal(-11)))
          CFI (cfiCond55) V0 load(1, XDATA, add(CFA_XSP16, literal(-10)))
          CFI (cfiCond55) V1 load(1, XDATA, add(CFA_XSP16, literal(-9)))
          CFI (cfiCond55) V2 load(1, XDATA, add(CFA_XSP16, literal(-8)))
          CFI (cfiCond55) V3 load(1, XDATA, add(CFA_XSP16, literal(-7)))
          CFI (cfiCond55) R7 load(1, XDATA, add(CFA_XSP16, literal(-6)))
          CFI (cfiCond55) ?RET_LOW load(1, XDATA, add(CFA_XSP16, literal(-5)))
          CFI (cfiCond55) ?RET_HIGH load(1, XDATA, add(CFA_XSP16, literal(-4)))
          CFI (cfiCond55) ?BRET_EXT load(1, XDATA, add(CFA_XSP16, literal(-3)))
          CFI (cfiCond55) DPL0 load(1, XDATA, add(CFA_XSP16, literal(-2)))
          CFI (cfiCond55) DPH0 load(1, XDATA, add(CFA_XSP16, literal(-1)))
          CFI (cfiCond55) CFA_SP SP+-2
          CFI (cfiCond55) CFA_XSP16 add(XSP16, 15)
          CFI Block cfiCond56 Using cfiCommon0
          CFI (cfiCond56) Function ZDApp_LeaveReset
          CFI (cfiCond56) Conditional ??CrossCallReturnLabel_52
          CFI (cfiCond56) R6 load(1, XDATA, add(CFA_XSP16, literal(-10)))
          CFI (cfiCond56) VB load(1, XDATA, add(CFA_XSP16, literal(-9)))
          CFI (cfiCond56) V0 load(1, XDATA, add(CFA_XSP16, literal(-8)))
          CFI (cfiCond56) V1 load(1, XDATA, add(CFA_XSP16, literal(-7)))
          CFI (cfiCond56) R7 load(1, XDATA, add(CFA_XSP16, literal(-6)))
          CFI (cfiCond56) ?RET_LOW load(1, XDATA, add(CFA_XSP16, literal(-5)))
          CFI (cfiCond56) ?RET_HIGH load(1, XDATA, add(CFA_XSP16, literal(-4)))
          CFI (cfiCond56) ?BRET_EXT load(1, XDATA, add(CFA_XSP16, literal(-3)))
          CFI (cfiCond56) DPL0 load(1, XDATA, add(CFA_XSP16, literal(-2)))
          CFI (cfiCond56) DPH0 load(1, XDATA, add(CFA_XSP16, literal(-1)))
          CFI (cfiCond56) CFA_SP SP+-2
          CFI (cfiCond56) CFA_XSP16 add(XSP16, 10)
          CFI Block cfiCond57 Using cfiCommon0
          CFI (cfiCond57) Function ZDApp_LeaveReset
          CFI (cfiCond57) Conditional ??CrossCallReturnLabel_53
          CFI (cfiCond57) R6 load(1, XDATA, add(CFA_XSP16, literal(-10)))
          CFI (cfiCond57) VB load(1, XDATA, add(CFA_XSP16, literal(-9)))
          CFI (cfiCond57) V0 load(1, XDATA, add(CFA_XSP16, literal(-8)))
          CFI (cfiCond57) V1 load(1, XDATA, add(CFA_XSP16, literal(-7)))
          CFI (cfiCond57) R7 load(1, XDATA, add(CFA_XSP16, literal(-6)))
          CFI (cfiCond57) ?RET_LOW load(1, XDATA, add(CFA_XSP16, literal(-5)))
          CFI (cfiCond57) ?RET_HIGH load(1, XDATA, add(CFA_XSP16, literal(-4)))
          CFI (cfiCond57) ?BRET_EXT load(1, XDATA, add(CFA_XSP16, literal(-3)))
          CFI (cfiCond57) DPL0 load(1, XDATA, add(CFA_XSP16, literal(-2)))
          CFI (cfiCond57) DPH0 load(1, XDATA, add(CFA_XSP16, literal(-1)))
          CFI (cfiCond57) CFA_SP SP+-2
          CFI (cfiCond57) CFA_XSP16 add(XSP16, 10)
          CFI Block cfiCond58 Using cfiCommon0
          CFI (cfiCond58) Function ZDO_JoinConfirmCB
          CFI (cfiCond58) Conditional ??CrossCallReturnLabel_54
          CFI (cfiCond58) R6 load(1, XDATA, add(CFA_XSP16, literal(-12)))
          CFI (cfiCond58) VB load(1, XDATA, add(CFA_XSP16, literal(-11)))
          CFI (cfiCond58) V0 load(1, XDATA, add(CFA_XSP16, literal(-10)))
          CFI (cfiCond58) V1 load(1, XDATA, add(CFA_XSP16, literal(-9)))
          CFI (cfiCond58) V2 load(1, XDATA, add(CFA_XSP16, literal(-8)))
          CFI (cfiCond58) V3 load(1, XDATA, add(CFA_XSP16, literal(-7)))
          CFI (cfiCond58) R7 load(1, XDATA, add(CFA_XSP16, literal(-6)))
          CFI (cfiCond58) ?RET_LOW load(1, XDATA, add(CFA_XSP16, literal(-5)))
          CFI (cfiCond58) ?RET_HIGH load(1, XDATA, add(CFA_XSP16, literal(-4)))
          CFI (cfiCond58) ?BRET_EXT load(1, XDATA, add(CFA_XSP16, literal(-3)))
          CFI (cfiCond58) DPL0 load(1, XDATA, add(CFA_XSP16, literal(-2)))
          CFI (cfiCond58) DPH0 load(1, XDATA, add(CFA_XSP16, literal(-1)))
          CFI (cfiCond58) CFA_SP SP+-2
          CFI (cfiCond58) CFA_XSP16 add(XSP16, 17)
          CFI Block cfiCond59 Using cfiCommon0
          CFI (cfiCond59) Function ZDO_JoinConfirmCB
          CFI (cfiCond59) Conditional ??CrossCallReturnLabel_55
          CFI (cfiCond59) R6 load(1, XDATA, add(CFA_XSP16, literal(-12)))
          CFI (cfiCond59) VB load(1, XDATA, add(CFA_XSP16, literal(-11)))
          CFI (cfiCond59) V0 load(1, XDATA, add(CFA_XSP16, literal(-10)))
          CFI (cfiCond59) V1 load(1, XDATA, add(CFA_XSP16, literal(-9)))
          CFI (cfiCond59) V2 load(1, XDATA, add(CFA_XSP16, literal(-8)))
          CFI (cfiCond59) V3 load(1, XDATA, add(CFA_XSP16, literal(-7)))
          CFI (cfiCond59) R7 load(1, XDATA, add(CFA_XSP16, literal(-6)))
          CFI (cfiCond59) ?RET_LOW load(1, XDATA, add(CFA_XSP16, literal(-5)))
          CFI (cfiCond59) ?RET_HIGH load(1, XDATA, add(CFA_XSP16, literal(-4)))
          CFI (cfiCond59) ?BRET_EXT load(1, XDATA, add(CFA_XSP16, literal(-3)))
          CFI (cfiCond59) DPL0 load(1, XDATA, add(CFA_XSP16, literal(-2)))
          CFI (cfiCond59) DPH0 load(1, XDATA, add(CFA_XSP16, literal(-1)))
          CFI (cfiCond59) CFA_SP SP+-2
          CFI (cfiCond59) CFA_XSP16 add(XSP16, 17)
          CFI Block cfiCond60 Using cfiCommon0
          CFI (cfiCond60) Function ZDO_JoinIndicationCB
          CFI (cfiCond60) Conditional ??CrossCallReturnLabel_56
          CFI (cfiCond60) R6 load(1, XDATA, add(CFA_XSP16, literal(-16)))
          CFI (cfiCond60) VB load(1, XDATA, add(CFA_XSP16, literal(-15)))
          CFI (cfiCond60) V0 load(1, XDATA, add(CFA_XSP16, literal(-14)))
          CFI (cfiCond60) V1 load(1, XDATA, add(CFA_XSP16, literal(-13)))
          CFI (cfiCond60) V2 load(1, XDATA, add(CFA_XSP16, literal(-12)))
          CFI (cfiCond60) V3 load(1, XDATA, add(CFA_XSP16, literal(-11)))
          CFI (cfiCond60) V4 load(1, XDATA, add(CFA_XSP16, literal(-10)))
          CFI (cfiCond60) V5 load(1, XDATA, add(CFA_XSP16, literal(-9)))
          CFI (cfiCond60) V6 load(1, XDATA, add(CFA_XSP16, literal(-8)))
          CFI (cfiCond60) V7 load(1, XDATA, add(CFA_XSP16, literal(-7)))
          CFI (cfiCond60) R7 load(1, XDATA, add(CFA_XSP16, literal(-6)))
          CFI (cfiCond60) ?RET_LOW load(1, XDATA, add(CFA_XSP16, literal(-5)))
          CFI (cfiCond60) ?RET_HIGH load(1, XDATA, add(CFA_XSP16, literal(-4)))
          CFI (cfiCond60) ?BRET_EXT load(1, XDATA, add(CFA_XSP16, literal(-3)))
          CFI (cfiCond60) DPL0 load(1, XDATA, add(CFA_XSP16, literal(-2)))
          CFI (cfiCond60) DPH0 load(1, XDATA, add(CFA_XSP16, literal(-1)))
          CFI (cfiCond60) CFA_SP SP+-2
          CFI (cfiCond60) CFA_XSP16 add(XSP16, 16)
          CFI Block cfiPicker61 Using cfiCommon1
          CFI (cfiPicker61) NoFunction
          CFI (cfiPicker61) Picker
        MOV     A,R0
        MOVX    @DPTR,A
        INC     DPTR
        MOV     A,R1
        MOVX    @DPTR,A
        RET
          CFI EndBlock cfiCond53
          CFI EndBlock cfiCond54
          CFI EndBlock cfiCond55
          CFI EndBlock cfiCond56
          CFI EndBlock cfiCond57
          CFI EndBlock cfiCond58
          CFI EndBlock cfiCond59
          CFI EndBlock cfiCond60
          CFI EndBlock cfiPicker61
// 2094 
// 2095 /*********************************************************************
// 2096  * @fn      ZDApp_LeaveUpdate
// 2097  *
// 2098  * @brief   Update local device data related to leaving device.
// 2099  *
// 2100  * @param   nwkAddr        - NWK address of leaving device
// 2101  * @param   extAddr        - EXT address of leaving device
// 2102  * @param   removeChildren - remove children of leaving device
// 2103  *
// 2104  * @return  none
// 2105  */

        RSEG BANKED_CODE:CODE:NOROOT(0)
// 2106 void ZDApp_LeaveUpdate( uint16 nwkAddr, uint8* extAddr,
ZDApp_LeaveUpdate:
          CFI Block cfiBlock62 Using cfiCommon0
          CFI Function ZDApp_LeaveUpdate
        CODE
// 2107                         uint8 removeChildren )
// 2108 {
        FUNCALL ZDApp_LeaveUpdate, ZDSecMgrDeviceRemoveByExtAddr
        LOCFRAME ISTACK, 0, STACK
        LOCFRAME PSTACK, 0, STACK
        LOCFRAME XSTACK, 24, STACK
        LOCFRAME IOVERLAY, 0, STATIC
        LOCFRAME DOVERLAY, 0, STATIC
        ARGFRAME ISTACK, 0, STACK
        ARGFRAME PSTACK, 0, STACK
        ARGFRAME XSTACK, 24, STACK
        ARGFRAME IOVERLAY, 0, STATIC
        ARGFRAME DOVERLAY, 0, STATIC
        FUNCALL ZDApp_LeaveUpdate, ZDSecMgrAddrClear
        LOCFRAME ISTACK, 0, STACK
        LOCFRAME PSTACK, 0, STACK
        LOCFRAME XSTACK, 24, STACK
        LOCFRAME IOVERLAY, 0, STATIC
        LOCFRAME DOVERLAY, 0, STATIC
        ARGFRAME ISTACK, 0, STACK
        ARGFRAME PSTACK, 0, STACK
        ARGFRAME XSTACK, 24, STACK
        ARGFRAME IOVERLAY, 0, STATIC
        ARGFRAME DOVERLAY, 0, STATIC
        FUNCALL ZDApp_LeaveUpdate, osal_memcpy
        LOCFRAME ISTACK, 0, STACK
        LOCFRAME PSTACK, 0, STACK
        LOCFRAME XSTACK, 27, STACK
        LOCFRAME IOVERLAY, 0, STATIC
        LOCFRAME DOVERLAY, 0, STATIC
        ARGFRAME ISTACK, 0, STACK
        ARGFRAME PSTACK, 0, STACK
        ARGFRAME XSTACK, 27, STACK
        ARGFRAME IOVERLAY, 0, STATIC
        ARGFRAME DOVERLAY, 0, STATIC
        FUNCALL ZDApp_LeaveUpdate, RTG_RemoveRtgEntry
        LOCFRAME ISTACK, 0, STACK
        LOCFRAME PSTACK, 0, STACK
        LOCFRAME XSTACK, 24, STACK
        LOCFRAME IOVERLAY, 0, STATIC
        LOCFRAME DOVERLAY, 0, STATIC
        ARGFRAME ISTACK, 0, STACK
        ARGFRAME PSTACK, 0, STACK
        ARGFRAME XSTACK, 24, STACK
        ARGFRAME IOVERLAY, 0, STATIC
        ARGFRAME DOVERLAY, 0, STATIC
        FUNCALL ZDApp_LeaveUpdate, nwkNeighborRemove
        LOCFRAME ISTACK, 0, STACK
        LOCFRAME PSTACK, 0, STACK
        LOCFRAME XSTACK, 24, STACK
        LOCFRAME IOVERLAY, 0, STATIC
        LOCFRAME DOVERLAY, 0, STATIC
        ARGFRAME ISTACK, 0, STACK
        ARGFRAME PSTACK, 0, STACK
        ARGFRAME XSTACK, 24, STACK
        ARGFRAME IOVERLAY, 0, STATIC
        ARGFRAME DOVERLAY, 0, STATIC
        FUNCALL ZDApp_LeaveUpdate, AddrMgrWriteNVRequest
        LOCFRAME ISTACK, 0, STACK
        LOCFRAME PSTACK, 0, STACK
        LOCFRAME XSTACK, 24, STACK
        LOCFRAME IOVERLAY, 0, STATIC
        LOCFRAME DOVERLAY, 0, STATIC
        ARGFRAME ISTACK, 0, STACK
        ARGFRAME PSTACK, 0, STACK
        ARGFRAME XSTACK, 24, STACK
        ARGFRAME IOVERLAY, 0, STATIC
        ARGFRAME DOVERLAY, 0, STATIC
        REQUIRE ?V0
        REQUIRE ?V1
        REQUIRE ?V4
        REQUIRE ?V5
        REQUIRE ?V6
        MOV     A,#-0xf
        LCALL   ?BANKED_ENTER_XDATA
          CFI DPH0 load(1, XDATA, add(CFA_XSP16, literal(-1)))
          CFI DPL0 load(1, XDATA, add(CFA_XSP16, literal(-2)))
          CFI ?BRET_EXT load(1, XDATA, add(CFA_XSP16, literal(-3)))
          CFI ?RET_HIGH load(1, XDATA, add(CFA_XSP16, literal(-4)))
          CFI ?RET_LOW load(1, XDATA, add(CFA_XSP16, literal(-5)))
          CFI R7 load(1, XDATA, add(CFA_XSP16, literal(-6)))
          CFI V6 load(1, XDATA, add(CFA_XSP16, literal(-7)))
          CFI V5 load(1, XDATA, add(CFA_XSP16, literal(-8)))
          CFI V4 load(1, XDATA, add(CFA_XSP16, literal(-9)))
          CFI V3 load(1, XDATA, add(CFA_XSP16, literal(-10)))
          CFI V2 load(1, XDATA, add(CFA_XSP16, literal(-11)))
          CFI V1 load(1, XDATA, add(CFA_XSP16, literal(-12)))
          CFI V0 load(1, XDATA, add(CFA_XSP16, literal(-13)))
          CFI VB load(1, XDATA, add(CFA_XSP16, literal(-14)))
          CFI R6 load(1, XDATA, add(CFA_XSP16, literal(-15)))
          CFI CFA_SP SP+0
          CFI CFA_XSP16 add(XSP16, 15)
        ; Saved register size: 15
        ; Auto size: 9
        MOV     A,#-0x9
        LCALL   ?ALLOC_XSTACK8
          CFI CFA_XSP16 add(XSP16, 24)
        MOV     ?V0,R2
        MOV     ?V1,R3
        MOV     A,R4
        MOV     R6,A
        MOV     A,R5
        MOV     R7,A
// 2109   // Remove Apps Key for leaving device
// 2110   ZDSecMgrDeviceRemoveByExtAddr(extAddr);
        ; Setup parameters for call to function ZDSecMgrDeviceRemoveByExtAddr
        MOV     A,R6
        MOV     R2,A
        MOV     A,R7
        MOV     R3,A
        LCALL   ??ZDSecMgrDeviceRemoveByExtAddr?relay; Banked call to: ZDSecMgrDeviceRemoveByExtAddr
// 2111 
// 2112   // Clear SECURITY bit from Address Manager
// 2113   ZDSecMgrAddrClear( extAddr );
        ; Setup parameters for call to function ZDSecMgrAddrClear
        MOV     A,R6
        MOV     R2,A
        MOV     A,R7
        MOV     R3,A
        LCALL   ??ZDSecMgrAddrClear?relay; Banked call to: ZDSecMgrAddrClear
// 2114 
// 2115   if ( pbindRemoveDev )
        MOV     DPTR,#pbindRemoveDev
        LCALL   ??Subroutine46_0 & 0xFFFF
??CrossCallReturnLabel_69:
        JZ      ??ZDApp_LeaveUpdate_0
// 2116   {
// 2117     zAddrType_t devAddr;
// 2118 
// 2119     // Remove bind entry and all related data
// 2120     devAddr.addrMode = Addr64Bit;
        MOV     A,#0x8
        LCALL   ?XSTACK_DISP0_8
        MOV     A,#0x3
        MOVX    @DPTR,A
// 2121     osal_memcpy(devAddr.addr.extAddr, extAddr, Z_EXTADDR_LEN);
        ; Setup parameters for call to function osal_memcpy
        MOV     ?V4,R6
        MOV     ?V5,R7
        MOV     ?V6,#0x0
        MOV     R0,#?V4
        LCALL   ?PUSH_XSTACK_I_THREE
          CFI CFA_XSP16 add(XSP16, 27)
        MOV     R4,#0x8
        MOV     R5,#0x0
        MOV     A,#0x3
        LCALL   ?XSTACK_DISP101_8
        LCALL   ??osal_memcpy?relay  ; Banked call to: osal_memcpy
        MOV     A,#0x3
        LCALL   ?DEALLOC_XSTACK8
          CFI CFA_XSP16 add(XSP16, 24)
// 2122 
// 2123     pbindRemoveDev(&devAddr);
        ; Setup parameters for indirect call
        MOV     R2,?XSP + 0
        MOV     R3,?XSP + 1
        MOV     DPTR,#pbindRemoveDev
        LCALL   ?Subroutine36 & 0xFFFF
// 2124   }
??CrossCallReturnLabel_59:
        LCALL   ?CALL_IND
// 2125 
// 2126   // Remove if child
// 2127   if ( ZSTACK_ROUTER_BUILD )
// 2128   {
// 2129     // Router shall notify the Trust Center that a child End Device or
// 2130     // a neighbor Router (within radius=1) has left the network
// 2131     APSME_UpdateDeviceReq_t req;
// 2132 
// 2133     // forward authorization to the Trust Center
// 2134     req.dstAddr    = APSME_TRUSTCENTER_NWKADDR;
// 2135     req.devAddr    = nwkAddr;
// 2136     req.devExtAddr = extAddr;
// 2137     req.status = APSME_UD_DEVICE_LEFT;
// 2138 
// 2139     if ( ZG_CHECK_SECURITY_MODE == ZG_SECURITY_SE_STANDARD )
// 2140     {
// 2141       // For ZG_GLOBAL_LINK_KEY the message has to be sent twice one
// 2142       // un-encrypted and one APS encrypted, to make sure that it can interoperate
// 2143       // with legacy Coordinator devices which can only handle one or the other.
// 2144       if ( zgApsLinkKeyType == ZG_GLOBAL_LINK_KEY )
// 2145       {
// 2146         req.apsSecure = FALSE;
// 2147 
// 2148         // send and APSME_UPDATE_DEVICE request to the trust center
// 2149         APSME_UpdateDeviceReq( &req );
// 2150       }
// 2151 
// 2152       // send the message APS encrypted
// 2153       req.apsSecure = TRUE;
// 2154 
// 2155       // send and APSME_UPDATE_DEVICE request to the trust center
// 2156       APSME_UpdateDeviceReq( &req );
// 2157     }
// 2158     else
// 2159     {
// 2160       req.apsSecure = FALSE;
// 2161 
// 2162       // send and APSME_UPDATE_DEVICE request to the trust center
// 2163       APSME_UpdateDeviceReq( &req );
// 2164     }
// 2165 
// 2166     NLME_RemoveChild( extAddr, removeChildren );
// 2167   }
// 2168 
// 2169   // Remove Routing table related entry
// 2170   RTG_RemoveRtgEntry( nwkAddr, 0 );
??ZDApp_LeaveUpdate_0:
        ; Setup parameters for call to function RTG_RemoveRtgEntry
        MOV     R1,#0x0
        MOV     R2,?V0
        MOV     R3,?V1
        LCALL   ??RTG_RemoveRtgEntry?relay; Banked call to: RTG_RemoveRtgEntry
// 2171 
// 2172   // Remove entry from neighborTable
// 2173   nwkNeighborRemove( nwkAddr, _NIB.nwkPanId );
        ; Setup parameters for call to function nwkNeighborRemove
        MOV     DPTR,#_NIB + 33
        MOVX    A,@DPTR
        MOV     R4,A
        INC     DPTR
        MOVX    A,@DPTR
        MOV     R5,A
        MOV     R2,?V0
        MOV     R3,?V1
        LCALL   ??nwkNeighborRemove?relay; Banked call to: nwkNeighborRemove
// 2174 
// 2175   // Schedule to save data to NV
// 2176   ZDApp_NwkWriteNVRequest();
        ; Setup parameters for call to function AddrMgrWriteNVRequest
        LCALL   ??AddrMgrWriteNVRequest?relay; Banked call to: AddrMgrWriteNVRequest
// 2177 }
        MOV     A,#0x9
          CFI EndBlock cfiBlock62
        REQUIRE ?Subroutine6
        ; // Fall through to label ?Subroutine6

        RSEG BANKED_CODE:CODE:NOROOT(0)
?Subroutine6:
          CFI Block cfiBlock63 Using cfiCommon0
          CFI NoFunction
          CFI CFA_SP SP+0
          CFI CFA_XSP16 add(XSP16, 24)
          CFI VB load(1, XDATA, add(CFA_XSP16, literal(-14)))
          CFI DPL0 load(1, XDATA, add(CFA_XSP16, literal(-2)))
          CFI DPH0 load(1, XDATA, add(CFA_XSP16, literal(-1)))
          CFI R6 load(1, XDATA, add(CFA_XSP16, literal(-15)))
          CFI R7 load(1, XDATA, add(CFA_XSP16, literal(-6)))
          CFI V0 load(1, XDATA, add(CFA_XSP16, literal(-13)))
          CFI V1 load(1, XDATA, add(CFA_XSP16, literal(-12)))
          CFI V2 load(1, XDATA, add(CFA_XSP16, literal(-11)))
          CFI V3 load(1, XDATA, add(CFA_XSP16, literal(-10)))
          CFI V4 load(1, XDATA, add(CFA_XSP16, literal(-9)))
          CFI V5 load(1, XDATA, add(CFA_XSP16, literal(-8)))
          CFI V6 load(1, XDATA, add(CFA_XSP16, literal(-7)))
          CFI ?BRET_EXT load(1, XDATA, add(CFA_XSP16, literal(-3)))
          CFI ?RET_HIGH load(1, XDATA, add(CFA_XSP16, literal(-4)))
          CFI ?RET_LOW load(1, XDATA, add(CFA_XSP16, literal(-5)))
          CFI Invalid
        LCALL   ?DEALLOC_XSTACK8
          CFI CFA_XSP16 add(XSP16, 15)
          CFI Valid
        MOV     R7,#0x7
        LJMP    ?BANKED_LEAVE_XDATA
          CFI EndBlock cfiBlock63

        RSEG BANKED_CODE:CODE:NOROOT(0)
?Subroutine36:
          CFI Block cfiCond64 Using cfiCommon0
          CFI Function ZDApp_LeaveUpdate
          CFI Conditional ??CrossCallReturnLabel_59
          CFI R6 load(1, XDATA, add(CFA_XSP16, literal(-15)))
          CFI VB load(1, XDATA, add(CFA_XSP16, literal(-14)))
          CFI V0 load(1, XDATA, add(CFA_XSP16, literal(-13)))
          CFI V1 load(1, XDATA, add(CFA_XSP16, literal(-12)))
          CFI V2 load(1, XDATA, add(CFA_XSP16, literal(-11)))
          CFI V3 load(1, XDATA, add(CFA_XSP16, literal(-10)))
          CFI V4 load(1, XDATA, add(CFA_XSP16, literal(-9)))
          CFI V5 load(1, XDATA, add(CFA_XSP16, literal(-8)))
          CFI V6 load(1, XDATA, add(CFA_XSP16, literal(-7)))
          CFI R7 load(1, XDATA, add(CFA_XSP16, literal(-6)))
          CFI ?RET_LOW load(1, XDATA, add(CFA_XSP16, literal(-5)))
          CFI ?RET_HIGH load(1, XDATA, add(CFA_XSP16, literal(-4)))
          CFI ?BRET_EXT load(1, XDATA, add(CFA_XSP16, literal(-3)))
          CFI DPL0 load(1, XDATA, add(CFA_XSP16, literal(-2)))
          CFI DPH0 load(1, XDATA, add(CFA_XSP16, literal(-1)))
          CFI CFA_SP SP+-2
          CFI CFA_XSP16 add(XSP16, 24)
          CFI Block cfiCond65 Using cfiCommon0
          CFI (cfiCond65) Function ZDApp_SecInit
          CFI (cfiCond65) Conditional ??CrossCallReturnLabel_60, ??CrossCallReturnLabel_14
          CFI (cfiCond65) R6 load(1, XDATA, add(CFA_XSP16, literal(-9)))
          CFI (cfiCond65) VB load(1, XDATA, add(CFA_XSP16, literal(-8)))
          CFI (cfiCond65) V0 load(1, XDATA, add(CFA_XSP16, literal(-7)))
          CFI (cfiCond65) R7 load(1, XDATA, add(CFA_XSP16, literal(-6)))
          CFI (cfiCond65) ?RET_LOW load(1, XDATA, add(CFA_XSP16, literal(-5)))
          CFI (cfiCond65) ?RET_HIGH load(1, XDATA, add(CFA_XSP16, literal(-4)))
          CFI (cfiCond65) ?BRET_EXT load(1, XDATA, add(CFA_XSP16, literal(-3)))
          CFI (cfiCond65) DPL0 load(1, XDATA, add(CFA_XSP16, literal(-2)))
          CFI (cfiCond65) DPH0 load(1, XDATA, add(CFA_XSP16, literal(-1)))
          CFI (cfiCond65) CFA_SP SP+-4
          CFI (cfiCond65) CFA_XSP16 add(XSP16, 25)
          CFI Block cfiCond66 Using cfiCommon0
          CFI (cfiCond66) Function ZDO_AddrChangeIndicationCB
          CFI (cfiCond66) Conditional ??CrossCallReturnLabel_60, ??CrossCallReturnLabel_15
          CFI (cfiCond66) R6 load(1, XDATA, add(CFA_XSP16, literal(-14)))
          CFI (cfiCond66) VB load(1, XDATA, add(CFA_XSP16, literal(-13)))
          CFI (cfiCond66) V0 load(1, XDATA, add(CFA_XSP16, literal(-12)))
          CFI (cfiCond66) V1 load(1, XDATA, add(CFA_XSP16, literal(-11)))
          CFI (cfiCond66) V2 load(1, XDATA, add(CFA_XSP16, literal(-10)))
          CFI (cfiCond66) V3 load(1, XDATA, add(CFA_XSP16, literal(-9)))
          CFI (cfiCond66) V4 load(1, XDATA, add(CFA_XSP16, literal(-8)))
          CFI (cfiCond66) V5 load(1, XDATA, add(CFA_XSP16, literal(-7)))
          CFI (cfiCond66) R7 load(1, XDATA, add(CFA_XSP16, literal(-6)))
          CFI (cfiCond66) ?RET_LOW load(1, XDATA, add(CFA_XSP16, literal(-5)))
          CFI (cfiCond66) ?RET_HIGH load(1, XDATA, add(CFA_XSP16, literal(-4)))
          CFI (cfiCond66) ?BRET_EXT load(1, XDATA, add(CFA_XSP16, literal(-3)))
          CFI (cfiCond66) DPL0 load(1, XDATA, add(CFA_XSP16, literal(-2)))
          CFI (cfiCond66) DPH0 load(1, XDATA, add(CFA_XSP16, literal(-1)))
          CFI (cfiCond66) CFA_SP SP+-4
          CFI (cfiCond66) CFA_XSP16 add(XSP16, 14)
          CFI Block cfiCond67 Using cfiCommon0
          CFI (cfiCond67) Function ZDO_AddrChangeIndicationCB
          CFI (cfiCond67) Conditional ??CrossCallReturnLabel_60, ??CrossCallReturnLabel_16
          CFI (cfiCond67) R6 load(1, XDATA, add(CFA_XSP16, literal(-14)))
          CFI (cfiCond67) VB load(1, XDATA, add(CFA_XSP16, literal(-13)))
          CFI (cfiCond67) V0 load(1, XDATA, add(CFA_XSP16, literal(-12)))
          CFI (cfiCond67) V1 load(1, XDATA, add(CFA_XSP16, literal(-11)))
          CFI (cfiCond67) V2 load(1, XDATA, add(CFA_XSP16, literal(-10)))
          CFI (cfiCond67) V3 load(1, XDATA, add(CFA_XSP16, literal(-9)))
          CFI (cfiCond67) V4 load(1, XDATA, add(CFA_XSP16, literal(-8)))
          CFI (cfiCond67) V5 load(1, XDATA, add(CFA_XSP16, literal(-7)))
          CFI (cfiCond67) R7 load(1, XDATA, add(CFA_XSP16, literal(-6)))
          CFI (cfiCond67) ?RET_LOW load(1, XDATA, add(CFA_XSP16, literal(-5)))
          CFI (cfiCond67) ?RET_HIGH load(1, XDATA, add(CFA_XSP16, literal(-4)))
          CFI (cfiCond67) ?BRET_EXT load(1, XDATA, add(CFA_XSP16, literal(-3)))
          CFI (cfiCond67) DPL0 load(1, XDATA, add(CFA_XSP16, literal(-2)))
          CFI (cfiCond67) DPH0 load(1, XDATA, add(CFA_XSP16, literal(-1)))
          CFI (cfiCond67) CFA_SP SP+-4
          CFI (cfiCond67) CFA_XSP16 add(XSP16, 14)
          CFI Block cfiPicker68 Using cfiCommon1
          CFI (cfiPicker68) NoFunction
          CFI (cfiPicker68) Picker
        MOVX    A,@DPTR
          CFI EndBlock cfiCond64
          CFI EndBlock cfiCond65
          CFI EndBlock cfiCond66
          CFI EndBlock cfiCond67
          CFI EndBlock cfiPicker68
        REQUIRE ??Subroutine42_0
        ; // Fall through to label ??Subroutine42_0

        RSEG BANKED_CODE:CODE:NOROOT(0)
??Subroutine42_0:
          CFI Block cfiCond69 Using cfiCommon0
          CFI Function ZDO_AddrChangeIndicationCB
          CFI Conditional ??CrossCallReturnLabel_58
          CFI R6 load(1, XDATA, add(CFA_XSP16, literal(-14)))
          CFI VB load(1, XDATA, add(CFA_XSP16, literal(-13)))
          CFI V0 load(1, XDATA, add(CFA_XSP16, literal(-12)))
          CFI V1 load(1, XDATA, add(CFA_XSP16, literal(-11)))
          CFI V2 load(1, XDATA, add(CFA_XSP16, literal(-10)))
          CFI V3 load(1, XDATA, add(CFA_XSP16, literal(-9)))
          CFI V4 load(1, XDATA, add(CFA_XSP16, literal(-8)))
          CFI V5 load(1, XDATA, add(CFA_XSP16, literal(-7)))
          CFI R7 load(1, XDATA, add(CFA_XSP16, literal(-6)))
          CFI ?RET_LOW load(1, XDATA, add(CFA_XSP16, literal(-5)))
          CFI ?RET_HIGH load(1, XDATA, add(CFA_XSP16, literal(-4)))
          CFI ?BRET_EXT load(1, XDATA, add(CFA_XSP16, literal(-3)))
          CFI DPL0 load(1, XDATA, add(CFA_XSP16, literal(-2)))
          CFI DPH0 load(1, XDATA, add(CFA_XSP16, literal(-1)))
          CFI CFA_SP SP+-2
          CFI CFA_XSP16 add(XSP16, 14)
          CFI Block cfiCond70 Using cfiCommon0
          CFI (cfiCond70) Function ZDApp_LeaveUpdate
          CFI (cfiCond70) Conditional ??CrossCallReturnLabel_59
          CFI (cfiCond70) R6 load(1, XDATA, add(CFA_XSP16, literal(-15)))
          CFI (cfiCond70) VB load(1, XDATA, add(CFA_XSP16, literal(-14)))
          CFI (cfiCond70) V0 load(1, XDATA, add(CFA_XSP16, literal(-13)))
          CFI (cfiCond70) V1 load(1, XDATA, add(CFA_XSP16, literal(-12)))
          CFI (cfiCond70) V2 load(1, XDATA, add(CFA_XSP16, literal(-11)))
          CFI (cfiCond70) V3 load(1, XDATA, add(CFA_XSP16, literal(-10)))
          CFI (cfiCond70) V4 load(1, XDATA, add(CFA_XSP16, literal(-9)))
          CFI (cfiCond70) V5 load(1, XDATA, add(CFA_XSP16, literal(-8)))
          CFI (cfiCond70) V6 load(1, XDATA, add(CFA_XSP16, literal(-7)))
          CFI (cfiCond70) R7 load(1, XDATA, add(CFA_XSP16, literal(-6)))
          CFI (cfiCond70) ?RET_LOW load(1, XDATA, add(CFA_XSP16, literal(-5)))
          CFI (cfiCond70) ?RET_HIGH load(1, XDATA, add(CFA_XSP16, literal(-4)))
          CFI (cfiCond70) ?BRET_EXT load(1, XDATA, add(CFA_XSP16, literal(-3)))
          CFI (cfiCond70) DPL0 load(1, XDATA, add(CFA_XSP16, literal(-2)))
          CFI (cfiCond70) DPH0 load(1, XDATA, add(CFA_XSP16, literal(-1)))
          CFI (cfiCond70) CFA_SP SP+-2
          CFI (cfiCond70) CFA_XSP16 add(XSP16, 24)
          CFI Block cfiCond71 Using cfiCommon0
          CFI (cfiCond71) Function ZDApp_SecInit
          CFI (cfiCond71) Conditional ??CrossCallReturnLabel_60, ??CrossCallReturnLabel_14
          CFI (cfiCond71) R6 load(1, XDATA, add(CFA_XSP16, literal(-9)))
          CFI (cfiCond71) VB load(1, XDATA, add(CFA_XSP16, literal(-8)))
          CFI (cfiCond71) V0 load(1, XDATA, add(CFA_XSP16, literal(-7)))
          CFI (cfiCond71) R7 load(1, XDATA, add(CFA_XSP16, literal(-6)))
          CFI (cfiCond71) ?RET_LOW load(1, XDATA, add(CFA_XSP16, literal(-5)))
          CFI (cfiCond71) ?RET_HIGH load(1, XDATA, add(CFA_XSP16, literal(-4)))
          CFI (cfiCond71) ?BRET_EXT load(1, XDATA, add(CFA_XSP16, literal(-3)))
          CFI (cfiCond71) DPL0 load(1, XDATA, add(CFA_XSP16, literal(-2)))
          CFI (cfiCond71) DPH0 load(1, XDATA, add(CFA_XSP16, literal(-1)))
          CFI (cfiCond71) CFA_SP SP+-4
          CFI (cfiCond71) CFA_XSP16 add(XSP16, 25)
          CFI Block cfiCond72 Using cfiCommon0
          CFI (cfiCond72) Function ZDO_AddrChangeIndicationCB
          CFI (cfiCond72) Conditional ??CrossCallReturnLabel_60, ??CrossCallReturnLabel_15
          CFI (cfiCond72) R6 load(1, XDATA, add(CFA_XSP16, literal(-14)))
          CFI (cfiCond72) VB load(1, XDATA, add(CFA_XSP16, literal(-13)))
          CFI (cfiCond72) V0 load(1, XDATA, add(CFA_XSP16, literal(-12)))
          CFI (cfiCond72) V1 load(1, XDATA, add(CFA_XSP16, literal(-11)))
          CFI (cfiCond72) V2 load(1, XDATA, add(CFA_XSP16, literal(-10)))
          CFI (cfiCond72) V3 load(1, XDATA, add(CFA_XSP16, literal(-9)))
          CFI (cfiCond72) V4 load(1, XDATA, add(CFA_XSP16, literal(-8)))
          CFI (cfiCond72) V5 load(1, XDATA, add(CFA_XSP16, literal(-7)))
          CFI (cfiCond72) R7 load(1, XDATA, add(CFA_XSP16, literal(-6)))
          CFI (cfiCond72) ?RET_LOW load(1, XDATA, add(CFA_XSP16, literal(-5)))
          CFI (cfiCond72) ?RET_HIGH load(1, XDATA, add(CFA_XSP16, literal(-4)))
          CFI (cfiCond72) ?BRET_EXT load(1, XDATA, add(CFA_XSP16, literal(-3)))
          CFI (cfiCond72) DPL0 load(1, XDATA, add(CFA_XSP16, literal(-2)))
          CFI (cfiCond72) DPH0 load(1, XDATA, add(CFA_XSP16, literal(-1)))
          CFI (cfiCond72) CFA_SP SP+-4
          CFI (cfiCond72) CFA_XSP16 add(XSP16, 14)
          CFI Block cfiCond73 Using cfiCommon0
          CFI (cfiCond73) Function ZDO_AddrChangeIndicationCB
          CFI (cfiCond73) Conditional ??CrossCallReturnLabel_60, ??CrossCallReturnLabel_16
          CFI (cfiCond73) R6 load(1, XDATA, add(CFA_XSP16, literal(-14)))
          CFI (cfiCond73) VB load(1, XDATA, add(CFA_XSP16, literal(-13)))
          CFI (cfiCond73) V0 load(1, XDATA, add(CFA_XSP16, literal(-12)))
          CFI (cfiCond73) V1 load(1, XDATA, add(CFA_XSP16, literal(-11)))
          CFI (cfiCond73) V2 load(1, XDATA, add(CFA_XSP16, literal(-10)))
          CFI (cfiCond73) V3 load(1, XDATA, add(CFA_XSP16, literal(-9)))
          CFI (cfiCond73) V4 load(1, XDATA, add(CFA_XSP16, literal(-8)))
          CFI (cfiCond73) V5 load(1, XDATA, add(CFA_XSP16, literal(-7)))
          CFI (cfiCond73) R7 load(1, XDATA, add(CFA_XSP16, literal(-6)))
          CFI (cfiCond73) ?RET_LOW load(1, XDATA, add(CFA_XSP16, literal(-5)))
          CFI (cfiCond73) ?RET_HIGH load(1, XDATA, add(CFA_XSP16, literal(-4)))
          CFI (cfiCond73) ?BRET_EXT load(1, XDATA, add(CFA_XSP16, literal(-3)))
          CFI (cfiCond73) DPL0 load(1, XDATA, add(CFA_XSP16, literal(-2)))
          CFI (cfiCond73) DPH0 load(1, XDATA, add(CFA_XSP16, literal(-1)))
          CFI (cfiCond73) CFA_SP SP+-4
          CFI (cfiCond73) CFA_XSP16 add(XSP16, 14)
          CFI Block cfiPicker74 Using cfiCommon1
          CFI (cfiPicker74) NoFunction
          CFI (cfiPicker74) Picker
        MOV     R0,A
        INC     DPTR
          CFI EndBlock cfiCond69
          CFI EndBlock cfiCond70
          CFI EndBlock cfiCond71
          CFI EndBlock cfiCond72
          CFI EndBlock cfiCond73
          CFI EndBlock cfiPicker74
        REQUIRE ??Subroutine43_0
        ; // Fall through to label ??Subroutine43_0

        RSEG BANKED_CODE:CODE:NOROOT(0)
??Subroutine43_0:
          CFI Block cfiCond75 Using cfiCommon0
          CFI Function ZDO_SrcRtgIndCB
          CFI Conditional ??CrossCallReturnLabel_57
          CFI R6 load(1, XDATA, add(CFA_XSP16, literal(-9)))
          CFI VB load(1, XDATA, add(CFA_XSP16, literal(-8)))
          CFI V0 load(1, XDATA, add(CFA_XSP16, literal(-7)))
          CFI R7 load(1, XDATA, add(CFA_XSP16, literal(-6)))
          CFI ?RET_LOW load(1, XDATA, add(CFA_XSP16, literal(-5)))
          CFI ?RET_HIGH load(1, XDATA, add(CFA_XSP16, literal(-4)))
          CFI ?BRET_EXT load(1, XDATA, add(CFA_XSP16, literal(-3)))
          CFI DPL0 load(1, XDATA, add(CFA_XSP16, literal(-2)))
          CFI DPH0 load(1, XDATA, add(CFA_XSP16, literal(-1)))
          CFI CFA_SP SP+-2
          CFI CFA_XSP16 add(XSP16, 14)
          CFI Block cfiCond76 Using cfiCommon0
          CFI (cfiCond76) Function ZDO_AddrChangeIndicationCB
          CFI (cfiCond76) Conditional ??CrossCallReturnLabel_58
          CFI (cfiCond76) R6 load(1, XDATA, add(CFA_XSP16, literal(-14)))
          CFI (cfiCond76) VB load(1, XDATA, add(CFA_XSP16, literal(-13)))
          CFI (cfiCond76) V0 load(1, XDATA, add(CFA_XSP16, literal(-12)))
          CFI (cfiCond76) V1 load(1, XDATA, add(CFA_XSP16, literal(-11)))
          CFI (cfiCond76) V2 load(1, XDATA, add(CFA_XSP16, literal(-10)))
          CFI (cfiCond76) V3 load(1, XDATA, add(CFA_XSP16, literal(-9)))
          CFI (cfiCond76) V4 load(1, XDATA, add(CFA_XSP16, literal(-8)))
          CFI (cfiCond76) V5 load(1, XDATA, add(CFA_XSP16, literal(-7)))
          CFI (cfiCond76) R7 load(1, XDATA, add(CFA_XSP16, literal(-6)))
          CFI (cfiCond76) ?RET_LOW load(1, XDATA, add(CFA_XSP16, literal(-5)))
          CFI (cfiCond76) ?RET_HIGH load(1, XDATA, add(CFA_XSP16, literal(-4)))
          CFI (cfiCond76) ?BRET_EXT load(1, XDATA, add(CFA_XSP16, literal(-3)))
          CFI (cfiCond76) DPL0 load(1, XDATA, add(CFA_XSP16, literal(-2)))
          CFI (cfiCond76) DPH0 load(1, XDATA, add(CFA_XSP16, literal(-1)))
          CFI (cfiCond76) CFA_SP SP+-2
          CFI (cfiCond76) CFA_XSP16 add(XSP16, 14)
          CFI Block cfiCond77 Using cfiCommon0
          CFI (cfiCond77) Function ZDApp_LeaveUpdate
          CFI (cfiCond77) Conditional ??CrossCallReturnLabel_59
          CFI (cfiCond77) R6 load(1, XDATA, add(CFA_XSP16, literal(-15)))
          CFI (cfiCond77) VB load(1, XDATA, add(CFA_XSP16, literal(-14)))
          CFI (cfiCond77) V0 load(1, XDATA, add(CFA_XSP16, literal(-13)))
          CFI (cfiCond77) V1 load(1, XDATA, add(CFA_XSP16, literal(-12)))
          CFI (cfiCond77) V2 load(1, XDATA, add(CFA_XSP16, literal(-11)))
          CFI (cfiCond77) V3 load(1, XDATA, add(CFA_XSP16, literal(-10)))
          CFI (cfiCond77) V4 load(1, XDATA, add(CFA_XSP16, literal(-9)))
          CFI (cfiCond77) V5 load(1, XDATA, add(CFA_XSP16, literal(-8)))
          CFI (cfiCond77) V6 load(1, XDATA, add(CFA_XSP16, literal(-7)))
          CFI (cfiCond77) R7 load(1, XDATA, add(CFA_XSP16, literal(-6)))
          CFI (cfiCond77) ?RET_LOW load(1, XDATA, add(CFA_XSP16, literal(-5)))
          CFI (cfiCond77) ?RET_HIGH load(1, XDATA, add(CFA_XSP16, literal(-4)))
          CFI (cfiCond77) ?BRET_EXT load(1, XDATA, add(CFA_XSP16, literal(-3)))
          CFI (cfiCond77) DPL0 load(1, XDATA, add(CFA_XSP16, literal(-2)))
          CFI (cfiCond77) DPH0 load(1, XDATA, add(CFA_XSP16, literal(-1)))
          CFI (cfiCond77) CFA_SP SP+-2
          CFI (cfiCond77) CFA_XSP16 add(XSP16, 24)
          CFI Block cfiCond78 Using cfiCommon0
          CFI (cfiCond78) Function ZDApp_SecInit
          CFI (cfiCond78) Conditional ??CrossCallReturnLabel_60, ??CrossCallReturnLabel_14
          CFI (cfiCond78) R6 load(1, XDATA, add(CFA_XSP16, literal(-9)))
          CFI (cfiCond78) VB load(1, XDATA, add(CFA_XSP16, literal(-8)))
          CFI (cfiCond78) V0 load(1, XDATA, add(CFA_XSP16, literal(-7)))
          CFI (cfiCond78) R7 load(1, XDATA, add(CFA_XSP16, literal(-6)))
          CFI (cfiCond78) ?RET_LOW load(1, XDATA, add(CFA_XSP16, literal(-5)))
          CFI (cfiCond78) ?RET_HIGH load(1, XDATA, add(CFA_XSP16, literal(-4)))
          CFI (cfiCond78) ?BRET_EXT load(1, XDATA, add(CFA_XSP16, literal(-3)))
          CFI (cfiCond78) DPL0 load(1, XDATA, add(CFA_XSP16, literal(-2)))
          CFI (cfiCond78) DPH0 load(1, XDATA, add(CFA_XSP16, literal(-1)))
          CFI (cfiCond78) CFA_SP SP+-4
          CFI (cfiCond78) CFA_XSP16 add(XSP16, 25)
          CFI Block cfiCond79 Using cfiCommon0
          CFI (cfiCond79) Function ZDO_AddrChangeIndicationCB
          CFI (cfiCond79) Conditional ??CrossCallReturnLabel_60, ??CrossCallReturnLabel_15
          CFI (cfiCond79) R6 load(1, XDATA, add(CFA_XSP16, literal(-14)))
          CFI (cfiCond79) VB load(1, XDATA, add(CFA_XSP16, literal(-13)))
          CFI (cfiCond79) V0 load(1, XDATA, add(CFA_XSP16, literal(-12)))
          CFI (cfiCond79) V1 load(1, XDATA, add(CFA_XSP16, literal(-11)))
          CFI (cfiCond79) V2 load(1, XDATA, add(CFA_XSP16, literal(-10)))
          CFI (cfiCond79) V3 load(1, XDATA, add(CFA_XSP16, literal(-9)))
          CFI (cfiCond79) V4 load(1, XDATA, add(CFA_XSP16, literal(-8)))
          CFI (cfiCond79) V5 load(1, XDATA, add(CFA_XSP16, literal(-7)))
          CFI (cfiCond79) R7 load(1, XDATA, add(CFA_XSP16, literal(-6)))
          CFI (cfiCond79) ?RET_LOW load(1, XDATA, add(CFA_XSP16, literal(-5)))
          CFI (cfiCond79) ?RET_HIGH load(1, XDATA, add(CFA_XSP16, literal(-4)))
          CFI (cfiCond79) ?BRET_EXT load(1, XDATA, add(CFA_XSP16, literal(-3)))
          CFI (cfiCond79) DPL0 load(1, XDATA, add(CFA_XSP16, literal(-2)))
          CFI (cfiCond79) DPH0 load(1, XDATA, add(CFA_XSP16, literal(-1)))
          CFI (cfiCond79) CFA_SP SP+-4
          CFI (cfiCond79) CFA_XSP16 add(XSP16, 14)
          CFI Block cfiCond80 Using cfiCommon0
          CFI (cfiCond80) Function ZDO_AddrChangeIndicationCB
          CFI (cfiCond80) Conditional ??CrossCallReturnLabel_60, ??CrossCallReturnLabel_16
          CFI (cfiCond80) R6 load(1, XDATA, add(CFA_XSP16, literal(-14)))
          CFI (cfiCond80) VB load(1, XDATA, add(CFA_XSP16, literal(-13)))
          CFI (cfiCond80) V0 load(1, XDATA, add(CFA_XSP16, literal(-12)))
          CFI (cfiCond80) V1 load(1, XDATA, add(CFA_XSP16, literal(-11)))
          CFI (cfiCond80) V2 load(1, XDATA, add(CFA_XSP16, literal(-10)))
          CFI (cfiCond80) V3 load(1, XDATA, add(CFA_XSP16, literal(-9)))
          CFI (cfiCond80) V4 load(1, XDATA, add(CFA_XSP16, literal(-8)))
          CFI (cfiCond80) V5 load(1, XDATA, add(CFA_XSP16, literal(-7)))
          CFI (cfiCond80) R7 load(1, XDATA, add(CFA_XSP16, literal(-6)))
          CFI (cfiCond80) ?RET_LOW load(1, XDATA, add(CFA_XSP16, literal(-5)))
          CFI (cfiCond80) ?RET_HIGH load(1, XDATA, add(CFA_XSP16, literal(-4)))
          CFI (cfiCond80) ?BRET_EXT load(1, XDATA, add(CFA_XSP16, literal(-3)))
          CFI (cfiCond80) DPL0 load(1, XDATA, add(CFA_XSP16, literal(-2)))
          CFI (cfiCond80) DPH0 load(1, XDATA, add(CFA_XSP16, literal(-1)))
          CFI (cfiCond80) CFA_SP SP+-4
          CFI (cfiCond80) CFA_XSP16 add(XSP16, 14)
          CFI Block cfiPicker81 Using cfiCommon1
          CFI (cfiPicker81) NoFunction
          CFI (cfiPicker81) Picker
        MOVX    A,@DPTR
        MOV     DPH,A
        MOV     DPL,R0
        RET
          CFI EndBlock cfiCond75
          CFI EndBlock cfiCond76
          CFI EndBlock cfiCond77
          CFI EndBlock cfiCond78
          CFI EndBlock cfiCond79
          CFI EndBlock cfiCond80
          CFI EndBlock cfiPicker81
// 2178 
// 2179 /*********************************************************************
// 2180  * @fn      ZDApp_NetworkDiscoveryReq
// 2181  *
// 2182  * @brief   Request a network discovery.
// 2183  *
// 2184  * @param  scanChannels -
// 2185  * @param  scanDuration -
// 2186  *
// 2187  * @return  ZStatus_t
// 2188  */

        RSEG BANKED_CODE:CODE:NOROOT(0)
// 2189 ZStatus_t ZDApp_NetworkDiscoveryReq( uint32 scanChannels, uint8 scanDuration)
ZDApp_NetworkDiscoveryReq:
          CFI Block cfiBlock82 Using cfiCommon0
          CFI Function ZDApp_NetworkDiscoveryReq
        CODE
// 2190 {
        FUNCALL ZDApp_NetworkDiscoveryReq, NLME_NetworkDiscoveryRequest
        LOCFRAME ISTACK, 0, STACK
        LOCFRAME PSTACK, 0, STACK
        LOCFRAME XSTACK, 12, STACK
        LOCFRAME IOVERLAY, 0, STATIC
        LOCFRAME DOVERLAY, 0, STATIC
        ARGFRAME ISTACK, 0, STACK
        ARGFRAME PSTACK, 0, STACK
        ARGFRAME XSTACK, 12, STACK
        ARGFRAME IOVERLAY, 0, STATIC
        ARGFRAME DOVERLAY, 0, STATIC
        REQUIRE ?V0
        REQUIRE ?V1
        REQUIRE ?V2
        REQUIRE ?V3
        MOV     A,#-0xc
        LCALL   ?BANKED_ENTER_XDATA
          CFI DPH0 load(1, XDATA, add(CFA_XSP16, literal(-1)))
          CFI DPL0 load(1, XDATA, add(CFA_XSP16, literal(-2)))
          CFI ?BRET_EXT load(1, XDATA, add(CFA_XSP16, literal(-3)))
          CFI ?RET_HIGH load(1, XDATA, add(CFA_XSP16, literal(-4)))
          CFI ?RET_LOW load(1, XDATA, add(CFA_XSP16, literal(-5)))
          CFI R7 load(1, XDATA, add(CFA_XSP16, literal(-6)))
          CFI V3 load(1, XDATA, add(CFA_XSP16, literal(-7)))
          CFI V2 load(1, XDATA, add(CFA_XSP16, literal(-8)))
          CFI V1 load(1, XDATA, add(CFA_XSP16, literal(-9)))
          CFI V0 load(1, XDATA, add(CFA_XSP16, literal(-10)))
          CFI VB load(1, XDATA, add(CFA_XSP16, literal(-11)))
          CFI R6 load(1, XDATA, add(CFA_XSP16, literal(-12)))
          CFI CFA_SP SP+0
          CFI CFA_XSP16 add(XSP16, 12)
        ; Saved register size: 12
        ; Auto size: 0
// 2191   // Setup optional filters - tbd
// 2192 
// 2193   // Request NLME network discovery
// 2194   return NLME_NetworkDiscoveryRequest(scanChannels, scanDuration);
        ; Setup parameters for call to function NLME_NetworkDiscoveryRequest
        LCALL   ??NLME_NetworkDiscoveryRequest?relay; Banked call to: NLME_NetworkDiscoveryRequest
        LJMP    ??Subroutine54_0 & 0xFFFF
          CFI EndBlock cfiBlock82
// 2195 }
// 2196 
// 2197 /*********************************************************************
// 2198  * @fn      ZDApp_JoinReq
// 2199  *
// 2200  * @brief   Request the device to join a parent in a network.
// 2201  *
// 2202  * @param   channel -
// 2203  * @param   panID -
// 2204  *
// 2205  * @return  ZStatus_t
// 2206  */

        RSEG BANKED_CODE:CODE:NOROOT(0)
// 2207 ZStatus_t ZDApp_JoinReq( uint8 channel, uint16 panID, uint8 *extendedPanID,
ZDApp_JoinReq:
          CFI Block cfiBlock83 Using cfiCommon0
          CFI Function ZDApp_JoinReq
        CODE
// 2208                          uint16 chosenParent, uint8 parentDepth, uint8 stackProfile )
// 2209 {
        FUNCALL ZDApp_JoinReq, ZDApp_NodeProfileSync
        LOCFRAME ISTACK, 0, STACK
        LOCFRAME PSTACK, 0, STACK
        LOCFRAME XSTACK, 12, STACK
        LOCFRAME IOVERLAY, 0, STATIC
        LOCFRAME DOVERLAY, 0, STATIC
        ARGFRAME ISTACK, 0, STACK
        ARGFRAME PSTACK, 0, STACK
        ARGFRAME XSTACK, 12, STACK
        ARGFRAME IOVERLAY, 0, STATIC
        ARGFRAME DOVERLAY, 0, STATIC
        FUNCALL ZDApp_JoinReq, NLME_JoinRequest
        LOCFRAME ISTACK, 0, STACK
        LOCFRAME PSTACK, 0, STACK
        LOCFRAME XSTACK, 16, STACK
        LOCFRAME IOVERLAY, 0, STATIC
        LOCFRAME DOVERLAY, 0, STATIC
        ARGFRAME ISTACK, 0, STACK
        ARGFRAME PSTACK, 0, STACK
        ARGFRAME XSTACK, 16, STACK
        ARGFRAME IOVERLAY, 0, STATIC
        ARGFRAME DOVERLAY, 0, STATIC
        REQUIRE ?V0
        REQUIRE ?V1
        REQUIRE ?V2
        REQUIRE ?V3
        MOV     A,#-0xc
        LCALL   ?BANKED_ENTER_XDATA
          CFI DPH0 load(1, XDATA, add(CFA_XSP16, literal(-1)))
          CFI DPL0 load(1, XDATA, add(CFA_XSP16, literal(-2)))
          CFI ?BRET_EXT load(1, XDATA, add(CFA_XSP16, literal(-3)))
          CFI ?RET_HIGH load(1, XDATA, add(CFA_XSP16, literal(-4)))
          CFI ?RET_LOW load(1, XDATA, add(CFA_XSP16, literal(-5)))
          CFI R7 load(1, XDATA, add(CFA_XSP16, literal(-6)))
          CFI V3 load(1, XDATA, add(CFA_XSP16, literal(-7)))
          CFI V2 load(1, XDATA, add(CFA_XSP16, literal(-8)))
          CFI V1 load(1, XDATA, add(CFA_XSP16, literal(-9)))
          CFI V0 load(1, XDATA, add(CFA_XSP16, literal(-10)))
          CFI VB load(1, XDATA, add(CFA_XSP16, literal(-11)))
          CFI R6 load(1, XDATA, add(CFA_XSP16, literal(-12)))
          CFI CFA_SP SP+0
          CFI CFA_XSP16 add(XSP16, 12)
        ; Saved register size: 12
        ; Auto size: 0
        MOV     ?V2,R1
        MOV     ?V0,R2
        MOV     ?V1,R3
        MOV     A,R4
        MOV     R6,A
        MOV     A,R5
        MOV     R7,A
// 2210   // Sync up the node with the stack profile (In the case where a pro device
// 2211   // joins a non-pro network, or verse versa)
// 2212   ZDApp_NodeProfileSync( stackProfile);
        ; Setup parameters for call to function ZDApp_NodeProfileSync
        MOV     A,#0xf
        LCALL   ?XSTACK_DISP0_8
        MOVX    A,@DPTR
        MOV     R1,A
        LCALL   ??ZDApp_NodeProfileSync?relay; Banked call to: ZDApp_NodeProfileSync
// 2213 
// 2214   // Request NLME Join Request
// 2215   return NLME_JoinRequest(extendedPanID, panID,channel,
// 2216                           ZDO_Config_Node_Descriptor.CapabilityFlags,
// 2217                           chosenParent, parentDepth);
        ; Setup parameters for call to function NLME_JoinRequest
        MOV     A,#0xe
        LCALL   ?XSTACK_DISP0_8
        MOVX    A,@DPTR
        MOV     ?V3,A
        MOV     R0,#?V3
        LCALL   ?PUSH_XSTACK_I_ONE
          CFI CFA_XSP16 add(XSP16, 13)
        MOV     A,#0xd
        LCALL   ?XSTACK_DISP0_8
        LCALL   ?PUSH_XSTACK8_X_TWO
          CFI CFA_XSP16 add(XSP16, 15)
        MOV     DPTR,#ZDO_Config_Node_Descriptor + 2
        MOVX    A,@DPTR
        MOV     ?V3,A
        MOV     R0,#?V3
        LCALL   ?PUSH_XSTACK_I_ONE
          CFI CFA_XSP16 add(XSP16, 16)
        MOV     R1,?V2
        MOV     R4,?V0
        MOV     R5,?V1
        MOV     A,R6
        MOV     R2,A
        MOV     A,R7
        MOV     R3,A
        LCALL   ??NLME_JoinRequest?relay; Banked call to: NLME_JoinRequest
          CFI EndBlock cfiBlock83
        REQUIRE ?Subroutine9
        ; // Fall through to label ?Subroutine9
// 2218 
// 2219 }

        RSEG BANKED_CODE:CODE:NOROOT(0)
?Subroutine9:
          CFI Block cfiBlock84 Using cfiCommon0
          CFI NoFunction
          CFI CFA_SP SP+0
          CFI CFA_XSP16 add(XSP16, 16)
          CFI VB load(1, XDATA, add(CFA_XSP16, literal(-11)))
          CFI DPL0 load(1, XDATA, add(CFA_XSP16, literal(-2)))
          CFI DPH0 load(1, XDATA, add(CFA_XSP16, literal(-1)))
          CFI R6 load(1, XDATA, add(CFA_XSP16, literal(-12)))
          CFI R7 load(1, XDATA, add(CFA_XSP16, literal(-6)))
          CFI V0 load(1, XDATA, add(CFA_XSP16, literal(-10)))
          CFI V1 load(1, XDATA, add(CFA_XSP16, literal(-9)))
          CFI V2 load(1, XDATA, add(CFA_XSP16, literal(-8)))
          CFI V3 load(1, XDATA, add(CFA_XSP16, literal(-7)))
          CFI ?BRET_EXT load(1, XDATA, add(CFA_XSP16, literal(-3)))
          CFI ?RET_HIGH load(1, XDATA, add(CFA_XSP16, literal(-4)))
          CFI ?RET_LOW load(1, XDATA, add(CFA_XSP16, literal(-5)))
        MOV     A,#0x4
        LJMP    ??Subroutine53_0 & 0xFFFF
          CFI EndBlock cfiBlock84
// 2220 
// 2221 /*********************************************************************
// 2222  * @fn      ZDApp_DeviceConfigured
// 2223  *
// 2224  * @brief   Check to see if the local device is configured (i.e., part
// 2225  *          of a network).
// 2226  *
// 2227  * @param   none
// 2228  *
// 2229  * @return  TRUE if configured. FALSE, otherwise.
// 2230  */

        RSEG BANKED_CODE:CODE:NOROOT(0)
// 2231 uint8 ZDApp_DeviceConfigured( void )
ZDApp_DeviceConfigured:
          CFI Block cfiBlock85 Using cfiCommon0
          CFI Function ZDApp_DeviceConfigured
        CODE
// 2232 {
        FUNCALL ZDApp_DeviceConfigured, osal_nv_read
        LOCFRAME ISTACK, 0, STACK
        LOCFRAME PSTACK, 0, STACK
        LOCFRAME XSTACK, 16, STACK
        LOCFRAME IOVERLAY, 0, STATIC
        LOCFRAME DOVERLAY, 0, STATIC
        ARGFRAME ISTACK, 0, STACK
        ARGFRAME PSTACK, 0, STACK
        ARGFRAME XSTACK, 16, STACK
        ARGFRAME IOVERLAY, 0, STATIC
        ARGFRAME DOVERLAY, 0, STATIC
        REQUIRE ?V0
        REQUIRE ?V1
        MOV     A,#-0xa
        LCALL   ?BANKED_ENTER_XDATA
          CFI DPH0 load(1, XDATA, add(CFA_XSP16, literal(-1)))
          CFI DPL0 load(1, XDATA, add(CFA_XSP16, literal(-2)))
          CFI ?BRET_EXT load(1, XDATA, add(CFA_XSP16, literal(-3)))
          CFI ?RET_HIGH load(1, XDATA, add(CFA_XSP16, literal(-4)))
          CFI ?RET_LOW load(1, XDATA, add(CFA_XSP16, literal(-5)))
          CFI R7 load(1, XDATA, add(CFA_XSP16, literal(-6)))
          CFI V1 load(1, XDATA, add(CFA_XSP16, literal(-7)))
          CFI V0 load(1, XDATA, add(CFA_XSP16, literal(-8)))
          CFI VB load(1, XDATA, add(CFA_XSP16, literal(-9)))
          CFI R6 load(1, XDATA, add(CFA_XSP16, literal(-10)))
          CFI CFA_SP SP+0
          CFI CFA_XSP16 add(XSP16, 10)
        ; Saved register size: 10
        ; Auto size: 2
        MOV     A,#-0x2
        LCALL   ?ALLOC_XSTACK8
          CFI CFA_XSP16 add(XSP16, 12)
// 2233   uint16 nwkAddr = INVALID_NODE_ADDR;
        MOV     DPL,?XSP + 0
        MOV     DPH,?XSP + 1
        MOV     A,#-0x2
        MOVX    @DPTR,A
        INC     DPTR
        INC     A
        MOVX    @DPTR,A
// 2234 
// 2235   osal_nv_read( ZCD_NV_NIB, osal_offsetof( nwkIB_t, nwkDevAddress ),
// 2236                 sizeof( uint16), &nwkAddr );
        ; Setup parameters for call to function osal_nv_read
        MOV     R0,?XSP + 0
        MOV     R1,?XSP + 1
        MOV     ?V0,R0
        MOV     ?V1,R1
        MOV     R0,#?V0
        LCALL   ?PUSH_XSTACK_I_TWO
          CFI CFA_XSP16 add(XSP16, 14)
        MOV     ?V0,#0x2
        MOV     ?V1,#0x0
        MOV     R0,#?V0
        LCALL   ?PUSH_XSTACK_I_TWO
          CFI CFA_XSP16 add(XSP16, 16)
        MOV     R4,#0x14
        MOV     R5,#0x0
        MOV     R2,#0x21
        MOV     R3,#0x0
        LCALL   ??osal_nv_read?relay ; Banked call to: osal_nv_read
        MOV     A,#0x4
        LCALL   ?DEALLOC_XSTACK8
          CFI CFA_XSP16 add(XSP16, 12)
// 2237 
// 2238   // Does the NIB have anything more than default?
// 2239   return ( nwkAddr == INVALID_NODE_ADDR ? FALSE : TRUE );
        MOV     DPL,?XSP + 0
        MOV     DPH,?XSP + 1
        MOVX    A,@DPTR
        XRL     A,#0xfe
        JNZ     ??ZDApp_DeviceConfigured_0
        INC     DPTR
        MOVX    A,@DPTR
        CPL     A
??ZDApp_DeviceConfigured_0:
        JNZ     ??ZDApp_DeviceConfigured_1
        MOV     R1,#0x0
        SJMP    ??ZDApp_DeviceConfigured_2
??ZDApp_DeviceConfigured_1:
        MOV     R1,#0x1
??ZDApp_DeviceConfigured_2:
        MOV     A,#0x2
        LJMP    ??Subroutine50_0 & 0xFFFF
          CFI EndBlock cfiBlock85
// 2240 }
// 2241 
// 2242 /*********************************************************************
// 2243  * CALLBACK FUNCTIONS
// 2244  */
// 2245 
// 2246 
// 2247 /*********************************************************************
// 2248  * @fn      ZDApp_SendEventMsg()
// 2249  *
// 2250  * @brief
// 2251  *
// 2252  *   Sends a Network Join message
// 2253  *
// 2254  * @param  cmd - command ID
// 2255  * @param  len - length (in bytes) of the buf field
// 2256  * @param  buf - buffer for the rest of the message.
// 2257  *
// 2258  * @return  none
// 2259  */

        RSEG BANKED_CODE:CODE:NOROOT(0)
// 2260 void ZDApp_SendEventMsg( uint8 cmd, uint8 len, uint8 *buf )
ZDApp_SendEventMsg:
          CFI Block cfiBlock86 Using cfiCommon0
          CFI Function ZDApp_SendEventMsg
        CODE
// 2261 {
        FUNCALL ZDApp_SendEventMsg, ZDApp_SendMsg
        LOCFRAME ISTACK, 0, STACK
        LOCFRAME PSTACK, 0, STACK
        LOCFRAME XSTACK, 9, STACK
        LOCFRAME IOVERLAY, 0, STATIC
        LOCFRAME DOVERLAY, 0, STATIC
        ARGFRAME ISTACK, 0, STACK
        ARGFRAME PSTACK, 0, STACK
        ARGFRAME XSTACK, 9, STACK
        ARGFRAME IOVERLAY, 0, STATIC
        ARGFRAME DOVERLAY, 0, STATIC
        MOV     A,#-0x9
        LCALL   ?BANKED_ENTER_XDATA
          CFI DPH0 load(1, XDATA, add(CFA_XSP16, literal(-1)))
          CFI DPL0 load(1, XDATA, add(CFA_XSP16, literal(-2)))
          CFI ?BRET_EXT load(1, XDATA, add(CFA_XSP16, literal(-3)))
          CFI ?RET_HIGH load(1, XDATA, add(CFA_XSP16, literal(-4)))
          CFI ?RET_LOW load(1, XDATA, add(CFA_XSP16, literal(-5)))
          CFI R7 load(1, XDATA, add(CFA_XSP16, literal(-6)))
          CFI V0 load(1, XDATA, add(CFA_XSP16, literal(-7)))
          CFI VB load(1, XDATA, add(CFA_XSP16, literal(-8)))
          CFI R6 load(1, XDATA, add(CFA_XSP16, literal(-9)))
          CFI CFA_SP SP+0
          CFI CFA_XSP16 add(XSP16, 9)
        ; Saved register size: 9
        ; Auto size: 0
        MOV     A,R1
        MOV     R6,A
        MOV     A,R2
// 2262   ZDApp_SendMsg( ZDAppTaskID, cmd, len, buf );
        ; Setup parameters for call to function ZDApp_SendMsg
        MOV     R3,A
        MOV     A,R6
        MOV     R2,A
        MOV     DPTR,#ZDAppTaskID
        MOVX    A,@DPTR
        MOV     R1,A
        LCALL   ??ZDApp_SendMsg?relay; Banked call to: ZDApp_SendMsg
// 2263 }
        SJMP    ??Subroutine44_0
          CFI EndBlock cfiBlock86

        RSEG BANKED_CODE:CODE:NOROOT(0)
?Subroutine0:
          CFI Block cfiBlock87 Using cfiCommon0
          CFI NoFunction
          CFI CFA_SP SP+0
          CFI CFA_XSP16 add(XSP16, 9)
          CFI VB load(1, XDATA, add(CFA_XSP16, literal(-8)))
          CFI DPL0 load(1, XDATA, add(CFA_XSP16, literal(-2)))
          CFI DPH0 load(1, XDATA, add(CFA_XSP16, literal(-1)))
          CFI R6 load(1, XDATA, add(CFA_XSP16, literal(-9)))
          CFI R7 load(1, XDATA, add(CFA_XSP16, literal(-6)))
          CFI V0 load(1, XDATA, add(CFA_XSP16, literal(-7)))
          CFI ?BRET_EXT load(1, XDATA, add(CFA_XSP16, literal(-3)))
          CFI ?RET_HIGH load(1, XDATA, add(CFA_XSP16, literal(-4)))
          CFI ?RET_LOW load(1, XDATA, add(CFA_XSP16, literal(-5)))
        MOV     R3,#0x0
        MOV     DPTR,#ZDAppTaskID
        MOVX    A,@DPTR
        MOV     R1,A
        LCALL   ??osal_set_event?relay; Banked call to: osal_set_event
          CFI EndBlock cfiBlock87
        REQUIRE ??Subroutine44_0
        ; // Fall through to label ??Subroutine44_0

        RSEG BANKED_CODE:CODE:NOROOT(0)
??Subroutine44_0:
          CFI Block cfiBlock88 Using cfiCommon0
          CFI NoFunction
          CFI CFA_SP SP+0
          CFI CFA_XSP16 add(XSP16, 9)
          CFI VB load(1, XDATA, add(CFA_XSP16, literal(-8)))
          CFI DPL0 load(1, XDATA, add(CFA_XSP16, literal(-2)))
          CFI DPH0 load(1, XDATA, add(CFA_XSP16, literal(-1)))
          CFI R6 load(1, XDATA, add(CFA_XSP16, literal(-9)))
          CFI R7 load(1, XDATA, add(CFA_XSP16, literal(-6)))
          CFI V0 load(1, XDATA, add(CFA_XSP16, literal(-7)))
          CFI ?BRET_EXT load(1, XDATA, add(CFA_XSP16, literal(-3)))
          CFI ?RET_HIGH load(1, XDATA, add(CFA_XSP16, literal(-4)))
          CFI ?RET_LOW load(1, XDATA, add(CFA_XSP16, literal(-5)))
        MOV     R7,#0x1
        LJMP    ?BANKED_LEAVE_XDATA
          CFI EndBlock cfiBlock88
// 2264 
// 2265 /*********************************************************************
// 2266  * @fn      ZDApp_SendMsg()
// 2267  *
// 2268  * @brief   Sends a OSAL message
// 2269  *
// 2270  * @param  taskID - Where to send the message
// 2271  * @param  cmd - command ID
// 2272  * @param  len - length (in bytes) of the buf field
// 2273  * @param  buf - buffer for the rest of the message.
// 2274  *
// 2275  * @return  none
// 2276  */

        RSEG BANKED_CODE:CODE:NOROOT(0)
// 2277 void ZDApp_SendMsg( uint8 taskID, uint8 cmd, uint8 len, uint8 *buf )
ZDApp_SendMsg:
          CFI Block cfiBlock89 Using cfiCommon0
          CFI Function ZDApp_SendMsg
        CODE
// 2278 {
        FUNCALL ZDApp_SendMsg, osal_msg_allocate
        LOCFRAME ISTACK, 0, STACK
        LOCFRAME PSTACK, 0, STACK
        LOCFRAME XSTACK, 19, STACK
        LOCFRAME IOVERLAY, 0, STATIC
        LOCFRAME DOVERLAY, 0, STATIC
        ARGFRAME ISTACK, 0, STACK
        ARGFRAME PSTACK, 0, STACK
        ARGFRAME XSTACK, 19, STACK
        ARGFRAME IOVERLAY, 0, STATIC
        ARGFRAME DOVERLAY, 0, STATIC
        FUNCALL ZDApp_SendMsg, osal_memcpy
        LOCFRAME ISTACK, 0, STACK
        LOCFRAME PSTACK, 0, STACK
        LOCFRAME XSTACK, 22, STACK
        LOCFRAME IOVERLAY, 0, STATIC
        LOCFRAME DOVERLAY, 0, STATIC
        ARGFRAME ISTACK, 0, STACK
        ARGFRAME PSTACK, 0, STACK
        ARGFRAME XSTACK, 22, STACK
        ARGFRAME IOVERLAY, 0, STATIC
        ARGFRAME DOVERLAY, 0, STATIC
        FUNCALL ZDApp_SendMsg, osal_msg_send
        LOCFRAME ISTACK, 0, STACK
        LOCFRAME PSTACK, 0, STACK
        LOCFRAME XSTACK, 19, STACK
        LOCFRAME IOVERLAY, 0, STATIC
        LOCFRAME DOVERLAY, 0, STATIC
        ARGFRAME ISTACK, 0, STACK
        ARGFRAME PSTACK, 0, STACK
        ARGFRAME XSTACK, 19, STACK
        ARGFRAME IOVERLAY, 0, STATIC
        ARGFRAME DOVERLAY, 0, STATIC
        REQUIRE ?V0
        REQUIRE ?V1
        REQUIRE ?V2
        REQUIRE ?V3
        REQUIRE ?V4
        REQUIRE ?V5
        REQUIRE ?V6
        REQUIRE ?V8
        REQUIRE ?V9
        REQUIRE ?V10
        MOV     A,#-0x13
        LCALL   ?BANKED_ENTER_XDATA
          CFI DPH0 load(1, XDATA, add(CFA_XSP16, literal(-1)))
          CFI DPL0 load(1, XDATA, add(CFA_XSP16, literal(-2)))
          CFI ?BRET_EXT load(1, XDATA, add(CFA_XSP16, literal(-3)))
          CFI ?RET_HIGH load(1, XDATA, add(CFA_XSP16, literal(-4)))
          CFI ?RET_LOW load(1, XDATA, add(CFA_XSP16, literal(-5)))
          CFI R7 load(1, XDATA, add(CFA_XSP16, literal(-6)))
          CFI V10 load(1, XDATA, add(CFA_XSP16, literal(-7)))
          CFI V9 load(1, XDATA, add(CFA_XSP16, literal(-8)))
          CFI V8 load(1, XDATA, add(CFA_XSP16, literal(-9)))
          CFI V7 load(1, XDATA, add(CFA_XSP16, literal(-10)))
          CFI V6 load(1, XDATA, add(CFA_XSP16, literal(-11)))
          CFI V5 load(1, XDATA, add(CFA_XSP16, literal(-12)))
          CFI V4 load(1, XDATA, add(CFA_XSP16, literal(-13)))
          CFI V3 load(1, XDATA, add(CFA_XSP16, literal(-14)))
          CFI V2 load(1, XDATA, add(CFA_XSP16, literal(-15)))
          CFI V1 load(1, XDATA, add(CFA_XSP16, literal(-16)))
          CFI V0 load(1, XDATA, add(CFA_XSP16, literal(-17)))
          CFI VB load(1, XDATA, add(CFA_XSP16, literal(-18)))
          CFI R6 load(1, XDATA, add(CFA_XSP16, literal(-19)))
          CFI CFA_SP SP+0
          CFI CFA_XSP16 add(XSP16, 19)
        ; Saved register size: 19
        ; Auto size: 0
        MOV     ?V4,R1
        MOV     ?V6,R2
        MOV     ?V5,R3
        MOV     ?V2,R4
        MOV     ?V3,R5
// 2279   osal_event_hdr_t *msgPtr;
// 2280 
// 2281   // Send the address to the task
// 2282   msgPtr = (osal_event_hdr_t *)osal_msg_allocate( len );
        MOV     R6,?V5
        ; Setup parameters for call to function osal_msg_allocate
        MOV     A,R6
        MOV     R2,A
        MOV     R3,#0x0
        LCALL   ??osal_msg_allocate?relay; Banked call to: osal_msg_allocate
        MOV     ?V0,R2
        MOV     ?V1,R3
// 2283   if ( msgPtr )
        MOV     A,R2
        ORL     A,?V1
        JZ      ??ZDApp_SendMsg_0
// 2284   {
// 2285     if ( (len > 0) && (buf != NULL) )
        MOV     A,R6
        JZ      ??ZDApp_SendMsg_1
        MOV     A,?V2
        ORL     A,?V3
        JZ      ??ZDApp_SendMsg_1
// 2286       osal_memcpy( msgPtr, buf, len );
        ; Setup parameters for call to function osal_memcpy
        MOV     ?V8,?V2
        MOV     ?V9,?V3
        MOV     ?V10,#0x0
        MOV     R0,#?V8
        LCALL   ?PUSH_XSTACK_I_THREE
          CFI CFA_XSP16 add(XSP16, 22)
        MOV     A,R6
        MOV     R4,A
        MOV     R5,#0x0
        LCALL   ??osal_memcpy?relay  ; Banked call to: osal_memcpy
        MOV     A,#0x3
        LCALL   ?DEALLOC_XSTACK8
          CFI CFA_XSP16 add(XSP16, 19)
// 2287 
// 2288     msgPtr->event = cmd;
??ZDApp_SendMsg_1:
        MOV     DPL,?V0
        MOV     DPH,?V1
        MOV     A,?V6
        MOVX    @DPTR,A
// 2289     osal_msg_send( taskID, (uint8 *)msgPtr );
        ; Setup parameters for call to function osal_msg_send
        MOV     R2,?V0
        MOV     R3,?V1
        MOV     R1,?V4
        LCALL   ??osal_msg_send?relay; Banked call to: osal_msg_send
// 2290   }
// 2291 }
??ZDApp_SendMsg_0:
        MOV     R7,#0xb
        LJMP    ?BANKED_LEAVE_XDATA
          CFI EndBlock cfiBlock89
// 2292 
// 2293 /*********************************************************************
// 2294  * Call Back Functions from NWK  - API
// 2295  */
// 2296 
// 2297 /*********************************************************************
// 2298  * @fn          ZDO_NetworkDiscoveryConfirmCB
// 2299  *
// 2300  * @brief       This function returns a choice of PAN to join.
// 2301  *
// 2302  * @param       status - return status of the nwk discovery confirm
// 2303  *
// 2304  * @return      ZStatus_t
// 2305  */

        RSEG BANKED_CODE:CODE:NOROOT(0)
// 2306 ZStatus_t ZDO_NetworkDiscoveryConfirmCB(uint8 status)
ZDO_NetworkDiscoveryConfirmCB:
          CFI Block cfiBlock90 Using cfiCommon0
          CFI Function ZDO_NetworkDiscoveryConfirmCB
        CODE
// 2307 {
        FUNCALL ZDO_NetworkDiscoveryConfirmCB, ZDApp_SendMsg
        LOCFRAME ISTACK, 2, STACK
        LOCFRAME PSTACK, 0, STACK
        LOCFRAME XSTACK, 3, STACK
        LOCFRAME IOVERLAY, 0, STATIC
        LOCFRAME DOVERLAY, 0, STATIC
        ARGFRAME ISTACK, 2, STACK
        ARGFRAME PSTACK, 0, STACK
        ARGFRAME XSTACK, 3, STACK
        ARGFRAME IOVERLAY, 0, STATIC
        ARGFRAME DOVERLAY, 0, STATIC
        PUSH    DPL
          CFI DPL0 Frame(CFA_SP, 4)
          CFI CFA_SP SP+-4
        PUSH    DPH
          CFI DPH0 Frame(CFA_SP, 5)
          CFI CFA_SP SP+-5
        ; Saved register size: 2
        ; Auto size: 3
        MOV     A,#-0x3
        LCALL   ?ALLOC_XSTACK8
          CFI CFA_XSP16 add(XSP16, 3)
        MOV     A,R1
        MOV     DPL,?XSP + 0
        MOV     DPH,?XSP + 1
        MOVX    @DPTR,A
// 2308   osal_event_hdr_t msg;
// 2309 
// 2310   // If Scan is initiated by ZDO_MGMT_NWK_DISC_REQ
// 2311   // Send ZDO_MGMT_NWK_DISC_RSP back
// 2312 #if defined ( ZDO_MGMT_NWKDISC_RESPONSE )
// 2313   if ( zdappMgmtNwkDiscReqInProgress )
// 2314   {
// 2315     zdappMgmtNwkDiscReqInProgress = false;
// 2316     ZDO_FinishProcessingMgmtNwkDiscReq();
// 2317   }
// 2318   else
// 2319 #endif
// 2320   {
// 2321     // Pass the confirm to another task if it registers the callback
// 2322     // Otherwise, pass the confirm to ZDApp.
// 2323     if (zdoCBFunc[ZDO_NWK_DISCOVERY_CNF_CBID] != NULL )
        MOV     DPTR,#zdoCBFunc + 4
        LCALL   ?Subroutine17 & 0xFFFF
??CrossCallReturnLabel_6:
        JZ      ??ZDO_NetworkDiscoveryConfirmCB_0
// 2324     {
// 2325       zdoCBFunc[ZDO_NWK_DISCOVERY_CNF_CBID]( (void*)&status );
        ; Setup parameters for indirect call
        MOV     R2,?XSP + 0
        MOV     R3,?XSP + 1
        LCALL   ?CALL_IND
        SJMP    ??ZDO_NetworkDiscoveryConfirmCB_1
// 2326     }
// 2327     else
// 2328     {
// 2329       // Otherwise, send scan confirm to ZDApp task to proceed
// 2330       msg.status = ZDO_SUCCESS;
??ZDO_NetworkDiscoveryConfirmCB_0:
        MOV     A,#0x2
        LCALL   ?XSTACK_DISP0_8
        CLR     A
        MOVX    @DPTR,A
// 2331       ZDApp_SendMsg( ZDAppTaskID, ZDO_NWK_DISC_CNF, sizeof(osal_event_hdr_t), (uint8 *)&msg );
        ; Setup parameters for call to function ZDApp_SendMsg
        INC     A
        LCALL   ?XSTACK_DISP102_8
        MOV     R3,#0x2
        MOV     R2,#0x1
        MOV     DPTR,#ZDAppTaskID
        MOVX    A,@DPTR
        MOV     R1,A
        LCALL   ??ZDApp_SendMsg?relay; Banked call to: ZDApp_SendMsg
// 2332     }
// 2333   }
// 2334   return (ZSuccess);
??ZDO_NetworkDiscoveryConfirmCB_1:
        MOV     R1,#0x0
        MOV     A,#0x3
        LJMP    ?Subroutine3 & 0xFFFF
          CFI EndBlock cfiBlock90
// 2335 }  // ZDO_NetworkDiscoveryConfirmCB
// 2336 
// 2337 /*********************************************************************
// 2338  * @fn          ZDApp_NwkDescListProcessing
// 2339  *
// 2340  * @brief       This function process the network discovery result and select
// 2341  *              a parent device to join itself.
// 2342  *
// 2343  * @param       none
// 2344  *
// 2345  * @return      ZStatus_t
// 2346  */
// 2347 #define STACK_PROFILE_MAX 2

        RSEG BANKED_CODE:CODE:NOROOT(0)
// 2348 networkDesc_t* ZDApp_NwkDescListProcessing(void)
ZDApp_NwkDescListProcessing:
          CFI Block cfiBlock91 Using cfiCommon0
          CFI Function ZDApp_NwkDescListProcessing
        CODE
// 2349 {
        FUNCALL ZDApp_NwkDescListProcessing, nwk_getNwkDescList
        LOCFRAME ISTACK, 0, STACK
        LOCFRAME PSTACK, 0, STACK
        LOCFRAME XSTACK, 14, STACK
        LOCFRAME IOVERLAY, 0, STATIC
        LOCFRAME DOVERLAY, 0, STATIC
        ARGFRAME ISTACK, 0, STACK
        ARGFRAME PSTACK, 0, STACK
        ARGFRAME XSTACK, 14, STACK
        ARGFRAME IOVERLAY, 0, STATIC
        ARGFRAME DOVERLAY, 0, STATIC
        FUNCALL ZDApp_NwkDescListProcessing, nwk_getNwkDescList
        LOCFRAME ISTACK, 0, STACK
        LOCFRAME PSTACK, 0, STACK
        LOCFRAME XSTACK, 14, STACK
        LOCFRAME IOVERLAY, 0, STATIC
        LOCFRAME DOVERLAY, 0, STATIC
        ARGFRAME ISTACK, 0, STACK
        ARGFRAME PSTACK, 0, STACK
        ARGFRAME XSTACK, 14, STACK
        ARGFRAME IOVERLAY, 0, STATIC
        ARGFRAME DOVERLAY, 0, STATIC
        FUNCALL ZDApp_NwkDescListProcessing, nwk_ExtPANIDValid
        LOCFRAME ISTACK, 0, STACK
        LOCFRAME PSTACK, 0, STACK
        LOCFRAME XSTACK, 14, STACK
        LOCFRAME IOVERLAY, 0, STATIC
        LOCFRAME DOVERLAY, 0, STATIC
        ARGFRAME ISTACK, 0, STACK
        ARGFRAME PSTACK, 0, STACK
        ARGFRAME XSTACK, 14, STACK
        ARGFRAME IOVERLAY, 0, STATIC
        ARGFRAME DOVERLAY, 0, STATIC
        FUNCALL ZDApp_NwkDescListProcessing, sAddrExtCmp
        LOCFRAME ISTACK, 0, STACK
        LOCFRAME PSTACK, 0, STACK
        LOCFRAME XSTACK, 14, STACK
        LOCFRAME IOVERLAY, 0, STATIC
        LOCFRAME DOVERLAY, 0, STATIC
        ARGFRAME ISTACK, 0, STACK
        ARGFRAME PSTACK, 0, STACK
        ARGFRAME XSTACK, 14, STACK
        ARGFRAME IOVERLAY, 0, STATIC
        ARGFRAME DOVERLAY, 0, STATIC
        FUNCALL ZDApp_NwkDescListProcessing, nwk_desc_list_free
        LOCFRAME ISTACK, 0, STACK
        LOCFRAME PSTACK, 0, STACK
        LOCFRAME XSTACK, 14, STACK
        LOCFRAME IOVERLAY, 0, STATIC
        LOCFRAME DOVERLAY, 0, STATIC
        ARGFRAME ISTACK, 0, STACK
        ARGFRAME PSTACK, 0, STACK
        ARGFRAME XSTACK, 14, STACK
        ARGFRAME IOVERLAY, 0, STATIC
        ARGFRAME DOVERLAY, 0, STATIC
        REQUIRE ?V0
        REQUIRE ?V1
        REQUIRE ?V2
        REQUIRE ?V3
        REQUIRE ?V4
        REQUIRE ?V5
        MOV     A,#-0xe
        LCALL   ?BANKED_ENTER_XDATA
          CFI DPH0 load(1, XDATA, add(CFA_XSP16, literal(-1)))
          CFI DPL0 load(1, XDATA, add(CFA_XSP16, literal(-2)))
          CFI ?BRET_EXT load(1, XDATA, add(CFA_XSP16, literal(-3)))
          CFI ?RET_HIGH load(1, XDATA, add(CFA_XSP16, literal(-4)))
          CFI ?RET_LOW load(1, XDATA, add(CFA_XSP16, literal(-5)))
          CFI R7 load(1, XDATA, add(CFA_XSP16, literal(-6)))
          CFI V5 load(1, XDATA, add(CFA_XSP16, literal(-7)))
          CFI V4 load(1, XDATA, add(CFA_XSP16, literal(-8)))
          CFI V3 load(1, XDATA, add(CFA_XSP16, literal(-9)))
          CFI V2 load(1, XDATA, add(CFA_XSP16, literal(-10)))
          CFI V1 load(1, XDATA, add(CFA_XSP16, literal(-11)))
          CFI V0 load(1, XDATA, add(CFA_XSP16, literal(-12)))
          CFI VB load(1, XDATA, add(CFA_XSP16, literal(-13)))
          CFI R6 load(1, XDATA, add(CFA_XSP16, literal(-14)))
          CFI CFA_SP SP+0
          CFI CFA_XSP16 add(XSP16, 14)
        ; Saved register size: 14
        ; Auto size: 0
// 2350   networkDesc_t *pNwkDesc;
// 2351   uint8 i, ResultCount = 0;
        MOV     ?V1,#0x0
// 2352   uint8 stackProfile;
// 2353   uint8 stackProfilePro;
// 2354   uint8 selected;
// 2355 
// 2356   // Count the number of nwk descriptors in the list
// 2357   pNwkDesc = nwk_getNwkDescList();
        ; Setup parameters for call to function nwk_getNwkDescList
        LCALL   ??nwk_getNwkDescList?relay; Banked call to: nwk_getNwkDescList
        MOV     ?V2,R2
        MOV     ?V3,R3
        MOV     R6,?V2
        MOV     R7,?V3
        SJMP    ??CrossCallReturnLabel_64
// 2358   while (pNwkDesc)
// 2359   {
// 2360     ResultCount++;
??ZDApp_NwkDescListProcessing_0:
        INC     ?V1
// 2361     pNwkDesc = pNwkDesc->nextDesc;
        LCALL   ?Subroutine24 & 0xFFFF
// 2362   }
??CrossCallReturnLabel_64:
        MOV     A,R6
        ORL     A,R7
        JNZ     ??ZDApp_NwkDescListProcessing_0
// 2363 
// 2364   // process discovery results
// 2365   stackProfilePro = FALSE;
        MOV     ?V0,#0x0
// 2366   selected = FALSE;
// 2367 
// 2368 
// 2369   for ( stackProfile = 0; stackProfile < STACK_PROFILE_MAX; stackProfile++ )
        MOV     ?V2,#0x0
// 2370   {
// 2371     pNwkDesc = nwk_getNwkDescList();
??ZDApp_NwkDescListProcessing_1:
        ; Setup parameters for call to function nwk_getNwkDescList
        LCALL   ??nwk_getNwkDescList?relay; Banked call to: nwk_getNwkDescList
        MOV     ?V4,R2
        MOV     ?V5,R3
        MOV     R6,?V4
        MOV     R7,?V5
// 2372     for ( i = 0; i < ResultCount; i++, pNwkDesc = pNwkDesc->nextDesc )
        MOV     ?V3,#0x0
        SJMP    ??CrossCallReturnLabel_65
// 2373     {
// 2374        if ( nwk_ExtPANIDValid( ZDO_UseExtendedPANID ) == true )
// 2375       {
// 2376         // If the extended Pan ID is commissioned to a non zero value
// 2377         // Only join the Pan that has match EPID
// 2378         if ( osal_ExtAddrEqual( ZDO_UseExtendedPANID, pNwkDesc->extendedPANID) == false )
// 2379           continue;
// 2380 
// 2381       }
// 2382       else if ( zgConfigPANID != 0xFFFF )
// 2383       {
// 2384         // PAN Id is preconfigured. check if it matches
// 2385         if ( pNwkDesc->panId != zgConfigPANID )
// 2386           continue;
// 2387       }
// 2388 
// 2389       if ( pNwkDesc->chosenRouter != _NIB.nwkCoordAddress || _NIB.nwkCoordAddress == INVALID_NODE_ADDR )
// 2390       {
// 2391         // check that network is allowing joining
// 2392         if ( ZSTACK_ROUTER_BUILD )
// 2393         {
// 2394           if ( stackProfilePro == FALSE )
// 2395           {
// 2396             if ( !pNwkDesc->routerCapacity )
// 2397             {
// 2398               continue;
// 2399             }
// 2400           }
// 2401           else
// 2402           {
// 2403             if ( !pNwkDesc->deviceCapacity )
// 2404             {
// 2405               continue;
// 2406             }
// 2407           }
// 2408         }
// 2409         else if ( ZSTACK_END_DEVICE_BUILD )
// 2410         {
// 2411           if ( !pNwkDesc->deviceCapacity )
// 2412           {
// 2413             continue;
// 2414           }
// 2415         }
// 2416       }
// 2417 
// 2418       // check version of zigbee protocol
// 2419       if ( pNwkDesc->version != _NIB.nwkProtocolVersion )
// 2420         continue;
// 2421 
// 2422       // check version of stack profile
// 2423       if ( pNwkDesc->stackProfile != zgStackProfile  )
// 2424       {
// 2425         if ( ((zgStackProfile == HOME_CONTROLS) && (pNwkDesc->stackProfile == ZIGBEEPRO_PROFILE))
// 2426             || ((zgStackProfile == ZIGBEEPRO_PROFILE) && (pNwkDesc->stackProfile == HOME_CONTROLS))  )
??ZDApp_NwkDescListProcessing_2:
        MOVX    A,@DPTR
        XRL     A,#0x2
        JNZ     ??ZDApp_NwkDescListProcessing_3
        MOV     A,#0x1
        XRL     A,R0
        JNZ     ??ZDApp_NwkDescListProcessing_3
// 2427         {
// 2428           stackProfilePro = TRUE;
??ZDApp_NwkDescListProcessing_4:
        MOV     ?V0,#0x1
// 2429         }
// 2430 
// 2431         if ( stackProfile == 0 )
??ZDApp_NwkDescListProcessing_3:
        MOV     A,?V2
        JZ      $+5
        LJMP    ??ZDApp_NwkDescListProcessing_5 & 0xFFFF
??ZDApp_NwkDescListProcessing_6:
        INC     ?V3
        LCALL   ?Subroutine24 & 0xFFFF
??CrossCallReturnLabel_65:
        MOV     A,?V3
        CLR     C
        SUBB    A,?V1
        JC      $+5
        LJMP    ??ZDApp_NwkDescListProcessing_7 & 0xFFFF
        ; Setup parameters for call to function nwk_ExtPANIDValid
        MOV     R2,#ZDO_UseExtendedPANID & 0xff
        MOV     R3,#(ZDO_UseExtendedPANID >> 8) & 0xff
        LCALL   ??nwk_ExtPANIDValid?relay; Banked call to: nwk_ExtPANIDValid
        MOV     A,R1
        XRL     A,#0x1
        JNZ     ??ZDApp_NwkDescListProcessing_8
        ; Setup parameters for call to function sAddrExtCmp
        MOV     A,R6
        ADD     A,#0xb
        MOV     R4,A
        CLR     A
        ADDC    A,R7
        MOV     R5,A
        MOV     R2,#ZDO_UseExtendedPANID & 0xff
        MOV     R3,#(ZDO_UseExtendedPANID >> 8) & 0xff
        LCALL   ??sAddrExtCmp?relay  ; Banked call to: sAddrExtCmp
        MOV     A,R1
        JNZ     ??ZDApp_NwkDescListProcessing_9
        SJMP    ??ZDApp_NwkDescListProcessing_6
??ZDApp_NwkDescListProcessing_8:
        MOV     DPTR,#zgConfigPANID
        MOVX    A,@DPTR
        CPL     A
        JNZ     ??ZDApp_NwkDescListProcessing_10
        INC     DPTR
        MOVX    A,@DPTR
        CPL     A
??ZDApp_NwkDescListProcessing_10:
        JZ      ??ZDApp_NwkDescListProcessing_9
        LCALL   ?Subroutine23 & 0xFFFF
??CrossCallReturnLabel_93:
        MOV     DPTR,#zgConfigPANID
        MOVX    A,@DPTR
        XRL     A,R0
        JNZ     ??ZDApp_NwkDescListProcessing_11
        INC     DPTR
        MOVX    A,@DPTR
        XRL     A,R1
??ZDApp_NwkDescListProcessing_11:
        JNZ     ??ZDApp_NwkDescListProcessing_6
??ZDApp_NwkDescListProcessing_9:
        MOV     DPTR,#_NIB + 23
        LCALL   ?Subroutine22 & 0xFFFF
??CrossCallReturnLabel_17:
        INC     DPTR
        MOVX    A,@DPTR
        XRL     A,R0
        JNZ     ??ZDApp_NwkDescListProcessing_12
        INC     DPTR
        MOVX    A,@DPTR
        XRL     A,R1
??ZDApp_NwkDescListProcessing_12:
        JNZ     ??ZDApp_NwkDescListProcessing_13
        MOV     A,#-0x2
        XRL     A,R0
        JNZ     ??ZDApp_NwkDescListProcessing_14
        MOV     A,#-0x1
        XRL     A,R1
??ZDApp_NwkDescListProcessing_14:
        JNZ     ??ZDApp_NwkDescListProcessing_15
??ZDApp_NwkDescListProcessing_13:
        MOV     DPL,R6
        MOV     DPH,R7
        INC     DPTR
        INC     DPTR
        INC     DPTR
        INC     DPTR
        MOVX    A,@DPTR
        JZ      ??ZDApp_NwkDescListProcessing_6
??ZDApp_NwkDescListProcessing_15:
        MOV     DPL,R6
        MOV     DPH,R7
        INC     DPTR
        INC     DPTR
        INC     DPTR
        INC     DPTR
        INC     DPTR
        MOVX    A,@DPTR
        MOV     R0,A
        MOV     DPTR,#_NIB + 17
        MOVX    A,@DPTR
        XRL     A,R0
        JNZ     ??ZDApp_NwkDescListProcessing_6
        MOV     DPL,R6
        MOV     DPH,R7
        INC     DPTR
        INC     DPTR
        INC     DPTR
        INC     DPTR
        INC     DPTR
        INC     DPTR
        MOVX    A,@DPTR
        MOV     R0,A
        MOV     DPTR,#zgStackProfile
        MOVX    A,@DPTR
        XRL     A,R0
        JZ      ??ZDApp_NwkDescListProcessing_5
        MOVX    A,@DPTR
        XRL     A,#0x1
        JZ      $+5
        LJMP    ??ZDApp_NwkDescListProcessing_2 & 0xFFFF
        MOV     A,#0x2
        XRL     A,R0
        JZ      $+5
        LJMP    ??ZDApp_NwkDescListProcessing_3 & 0xFFFF
        LJMP    ??ZDApp_NwkDescListProcessing_4 & 0xFFFF
// 2432         {
// 2433           continue;
// 2434         }
// 2435       }
// 2436 
// 2437       break;
// 2438     }
// 2439 
// 2440     if (i < ResultCount)
// 2441     {
// 2442      selected = TRUE;
// 2443       break;
// 2444     }
// 2445 
// 2446     // break if selected or stack profile pro wasn't found
// 2447     if ( (selected == TRUE) || (stackProfilePro == FALSE) )
??ZDApp_NwkDescListProcessing_7:
        MOV     A,?V0
        JZ      ??ZDApp_NwkDescListProcessing_16
// 2448     {
// 2449       break;
// 2450     }
// 2451   }
        INC     ?V2
        MOV     A,?V2
        CLR     C
        SUBB    A,#0x2
        JNC     $+5
        LJMP    ??ZDApp_NwkDescListProcessing_1 & 0xFFFF
// 2452 
// 2453   if ( i == ResultCount )
??ZDApp_NwkDescListProcessing_16:
        MOV     A,?V1
        XRL     A,?V3
        JNZ     ??ZDApp_NwkDescListProcessing_5
// 2454   {
// 2455     nwk_desc_list_free();
        ; Setup parameters for call to function nwk_desc_list_free
        LCALL   ??nwk_desc_list_free?relay; Banked call to: nwk_desc_list_free
// 2456     return (NULL);   // couldn't find appropriate PAN to join !
        MOV     R2,#0x0
        MOV     R3,#0x0
        SJMP    ??ZDApp_NwkDescListProcessing_17
// 2457   }
// 2458   else
// 2459   {
// 2460     return (pNwkDesc);
??ZDApp_NwkDescListProcessing_5:
        MOV     A,R6
        MOV     R2,A
        MOV     A,R7
        MOV     R3,A
          CFI EndBlock cfiBlock91
// 2461   }
??ZDApp_NwkDescListProcessing_17:
        REQUIRE ?Subroutine1
        ; // Fall through to label ?Subroutine1
// 2462 }// ZDApp_NwkDescListProcessing()

        RSEG BANKED_CODE:CODE:NOROOT(0)
?Subroutine1:
          CFI Block cfiBlock92 Using cfiCommon0
          CFI NoFunction
          CFI CFA_SP SP+0
          CFI CFA_XSP16 add(XSP16, 14)
          CFI VB load(1, XDATA, add(CFA_XSP16, literal(-13)))
          CFI DPL0 load(1, XDATA, add(CFA_XSP16, literal(-2)))
          CFI DPH0 load(1, XDATA, add(CFA_XSP16, literal(-1)))
          CFI R6 load(1, XDATA, add(CFA_XSP16, literal(-14)))
          CFI R7 load(1, XDATA, add(CFA_XSP16, literal(-6)))
          CFI V0 load(1, XDATA, add(CFA_XSP16, literal(-12)))
          CFI V1 load(1, XDATA, add(CFA_XSP16, literal(-11)))
          CFI V2 load(1, XDATA, add(CFA_XSP16, literal(-10)))
          CFI V3 load(1, XDATA, add(CFA_XSP16, literal(-9)))
          CFI V4 load(1, XDATA, add(CFA_XSP16, literal(-8)))
          CFI V5 load(1, XDATA, add(CFA_XSP16, literal(-7)))
          CFI ?BRET_EXT load(1, XDATA, add(CFA_XSP16, literal(-3)))
          CFI ?RET_HIGH load(1, XDATA, add(CFA_XSP16, literal(-4)))
          CFI ?RET_LOW load(1, XDATA, add(CFA_XSP16, literal(-5)))
        MOV     R7,#0x6
        LJMP    ?BANKED_LEAVE_XDATA
          CFI EndBlock cfiBlock92
// 2463 
// 2464 /*********************************************************************
// 2465  * @fn          ZDO_NetworkFormationConfirmCB
// 2466  *
// 2467  * @brief       This function reports the results of the request to
// 2468  *              initialize a coordinator in a network.
// 2469  *
// 2470  * @param       Status - Result of NLME_NetworkFormationRequest()
// 2471  *
// 2472  * @return      none
// 2473  */

        RSEG BANKED_CODE:CODE:NOROOT(0)
// 2474 void ZDO_NetworkFormationConfirmCB( ZStatus_t Status )
ZDO_NetworkFormationConfirmCB:
          CFI Block cfiBlock93 Using cfiCommon0
          CFI Function ZDO_NetworkFormationConfirmCB
        CODE
// 2475 {
        FUNCALL ZDO_NetworkFormationConfirmCB, HalLedSet
        LOCFRAME ISTACK, 0, STACK
        LOCFRAME PSTACK, 0, STACK
        LOCFRAME XSTACK, 9, STACK
        LOCFRAME IOVERLAY, 0, STATIC
        LOCFRAME DOVERLAY, 0, STATIC
        ARGFRAME ISTACK, 0, STACK
        ARGFRAME PSTACK, 0, STACK
        ARGFRAME XSTACK, 9, STACK
        ARGFRAME IOVERLAY, 0, STATIC
        ARGFRAME DOVERLAY, 0, STATIC
        FUNCALL ZDO_NetworkFormationConfirmCB, HalLedSet
        LOCFRAME ISTACK, 0, STACK
        LOCFRAME PSTACK, 0, STACK
        LOCFRAME XSTACK, 9, STACK
        LOCFRAME IOVERLAY, 0, STATIC
        LOCFRAME DOVERLAY, 0, STATIC
        ARGFRAME ISTACK, 0, STACK
        ARGFRAME PSTACK, 0, STACK
        ARGFRAME XSTACK, 9, STACK
        ARGFRAME IOVERLAY, 0, STATIC
        ARGFRAME DOVERLAY, 0, STATIC
        FUNCALL ZDO_NetworkFormationConfirmCB, ZDApp_ChangeState
        LOCFRAME ISTACK, 0, STACK
        LOCFRAME PSTACK, 0, STACK
        LOCFRAME XSTACK, 9, STACK
        LOCFRAME IOVERLAY, 0, STATIC
        LOCFRAME DOVERLAY, 0, STATIC
        ARGFRAME ISTACK, 0, STACK
        ARGFRAME PSTACK, 0, STACK
        ARGFRAME XSTACK, 9, STACK
        ARGFRAME IOVERLAY, 0, STATIC
        ARGFRAME DOVERLAY, 0, STATIC
        FUNCALL ZDO_NetworkFormationConfirmCB, HalLedSet
        LOCFRAME ISTACK, 0, STACK
        LOCFRAME PSTACK, 0, STACK
        LOCFRAME XSTACK, 9, STACK
        LOCFRAME IOVERLAY, 0, STATIC
        LOCFRAME DOVERLAY, 0, STATIC
        ARGFRAME ISTACK, 0, STACK
        ARGFRAME PSTACK, 0, STACK
        ARGFRAME XSTACK, 9, STACK
        ARGFRAME IOVERLAY, 0, STATIC
        ARGFRAME DOVERLAY, 0, STATIC
        FUNCALL ZDO_NetworkFormationConfirmCB, osal_set_event
        LOCFRAME ISTACK, 0, STACK
        LOCFRAME PSTACK, 0, STACK
        LOCFRAME XSTACK, 9, STACK
        LOCFRAME IOVERLAY, 0, STATIC
        LOCFRAME DOVERLAY, 0, STATIC
        ARGFRAME ISTACK, 0, STACK
        ARGFRAME PSTACK, 0, STACK
        ARGFRAME XSTACK, 9, STACK
        ARGFRAME IOVERLAY, 0, STATIC
        ARGFRAME DOVERLAY, 0, STATIC
        MOV     A,#-0x9
        LCALL   ?BANKED_ENTER_XDATA
          CFI DPH0 load(1, XDATA, add(CFA_XSP16, literal(-1)))
          CFI DPL0 load(1, XDATA, add(CFA_XSP16, literal(-2)))
          CFI ?BRET_EXT load(1, XDATA, add(CFA_XSP16, literal(-3)))
          CFI ?RET_HIGH load(1, XDATA, add(CFA_XSP16, literal(-4)))
          CFI ?RET_LOW load(1, XDATA, add(CFA_XSP16, literal(-5)))
          CFI R7 load(1, XDATA, add(CFA_XSP16, literal(-6)))
          CFI V0 load(1, XDATA, add(CFA_XSP16, literal(-7)))
          CFI VB load(1, XDATA, add(CFA_XSP16, literal(-8)))
          CFI R6 load(1, XDATA, add(CFA_XSP16, literal(-9)))
          CFI CFA_SP SP+0
          CFI CFA_XSP16 add(XSP16, 9)
        ; Saved register size: 9
        ; Auto size: 0
        MOV     A,R1
// 2476   nwkStatus = (byte)Status;
        MOV     DPTR,#nwkStatus
        MOVX    @DPTR,A
// 2477 
// 2478   if ( Status == ZSUCCESS )
        JNZ     ??ZDO_NetworkFormationConfirmCB_0
// 2479   {
// 2480     // LED on shows Coordinator started
// 2481     HalLedSet ( HAL_LED_3, HAL_LED_MODE_ON );
        ; Setup parameters for call to function HalLedSet
        MOV     R2,#0x1
        MOV     R1,#0x4
        LCALL   ??HalLedSet?relay    ; Banked call to: HalLedSet
// 2482 
// 2483     // LED off forgets HOLD_AUTO_START
// 2484     HalLedSet (HAL_LED_4, HAL_LED_MODE_OFF);
        ; Setup parameters for call to function HalLedSet
        MOV     R2,#0x0
        MOV     R1,#0x8
        LCALL   ??HalLedSet?relay    ; Banked call to: HalLedSet
// 2485 
// 2486 #if defined ( ZBIT )
// 2487     SIM_SetColor(0xd0ffd0);
// 2488 #endif
// 2489 
// 2490     if ( devState == DEV_HOLD )
        MOV     DPTR,#devState
        MOVX    A,@DPTR
        JNZ     ??ZDO_NetworkFormationConfirmCB_1
// 2491     {
// 2492       // Began with HOLD_AUTO_START
// 2493       ZDApp_ChangeState( DEV_COORD_STARTING );
        ; Setup parameters for call to function ZDApp_ChangeState
        MOV     R1,#0x8
        LCALL   ??ZDApp_ChangeState?relay; Banked call to: ZDApp_ChangeState
        SJMP    ??ZDO_NetworkFormationConfirmCB_1
// 2494     }
// 2495   }
// 2496 #if defined(BLINK_LEDS)
// 2497   else
// 2498   {
// 2499     HalLedSet ( HAL_LED_3, HAL_LED_MODE_FLASH );  // Flash LED to show failure
??ZDO_NetworkFormationConfirmCB_0:
        ; Setup parameters for call to function HalLedSet
        MOV     R2,#0x4
        MOV     R1,#0x4
        LCALL   ??HalLedSet?relay    ; Banked call to: HalLedSet
// 2500   }
// 2501 #endif
// 2502 
// 2503   osal_set_event( ZDAppTaskID, ZDO_NETWORK_START );
??ZDO_NetworkFormationConfirmCB_1:
        ; Setup parameters for call to function osal_set_event
        MOV     R2,#0x2
        LJMP    ?Subroutine0 & 0xFFFF
          CFI EndBlock cfiBlock93
// 2504 }
// 2505 
// 2506 /****************************************************************************
// 2507  * @fn          ZDApp_beaconIndProcessing
// 2508  *
// 2509  * @brief       This function processes the incoming beacon indication.
// 2510  *
// 2511  *              When another task (MT or App) is registered to process
// 2512  *              beacon indication themselves, this function will parse the
// 2513  *              beacon payload and pass the beacon descriptor to that task
// 2514  *              If no other tasks registered, this function will process
// 2515  *              the beacon payload and generate the network descriptor link
// 2516  *              list.
// 2517  *
// 2518  * @param
// 2519  *
// 2520  * @return      none
// 2521  *
// 2522  */

        RSEG BANKED_CODE:CODE:NOROOT(0)
// 2523 void ZDO_beaconNotifyIndCB( NLME_beaconInd_t *pBeacon )
ZDO_beaconNotifyIndCB:
          CFI Block cfiBlock94 Using cfiCommon0
          CFI Function ZDO_beaconNotifyIndCB
        CODE
// 2524 {
        FUNCALL ZDO_beaconNotifyIndCB, osal_mem_alloc
        LOCFRAME ISTACK, 0, STACK
        LOCFRAME PSTACK, 0, STACK
        LOCFRAME XSTACK, 18, STACK
        LOCFRAME IOVERLAY, 0, STATIC
        LOCFRAME DOVERLAY, 0, STATIC
        ARGFRAME ISTACK, 0, STACK
        ARGFRAME PSTACK, 0, STACK
        ARGFRAME XSTACK, 18, STACK
        ARGFRAME IOVERLAY, 0, STATIC
        ARGFRAME DOVERLAY, 0, STATIC
        FUNCALL ZDO_beaconNotifyIndCB, osal_memset
        LOCFRAME ISTACK, 0, STACK
        LOCFRAME PSTACK, 0, STACK
        LOCFRAME XSTACK, 18, STACK
        LOCFRAME IOVERLAY, 0, STATIC
        LOCFRAME DOVERLAY, 0, STATIC
        ARGFRAME ISTACK, 0, STACK
        ARGFRAME PSTACK, 0, STACK
        ARGFRAME XSTACK, 18, STACK
        ARGFRAME IOVERLAY, 0, STATIC
        ARGFRAME DOVERLAY, 0, STATIC
        FUNCALL ZDO_beaconNotifyIndCB, sAddrExtCpy
        LOCFRAME ISTACK, 0, STACK
        LOCFRAME PSTACK, 0, STACK
        LOCFRAME XSTACK, 18, STACK
        LOCFRAME IOVERLAY, 0, STATIC
        LOCFRAME DOVERLAY, 0, STATIC
        ARGFRAME ISTACK, 0, STACK
        ARGFRAME PSTACK, 0, STACK
        ARGFRAME XSTACK, 18, STACK
        ARGFRAME IOVERLAY, 0, STATIC
        ARGFRAME DOVERLAY, 0, STATIC
        FUNCALL ZDO_beaconNotifyIndCB, osal_memset
        LOCFRAME ISTACK, 0, STACK
        LOCFRAME PSTACK, 0, STACK
        LOCFRAME XSTACK, 18, STACK
        LOCFRAME IOVERLAY, 0, STATIC
        LOCFRAME DOVERLAY, 0, STATIC
        ARGFRAME ISTACK, 0, STACK
        ARGFRAME PSTACK, 0, STACK
        ARGFRAME XSTACK, 18, STACK
        ARGFRAME IOVERLAY, 0, STATIC
        ARGFRAME DOVERLAY, 0, STATIC
        REQUIRE ?V0
        REQUIRE ?V1
        REQUIRE ?V2
        REQUIRE ?V3
        REQUIRE ?V4
        REQUIRE ?V5
        REQUIRE ?V6
        REQUIRE ?V7
        REQUIRE ?V8
        REQUIRE ?V9
        MOV     A,#-0x12
        LCALL   ?BANKED_ENTER_XDATA
          CFI DPH0 load(1, XDATA, add(CFA_XSP16, literal(-1)))
          CFI DPL0 load(1, XDATA, add(CFA_XSP16, literal(-2)))
          CFI ?BRET_EXT load(1, XDATA, add(CFA_XSP16, literal(-3)))
          CFI ?RET_HIGH load(1, XDATA, add(CFA_XSP16, literal(-4)))
          CFI ?RET_LOW load(1, XDATA, add(CFA_XSP16, literal(-5)))
          CFI R7 load(1, XDATA, add(CFA_XSP16, literal(-6)))
          CFI V9 load(1, XDATA, add(CFA_XSP16, literal(-7)))
          CFI V8 load(1, XDATA, add(CFA_XSP16, literal(-8)))
          CFI V7 load(1, XDATA, add(CFA_XSP16, literal(-9)))
          CFI V6 load(1, XDATA, add(CFA_XSP16, literal(-10)))
          CFI V5 load(1, XDATA, add(CFA_XSP16, literal(-11)))
          CFI V4 load(1, XDATA, add(CFA_XSP16, literal(-12)))
          CFI V3 load(1, XDATA, add(CFA_XSP16, literal(-13)))
          CFI V2 load(1, XDATA, add(CFA_XSP16, literal(-14)))
          CFI V1 load(1, XDATA, add(CFA_XSP16, literal(-15)))
          CFI V0 load(1, XDATA, add(CFA_XSP16, literal(-16)))
          CFI VB load(1, XDATA, add(CFA_XSP16, literal(-17)))
          CFI R6 load(1, XDATA, add(CFA_XSP16, literal(-18)))
          CFI CFA_SP SP+0
          CFI CFA_XSP16 add(XSP16, 18)
        ; Saved register size: 18
        ; Auto size: 0
        MOV     ?V0,R2
        MOV     ?V1,R3
// 2525   // Pass the beacon Indication to another task if it registers the callback
// 2526   // Otherwise, process the beacon notification here.
// 2527   if (zdoCBFunc[ZDO_BEACON_NOTIFY_IND_CBID] != NULL )
        MOV     DPTR,#zdoCBFunc + 6
        LCALL   ?Subroutine17 & 0xFFFF
??CrossCallReturnLabel_7:
        JZ      ??ZDO_beaconNotifyIndCB_0
// 2528   {
// 2529     zdoCBFunc[ZDO_BEACON_NOTIFY_IND_CBID]( (void*)pBeacon );
        ; Setup parameters for indirect call
        LCALL   ?CALL_IND
        LJMP    ??ZDO_beaconNotifyIndCB_1 & 0xFFFF
// 2530   }
// 2531   else
// 2532   {
// 2533     networkDesc_t *pNwkDesc;
// 2534     networkDesc_t *pLastNwkDesc;
// 2535     uint8 found = false;
// 2536 
// 2537     // Add the network to the Network Descriptor List
// 2538     pNwkDesc = NwkDescList;
??ZDO_beaconNotifyIndCB_0:
        MOV     DPTR,#NwkDescList
        LCALL   ??Subroutine45_0 & 0xFFFF
// 2539     pLastNwkDesc = NwkDescList;
??CrossCallReturnLabel_61:
        MOV     DPTR,#NwkDescList
        MOVX    A,@DPTR
        MOV     ?V2,A
        INC     DPTR
        MOVX    A,@DPTR
        MOV     ?V3,A
        MOV     A,R2
        ADD     A,#0x4
        MOV     ?V6,A
        CLR     A
        ADDC    A,?V1
        MOV     ?V7,A
        MOV     A,R2
        ADD     A,#0x2
        MOV     ?V4,A
        CLR     A
        ADDC    A,?V1
        MOV     ?V5,A
        SJMP    ??CrossCallReturnLabel_66
// 2540     while (pNwkDesc)
// 2541     {
// 2542       if ((pNwkDesc->panId == pBeacon->panID) &&
// 2543           (pNwkDesc->logicalChannel == pBeacon->logicalChannel))
??ZDO_beaconNotifyIndCB_2:
        LCALL   ?Subroutine23 & 0xFFFF
??CrossCallReturnLabel_94:
        MOV     DPL,?V4
        MOV     DPH,?V5
        MOVX    A,@DPTR
        XRL     A,R0
        JNZ     ??ZDO_beaconNotifyIndCB_3
        INC     DPTR
        MOVX    A,@DPTR
        XRL     A,R1
??ZDO_beaconNotifyIndCB_3:
        JNZ     ??ZDO_beaconNotifyIndCB_4
        MOV     DPL,R6
        MOV     DPH,R7
        INC     DPTR
        INC     DPTR
        MOVX    A,@DPTR
        MOV     R0,A
        MOV     DPL,?V6
        MOV     DPH,?V7
        MOVX    A,@DPTR
        XRL     A,R0
        JZ      ??ZDO_beaconNotifyIndCB_5
// 2544       {
// 2545         found = true;
// 2546         break;
// 2547       }
// 2548       pLastNwkDesc = pNwkDesc;
??ZDO_beaconNotifyIndCB_4:
        MOV     ?V2,R6
        MOV     ?V3,R7
// 2549       pNwkDesc = pNwkDesc->nextDesc;
        LCALL   ?Subroutine24 & 0xFFFF
// 2550     }
??CrossCallReturnLabel_66:
        MOV     A,R6
        ORL     A,R7
        JNZ     ??ZDO_beaconNotifyIndCB_2
// 2551 
// 2552     // If no existing descriptor found, make a new one and add to the list
// 2553     if (found == false)
// 2554     {
// 2555       pNwkDesc = osal_mem_alloc( sizeof(networkDesc_t)  );
        ; Setup parameters for call to function osal_mem_alloc
        MOV     R2,#0x16
        MOV     R3,#0x0
        LCALL   ??osal_mem_alloc?relay; Banked call to: osal_mem_alloc
        MOV     ?V8,R2
        MOV     ?V9,R3
        MOV     R6,?V8
        MOV     R7,?V9
// 2556       if ( !pNwkDesc )
        MOV     A,R6
        ORL     A,R7
        JNZ     $+5
        LJMP    ??ZDO_beaconNotifyIndCB_1 & 0xFFFF
// 2557       {
// 2558         // Memory alloc failed, discard this beacon
// 2559         return;
// 2560       }
// 2561 
// 2562       // Clear the network descriptor
// 2563       osal_memset( pNwkDesc, 0, sizeof(networkDesc_t)  );
        ; Setup parameters for call to function osal_memset
        MOV     R4,#0x16
        MOV     R5,#0x0
        MOV     R1,#0x0
        LCALL   ??osal_memset?relay  ; Banked call to: osal_memset
// 2564 
// 2565       // Initialize the descriptor
// 2566       pNwkDesc->chosenRouter = INVALID_NODE_ADDR;
        MOV     DPL,R6
        MOV     DPH,R7
        INC     DPTR
        INC     DPTR
        INC     DPTR
        INC     DPTR
        INC     DPTR
        INC     DPTR
        INC     DPTR
        MOV     A,#-0x2
        MOVX    @DPTR,A
        INC     DPTR
        INC     A
        MOVX    @DPTR,A
// 2567       pNwkDesc->chosenRouterDepth = 0xFF;
        MOV     DPL,R6
        MOV     DPH,R7
        INC     DPTR
        INC     DPTR
        INC     DPTR
        INC     DPTR
        INC     DPTR
        INC     DPTR
        INC     DPTR
        INC     DPTR
        INC     DPTR
        INC     DPTR
        MOVX    @DPTR,A
// 2568 
// 2569       // Save new entry into the descriptor list
// 2570       if ( !NwkDescList )
        MOV     DPTR,#NwkDescList
        LCALL   ??Subroutine46_0 & 0xFFFF
??CrossCallReturnLabel_70:
        JNZ     ??ZDO_beaconNotifyIndCB_6
// 2571       {
// 2572         NwkDescList = pNwkDesc;
        MOV     DPTR,#NwkDescList
        SJMP    ??ZDO_beaconNotifyIndCB_7
// 2573       }
// 2574       else
// 2575       {
// 2576         pLastNwkDesc->nextDesc = pNwkDesc;
??ZDO_beaconNotifyIndCB_6:
        MOV     A,?V2
        ADD     A,#0x14
        MOV     DPL,A
        CLR     A
        ADDC    A,?V3
        MOV     DPH,A
??ZDO_beaconNotifyIndCB_7:
        MOV     A,R6
        MOVX    @DPTR,A
        INC     DPTR
        MOV     A,R7
        MOVX    @DPTR,A
// 2577       }
// 2578     }
// 2579 
// 2580     // Update the descriptor with the incoming beacon
// 2581     pNwkDesc->stackProfile   = pBeacon->stackProfile;
??ZDO_beaconNotifyIndCB_5:
        MOV     DPL,?V0
        MOV     DPH,?V1
        INC     DPTR
        INC     DPTR
        INC     DPTR
        INC     DPTR
        INC     DPTR
        INC     DPTR
        INC     DPTR
        INC     DPTR
        INC     DPTR
        LCALL   ?Subroutine25 & 0xFFFF
??CrossCallReturnLabel_19:
        INC     DPTR
        MOVX    @DPTR,A
// 2582     pNwkDesc->version        = pBeacon->protocolVersion;
        MOV     A,?V0
        ADD     A,#0x8
        MOV     R0,A
        CLR     A
        ADDC    A,?V1
        MOV     R1,A
        MOV     DPL,R0
        MOV     DPH,R1
        LCALL   ?Subroutine25 & 0xFFFF
??CrossCallReturnLabel_20:
        MOVX    @DPTR,A
// 2583     pNwkDesc->logicalChannel = pBeacon->logicalChannel;
        MOV     DPL,?V6
        MOV     DPH,?V7
        MOVX    A,@DPTR
        MOV     DPL,R6
        MOV     DPH,R7
        INC     DPTR
        INC     DPTR
        MOVX    @DPTR,A
// 2584     pNwkDesc->panId          = pBeacon->panID;
        MOV     DPL,?V4
        MOV     DPH,?V5
        LCALL   ??Subroutine48_0 & 0xFFFF
??CrossCallReturnLabel_81:
        MOV     DPL,R6
        MOV     DPH,R7
        LCALL   ??Subroutine52_0 & 0xFFFF
// 2585     pNwkDesc->updateId       = pBeacon->updateID;
??CrossCallReturnLabel_100:
        MOV     A,?V0
        ADD     A,#0xc
        MOV     DPL,A
        CLR     A
        ADDC    A,?V1
        MOV     DPH,A
        MOVX    A,@DPTR
        PUSH    A
          CFI CFA_SP SP+-1
        MOV     A,R6
        ADD     A,#0x13
        MOV     DPL,A
        CLR     A
        ADDC    A,R7
        MOV     DPH,A
        POP     A
          CFI CFA_SP SP+0
        MOVX    @DPTR,A
// 2586 
// 2587     // Save the extended PAN ID from the beacon payload only if 1.1 version network
// 2588     if ( pBeacon->protocolVersion != ZB_PROT_V1_0 )
        MOV     A,R6
        ADD     A,#0xb
        MOV     R2,A
        CLR     A
        ADDC    A,R7
        MOV     R3,A
        MOV     DPL,R0
        MOV     DPH,R1
        MOVX    A,@DPTR
        XRL     A,#0x1
        JZ      ??ZDO_beaconNotifyIndCB_8
// 2589     {
// 2590       osal_cpyExtAddr( pNwkDesc->extendedPANID, pBeacon->extendedPanID );
        ; Setup parameters for call to function sAddrExtCpy
        MOV     A,?V0
        ADD     A,#0xd
        MOV     R4,A
        CLR     A
        ADDC    A,?V1
        MOV     R5,A
        LCALL   ??sAddrExtCpy?relay  ; Banked call to: sAddrExtCpy
        SJMP    ??ZDO_beaconNotifyIndCB_9
// 2591     }
// 2592     else
// 2593     {
// 2594       osal_memset( pNwkDesc->extendedPANID, 0xFF, Z_EXTADDR_LEN );
??ZDO_beaconNotifyIndCB_8:
        ; Setup parameters for call to function osal_memset
        MOV     R4,#0x8
        MOV     R5,#0x0
        MOV     R1,#-0x1
        LCALL   ??osal_memset?relay  ; Banked call to: osal_memset
// 2595     }
// 2596 
// 2597     // check if this device is a better choice to join...
// 2598     // ...dont bother checking assocPermit flag is doing a rejoin
// 2599     if ( ( pBeacon->LQI > gMIN_TREE_LQI ) &&
// 2600         ( ( pBeacon->permitJoining == TRUE ) || ( _tmpRejoinState ) ) )
??ZDO_beaconNotifyIndCB_9:
        MOV     A,?V0
        ADD     A,#0xa
        MOV     R0,A
        CLR     A
        ADDC    A,?V1
        MOV     R1,A
        MOV     DPL,R0
        MOV     DPH,R1
        MOVX    A,@DPTR
        MOV     ?V4,A
        MOV     DPTR,#gMIN_TREE_LQI
        MOVX    A,@DPTR
        CLR     C
        SUBB    A,?V4
        JC      $+5
        LJMP    ??ZDO_beaconNotifyIndCB_1 & 0xFFFF
        MOV     DPL,?V0
        MOV     DPH,?V1
        INC     DPTR
        INC     DPTR
        INC     DPTR
        INC     DPTR
        INC     DPTR
        MOVX    A,@DPTR
        XRL     A,#0x1
        JZ      ??ZDO_beaconNotifyIndCB_10
        MOV     DPTR,#_tmpRejoinState
        MOVX    A,@DPTR
        JNZ     $+5
        LJMP    ??ZDO_beaconNotifyIndCB_1 & 0xFFFF
// 2601     {
// 2602       uint8 selected = FALSE;
??ZDO_beaconNotifyIndCB_10:
        MOV     ?V6,#0x0
// 2603       uint8 capacity = FALSE;
// 2604 
// 2605 #if defined ( ZIGBEEPRO )
// 2606       if ( ((pBeacon->LQI   > pNwkDesc->chosenRouterLinkQuality) &&
// 2607             (pBeacon->depth < MAX_NODE_DEPTH)) ||
// 2608           ((pBeacon->LQI   == pNwkDesc->chosenRouterLinkQuality) &&
// 2609            (pBeacon->depth < pNwkDesc->chosenRouterDepth)) )
        MOV     A,R6
        ADD     A,#0x9
        MOV     R2,A
        CLR     A
        ADDC    A,R7
        MOV     R3,A
        MOV     DPL,R2
        MOV     DPH,R3
        MOVX    A,@DPTR
        MOV     ?V5,A
        MOV     A,R6
        ADD     A,#0xa
        MOV     R4,A
        CLR     A
        ADDC    A,R7
        MOV     R5,A
        MOV     A,?V0
        ADD     A,#0xb
        MOV     ?V2,A
        CLR     A
        ADDC    A,?V1
        MOV     ?V3,A
        MOV     A,?V5
        CLR     C
        SUBB    A,?V4
        JNC     ??ZDO_beaconNotifyIndCB_11
        MOV     DPL,?V2
        MOV     DPH,?V3
        MOVX    A,@DPTR
        CLR     C
        SUBB    A,#0x14
        JC      ??ZDO_beaconNotifyIndCB_12
        SJMP    ??ZDO_beaconNotifyIndCB_13
??ZDO_beaconNotifyIndCB_11:
        MOV     A,?V5
        XRL     A,?V4
        JNZ     ??ZDO_beaconNotifyIndCB_13
        MOV     DPL,R4
        MOV     DPH,R5
        MOVX    A,@DPTR
        MOV     ?V4,A
        MOV     DPL,?V2
        MOV     DPH,?V3
        MOVX    A,@DPTR
        CLR     C
        SUBB    A,?V4
        JNC     ??ZDO_beaconNotifyIndCB_13
// 2610       {
// 2611         selected = TRUE;
??ZDO_beaconNotifyIndCB_12:
        MOV     ?V6,#0x1
// 2612       }
// 2613 #else
// 2614       if ( pBeacon->depth < pNwkDesc->chosenRouterDepth )
// 2615       {
// 2616         selected = TRUE;
// 2617       }
// 2618 #endif
// 2619 
// 2620       if ( ZSTACK_ROUTER_BUILD )
// 2621       {
// 2622         capacity = pBeacon->routerCapacity;
// 2623       }
// 2624       else if ( ZSTACK_END_DEVICE_BUILD )
// 2625       {
// 2626         capacity = pBeacon->deviceCapacity;
// 2627       }
// 2628 
// 2629       if ( ( (capacity) || ( pBeacon->sourceAddr == _NIB.nwkCoordAddress ) ) && (selected) )
??ZDO_beaconNotifyIndCB_13:
        MOV     A,?V0
        ADD     A,#0x7
        MOV     ?V4,A
        CLR     A
        ADDC    A,?V1
        MOV     ?V5,A
        MOV     DPL,?V4
        MOV     DPH,A
        MOVX    A,@DPTR
        JNZ     ??ZDO_beaconNotifyIndCB_14
        MOV     DPL,?V0
        MOV     DPH,?V1
        MOVX    A,@DPTR
        MOV     ?V8,A
        INC     DPTR
        MOVX    A,@DPTR
        MOV     ?V9,A
        MOV     DPTR,#_NIB + 23
        MOVX    A,@DPTR
        XRL     A,?V8
        JNZ     ??ZDO_beaconNotifyIndCB_15
        INC     DPTR
        MOVX    A,@DPTR
        XRL     A,?V9
??ZDO_beaconNotifyIndCB_15:
        JNZ     ??ZDO_beaconNotifyIndCB_16
??ZDO_beaconNotifyIndCB_14:
        MOV     A,?V6
        MOV     C,0xE0 /* A   */.0
        JNC     ??ZDO_beaconNotifyIndCB_17
// 2630       {
// 2631         // this is the new chosen router for joining...
// 2632         pNwkDesc->chosenRouter            = pBeacon->sourceAddr;
        MOV     DPL,?V0
        MOV     DPH,?V1
        MOVX    A,@DPTR
        MOV     ?V6,A
        INC     DPTR
        MOVX    A,@DPTR
        MOV     ?V7,A
        MOV     DPL,R6
        MOV     DPH,R7
        INC     DPTR
        INC     DPTR
        INC     DPTR
        INC     DPTR
        INC     DPTR
        INC     DPTR
        INC     DPTR
        MOV     A,?V6
        MOVX    @DPTR,A
        INC     DPTR
        MOV     A,?V7
        MOVX    @DPTR,A
// 2633         pNwkDesc->chosenRouterLinkQuality = pBeacon->LQI;
        MOV     DPL,R0
        MOV     DPH,R1
        MOVX    A,@DPTR
        MOV     DPL,R2
        MOV     DPH,R3
        LCALL   ?Subroutine16 & 0xFFFF
// 2634         pNwkDesc->chosenRouterDepth       = pBeacon->depth;
// 2635       }
??CrossCallReturnLabel_4:
        MOV     DPL,R4
        MOV     DPH,R5
        MOVX    @DPTR,A
// 2636 
// 2637       if ( pBeacon->deviceCapacity )
??ZDO_beaconNotifyIndCB_17:
        MOV     DPL,?V4
        MOV     DPH,?V5
        MOVX    A,@DPTR
        JZ      ??ZDO_beaconNotifyIndCB_16
// 2638         pNwkDesc->deviceCapacity = 1;
        MOV     DPL,R6
        MOV     DPH,R7
        INC     DPTR
        INC     DPTR
        INC     DPTR
        INC     DPTR
        MOV     A,#0x1
        MOVX    @DPTR,A
// 2639 
// 2640       if ( pBeacon->routerCapacity )
??ZDO_beaconNotifyIndCB_16:
        MOV     DPL,?V0
        MOV     DPH,?V1
        INC     DPTR
        INC     DPTR
        INC     DPTR
        INC     DPTR
        INC     DPTR
        INC     DPTR
        MOVX    A,@DPTR
        JZ      ??ZDO_beaconNotifyIndCB_1
// 2641         pNwkDesc->routerCapacity = 1;
        MOV     DPL,R6
        MOV     DPH,R7
        INC     DPTR
        INC     DPTR
        INC     DPTR
        MOV     A,#0x1
        MOVX    @DPTR,A
// 2642     }
// 2643   }
// 2644 }
??ZDO_beaconNotifyIndCB_1:
        MOV     R7,#0xa
        LJMP    ?BANKED_LEAVE_XDATA
          CFI EndBlock cfiBlock94

        RSEG BANKED_CODE:CODE:NOROOT(0)
?Subroutine25:
          CFI Block cfiCond95 Using cfiCommon0
          CFI Function ZDO_beaconNotifyIndCB
          CFI Conditional ??CrossCallReturnLabel_19
          CFI R6 load(1, XDATA, add(CFA_XSP16, literal(-18)))
          CFI VB load(1, XDATA, add(CFA_XSP16, literal(-17)))
          CFI V0 load(1, XDATA, add(CFA_XSP16, literal(-16)))
          CFI V1 load(1, XDATA, add(CFA_XSP16, literal(-15)))
          CFI V2 load(1, XDATA, add(CFA_XSP16, literal(-14)))
          CFI V3 load(1, XDATA, add(CFA_XSP16, literal(-13)))
          CFI V4 load(1, XDATA, add(CFA_XSP16, literal(-12)))
          CFI V5 load(1, XDATA, add(CFA_XSP16, literal(-11)))
          CFI V6 load(1, XDATA, add(CFA_XSP16, literal(-10)))
          CFI V7 load(1, XDATA, add(CFA_XSP16, literal(-9)))
          CFI V8 load(1, XDATA, add(CFA_XSP16, literal(-8)))
          CFI V9 load(1, XDATA, add(CFA_XSP16, literal(-7)))
          CFI R7 load(1, XDATA, add(CFA_XSP16, literal(-6)))
          CFI ?RET_LOW load(1, XDATA, add(CFA_XSP16, literal(-5)))
          CFI ?RET_HIGH load(1, XDATA, add(CFA_XSP16, literal(-4)))
          CFI ?BRET_EXT load(1, XDATA, add(CFA_XSP16, literal(-3)))
          CFI DPL0 load(1, XDATA, add(CFA_XSP16, literal(-2)))
          CFI DPH0 load(1, XDATA, add(CFA_XSP16, literal(-1)))
          CFI CFA_SP SP+-2
          CFI CFA_XSP16 add(XSP16, 18)
          CFI Block cfiCond96 Using cfiCommon0
          CFI (cfiCond96) Function ZDO_beaconNotifyIndCB
          CFI (cfiCond96) Conditional ??CrossCallReturnLabel_20
          CFI (cfiCond96) R6 load(1, XDATA, add(CFA_XSP16, literal(-18)))
          CFI (cfiCond96) VB load(1, XDATA, add(CFA_XSP16, literal(-17)))
          CFI (cfiCond96) V0 load(1, XDATA, add(CFA_XSP16, literal(-16)))
          CFI (cfiCond96) V1 load(1, XDATA, add(CFA_XSP16, literal(-15)))
          CFI (cfiCond96) V2 load(1, XDATA, add(CFA_XSP16, literal(-14)))
          CFI (cfiCond96) V3 load(1, XDATA, add(CFA_XSP16, literal(-13)))
          CFI (cfiCond96) V4 load(1, XDATA, add(CFA_XSP16, literal(-12)))
          CFI (cfiCond96) V5 load(1, XDATA, add(CFA_XSP16, literal(-11)))
          CFI (cfiCond96) V6 load(1, XDATA, add(CFA_XSP16, literal(-10)))
          CFI (cfiCond96) V7 load(1, XDATA, add(CFA_XSP16, literal(-9)))
          CFI (cfiCond96) V8 load(1, XDATA, add(CFA_XSP16, literal(-8)))
          CFI (cfiCond96) V9 load(1, XDATA, add(CFA_XSP16, literal(-7)))
          CFI (cfiCond96) R7 load(1, XDATA, add(CFA_XSP16, literal(-6)))
          CFI (cfiCond96) ?RET_LOW load(1, XDATA, add(CFA_XSP16, literal(-5)))
          CFI (cfiCond96) ?RET_HIGH load(1, XDATA, add(CFA_XSP16, literal(-4)))
          CFI (cfiCond96) ?BRET_EXT load(1, XDATA, add(CFA_XSP16, literal(-3)))
          CFI (cfiCond96) DPL0 load(1, XDATA, add(CFA_XSP16, literal(-2)))
          CFI (cfiCond96) DPH0 load(1, XDATA, add(CFA_XSP16, literal(-1)))
          CFI (cfiCond96) CFA_SP SP+-2
          CFI (cfiCond96) CFA_XSP16 add(XSP16, 18)
          CFI Block cfiPicker97 Using cfiCommon1
          CFI (cfiPicker97) NoFunction
          CFI (cfiPicker97) Picker
        MOVX    A,@DPTR
        MOV     DPL,R6
        MOV     DPH,R7
        INC     DPTR
        INC     DPTR
        INC     DPTR
        INC     DPTR
        INC     DPTR
        RET
          CFI EndBlock cfiCond95
          CFI EndBlock cfiCond96
          CFI EndBlock cfiPicker97
// 2645 
// 2646 /*********************************************************************
// 2647  * @fn          ZDO_StartRouterConfirmCB
// 2648  *
// 2649  * @brief       This function reports the results of the request to
// 2650  *              start functioning as a router in a network.
// 2651  *
// 2652  * @param       Status - Result of NLME_StartRouterRequest()
// 2653  *
// 2654  * @return      none
// 2655  */

        RSEG BANKED_CODE:CODE:NOROOT(0)
// 2656 void ZDO_StartRouterConfirmCB( ZStatus_t Status )
ZDO_StartRouterConfirmCB:
          CFI Block cfiBlock98 Using cfiCommon0
          CFI Function ZDO_StartRouterConfirmCB
        CODE
// 2657 {
        FUNCALL ZDO_StartRouterConfirmCB, HalLedSet
        LOCFRAME ISTACK, 0, STACK
        LOCFRAME PSTACK, 0, STACK
        LOCFRAME XSTACK, 9, STACK
        LOCFRAME IOVERLAY, 0, STATIC
        LOCFRAME DOVERLAY, 0, STATIC
        ARGFRAME ISTACK, 0, STACK
        ARGFRAME PSTACK, 0, STACK
        ARGFRAME XSTACK, 9, STACK
        ARGFRAME IOVERLAY, 0, STATIC
        ARGFRAME DOVERLAY, 0, STATIC
        FUNCALL ZDO_StartRouterConfirmCB, HalLedSet
        LOCFRAME ISTACK, 0, STACK
        LOCFRAME PSTACK, 0, STACK
        LOCFRAME XSTACK, 9, STACK
        LOCFRAME IOVERLAY, 0, STATIC
        LOCFRAME DOVERLAY, 0, STATIC
        ARGFRAME ISTACK, 0, STACK
        ARGFRAME PSTACK, 0, STACK
        ARGFRAME XSTACK, 9, STACK
        ARGFRAME IOVERLAY, 0, STATIC
        ARGFRAME DOVERLAY, 0, STATIC
        FUNCALL ZDO_StartRouterConfirmCB, ZDApp_ChangeState
        LOCFRAME ISTACK, 0, STACK
        LOCFRAME PSTACK, 0, STACK
        LOCFRAME XSTACK, 9, STACK
        LOCFRAME IOVERLAY, 0, STATIC
        LOCFRAME DOVERLAY, 0, STATIC
        ARGFRAME ISTACK, 0, STACK
        ARGFRAME PSTACK, 0, STACK
        ARGFRAME XSTACK, 9, STACK
        ARGFRAME IOVERLAY, 0, STATIC
        ARGFRAME DOVERLAY, 0, STATIC
        FUNCALL ZDO_StartRouterConfirmCB, HalLedSet
        LOCFRAME ISTACK, 0, STACK
        LOCFRAME PSTACK, 0, STACK
        LOCFRAME XSTACK, 9, STACK
        LOCFRAME IOVERLAY, 0, STATIC
        LOCFRAME DOVERLAY, 0, STATIC
        ARGFRAME ISTACK, 0, STACK
        ARGFRAME PSTACK, 0, STACK
        ARGFRAME XSTACK, 9, STACK
        ARGFRAME IOVERLAY, 0, STATIC
        ARGFRAME DOVERLAY, 0, STATIC
        FUNCALL ZDO_StartRouterConfirmCB, osal_set_event
        LOCFRAME ISTACK, 0, STACK
        LOCFRAME PSTACK, 0, STACK
        LOCFRAME XSTACK, 9, STACK
        LOCFRAME IOVERLAY, 0, STATIC
        LOCFRAME DOVERLAY, 0, STATIC
        ARGFRAME ISTACK, 0, STACK
        ARGFRAME PSTACK, 0, STACK
        ARGFRAME XSTACK, 9, STACK
        ARGFRAME IOVERLAY, 0, STATIC
        ARGFRAME DOVERLAY, 0, STATIC
        MOV     A,#-0x9
        LCALL   ?BANKED_ENTER_XDATA
          CFI DPH0 load(1, XDATA, add(CFA_XSP16, literal(-1)))
          CFI DPL0 load(1, XDATA, add(CFA_XSP16, literal(-2)))
          CFI ?BRET_EXT load(1, XDATA, add(CFA_XSP16, literal(-3)))
          CFI ?RET_HIGH load(1, XDATA, add(CFA_XSP16, literal(-4)))
          CFI ?RET_LOW load(1, XDATA, add(CFA_XSP16, literal(-5)))
          CFI R7 load(1, XDATA, add(CFA_XSP16, literal(-6)))
          CFI V0 load(1, XDATA, add(CFA_XSP16, literal(-7)))
          CFI VB load(1, XDATA, add(CFA_XSP16, literal(-8)))
          CFI R6 load(1, XDATA, add(CFA_XSP16, literal(-9)))
          CFI CFA_SP SP+0
          CFI CFA_XSP16 add(XSP16, 9)
        ; Saved register size: 9
        ; Auto size: 0
        MOV     A,R1
// 2658   nwkStatus = (byte)Status;
        MOV     DPTR,#nwkStatus
        MOVX    @DPTR,A
// 2659 
// 2660   if ( Status == ZSUCCESS )
        JNZ     ??ZDO_StartRouterConfirmCB_0
// 2661   {
// 2662     // LED on shows Router started
// 2663     HalLedSet ( HAL_LED_3, HAL_LED_MODE_ON );
        ; Setup parameters for call to function HalLedSet
        MOV     R2,#0x1
        MOV     R1,#0x4
        LCALL   ??HalLedSet?relay    ; Banked call to: HalLedSet
// 2664     // LED off forgets HOLD_AUTO_START
// 2665     HalLedSet ( HAL_LED_4, HAL_LED_MODE_OFF);
        ; Setup parameters for call to function HalLedSet
        MOV     R2,#0x0
        MOV     R1,#0x8
        LCALL   ??HalLedSet?relay    ; Banked call to: HalLedSet
// 2666     if ( devState == DEV_HOLD )
        MOV     DPTR,#devState
        MOVX    A,@DPTR
        JNZ     ??ZDO_StartRouterConfirmCB_1
// 2667     {
// 2668       // Began with HOLD_AUTO_START
// 2669       ZDApp_ChangeState( DEV_END_DEVICE );
        ; Setup parameters for call to function ZDApp_ChangeState
        MOV     R1,#0x6
        LCALL   ??ZDApp_ChangeState?relay; Banked call to: ZDApp_ChangeState
        SJMP    ??ZDO_StartRouterConfirmCB_1
// 2670     }
// 2671   }
// 2672 #if defined(BLINK_LEDS)
// 2673   else
// 2674   {
// 2675     HalLedSet( HAL_LED_3, HAL_LED_MODE_FLASH );  // Flash LED to show failure
??ZDO_StartRouterConfirmCB_0:
        ; Setup parameters for call to function HalLedSet
        MOV     R2,#0x4
        MOV     R1,#0x4
        LCALL   ??HalLedSet?relay    ; Banked call to: HalLedSet
// 2676   }
// 2677 #endif
// 2678 
// 2679   osal_set_event( ZDAppTaskID, ZDO_ROUTER_START );
??ZDO_StartRouterConfirmCB_1:
        ; Setup parameters for call to function osal_set_event
        MOV     R2,#0x20
        LJMP    ?Subroutine0 & 0xFFFF
          CFI EndBlock cfiBlock98
// 2680 }
// 2681 
// 2682 /*********************************************************************
// 2683  * @fn          ZDO_JoinConfirmCB
// 2684  *
// 2685  * @brief       This function allows the next higher layer to be notified
// 2686  *              of the results of its request to join itself or another
// 2687  *              device to a network.
// 2688  *
// 2689  * @param       Status - Result of NLME_JoinRequest()
// 2690  *
// 2691  * @return      none
// 2692  */

        RSEG BANKED_CODE:CODE:NOROOT(0)
// 2693 void ZDO_JoinConfirmCB( uint16 PanId, ZStatus_t Status )
ZDO_JoinConfirmCB:
          CFI Block cfiBlock99 Using cfiCommon0
          CFI Function ZDO_JoinConfirmCB
        CODE
// 2694 {
        FUNCALL ZDO_JoinConfirmCB, nwkNeighborInitTable
        LOCFRAME ISTACK, 0, STACK
        LOCFRAME PSTACK, 0, STACK
        LOCFRAME XSTACK, 17, STACK
        LOCFRAME IOVERLAY, 0, STATIC
        LOCFRAME DOVERLAY, 0, STATIC
        ARGFRAME ISTACK, 0, STACK
        ARGFRAME PSTACK, 0, STACK
        ARGFRAME XSTACK, 17, STACK
        ARGFRAME IOVERLAY, 0, STATIC
        ARGFRAME DOVERLAY, 0, STATIC
        FUNCALL ZDO_JoinConfirmCB, nwkNeighborFindEmptySlot
        LOCFRAME ISTACK, 0, STACK
        LOCFRAME PSTACK, 0, STACK
        LOCFRAME XSTACK, 17, STACK
        LOCFRAME IOVERLAY, 0, STATIC
        LOCFRAME DOVERLAY, 0, STATIC
        ARGFRAME ISTACK, 0, STACK
        ARGFRAME PSTACK, 0, STACK
        ARGFRAME XSTACK, 17, STACK
        ARGFRAME IOVERLAY, 0, STATIC
        ARGFRAME DOVERLAY, 0, STATIC
        FUNCALL ZDO_JoinConfirmCB, osal_memset
        LOCFRAME ISTACK, 0, STACK
        LOCFRAME PSTACK, 0, STACK
        LOCFRAME XSTACK, 17, STACK
        LOCFRAME IOVERLAY, 0, STATIC
        LOCFRAME DOVERLAY, 0, STATIC
        ARGFRAME ISTACK, 0, STACK
        ARGFRAME PSTACK, 0, STACK
        ARGFRAME XSTACK, 17, STACK
        ARGFRAME IOVERLAY, 0, STATIC
        ARGFRAME DOVERLAY, 0, STATIC
        FUNCALL ZDO_JoinConfirmCB, sAddrExtCpy
        LOCFRAME ISTACK, 0, STACK
        LOCFRAME PSTACK, 0, STACK
        LOCFRAME XSTACK, 17, STACK
        LOCFRAME IOVERLAY, 0, STATIC
        LOCFRAME DOVERLAY, 0, STATIC
        ARGFRAME ISTACK, 0, STACK
        ARGFRAME PSTACK, 0, STACK
        ARGFRAME XSTACK, 17, STACK
        ARGFRAME IOVERLAY, 0, STATIC
        ARGFRAME DOVERLAY, 0, STATIC
        FUNCALL ZDO_JoinConfirmCB, HalLedSet
        LOCFRAME ISTACK, 0, STACK
        LOCFRAME PSTACK, 0, STACK
        LOCFRAME XSTACK, 17, STACK
        LOCFRAME IOVERLAY, 0, STATIC
        LOCFRAME DOVERLAY, 0, STATIC
        ARGFRAME ISTACK, 0, STACK
        ARGFRAME PSTACK, 0, STACK
        ARGFRAME XSTACK, 17, STACK
        ARGFRAME IOVERLAY, 0, STATIC
        ARGFRAME DOVERLAY, 0, STATIC
        FUNCALL ZDO_JoinConfirmCB, HalLedSet
        LOCFRAME ISTACK, 0, STACK
        LOCFRAME PSTACK, 0, STACK
        LOCFRAME XSTACK, 17, STACK
        LOCFRAME IOVERLAY, 0, STATIC
        LOCFRAME DOVERLAY, 0, STATIC
        ARGFRAME ISTACK, 0, STACK
        ARGFRAME PSTACK, 0, STACK
        ARGFRAME XSTACK, 17, STACK
        ARGFRAME IOVERLAY, 0, STATIC
        ARGFRAME DOVERLAY, 0, STATIC
        FUNCALL ZDO_JoinConfirmCB, ZDApp_ChangeState
        LOCFRAME ISTACK, 0, STACK
        LOCFRAME PSTACK, 0, STACK
        LOCFRAME XSTACK, 17, STACK
        LOCFRAME IOVERLAY, 0, STATIC
        LOCFRAME DOVERLAY, 0, STATIC
        ARGFRAME ISTACK, 0, STACK
        ARGFRAME PSTACK, 0, STACK
        ARGFRAME XSTACK, 17, STACK
        ARGFRAME IOVERLAY, 0, STATIC
        ARGFRAME DOVERLAY, 0, STATIC
        FUNCALL ZDO_JoinConfirmCB, HalLedSet
        LOCFRAME ISTACK, 0, STACK
        LOCFRAME PSTACK, 0, STACK
        LOCFRAME XSTACK, 17, STACK
        LOCFRAME IOVERLAY, 0, STATIC
        LOCFRAME DOVERLAY, 0, STATIC
        ARGFRAME ISTACK, 0, STACK
        ARGFRAME PSTACK, 0, STACK
        ARGFRAME XSTACK, 17, STACK
        ARGFRAME IOVERLAY, 0, STATIC
        ARGFRAME DOVERLAY, 0, STATIC
        FUNCALL ZDO_JoinConfirmCB, ZDApp_SendMsg
        LOCFRAME ISTACK, 0, STACK
        LOCFRAME PSTACK, 0, STACK
        LOCFRAME XSTACK, 17, STACK
        LOCFRAME IOVERLAY, 0, STATIC
        LOCFRAME DOVERLAY, 0, STATIC
        ARGFRAME ISTACK, 0, STACK
        ARGFRAME PSTACK, 0, STACK
        ARGFRAME XSTACK, 17, STACK
        ARGFRAME IOVERLAY, 0, STATIC
        ARGFRAME DOVERLAY, 0, STATIC
        REQUIRE ?V0
        REQUIRE ?V2
        REQUIRE ?V3
        MOV     A,#-0xc
        LCALL   ?BANKED_ENTER_XDATA
          CFI DPH0 load(1, XDATA, add(CFA_XSP16, literal(-1)))
          CFI DPL0 load(1, XDATA, add(CFA_XSP16, literal(-2)))
          CFI ?BRET_EXT load(1, XDATA, add(CFA_XSP16, literal(-3)))
          CFI ?RET_HIGH load(1, XDATA, add(CFA_XSP16, literal(-4)))
          CFI ?RET_LOW load(1, XDATA, add(CFA_XSP16, literal(-5)))
          CFI R7 load(1, XDATA, add(CFA_XSP16, literal(-6)))
          CFI V3 load(1, XDATA, add(CFA_XSP16, literal(-7)))
          CFI V2 load(1, XDATA, add(CFA_XSP16, literal(-8)))
          CFI V1 load(1, XDATA, add(CFA_XSP16, literal(-9)))
          CFI V0 load(1, XDATA, add(CFA_XSP16, literal(-10)))
          CFI VB load(1, XDATA, add(CFA_XSP16, literal(-11)))
          CFI R6 load(1, XDATA, add(CFA_XSP16, literal(-12)))
          CFI CFA_SP SP+0
          CFI CFA_XSP16 add(XSP16, 12)
        ; Saved register size: 12
        ; Auto size: 5
        MOV     A,#-0x5
        LCALL   ?ALLOC_XSTACK8
          CFI CFA_XSP16 add(XSP16, 17)
        MOV     ?V0,R1
// 2695   (void)PanId;  // remove if this parameter is used.
// 2696 
// 2697   nwkStatus = (byte)Status;
        MOV     A,R1
        MOV     DPTR,#nwkStatus
        MOVX    @DPTR,A
// 2698 
// 2699   if ( Status == ZSUCCESS )
        JZ      $+5
        LJMP    ??ZDO_JoinConfirmCB_0 & 0xFFFF
// 2700   {
// 2701     if ( ZSTACK_END_DEVICE_BUILD
// 2702       || (ZSTACK_ROUTER_BUILD && BUILD_FLEXABLE && ((_NIB.CapabilityFlags & ZMAC_ASSOC_CAPINFO_FFD_TYPE) == 0)))
// 2703     {
// 2704       neighborEntry_t *pItem;
// 2705 
// 2706       // We don't need the neighbor table entries.
// 2707       // Clear the neighbor Table to remove beacon information
// 2708       nwkNeighborInitTable();
        ; Setup parameters for call to function nwkNeighborInitTable
        LCALL   ??nwkNeighborInitTable?relay; Banked call to: nwkNeighborInitTable
// 2709 
// 2710       // Force a neighbor table entry for the parent
// 2711       pItem = nwkNeighborFindEmptySlot();
        ; Setup parameters for call to function nwkNeighborFindEmptySlot
        LCALL   ??nwkNeighborFindEmptySlot?relay; Banked call to: nwkNeighborFindEmptySlot
        MOV     ?V2,R2
        MOV     ?V3,R3
        MOV     R6,?V2
        MOV     R7,?V3
// 2712       if ( pItem != NULL )
        MOV     A,R6
        ORL     A,R7
        JZ      ??ZDO_JoinConfirmCB_1
// 2713       {
// 2714         osal_memset( pItem, 0x00, sizeof ( neighborEntry_t  )  );
        ; Setup parameters for call to function osal_memset
        MOV     R4,#0x17
        MOV     R5,#0x0
        MOV     R1,#0x0
        LCALL   ??osal_memset?relay  ; Banked call to: osal_memset
// 2715         pItem->neighborAddress = _NIB.nwkCoordAddress;
        MOV     DPTR,#_NIB + 23
        LCALL   ??Subroutine49_0 & 0xFFFF
??CrossCallReturnLabel_91:
        MOV     DPL,R6
        MOV     DPH,R7
        LCALL   ??Subroutine41_0 & 0xFFFF
// 2716         osal_cpyExtAddr( pItem ->neighborExtAddr, _NIB. nwkCoordExtAddress );
??CrossCallReturnLabel_54:
        ; Setup parameters for call to function sAddrExtCpy
        MOV     R4,#(_NIB + 25) & 0xff
        MOV     R5,#((_NIB + 25) >> 8) & 0xff
        LCALL   ?Subroutine30 & 0xFFFF
??CrossCallReturnLabel_30:
        LCALL   ??sAddrExtCpy?relay  ; Banked call to: sAddrExtCpy
// 2717         pItem->panId = _NIB. nwkPanId;
        MOV     DPTR,#_NIB + 33
        LCALL   ?Subroutine22 & 0xFFFF
??CrossCallReturnLabel_18:
        LCALL   ?Subroutine13 & 0xFFFF
// 2718         pItem->linkInfo.rxLqi = DEF_LQI;
??CrossCallReturnLabel_55:
        LCALL   ?Subroutine31 & 0xFFFF
??CrossCallReturnLabel_33:
        MOV     A,#-0x56
        MOVX    @DPTR,A
// 2719         pItem->linkInfo.txCounter = DEF_LINK_COUNTER;
        MOV     DPTR,#gLINK_DOWN_TRIGGER
        CLR     A
        MOVC    A,@A+DPTR
        MOV     R1,#0x0
        ADD     A,#0x1
        MOV     R0,A
        JNC     ??ZDO_JoinConfirmCB_2
        INC     R1
??ZDO_JoinConfirmCB_2:
        MOV     R2,#0x2
        MOV     R3,#0x0
        LCALL   ?S_DIV_MOD
        MOV     A,R6
        ADD     A,#0xd
        MOV     DPL,A
        CLR     A
        ADDC    A,R7
        MOV     DPH,A
        MOV     A,R0
        MOVX    @DPTR,A
// 2720         pItem->linkInfo.txCost = DEF_LINK_COST;
        LCALL   ?Subroutine32 & 0xFFFF
// 2721       }
// 2722     }
??CrossCallReturnLabel_35:
        MOV     A,#0x1
        MOVX    @DPTR,A
// 2723 
// 2724     // LED on shows device joined
// 2725     HalLedSet ( HAL_LED_3, HAL_LED_MODE_ON );
??ZDO_JoinConfirmCB_1:
        ; Setup parameters for call to function HalLedSet
        MOV     R2,#0x1
        MOV     R1,#0x4
        LCALL   ??HalLedSet?relay    ; Banked call to: HalLedSet
// 2726     // LED off forgets HOLD_AUTO_START
// 2727     HalLedSet ( HAL_LED_4, HAL_LED_MODE_OFF);
        ; Setup parameters for call to function HalLedSet
        MOV     R2,#0x0
        MOV     R1,#0x8
        LCALL   ??HalLedSet?relay    ; Banked call to: HalLedSet
// 2728     if ( (devState == DEV_HOLD) )
        MOV     DPTR,#devState
        MOVX    A,@DPTR
        JNZ     ??ZDO_JoinConfirmCB_3
// 2729     {
// 2730       // Began with HOLD_AUTO_START
// 2731       ZDApp_ChangeState( DEV_NWK_JOINING );
        ; Setup parameters for call to function ZDApp_ChangeState
        MOV     R1,#0x3
        LCALL   ??ZDApp_ChangeState?relay; Banked call to: ZDApp_ChangeState
        SJMP    ??ZDO_JoinConfirmCB_3
// 2732     }
// 2733 
// 2734     if ( !ZG_SECURE_ENABLED )
// 2735     {
// 2736       // Notify to save info into NV
// 2737       ZDApp_NVUpdate();
// 2738     }
// 2739   }
// 2740   else
// 2741   {
// 2742 #if defined(BLINK_LEDS)
// 2743     HalLedSet ( HAL_LED_3, HAL_LED_MODE_FLASH );  // Flash LED to show failure
??ZDO_JoinConfirmCB_0:
        ; Setup parameters for call to function HalLedSet
        MOV     R2,#0x4
        MOV     R1,#0x4
        LCALL   ??HalLedSet?relay    ; Banked call to: HalLedSet
// 2744 #endif
// 2745   }
// 2746 
// 2747   // Pass the join confirm to higher layer if callback registered
// 2748   if (zdoCBFunc[ZDO_JOIN_CNF_CBID] != NULL )
??ZDO_JoinConfirmCB_3:
        MOV     DPTR,#zdoCBFunc + 8
        LCALL   ??Subroutine46_0 & 0xFFFF
??CrossCallReturnLabel_71:
        JZ      ??ZDO_JoinConfirmCB_4
// 2749   {
// 2750     zdoJoinCnf_t joinCnf;
// 2751 
// 2752     joinCnf.status = Status;
        MOV     DPL,?XSP + 0
        MOV     DPH,?XSP + 1
        MOV     A,?V0
        MOVX    @DPTR,A
// 2753     joinCnf.deviceAddr = _NIB.nwkDevAddress;
        MOV     DPTR,#_NIB + 20
        LCALL   ??Subroutine48_0 & 0xFFFF
??CrossCallReturnLabel_82:
        MOV     A,#0x1
        LCALL   ?XSTACK_DISP0_8
        LCALL   ??Subroutine52_0 & 0xFFFF
// 2754     joinCnf.parentAddr = _NIB.nwkCoordAddress;
??CrossCallReturnLabel_101:
        MOV     DPTR,#_NIB + 23
        LCALL   ??Subroutine48_0 & 0xFFFF
??CrossCallReturnLabel_83:
        MOV     A,#0x3
        LCALL   ?XSTACK_DISP0_8
        LCALL   ??Subroutine52_0 & 0xFFFF
// 2755 
// 2756     zdoCBFunc[ZDO_JOIN_CNF_CBID]( (void*)&joinCnf );
??CrossCallReturnLabel_102:
        ; Setup parameters for indirect call
        MOV     R2,?XSP + 0
        MOV     R3,?XSP + 1
        MOV     DPL,R0
        MOV     DPH,R1
        LCALL   ?CALL_IND
// 2757   }
// 2758 
// 2759   // Notify ZDApp
// 2760   ZDApp_SendMsg( ZDAppTaskID, ZDO_NWK_JOIN_IND, sizeof(osal_event_hdr_t), (byte*)NULL );
??ZDO_JoinConfirmCB_4:
        ; Setup parameters for call to function ZDApp_SendMsg
        MOV     R4,#0x0
        MOV     R5,#0x0
        MOV     R3,#0x2
        MOV     R2,#0x2
        MOV     DPTR,#ZDAppTaskID
        MOVX    A,@DPTR
        MOV     R1,A
        LCALL   ??ZDApp_SendMsg?relay; Banked call to: ZDApp_SendMsg
// 2761 
// 2762 }
        MOV     A,#0x5
        LJMP    ??Subroutine53_0 & 0xFFFF
          CFI EndBlock cfiBlock99

        RSEG BANKED_CODE:CODE:NOROOT(0)
?Subroutine22:
          CFI Block cfiCond100 Using cfiCommon0
          CFI Function ZDApp_NwkDescListProcessing
          CFI Conditional ??CrossCallReturnLabel_17
          CFI R6 load(1, XDATA, add(CFA_XSP16, literal(-14)))
          CFI VB load(1, XDATA, add(CFA_XSP16, literal(-13)))
          CFI V0 load(1, XDATA, add(CFA_XSP16, literal(-12)))
          CFI V1 load(1, XDATA, add(CFA_XSP16, literal(-11)))
          CFI V2 load(1, XDATA, add(CFA_XSP16, literal(-10)))
          CFI V3 load(1, XDATA, add(CFA_XSP16, literal(-9)))
          CFI V4 load(1, XDATA, add(CFA_XSP16, literal(-8)))
          CFI V5 load(1, XDATA, add(CFA_XSP16, literal(-7)))
          CFI R7 load(1, XDATA, add(CFA_XSP16, literal(-6)))
          CFI ?RET_LOW load(1, XDATA, add(CFA_XSP16, literal(-5)))
          CFI ?RET_HIGH load(1, XDATA, add(CFA_XSP16, literal(-4)))
          CFI ?BRET_EXT load(1, XDATA, add(CFA_XSP16, literal(-3)))
          CFI DPL0 load(1, XDATA, add(CFA_XSP16, literal(-2)))
          CFI DPH0 load(1, XDATA, add(CFA_XSP16, literal(-1)))
          CFI CFA_SP SP+-2
          CFI CFA_XSP16 add(XSP16, 14)
          CFI Block cfiCond101 Using cfiCommon0
          CFI (cfiCond101) Function ZDO_JoinConfirmCB
          CFI (cfiCond101) Conditional ??CrossCallReturnLabel_18
          CFI (cfiCond101) R6 load(1, XDATA, add(CFA_XSP16, literal(-12)))
          CFI (cfiCond101) VB load(1, XDATA, add(CFA_XSP16, literal(-11)))
          CFI (cfiCond101) V0 load(1, XDATA, add(CFA_XSP16, literal(-10)))
          CFI (cfiCond101) V1 load(1, XDATA, add(CFA_XSP16, literal(-9)))
          CFI (cfiCond101) V2 load(1, XDATA, add(CFA_XSP16, literal(-8)))
          CFI (cfiCond101) V3 load(1, XDATA, add(CFA_XSP16, literal(-7)))
          CFI (cfiCond101) R7 load(1, XDATA, add(CFA_XSP16, literal(-6)))
          CFI (cfiCond101) ?RET_LOW load(1, XDATA, add(CFA_XSP16, literal(-5)))
          CFI (cfiCond101) ?RET_HIGH load(1, XDATA, add(CFA_XSP16, literal(-4)))
          CFI (cfiCond101) ?BRET_EXT load(1, XDATA, add(CFA_XSP16, literal(-3)))
          CFI (cfiCond101) DPL0 load(1, XDATA, add(CFA_XSP16, literal(-2)))
          CFI (cfiCond101) DPH0 load(1, XDATA, add(CFA_XSP16, literal(-1)))
          CFI (cfiCond101) CFA_SP SP+-2
          CFI (cfiCond101) CFA_XSP16 add(XSP16, 17)
          CFI Block cfiPicker102 Using cfiCommon1
          CFI (cfiPicker102) NoFunction
          CFI (cfiPicker102) Picker
        LCALL   ?Subroutine35 & 0xFFFF
??CrossCallReturnLabel_96:
        MOV     DPL,R6
        MOV     DPH,R7
        INC     DPTR
        INC     DPTR
        INC     DPTR
        INC     DPTR
        INC     DPTR
        INC     DPTR
        RET
          CFI EndBlock cfiCond100
          CFI EndBlock cfiCond101
          CFI EndBlock cfiPicker102
// 2763 
// 2764 /*********************************************************************
// 2765  * @fn          ZDO_PermitJoinCB
// 2766  *
// 2767  * @brief      This function is called when there is a change in the
// 2768  *             device's permit join status.
// 2769  *
// 2770  * @param       duration - the new duration
// 2771  *
// 2772  * @return      none
// 2773  */

        RSEG BANKED_CODE:CODE:NOROOT(0)
// 2774 void ZDO_PermitJoinCB( uint8 duration )
ZDO_PermitJoinCB:
          CFI Block cfiBlock103 Using cfiCommon0
          CFI Function ZDO_PermitJoinCB
        CODE
// 2775 {
        PUSH    DPL
          CFI DPL0 Frame(CFA_SP, 4)
          CFI CFA_SP SP+-4
        PUSH    DPH
          CFI DPH0 Frame(CFA_SP, 5)
          CFI CFA_SP SP+-5
        ; Saved register size: 2
        ; Auto size: 1
        MOV     A,#-0x1
        LCALL   ?ALLOC_XSTACK8
          CFI CFA_XSP16 add(XSP16, 1)
        MOV     A,R1
        MOV     DPL,?XSP + 0
        MOV     DPH,?XSP + 1
        MOVX    @DPTR,A
// 2776   // Pass the Permit Join status to higher layer if callback registered
// 2777   if (zdoCBFunc[ZDO_PERMIT_JOIN_CBID] != NULL )
        MOV     DPTR,#zdoCBFunc + 14
        LCALL   ?Subroutine17 & 0xFFFF
??CrossCallReturnLabel_8:
        JZ      ??ZDO_PermitJoinCB_0
// 2778   {
// 2779     zdoCBFunc[ZDO_PERMIT_JOIN_CBID]( (void*)&duration );
        ; Setup parameters for indirect call
        MOV     R2,?XSP + 0
        MOV     R3,?XSP + 1
        LCALL   ?CALL_IND
// 2780   }
// 2781 }
??ZDO_PermitJoinCB_0:
        MOV     A,#0x1
        LJMP    ?Subroutine3 & 0xFFFF
          CFI EndBlock cfiBlock103
// 2782 
// 2783 /*********************************************************************
// 2784  * @fn          ZDO_AddrChangeIndicationCB
// 2785  *
// 2786  * @brief       This function notifies the application that this
// 2787  *              device's address has changed.  Could happen in
// 2788  *              a network with stochastic addressing (PRO).
// 2789  *
// 2790  * @param       newAddr - the new address
// 2791  *
// 2792  * @return      none
// 2793  */

        RSEG BANKED_CODE:CODE:NOROOT(0)
// 2794 void ZDO_AddrChangeIndicationCB( uint16 newAddr )
ZDO_AddrChangeIndicationCB:
          CFI Block cfiBlock104 Using cfiCommon0
          CFI Function ZDO_AddrChangeIndicationCB
        CODE
// 2795 {
        FUNCALL ZDO_AddrChangeIndicationCB, ZDApp_NVUpdate
        LOCFRAME ISTACK, 0, STACK
        LOCFRAME PSTACK, 0, STACK
        LOCFRAME XSTACK, 14, STACK
        LOCFRAME IOVERLAY, 0, STATIC
        LOCFRAME DOVERLAY, 0, STATIC
        ARGFRAME ISTACK, 0, STACK
        ARGFRAME PSTACK, 0, STACK
        ARGFRAME XSTACK, 14, STACK
        ARGFRAME IOVERLAY, 0, STATIC
        ARGFRAME DOVERLAY, 0, STATIC
        FUNCALL ZDO_AddrChangeIndicationCB, osal_set_event
        LOCFRAME ISTACK, 0, STACK
        LOCFRAME PSTACK, 0, STACK
        LOCFRAME XSTACK, 14, STACK
        LOCFRAME IOVERLAY, 0, STATIC
        LOCFRAME DOVERLAY, 0, STATIC
        ARGFRAME ISTACK, 0, STACK
        ARGFRAME PSTACK, 0, STACK
        ARGFRAME XSTACK, 14, STACK
        ARGFRAME IOVERLAY, 0, STATIC
        ARGFRAME DOVERLAY, 0, STATIC
        FUNCALL ZDO_AddrChangeIndicationCB, osal_msg_allocate
        LOCFRAME ISTACK, 0, STACK
        LOCFRAME PSTACK, 0, STACK
        LOCFRAME XSTACK, 14, STACK
        LOCFRAME IOVERLAY, 0, STATIC
        LOCFRAME DOVERLAY, 0, STATIC
        ARGFRAME ISTACK, 0, STACK
        ARGFRAME PSTACK, 0, STACK
        ARGFRAME XSTACK, 14, STACK
        ARGFRAME IOVERLAY, 0, STATIC
        ARGFRAME DOVERLAY, 0, STATIC
        FUNCALL ZDO_AddrChangeIndicationCB, osal_msg_send
        LOCFRAME ISTACK, 0, STACK
        LOCFRAME PSTACK, 0, STACK
        LOCFRAME XSTACK, 14, STACK
        LOCFRAME IOVERLAY, 0, STATIC
        LOCFRAME DOVERLAY, 0, STATIC
        ARGFRAME ISTACK, 0, STACK
        ARGFRAME PSTACK, 0, STACK
        ARGFRAME XSTACK, 14, STACK
        ARGFRAME IOVERLAY, 0, STATIC
        ARGFRAME DOVERLAY, 0, STATIC
        FUNCALL ZDO_AddrChangeIndicationCB, ZDApp_AnnounceNewAddress
        LOCFRAME ISTACK, 0, STACK
        LOCFRAME PSTACK, 0, STACK
        LOCFRAME XSTACK, 14, STACK
        LOCFRAME IOVERLAY, 0, STATIC
        LOCFRAME DOVERLAY, 0, STATIC
        ARGFRAME ISTACK, 0, STACK
        ARGFRAME PSTACK, 0, STACK
        ARGFRAME XSTACK, 14, STACK
        ARGFRAME IOVERLAY, 0, STATIC
        ARGFRAME DOVERLAY, 0, STATIC
        REQUIRE ?V0
        REQUIRE ?V1
        REQUIRE ?V2
        REQUIRE ?V3
        REQUIRE ?V4
        REQUIRE ?V5
        MOV     A,#-0xe
        LCALL   ?BANKED_ENTER_XDATA
          CFI DPH0 load(1, XDATA, add(CFA_XSP16, literal(-1)))
          CFI DPL0 load(1, XDATA, add(CFA_XSP16, literal(-2)))
          CFI ?BRET_EXT load(1, XDATA, add(CFA_XSP16, literal(-3)))
          CFI ?RET_HIGH load(1, XDATA, add(CFA_XSP16, literal(-4)))
          CFI ?RET_LOW load(1, XDATA, add(CFA_XSP16, literal(-5)))
          CFI R7 load(1, XDATA, add(CFA_XSP16, literal(-6)))
          CFI V5 load(1, XDATA, add(CFA_XSP16, literal(-7)))
          CFI V4 load(1, XDATA, add(CFA_XSP16, literal(-8)))
          CFI V3 load(1, XDATA, add(CFA_XSP16, literal(-9)))
          CFI V2 load(1, XDATA, add(CFA_XSP16, literal(-10)))
          CFI V1 load(1, XDATA, add(CFA_XSP16, literal(-11)))
          CFI V0 load(1, XDATA, add(CFA_XSP16, literal(-12)))
          CFI VB load(1, XDATA, add(CFA_XSP16, literal(-13)))
          CFI R6 load(1, XDATA, add(CFA_XSP16, literal(-14)))
          CFI CFA_SP SP+0
          CFI CFA_XSP16 add(XSP16, 14)
        ; Saved register size: 14
        ; Auto size: 0
        MOV     ?V0,R2
        MOV     ?V1,R3
// 2796   ZDO_AddrChangeInd_t *pZDOAddrChangeMsg;
// 2797   epList_t *pItem = epList;
        MOV     DPTR,#epList
        LCALL   ??Subroutine45_0 & 0xFFFF
// 2798 
// 2799   // Notify to save info into NV
// 2800   ZDApp_NVUpdate();
??CrossCallReturnLabel_62:
        ; Setup parameters for call to function ZDApp_NVUpdate
        LCALL   ??ZDApp_NVUpdate?relay; Banked call to: ZDApp_NVUpdate
// 2801 
// 2802   // Notify the applications
// 2803   osal_set_event( ZDAppTaskID, ZDO_STATE_CHANGE_EVT );
        ; Setup parameters for call to function osal_set_event
        MOV     R2,#0x10
        MOV     R3,#0x0
        MOV     DPTR,#ZDAppTaskID
        MOVX    A,@DPTR
        MOV     R1,A
        LCALL   ??osal_set_event?relay; Banked call to: osal_set_event
        SJMP    ??CrossCallReturnLabel_63
// 2804 
// 2805   while (pItem != NULL)
// 2806   {
// 2807     if (pItem->epDesc->endPoint != ZDO_EP)
??ZDO_AddrChangeIndicationCB_0:
        MOV     A,R6
        ADD     A,#0x2
        MOV     R0,A
        CLR     A
        ADDC    A,R7
        MOV     R1,A
        MOV     ?V2,R0
        MOV     ?V3,R1
        MOV     DPL,R0
        MOV     DPH,A
        LCALL   ?Subroutine20 & 0xFFFF
??CrossCallReturnLabel_15:
        JZ      ??ZDO_AddrChangeIndicationCB_1
// 2808     {
// 2809       pZDOAddrChangeMsg = (ZDO_AddrChangeInd_t *)osal_msg_allocate( sizeof( ZDO_AddrChangeInd_t ) );
        ; Setup parameters for call to function osal_msg_allocate
        MOV     R2,#0x4
        MOV     R3,#0x0
        LCALL   ??osal_msg_allocate?relay; Banked call to: osal_msg_allocate
// 2810       if (pZDOAddrChangeMsg != NULL)
        MOV     A,R2
        ORL     A,R3
        JZ      ??ZDO_AddrChangeIndicationCB_1
// 2811       {
// 2812         pZDOAddrChangeMsg->hdr.event = ZDO_ADDR_CHANGE_IND;
        MOV     DPL,R2
        MOV     DPH,R3
        MOV     A,#-0x2a
        MOVX    @DPTR,A
// 2813         pZDOAddrChangeMsg->shortAddr = newAddr;
        INC     DPTR
        INC     DPTR
        MOV     A,?V0
        MOVX    @DPTR,A
        INC     DPTR
        MOV     A,?V1
        LCALL   ?Subroutine16 & 0xFFFF
// 2814         osal_msg_send( *(pItem->epDesc->task_id), (uint8 *)pZDOAddrChangeMsg );
// 2815       }
// 2816     }
??CrossCallReturnLabel_5:
        LCALL   ??Subroutine42_0 & 0xFFFF
??CrossCallReturnLabel_58:
        INC     DPTR
        LCALL   ?Subroutine20 & 0xFFFF
??CrossCallReturnLabel_16:
        MOV     R1,A
        LCALL   ??osal_msg_send?relay; Banked call to: osal_msg_send
// 2817     pItem = pItem->nextDesc;
??ZDO_AddrChangeIndicationCB_1:
        MOV     DPL,R6
        MOV     DPH,R7
        LCALL   ??Subroutine45_0 & 0xFFFF
// 2818   }
??CrossCallReturnLabel_63:
        MOV     A,R6
        ORL     A,R7
        JNZ     ??ZDO_AddrChangeIndicationCB_0
// 2819 
// 2820   // Send out a device announce
// 2821   ZDApp_AnnounceNewAddress();
        ; Setup parameters for call to function ZDApp_AnnounceNewAddress
        LCALL   ??ZDApp_AnnounceNewAddress?relay; Banked call to: ZDApp_AnnounceNewAddress
// 2822 }
        LJMP    ?Subroutine1 & 0xFFFF
          CFI EndBlock cfiBlock104

        RSEG BANKED_CODE:CODE:NOROOT(0)
?Subroutine24:
          CFI Block cfiCond105 Using cfiCommon0
          CFI Function ZDApp_NwkDescListProcessing
          CFI Conditional ??CrossCallReturnLabel_64
          CFI R6 load(1, XDATA, add(CFA_XSP16, literal(-14)))
          CFI VB load(1, XDATA, add(CFA_XSP16, literal(-13)))
          CFI V0 load(1, XDATA, add(CFA_XSP16, literal(-12)))
          CFI V1 load(1, XDATA, add(CFA_XSP16, literal(-11)))
          CFI V2 load(1, XDATA, add(CFA_XSP16, literal(-10)))
          CFI V3 load(1, XDATA, add(CFA_XSP16, literal(-9)))
          CFI V4 load(1, XDATA, add(CFA_XSP16, literal(-8)))
          CFI V5 load(1, XDATA, add(CFA_XSP16, literal(-7)))
          CFI R7 load(1, XDATA, add(CFA_XSP16, literal(-6)))
          CFI ?RET_LOW load(1, XDATA, add(CFA_XSP16, literal(-5)))
          CFI ?RET_HIGH load(1, XDATA, add(CFA_XSP16, literal(-4)))
          CFI ?BRET_EXT load(1, XDATA, add(CFA_XSP16, literal(-3)))
          CFI DPL0 load(1, XDATA, add(CFA_XSP16, literal(-2)))
          CFI DPH0 load(1, XDATA, add(CFA_XSP16, literal(-1)))
          CFI CFA_SP SP+-2
          CFI CFA_XSP16 add(XSP16, 14)
          CFI Block cfiCond106 Using cfiCommon0
          CFI (cfiCond106) Function ZDApp_NwkDescListProcessing
          CFI (cfiCond106) Conditional ??CrossCallReturnLabel_65
          CFI (cfiCond106) R6 load(1, XDATA, add(CFA_XSP16, literal(-14)))
          CFI (cfiCond106) VB load(1, XDATA, add(CFA_XSP16, literal(-13)))
          CFI (cfiCond106) V0 load(1, XDATA, add(CFA_XSP16, literal(-12)))
          CFI (cfiCond106) V1 load(1, XDATA, add(CFA_XSP16, literal(-11)))
          CFI (cfiCond106) V2 load(1, XDATA, add(CFA_XSP16, literal(-10)))
          CFI (cfiCond106) V3 load(1, XDATA, add(CFA_XSP16, literal(-9)))
          CFI (cfiCond106) V4 load(1, XDATA, add(CFA_XSP16, literal(-8)))
          CFI (cfiCond106) V5 load(1, XDATA, add(CFA_XSP16, literal(-7)))
          CFI (cfiCond106) R7 load(1, XDATA, add(CFA_XSP16, literal(-6)))
          CFI (cfiCond106) ?RET_LOW load(1, XDATA, add(CFA_XSP16, literal(-5)))
          CFI (cfiCond106) ?RET_HIGH load(1, XDATA, add(CFA_XSP16, literal(-4)))
          CFI (cfiCond106) ?BRET_EXT load(1, XDATA, add(CFA_XSP16, literal(-3)))
          CFI (cfiCond106) DPL0 load(1, XDATA, add(CFA_XSP16, literal(-2)))
          CFI (cfiCond106) DPH0 load(1, XDATA, add(CFA_XSP16, literal(-1)))
          CFI (cfiCond106) CFA_SP SP+-2
          CFI (cfiCond106) CFA_XSP16 add(XSP16, 14)
          CFI Block cfiCond107 Using cfiCommon0
          CFI (cfiCond107) Function ZDO_beaconNotifyIndCB
          CFI (cfiCond107) Conditional ??CrossCallReturnLabel_66
          CFI (cfiCond107) R6 load(1, XDATA, add(CFA_XSP16, literal(-18)))
          CFI (cfiCond107) VB load(1, XDATA, add(CFA_XSP16, literal(-17)))
          CFI (cfiCond107) V0 load(1, XDATA, add(CFA_XSP16, literal(-16)))
          CFI (cfiCond107) V1 load(1, XDATA, add(CFA_XSP16, literal(-15)))
          CFI (cfiCond107) V2 load(1, XDATA, add(CFA_XSP16, literal(-14)))
          CFI (cfiCond107) V3 load(1, XDATA, add(CFA_XSP16, literal(-13)))
          CFI (cfiCond107) V4 load(1, XDATA, add(CFA_XSP16, literal(-12)))
          CFI (cfiCond107) V5 load(1, XDATA, add(CFA_XSP16, literal(-11)))
          CFI (cfiCond107) V6 load(1, XDATA, add(CFA_XSP16, literal(-10)))
          CFI (cfiCond107) V7 load(1, XDATA, add(CFA_XSP16, literal(-9)))
          CFI (cfiCond107) V8 load(1, XDATA, add(CFA_XSP16, literal(-8)))
          CFI (cfiCond107) V9 load(1, XDATA, add(CFA_XSP16, literal(-7)))
          CFI (cfiCond107) R7 load(1, XDATA, add(CFA_XSP16, literal(-6)))
          CFI (cfiCond107) ?RET_LOW load(1, XDATA, add(CFA_XSP16, literal(-5)))
          CFI (cfiCond107) ?RET_HIGH load(1, XDATA, add(CFA_XSP16, literal(-4)))
          CFI (cfiCond107) ?BRET_EXT load(1, XDATA, add(CFA_XSP16, literal(-3)))
          CFI (cfiCond107) DPL0 load(1, XDATA, add(CFA_XSP16, literal(-2)))
          CFI (cfiCond107) DPH0 load(1, XDATA, add(CFA_XSP16, literal(-1)))
          CFI (cfiCond107) CFA_SP SP+-2
          CFI (cfiCond107) CFA_XSP16 add(XSP16, 18)
          CFI Block cfiPicker108 Using cfiCommon1
          CFI (cfiPicker108) NoFunction
          CFI (cfiPicker108) Picker
        MOV     A,R6
        ADD     A,#0x14
        MOV     DPL,A
        CLR     A
        ADDC    A,R7
        MOV     DPH,A
          CFI EndBlock cfiCond105
          CFI EndBlock cfiCond106
          CFI EndBlock cfiCond107
          CFI EndBlock cfiPicker108
        REQUIRE ??Subroutine45_0
        ; // Fall through to label ??Subroutine45_0

        RSEG BANKED_CODE:CODE:NOROOT(0)
??Subroutine45_0:
          CFI Block cfiCond109 Using cfiCommon0
          CFI Function ZDO_beaconNotifyIndCB
          CFI Conditional ??CrossCallReturnLabel_61
          CFI R6 load(1, XDATA, add(CFA_XSP16, literal(-18)))
          CFI VB load(1, XDATA, add(CFA_XSP16, literal(-17)))
          CFI V0 load(1, XDATA, add(CFA_XSP16, literal(-16)))
          CFI V1 load(1, XDATA, add(CFA_XSP16, literal(-15)))
          CFI V2 load(1, XDATA, add(CFA_XSP16, literal(-14)))
          CFI V3 load(1, XDATA, add(CFA_XSP16, literal(-13)))
          CFI V4 load(1, XDATA, add(CFA_XSP16, literal(-12)))
          CFI V5 load(1, XDATA, add(CFA_XSP16, literal(-11)))
          CFI V6 load(1, XDATA, add(CFA_XSP16, literal(-10)))
          CFI V7 load(1, XDATA, add(CFA_XSP16, literal(-9)))
          CFI V8 load(1, XDATA, add(CFA_XSP16, literal(-8)))
          CFI V9 load(1, XDATA, add(CFA_XSP16, literal(-7)))
          CFI R7 load(1, XDATA, add(CFA_XSP16, literal(-6)))
          CFI ?RET_LOW load(1, XDATA, add(CFA_XSP16, literal(-5)))
          CFI ?RET_HIGH load(1, XDATA, add(CFA_XSP16, literal(-4)))
          CFI ?BRET_EXT load(1, XDATA, add(CFA_XSP16, literal(-3)))
          CFI DPL0 load(1, XDATA, add(CFA_XSP16, literal(-2)))
          CFI DPH0 load(1, XDATA, add(CFA_XSP16, literal(-1)))
          CFI CFA_SP SP+-2
          CFI CFA_XSP16 add(XSP16, 18)
          CFI Block cfiCond110 Using cfiCommon0
          CFI (cfiCond110) Function ZDO_AddrChangeIndicationCB
          CFI (cfiCond110) Conditional ??CrossCallReturnLabel_62
          CFI (cfiCond110) R6 load(1, XDATA, add(CFA_XSP16, literal(-14)))
          CFI (cfiCond110) VB load(1, XDATA, add(CFA_XSP16, literal(-13)))
          CFI (cfiCond110) V0 load(1, XDATA, add(CFA_XSP16, literal(-12)))
          CFI (cfiCond110) V1 load(1, XDATA, add(CFA_XSP16, literal(-11)))
          CFI (cfiCond110) V2 load(1, XDATA, add(CFA_XSP16, literal(-10)))
          CFI (cfiCond110) V3 load(1, XDATA, add(CFA_XSP16, literal(-9)))
          CFI (cfiCond110) V4 load(1, XDATA, add(CFA_XSP16, literal(-8)))
          CFI (cfiCond110) V5 load(1, XDATA, add(CFA_XSP16, literal(-7)))
          CFI (cfiCond110) R7 load(1, XDATA, add(CFA_XSP16, literal(-6)))
          CFI (cfiCond110) ?RET_LOW load(1, XDATA, add(CFA_XSP16, literal(-5)))
          CFI (cfiCond110) ?RET_HIGH load(1, XDATA, add(CFA_XSP16, literal(-4)))
          CFI (cfiCond110) ?BRET_EXT load(1, XDATA, add(CFA_XSP16, literal(-3)))
          CFI (cfiCond110) DPL0 load(1, XDATA, add(CFA_XSP16, literal(-2)))
          CFI (cfiCond110) DPH0 load(1, XDATA, add(CFA_XSP16, literal(-1)))
          CFI (cfiCond110) CFA_SP SP+-2
          CFI (cfiCond110) CFA_XSP16 add(XSP16, 14)
          CFI Block cfiCond111 Using cfiCommon0
          CFI (cfiCond111) Function ZDO_AddrChangeIndicationCB
          CFI (cfiCond111) Conditional ??CrossCallReturnLabel_63
          CFI (cfiCond111) R6 load(1, XDATA, add(CFA_XSP16, literal(-14)))
          CFI (cfiCond111) VB load(1, XDATA, add(CFA_XSP16, literal(-13)))
          CFI (cfiCond111) V0 load(1, XDATA, add(CFA_XSP16, literal(-12)))
          CFI (cfiCond111) V1 load(1, XDATA, add(CFA_XSP16, literal(-11)))
          CFI (cfiCond111) V2 load(1, XDATA, add(CFA_XSP16, literal(-10)))
          CFI (cfiCond111) V3 load(1, XDATA, add(CFA_XSP16, literal(-9)))
          CFI (cfiCond111) V4 load(1, XDATA, add(CFA_XSP16, literal(-8)))
          CFI (cfiCond111) V5 load(1, XDATA, add(CFA_XSP16, literal(-7)))
          CFI (cfiCond111) R7 load(1, XDATA, add(CFA_XSP16, literal(-6)))
          CFI (cfiCond111) ?RET_LOW load(1, XDATA, add(CFA_XSP16, literal(-5)))
          CFI (cfiCond111) ?RET_HIGH load(1, XDATA, add(CFA_XSP16, literal(-4)))
          CFI (cfiCond111) ?BRET_EXT load(1, XDATA, add(CFA_XSP16, literal(-3)))
          CFI (cfiCond111) DPL0 load(1, XDATA, add(CFA_XSP16, literal(-2)))
          CFI (cfiCond111) DPH0 load(1, XDATA, add(CFA_XSP16, literal(-1)))
          CFI (cfiCond111) CFA_SP SP+-2
          CFI (cfiCond111) CFA_XSP16 add(XSP16, 14)
          CFI Block cfiCond112 Using cfiCommon0
          CFI (cfiCond112) Function ZDApp_NwkDescListProcessing
          CFI (cfiCond112) Conditional ??CrossCallReturnLabel_64
          CFI (cfiCond112) R6 load(1, XDATA, add(CFA_XSP16, literal(-14)))
          CFI (cfiCond112) VB load(1, XDATA, add(CFA_XSP16, literal(-13)))
          CFI (cfiCond112) V0 load(1, XDATA, add(CFA_XSP16, literal(-12)))
          CFI (cfiCond112) V1 load(1, XDATA, add(CFA_XSP16, literal(-11)))
          CFI (cfiCond112) V2 load(1, XDATA, add(CFA_XSP16, literal(-10)))
          CFI (cfiCond112) V3 load(1, XDATA, add(CFA_XSP16, literal(-9)))
          CFI (cfiCond112) V4 load(1, XDATA, add(CFA_XSP16, literal(-8)))
          CFI (cfiCond112) V5 load(1, XDATA, add(CFA_XSP16, literal(-7)))
          CFI (cfiCond112) R7 load(1, XDATA, add(CFA_XSP16, literal(-6)))
          CFI (cfiCond112) ?RET_LOW load(1, XDATA, add(CFA_XSP16, literal(-5)))
          CFI (cfiCond112) ?RET_HIGH load(1, XDATA, add(CFA_XSP16, literal(-4)))
          CFI (cfiCond112) ?BRET_EXT load(1, XDATA, add(CFA_XSP16, literal(-3)))
          CFI (cfiCond112) DPL0 load(1, XDATA, add(CFA_XSP16, literal(-2)))
          CFI (cfiCond112) DPH0 load(1, XDATA, add(CFA_XSP16, literal(-1)))
          CFI (cfiCond112) CFA_SP SP+-2
          CFI (cfiCond112) CFA_XSP16 add(XSP16, 14)
          CFI Block cfiCond113 Using cfiCommon0
          CFI (cfiCond113) Function ZDApp_NwkDescListProcessing
          CFI (cfiCond113) Conditional ??CrossCallReturnLabel_65
          CFI (cfiCond113) R6 load(1, XDATA, add(CFA_XSP16, literal(-14)))
          CFI (cfiCond113) VB load(1, XDATA, add(CFA_XSP16, literal(-13)))
          CFI (cfiCond113) V0 load(1, XDATA, add(CFA_XSP16, literal(-12)))
          CFI (cfiCond113) V1 load(1, XDATA, add(CFA_XSP16, literal(-11)))
          CFI (cfiCond113) V2 load(1, XDATA, add(CFA_XSP16, literal(-10)))
          CFI (cfiCond113) V3 load(1, XDATA, add(CFA_XSP16, literal(-9)))
          CFI (cfiCond113) V4 load(1, XDATA, add(CFA_XSP16, literal(-8)))
          CFI (cfiCond113) V5 load(1, XDATA, add(CFA_XSP16, literal(-7)))
          CFI (cfiCond113) R7 load(1, XDATA, add(CFA_XSP16, literal(-6)))
          CFI (cfiCond113) ?RET_LOW load(1, XDATA, add(CFA_XSP16, literal(-5)))
          CFI (cfiCond113) ?RET_HIGH load(1, XDATA, add(CFA_XSP16, literal(-4)))
          CFI (cfiCond113) ?BRET_EXT load(1, XDATA, add(CFA_XSP16, literal(-3)))
          CFI (cfiCond113) DPL0 load(1, XDATA, add(CFA_XSP16, literal(-2)))
          CFI (cfiCond113) DPH0 load(1, XDATA, add(CFA_XSP16, literal(-1)))
          CFI (cfiCond113) CFA_SP SP+-2
          CFI (cfiCond113) CFA_XSP16 add(XSP16, 14)
          CFI Block cfiCond114 Using cfiCommon0
          CFI (cfiCond114) Function ZDO_beaconNotifyIndCB
          CFI (cfiCond114) Conditional ??CrossCallReturnLabel_66
          CFI (cfiCond114) R6 load(1, XDATA, add(CFA_XSP16, literal(-18)))
          CFI (cfiCond114) VB load(1, XDATA, add(CFA_XSP16, literal(-17)))
          CFI (cfiCond114) V0 load(1, XDATA, add(CFA_XSP16, literal(-16)))
          CFI (cfiCond114) V1 load(1, XDATA, add(CFA_XSP16, literal(-15)))
          CFI (cfiCond114) V2 load(1, XDATA, add(CFA_XSP16, literal(-14)))
          CFI (cfiCond114) V3 load(1, XDATA, add(CFA_XSP16, literal(-13)))
          CFI (cfiCond114) V4 load(1, XDATA, add(CFA_XSP16, literal(-12)))
          CFI (cfiCond114) V5 load(1, XDATA, add(CFA_XSP16, literal(-11)))
          CFI (cfiCond114) V6 load(1, XDATA, add(CFA_XSP16, literal(-10)))
          CFI (cfiCond114) V7 load(1, XDATA, add(CFA_XSP16, literal(-9)))
          CFI (cfiCond114) V8 load(1, XDATA, add(CFA_XSP16, literal(-8)))
          CFI (cfiCond114) V9 load(1, XDATA, add(CFA_XSP16, literal(-7)))
          CFI (cfiCond114) R7 load(1, XDATA, add(CFA_XSP16, literal(-6)))
          CFI (cfiCond114) ?RET_LOW load(1, XDATA, add(CFA_XSP16, literal(-5)))
          CFI (cfiCond114) ?RET_HIGH load(1, XDATA, add(CFA_XSP16, literal(-4)))
          CFI (cfiCond114) ?BRET_EXT load(1, XDATA, add(CFA_XSP16, literal(-3)))
          CFI (cfiCond114) DPL0 load(1, XDATA, add(CFA_XSP16, literal(-2)))
          CFI (cfiCond114) DPH0 load(1, XDATA, add(CFA_XSP16, literal(-1)))
          CFI (cfiCond114) CFA_SP SP+-2
          CFI (cfiCond114) CFA_XSP16 add(XSP16, 18)
          CFI Block cfiPicker115 Using cfiCommon1
          CFI (cfiPicker115) NoFunction
          CFI (cfiPicker115) Picker
        MOVX    A,@DPTR
        MOV     R6,A
        INC     DPTR
        MOVX    A,@DPTR
        MOV     R7,A
        RET
          CFI EndBlock cfiCond109
          CFI EndBlock cfiCond110
          CFI EndBlock cfiCond111
          CFI EndBlock cfiCond112
          CFI EndBlock cfiCond113
          CFI EndBlock cfiCond114
          CFI EndBlock cfiPicker115

        RSEG BANKED_CODE:CODE:NOROOT(0)
?Subroutine20:
          CFI Block cfiCond116 Using cfiCommon0
          CFI Function ZDApp_SecInit
          CFI Conditional ??CrossCallReturnLabel_14
          CFI R6 load(1, XDATA, add(CFA_XSP16, literal(-9)))
          CFI VB load(1, XDATA, add(CFA_XSP16, literal(-8)))
          CFI V0 load(1, XDATA, add(CFA_XSP16, literal(-7)))
          CFI R7 load(1, XDATA, add(CFA_XSP16, literal(-6)))
          CFI ?RET_LOW load(1, XDATA, add(CFA_XSP16, literal(-5)))
          CFI ?RET_HIGH load(1, XDATA, add(CFA_XSP16, literal(-4)))
          CFI ?BRET_EXT load(1, XDATA, add(CFA_XSP16, literal(-3)))
          CFI DPL0 load(1, XDATA, add(CFA_XSP16, literal(-2)))
          CFI DPH0 load(1, XDATA, add(CFA_XSP16, literal(-1)))
          CFI CFA_SP SP+-2
          CFI CFA_XSP16 add(XSP16, 25)
          CFI Block cfiCond117 Using cfiCommon0
          CFI (cfiCond117) Function ZDO_AddrChangeIndicationCB
          CFI (cfiCond117) Conditional ??CrossCallReturnLabel_15
          CFI (cfiCond117) R6 load(1, XDATA, add(CFA_XSP16, literal(-14)))
          CFI (cfiCond117) VB load(1, XDATA, add(CFA_XSP16, literal(-13)))
          CFI (cfiCond117) V0 load(1, XDATA, add(CFA_XSP16, literal(-12)))
          CFI (cfiCond117) V1 load(1, XDATA, add(CFA_XSP16, literal(-11)))
          CFI (cfiCond117) V2 load(1, XDATA, add(CFA_XSP16, literal(-10)))
          CFI (cfiCond117) V3 load(1, XDATA, add(CFA_XSP16, literal(-9)))
          CFI (cfiCond117) V4 load(1, XDATA, add(CFA_XSP16, literal(-8)))
          CFI (cfiCond117) V5 load(1, XDATA, add(CFA_XSP16, literal(-7)))
          CFI (cfiCond117) R7 load(1, XDATA, add(CFA_XSP16, literal(-6)))
          CFI (cfiCond117) ?RET_LOW load(1, XDATA, add(CFA_XSP16, literal(-5)))
          CFI (cfiCond117) ?RET_HIGH load(1, XDATA, add(CFA_XSP16, literal(-4)))
          CFI (cfiCond117) ?BRET_EXT load(1, XDATA, add(CFA_XSP16, literal(-3)))
          CFI (cfiCond117) DPL0 load(1, XDATA, add(CFA_XSP16, literal(-2)))
          CFI (cfiCond117) DPH0 load(1, XDATA, add(CFA_XSP16, literal(-1)))
          CFI (cfiCond117) CFA_SP SP+-2
          CFI (cfiCond117) CFA_XSP16 add(XSP16, 14)
          CFI Block cfiCond118 Using cfiCommon0
          CFI (cfiCond118) Function ZDO_AddrChangeIndicationCB
          CFI (cfiCond118) Conditional ??CrossCallReturnLabel_16
          CFI (cfiCond118) R6 load(1, XDATA, add(CFA_XSP16, literal(-14)))
          CFI (cfiCond118) VB load(1, XDATA, add(CFA_XSP16, literal(-13)))
          CFI (cfiCond118) V0 load(1, XDATA, add(CFA_XSP16, literal(-12)))
          CFI (cfiCond118) V1 load(1, XDATA, add(CFA_XSP16, literal(-11)))
          CFI (cfiCond118) V2 load(1, XDATA, add(CFA_XSP16, literal(-10)))
          CFI (cfiCond118) V3 load(1, XDATA, add(CFA_XSP16, literal(-9)))
          CFI (cfiCond118) V4 load(1, XDATA, add(CFA_XSP16, literal(-8)))
          CFI (cfiCond118) V5 load(1, XDATA, add(CFA_XSP16, literal(-7)))
          CFI (cfiCond118) R7 load(1, XDATA, add(CFA_XSP16, literal(-6)))
          CFI (cfiCond118) ?RET_LOW load(1, XDATA, add(CFA_XSP16, literal(-5)))
          CFI (cfiCond118) ?RET_HIGH load(1, XDATA, add(CFA_XSP16, literal(-4)))
          CFI (cfiCond118) ?BRET_EXT load(1, XDATA, add(CFA_XSP16, literal(-3)))
          CFI (cfiCond118) DPL0 load(1, XDATA, add(CFA_XSP16, literal(-2)))
          CFI (cfiCond118) DPH0 load(1, XDATA, add(CFA_XSP16, literal(-1)))
          CFI (cfiCond118) CFA_SP SP+-2
          CFI (cfiCond118) CFA_XSP16 add(XSP16, 14)
          CFI Block cfiPicker119 Using cfiCommon1
          CFI (cfiPicker119) NoFunction
          CFI (cfiPicker119) Picker
        LCALL   ?Subroutine36 & 0xFFFF
??CrossCallReturnLabel_60:
        MOVX    A,@DPTR
        RET
          CFI EndBlock cfiCond116
          CFI EndBlock cfiCond117
          CFI EndBlock cfiCond118
          CFI EndBlock cfiPicker119

        RSEG BANKED_CODE:CODE:NOROOT(0)
?Subroutine16:
          CFI Block cfiCond120 Using cfiCommon0
          CFI Function ZDO_beaconNotifyIndCB
          CFI Conditional ??CrossCallReturnLabel_4
          CFI R6 load(1, XDATA, add(CFA_XSP16, literal(-18)))
          CFI VB load(1, XDATA, add(CFA_XSP16, literal(-17)))
          CFI V0 load(1, XDATA, add(CFA_XSP16, literal(-16)))
          CFI V1 load(1, XDATA, add(CFA_XSP16, literal(-15)))
          CFI V2 load(1, XDATA, add(CFA_XSP16, literal(-14)))
          CFI V3 load(1, XDATA, add(CFA_XSP16, literal(-13)))
          CFI V4 load(1, XDATA, add(CFA_XSP16, literal(-12)))
          CFI V5 load(1, XDATA, add(CFA_XSP16, literal(-11)))
          CFI V6 load(1, XDATA, add(CFA_XSP16, literal(-10)))
          CFI V7 load(1, XDATA, add(CFA_XSP16, literal(-9)))
          CFI V8 load(1, XDATA, add(CFA_XSP16, literal(-8)))
          CFI V9 load(1, XDATA, add(CFA_XSP16, literal(-7)))
          CFI R7 load(1, XDATA, add(CFA_XSP16, literal(-6)))
          CFI ?RET_LOW load(1, XDATA, add(CFA_XSP16, literal(-5)))
          CFI ?RET_HIGH load(1, XDATA, add(CFA_XSP16, literal(-4)))
          CFI ?BRET_EXT load(1, XDATA, add(CFA_XSP16, literal(-3)))
          CFI DPL0 load(1, XDATA, add(CFA_XSP16, literal(-2)))
          CFI DPH0 load(1, XDATA, add(CFA_XSP16, literal(-1)))
          CFI CFA_SP SP+-2
          CFI CFA_XSP16 add(XSP16, 18)
          CFI Block cfiCond121 Using cfiCommon0
          CFI (cfiCond121) Function ZDO_AddrChangeIndicationCB
          CFI (cfiCond121) Conditional ??CrossCallReturnLabel_5
          CFI (cfiCond121) R6 load(1, XDATA, add(CFA_XSP16, literal(-14)))
          CFI (cfiCond121) VB load(1, XDATA, add(CFA_XSP16, literal(-13)))
          CFI (cfiCond121) V0 load(1, XDATA, add(CFA_XSP16, literal(-12)))
          CFI (cfiCond121) V1 load(1, XDATA, add(CFA_XSP16, literal(-11)))
          CFI (cfiCond121) V2 load(1, XDATA, add(CFA_XSP16, literal(-10)))
          CFI (cfiCond121) V3 load(1, XDATA, add(CFA_XSP16, literal(-9)))
          CFI (cfiCond121) V4 load(1, XDATA, add(CFA_XSP16, literal(-8)))
          CFI (cfiCond121) V5 load(1, XDATA, add(CFA_XSP16, literal(-7)))
          CFI (cfiCond121) R7 load(1, XDATA, add(CFA_XSP16, literal(-6)))
          CFI (cfiCond121) ?RET_LOW load(1, XDATA, add(CFA_XSP16, literal(-5)))
          CFI (cfiCond121) ?RET_HIGH load(1, XDATA, add(CFA_XSP16, literal(-4)))
          CFI (cfiCond121) ?BRET_EXT load(1, XDATA, add(CFA_XSP16, literal(-3)))
          CFI (cfiCond121) DPL0 load(1, XDATA, add(CFA_XSP16, literal(-2)))
          CFI (cfiCond121) DPH0 load(1, XDATA, add(CFA_XSP16, literal(-1)))
          CFI (cfiCond121) CFA_SP SP+-2
          CFI (cfiCond121) CFA_XSP16 add(XSP16, 14)
          CFI Block cfiPicker122 Using cfiCommon1
          CFI (cfiPicker122) NoFunction
          CFI (cfiPicker122) Picker
        MOVX    @DPTR,A
        ; Setup parameters for call to function osal_msg_send
        MOV     DPL,?V2
        MOV     DPH,?V3
        MOVX    A,@DPTR
        RET
          CFI EndBlock cfiCond120
          CFI EndBlock cfiCond121
          CFI EndBlock cfiPicker122
// 2823 
// 2824 /*********************************************************************
// 2825  * @fn          ZDO_JoinIndicationCB
// 2826  *
// 2827  * @brief       This function allows the next higher layer of a
// 2828  *              coordinator to be notified of a remote join request.
// 2829  *
// 2830  * @param       ShortAddress - 16-bit address
// 2831  * @param       ExtendedAddress - IEEE (64-bit) address
// 2832  * @param       CapabilityFlags - Association Capability Flags
// 2833  * @param       type - of joining -
// 2834  *                          NWK_ASSOC_JOIN
// 2835  *                          NWK_ASSOC_REJOIN_UNSECURE
// 2836  *                          NWK_ASSOC_REJOIN_SECURE
// 2837  *
// 2838  * @return      ZStatus_t
// 2839  */

        RSEG BANKED_CODE:CODE:NOROOT(0)
// 2840 ZStatus_t ZDO_JoinIndicationCB(uint16 ShortAddress, uint8 *ExtendedAddress,
ZDO_JoinIndicationCB:
          CFI Block cfiBlock123 Using cfiCommon0
          CFI Function ZDO_JoinIndicationCB
        CODE
// 2841                                 uint8 CapabilityFlags, uint8 type)
// 2842 {
        FUNCALL ZDO_JoinIndicationCB, osal_get_timeoutEx
        LOCFRAME ISTACK, 0, STACK
        LOCFRAME PSTACK, 0, STACK
        LOCFRAME XSTACK, 16, STACK
        LOCFRAME IOVERLAY, 0, STATIC
        LOCFRAME DOVERLAY, 0, STATIC
        ARGFRAME ISTACK, 0, STACK
        ARGFRAME PSTACK, 0, STACK
        ARGFRAME XSTACK, 16, STACK
        ARGFRAME IOVERLAY, 0, STATIC
        ARGFRAME DOVERLAY, 0, STATIC
        FUNCALL ZDO_JoinIndicationCB, ZDApp_NVUpdate
        LOCFRAME ISTACK, 0, STACK
        LOCFRAME PSTACK, 0, STACK
        LOCFRAME XSTACK, 16, STACK
        LOCFRAME IOVERLAY, 0, STATIC
        LOCFRAME DOVERLAY, 0, STATIC
        ARGFRAME ISTACK, 0, STACK
        ARGFRAME PSTACK, 0, STACK
        ARGFRAME XSTACK, 16, STACK
        ARGFRAME IOVERLAY, 0, STATIC
        ARGFRAME DOVERLAY, 0, STATIC
        FUNCALL ZDO_JoinIndicationCB, osal_mem_alloc
        LOCFRAME ISTACK, 0, STACK
        LOCFRAME PSTACK, 0, STACK
        LOCFRAME XSTACK, 16, STACK
        LOCFRAME IOVERLAY, 0, STATIC
        LOCFRAME DOVERLAY, 0, STATIC
        ARGFRAME ISTACK, 0, STACK
        ARGFRAME PSTACK, 0, STACK
        ARGFRAME XSTACK, 16, STACK
        ARGFRAME IOVERLAY, 0, STATIC
        ARGFRAME DOVERLAY, 0, STATIC
        FUNCALL ZDO_JoinIndicationCB, osal_get_timeoutEx
        LOCFRAME ISTACK, 0, STACK
        LOCFRAME PSTACK, 0, STACK
        LOCFRAME XSTACK, 16, STACK
        LOCFRAME IOVERLAY, 0, STATIC
        LOCFRAME DOVERLAY, 0, STATIC
        ARGFRAME ISTACK, 0, STACK
        ARGFRAME PSTACK, 0, STACK
        ARGFRAME XSTACK, 16, STACK
        ARGFRAME IOVERLAY, 0, STATIC
        ARGFRAME DOVERLAY, 0, STATIC
        FUNCALL ZDO_JoinIndicationCB, osal_start_timerEx
        LOCFRAME ISTACK, 0, STACK
        LOCFRAME PSTACK, 0, STACK
        LOCFRAME XSTACK, 20, STACK
        LOCFRAME IOVERLAY, 0, STATIC
        LOCFRAME DOVERLAY, 0, STATIC
        ARGFRAME ISTACK, 0, STACK
        ARGFRAME PSTACK, 0, STACK
        ARGFRAME XSTACK, 20, STACK
        ARGFRAME IOVERLAY, 0, STATIC
        ARGFRAME DOVERLAY, 0, STATIC
        REQUIRE ?V0
        REQUIRE ?V1
        REQUIRE ?V2
        REQUIRE ?V3
        REQUIRE ?V4
        REQUIRE ?V5
        REQUIRE ?V6
        REQUIRE ?V7
        MOV     A,#-0x10
        LCALL   ?BANKED_ENTER_XDATA
          CFI DPH0 load(1, XDATA, add(CFA_XSP16, literal(-1)))
          CFI DPL0 load(1, XDATA, add(CFA_XSP16, literal(-2)))
          CFI ?BRET_EXT load(1, XDATA, add(CFA_XSP16, literal(-3)))
          CFI ?RET_HIGH load(1, XDATA, add(CFA_XSP16, literal(-4)))
          CFI ?RET_LOW load(1, XDATA, add(CFA_XSP16, literal(-5)))
          CFI R7 load(1, XDATA, add(CFA_XSP16, literal(-6)))
          CFI V7 load(1, XDATA, add(CFA_XSP16, literal(-7)))
          CFI V6 load(1, XDATA, add(CFA_XSP16, literal(-8)))
          CFI V5 load(1, XDATA, add(CFA_XSP16, literal(-9)))
          CFI V4 load(1, XDATA, add(CFA_XSP16, literal(-10)))
          CFI V3 load(1, XDATA, add(CFA_XSP16, literal(-11)))
          CFI V2 load(1, XDATA, add(CFA_XSP16, literal(-12)))
          CFI V1 load(1, XDATA, add(CFA_XSP16, literal(-13)))
          CFI V0 load(1, XDATA, add(CFA_XSP16, literal(-14)))
          CFI VB load(1, XDATA, add(CFA_XSP16, literal(-15)))
          CFI R6 load(1, XDATA, add(CFA_XSP16, literal(-16)))
          CFI CFA_SP SP+0
          CFI CFA_XSP16 add(XSP16, 16)
        ; Saved register size: 16
        ; Auto size: 0
        MOV     ?V0,R2
        MOV     ?V1,R3
// 2843   (void)ExtendedAddress;
// 2844   //check if the device is leaving before responding to rejoin request
// 2845   if( osal_get_timeoutEx( ZDAppTaskID , ZDO_DEVICE_RESET) )
        ; Setup parameters for call to function osal_get_timeoutEx
        MOV     R2,#0x4
        MOV     R3,#0x0
        MOV     DPTR,#ZDAppTaskID
        MOVX    A,@DPTR
        MOV     R1,A
        LCALL   ??osal_get_timeoutEx?relay; Banked call to: osal_get_timeoutEx
        MOV     A,R2
        ORL     A,R3
        ORL     A,R4
        ORL     A,R5
        JZ      ??ZDO_JoinIndicationCB_0
// 2846   {
// 2847     return ZFailure; // device leaving , hence do not allow rejoin
        MOV     R1,#0x1
        LJMP    ??ZDO_JoinIndicationCB_1 & 0xFFFF
// 2848   }
// 2849 
// 2850 #if ZDO_NV_SAVE_RFDs
// 2851     (void)CapabilityFlags;
// 2852 
// 2853 #else  // if !ZDO_NV_SAVE_RFDs
// 2854     if (CapabilityFlags & CAPINFO_DEVICETYPE_FFD)
// 2855 #endif
// 2856     {
// 2857       ZDApp_NVUpdate();  // Notify to save info into NV.
??ZDO_JoinIndicationCB_0:
        ; Setup parameters for call to function ZDApp_NVUpdate
        LCALL   ??ZDApp_NVUpdate?relay; Banked call to: ZDApp_NVUpdate
        MOV     A,#0x10
        LCALL   ?XSTACK_DISP0_8
        MOVX    A,@DPTR
        MOV     R0,A
// 2858     }
// 2859 
// 2860     if (ZG_SECURE_ENABLED)  // Send notification to TC of new device.
// 2861     {
// 2862       if ( type == NWK_ASSOC_JOIN ||
// 2863           type == NWK_ASSOC_REJOIN_UNSECURE ||
// 2864             type == NWK_ASSOC_REJOIN_SECURE )
        JZ      ??ZDO_JoinIndicationCB_2
        MOV     A,#0x1
        XRL     A,R0
        JZ      ??ZDO_JoinIndicationCB_2
        MOV     A,#0x2
        XRL     A,R0
        JZ      $+5
        LJMP    ??ZDO_JoinIndicationCB_3 & 0xFFFF
// 2865       {
// 2866         uint16 timeToFire;
// 2867         ZDAppNewDevice_t *pNewDevice, *pDeviceList;
// 2868 
// 2869         pNewDevice = (ZDAppNewDevice_t *) osal_mem_alloc( sizeof(ZDAppNewDevice_t) );
??ZDO_JoinIndicationCB_2:
        ; Setup parameters for call to function osal_mem_alloc
        MOV     R2,#0x6
        MOV     R3,#0x0
        LCALL   ??osal_mem_alloc?relay; Banked call to: osal_mem_alloc
        MOV     ?V2,R2
        MOV     ?V3,R3
        MOV     R6,?V2
        MOV     R7,?V3
// 2870 
// 2871         if ( pNewDevice == NULL )
        MOV     A,R6
        ORL     A,R7
        JNZ     ??ZDO_JoinIndicationCB_4
// 2872         {
// 2873           // Memory alloc failed
// 2874           return ZMemError;
        MOV     R1,#0x10
        LJMP    ??ZDO_JoinIndicationCB_1 & 0xFFFF
// 2875         }
// 2876 
// 2877         // Add the new device to the New Device List
// 2878         if ( ZDApp_NewDeviceList == NULL )
??ZDO_JoinIndicationCB_4:
        MOV     DPTR,#ZDApp_NewDeviceList
        LCALL   ??Subroutine46_0 & 0xFFFF
??CrossCallReturnLabel_72:
        MOV     DPTR,#ZDApp_NewDeviceList
        JNZ     ??ZDO_JoinIndicationCB_5
// 2879         {
// 2880           // The list is empty, add the first element
// 2881           ZDApp_NewDeviceList = pNewDevice;
        MOV     A,R6
        MOVX    @DPTR,A
        INC     DPTR
        MOV     A,R7
        SJMP    ??ZDO_JoinIndicationCB_6
// 2882         }
// 2883         else
// 2884         {
// 2885           pDeviceList = ZDApp_NewDeviceList;
??ZDO_JoinIndicationCB_5:
        MOVX    A,@DPTR
        MOV     R2,A
        INC     DPTR
        MOVX    A,@DPTR
        SJMP    ??ZDO_JoinIndicationCB_7
// 2886 
// 2887           // Walk the list to last element
// 2888           while ( pDeviceList->next )
// 2889           {
// 2890             pDeviceList = (ZDAppNewDevice_t *) pDeviceList->next;
??ZDO_JoinIndicationCB_8:
        MOV     A,R0
        MOV     R2,A
        MOV     A,R1
??ZDO_JoinIndicationCB_7:
        MOV     R3,A
// 2891           }
        MOV     DPL,R2
        MOV     DPH,R3
        LCALL   ??Subroutine46_0 & 0xFFFF
??CrossCallReturnLabel_73:
        JNZ     ??ZDO_JoinIndicationCB_8
// 2892 
// 2893           // Add new device at the end
// 2894           pDeviceList->next = pNewDevice;
        MOV     A,R6
        MOV     R0,A
        MOV     A,R7
        MOV     R1,A
        MOV     DPL,R2
        MOV     DPH,R3
        MOV     A,R0
        MOVX    @DPTR,A
        INC     DPTR
        MOV     A,R1
??ZDO_JoinIndicationCB_6:
        MOVX    @DPTR,A
// 2895         }
// 2896 
// 2897         // get the remaining time of the timer
// 2898         timeToFire = osal_get_timeoutEx( ZDAppTaskID, ZDO_NEW_DEVICE );
        ; Setup parameters for call to function osal_get_timeoutEx
        MOV     R2,#0x40
        MOV     R3,#0x0
        MOV     DPTR,#ZDAppTaskID
        MOVX    A,@DPTR
        MOV     R1,A
        LCALL   ??osal_get_timeoutEx?relay; Banked call to: osal_get_timeoutEx
        MOV     ?V4,R2
        MOV     ?V5,R3
// 2899 
// 2900         pNewDevice->next = NULL;
        MOV     DPL,R6
        MOV     DPH,R7
        CLR     A
        MOVX    @DPTR,A
        INC     DPTR
        MOVX    @DPTR,A
// 2901         pNewDevice->shortAddr = ShortAddress;
        MOV     DPL,R6
        MOV     DPH,R7
        INC     DPTR
        INC     DPTR
        MOV     A,?V0
        MOVX    @DPTR,A
        INC     DPTR
        MOV     A,?V1
        MOVX    @DPTR,A
// 2902         pNewDevice->timeDelta = ZDAPP_NEW_DEVICE_TIME - timeToFire;
        MOV     A,#0x58
        CLR     C
        SUBB    A,?V4
        MOV     R0,A
        MOV     A,#0x2
        SUBB    A,?V5
        MOV     R1,A
        MOV     DPL,R6
        MOV     DPH,R7
        LCALL   ?Subroutine13 & 0xFFFF
// 2903 
// 2904         // Start the timer only if there is no pending timer
// 2905         if ( pNewDevice->timeDelta == ZDAPP_NEW_DEVICE_TIME )
??CrossCallReturnLabel_56:
        MOV     A,#0x58
        XRL     A,R0
        JNZ     ??ZDO_JoinIndicationCB_9
        MOV     A,#0x2
        XRL     A,R1
??ZDO_JoinIndicationCB_9:
        JNZ     ??ZDO_JoinIndicationCB_3
// 2906         {
// 2907           osal_start_timerEx( ZDAppTaskID, ZDO_NEW_DEVICE, ZDAPP_NEW_DEVICE_TIME );
        ; Setup parameters for call to function osal_start_timerEx
        MOV     DPTR,#__Constant_258
        LCALL   ?PUSH_XSTACK8_X_FOUR
          CFI CFA_XSP16 add(XSP16, 20)
        MOV     R2,#0x40
        MOV     R3,#0x0
        MOV     DPTR,#ZDAppTaskID
        MOVX    A,@DPTR
        MOV     R1,A
        LCALL   ??osal_start_timerEx?relay; Banked call to: osal_start_timerEx
        MOV     A,#0x4
        LCALL   ?DEALLOC_XSTACK8
          CFI CFA_XSP16 add(XSP16, 16)
// 2908         }
// 2909       }
// 2910     }
// 2911 
// 2912     return ZSuccess;
??ZDO_JoinIndicationCB_3:
        MOV     R1,#0x0
          CFI EndBlock cfiBlock123
??ZDO_JoinIndicationCB_1:
        REQUIRE ?Subroutine2
        ; // Fall through to label ?Subroutine2
// 2913 
// 2914 }

        RSEG BANKED_CODE:CODE:NOROOT(0)
?Subroutine2:
          CFI Block cfiBlock124 Using cfiCommon0
          CFI NoFunction
          CFI CFA_SP SP+0
          CFI CFA_XSP16 add(XSP16, 16)
          CFI VB load(1, XDATA, add(CFA_XSP16, literal(-15)))
          CFI DPL0 load(1, XDATA, add(CFA_XSP16, literal(-2)))
          CFI DPH0 load(1, XDATA, add(CFA_XSP16, literal(-1)))
          CFI R6 load(1, XDATA, add(CFA_XSP16, literal(-16)))
          CFI R7 load(1, XDATA, add(CFA_XSP16, literal(-6)))
          CFI V0 load(1, XDATA, add(CFA_XSP16, literal(-14)))
          CFI V1 load(1, XDATA, add(CFA_XSP16, literal(-13)))
          CFI V2 load(1, XDATA, add(CFA_XSP16, literal(-12)))
          CFI V3 load(1, XDATA, add(CFA_XSP16, literal(-11)))
          CFI V4 load(1, XDATA, add(CFA_XSP16, literal(-10)))
          CFI V5 load(1, XDATA, add(CFA_XSP16, literal(-9)))
          CFI V6 load(1, XDATA, add(CFA_XSP16, literal(-8)))
          CFI V7 load(1, XDATA, add(CFA_XSP16, literal(-7)))
          CFI ?BRET_EXT load(1, XDATA, add(CFA_XSP16, literal(-3)))
          CFI ?RET_HIGH load(1, XDATA, add(CFA_XSP16, literal(-4)))
          CFI ?RET_LOW load(1, XDATA, add(CFA_XSP16, literal(-5)))
        MOV     R7,#0x8
        LJMP    ?BANKED_LEAVE_XDATA
          CFI EndBlock cfiBlock124

        RSEG BANKED_CODE:CODE:NOROOT(0)
?Subroutine18:
          CFI Block cfiCond125 Using cfiCommon0
          CFI Function ZDApp_InitPendingBind
          CFI Conditional ??CrossCallReturnLabel_75
          CFI R6 load(1, XDATA, add(CFA_XSP16, literal(-9)))
          CFI VB load(1, XDATA, add(CFA_XSP16, literal(-8)))
          CFI V0 load(1, XDATA, add(CFA_XSP16, literal(-7)))
          CFI R7 load(1, XDATA, add(CFA_XSP16, literal(-6)))
          CFI ?RET_LOW load(1, XDATA, add(CFA_XSP16, literal(-5)))
          CFI ?RET_HIGH load(1, XDATA, add(CFA_XSP16, literal(-4)))
          CFI ?BRET_EXT load(1, XDATA, add(CFA_XSP16, literal(-3)))
          CFI DPL0 load(1, XDATA, add(CFA_XSP16, literal(-2)))
          CFI DPH0 load(1, XDATA, add(CFA_XSP16, literal(-1)))
          CFI CFA_SP SP+-2
          CFI CFA_XSP16 add(XSP16, 9)
          CFI Block cfiCond126 Using cfiCommon0
          CFI (cfiCond126) Function ZDApp_InitPendingBind
          CFI (cfiCond126) Conditional ??CrossCallReturnLabel_76
          CFI (cfiCond126) R6 load(1, XDATA, add(CFA_XSP16, literal(-9)))
          CFI (cfiCond126) VB load(1, XDATA, add(CFA_XSP16, literal(-8)))
          CFI (cfiCond126) V0 load(1, XDATA, add(CFA_XSP16, literal(-7)))
          CFI (cfiCond126) R7 load(1, XDATA, add(CFA_XSP16, literal(-6)))
          CFI (cfiCond126) ?RET_LOW load(1, XDATA, add(CFA_XSP16, literal(-5)))
          CFI (cfiCond126) ?RET_HIGH load(1, XDATA, add(CFA_XSP16, literal(-4)))
          CFI (cfiCond126) ?BRET_EXT load(1, XDATA, add(CFA_XSP16, literal(-3)))
          CFI (cfiCond126) DPL0 load(1, XDATA, add(CFA_XSP16, literal(-2)))
          CFI (cfiCond126) DPH0 load(1, XDATA, add(CFA_XSP16, literal(-1)))
          CFI (cfiCond126) CFA_SP SP+-2
          CFI (cfiCond126) CFA_XSP16 add(XSP16, 9)
          CFI Block cfiCond127 Using cfiCommon0
          CFI (cfiCond127) Function ZDApp_GetEmptyPendingBindReq
          CFI (cfiCond127) Conditional ??CrossCallReturnLabel_77
          CFI (cfiCond127) DPL0 Frame(CFA_SP, 4)
          CFI (cfiCond127) DPH0 Frame(CFA_SP, 5)
          CFI (cfiCond127) CFA_SP SP+-7
          CFI Block cfiCond128 Using cfiCommon0
          CFI (cfiCond128) Function ZDApp_ProcessPendingBindReq
          CFI (cfiCond128) Conditional ??CrossCallReturnLabel_78
          CFI (cfiCond128) R6 load(1, XDATA, add(CFA_XSP16, literal(-15)))
          CFI (cfiCond128) VB load(1, XDATA, add(CFA_XSP16, literal(-14)))
          CFI (cfiCond128) V0 load(1, XDATA, add(CFA_XSP16, literal(-13)))
          CFI (cfiCond128) V1 load(1, XDATA, add(CFA_XSP16, literal(-12)))
          CFI (cfiCond128) V2 load(1, XDATA, add(CFA_XSP16, literal(-11)))
          CFI (cfiCond128) V3 load(1, XDATA, add(CFA_XSP16, literal(-10)))
          CFI (cfiCond128) V4 load(1, XDATA, add(CFA_XSP16, literal(-9)))
          CFI (cfiCond128) V5 load(1, XDATA, add(CFA_XSP16, literal(-8)))
          CFI (cfiCond128) V6 load(1, XDATA, add(CFA_XSP16, literal(-7)))
          CFI (cfiCond128) R7 load(1, XDATA, add(CFA_XSP16, literal(-6)))
          CFI (cfiCond128) ?RET_LOW load(1, XDATA, add(CFA_XSP16, literal(-5)))
          CFI (cfiCond128) ?RET_HIGH load(1, XDATA, add(CFA_XSP16, literal(-4)))
          CFI (cfiCond128) ?BRET_EXT load(1, XDATA, add(CFA_XSP16, literal(-3)))
          CFI (cfiCond128) DPL0 load(1, XDATA, add(CFA_XSP16, literal(-2)))
          CFI (cfiCond128) DPH0 load(1, XDATA, add(CFA_XSP16, literal(-1)))
          CFI (cfiCond128) CFA_SP SP+-2
          CFI (cfiCond128) CFA_XSP16 add(XSP16, 16)
          CFI Block cfiCond129 Using cfiCommon0
          CFI (cfiCond129) Function ZDApp_AgeOutPendingBindEntry
          CFI (cfiCond129) Conditional ??CrossCallReturnLabel_79
          CFI (cfiCond129) R6 load(1, XDATA, add(CFA_XSP16, literal(-12)))
          CFI (cfiCond129) VB load(1, XDATA, add(CFA_XSP16, literal(-11)))
          CFI (cfiCond129) V0 load(1, XDATA, add(CFA_XSP16, literal(-10)))
          CFI (cfiCond129) V1 load(1, XDATA, add(CFA_XSP16, literal(-9)))
          CFI (cfiCond129) V2 load(1, XDATA, add(CFA_XSP16, literal(-8)))
          CFI (cfiCond129) V3 load(1, XDATA, add(CFA_XSP16, literal(-7)))
          CFI (cfiCond129) R7 load(1, XDATA, add(CFA_XSP16, literal(-6)))
          CFI (cfiCond129) ?RET_LOW load(1, XDATA, add(CFA_XSP16, literal(-5)))
          CFI (cfiCond129) ?RET_HIGH load(1, XDATA, add(CFA_XSP16, literal(-4)))
          CFI (cfiCond129) ?BRET_EXT load(1, XDATA, add(CFA_XSP16, literal(-3)))
          CFI (cfiCond129) DPL0 load(1, XDATA, add(CFA_XSP16, literal(-2)))
          CFI (cfiCond129) DPH0 load(1, XDATA, add(CFA_XSP16, literal(-1)))
          CFI (cfiCond129) CFA_SP SP+-2
          CFI (cfiCond129) CFA_XSP16 add(XSP16, 26)
          CFI Block cfiPicker130 Using cfiCommon1
          CFI (cfiPicker130) NoFunction
          CFI (cfiPicker130) Picker
        MOV     DPTR,#ZDAppPendingBindReq
          CFI EndBlock cfiCond125
          CFI EndBlock cfiCond126
          CFI EndBlock cfiCond127
          CFI EndBlock cfiCond128
          CFI EndBlock cfiCond129
          CFI EndBlock cfiPicker130
        REQUIRE ??Subroutine46_0
        ; // Fall through to label ??Subroutine46_0

        RSEG BANKED_CODE:CODE:NOROOT(0)
??Subroutine46_0:
          CFI Block cfiCond131 Using cfiCommon0
          CFI Function ZDApp_SecInit
          CFI Conditional ??CrossCallReturnLabel_67
          CFI R6 load(1, XDATA, add(CFA_XSP16, literal(-9)))
          CFI VB load(1, XDATA, add(CFA_XSP16, literal(-8)))
          CFI V0 load(1, XDATA, add(CFA_XSP16, literal(-7)))
          CFI R7 load(1, XDATA, add(CFA_XSP16, literal(-6)))
          CFI ?RET_LOW load(1, XDATA, add(CFA_XSP16, literal(-5)))
          CFI ?RET_HIGH load(1, XDATA, add(CFA_XSP16, literal(-4)))
          CFI ?BRET_EXT load(1, XDATA, add(CFA_XSP16, literal(-3)))
          CFI DPL0 load(1, XDATA, add(CFA_XSP16, literal(-2)))
          CFI DPH0 load(1, XDATA, add(CFA_XSP16, literal(-1)))
          CFI CFA_SP SP+-2
          CFI CFA_XSP16 add(XSP16, 25)
          CFI Block cfiCond132 Using cfiCommon0
          CFI (cfiCond132) Function ZDApp_RestoreNetworkState
          CFI (cfiCond132) Conditional ??CrossCallReturnLabel_68
          CFI (cfiCond132) R6 load(1, XDATA, add(CFA_XSP16, literal(-9)))
          CFI (cfiCond132) VB load(1, XDATA, add(CFA_XSP16, literal(-8)))
          CFI (cfiCond132) V0 load(1, XDATA, add(CFA_XSP16, literal(-7)))
          CFI (cfiCond132) R7 load(1, XDATA, add(CFA_XSP16, literal(-6)))
          CFI (cfiCond132) ?RET_LOW load(1, XDATA, add(CFA_XSP16, literal(-5)))
          CFI (cfiCond132) ?RET_HIGH load(1, XDATA, add(CFA_XSP16, literal(-4)))
          CFI (cfiCond132) ?BRET_EXT load(1, XDATA, add(CFA_XSP16, literal(-3)))
          CFI (cfiCond132) DPL0 load(1, XDATA, add(CFA_XSP16, literal(-2)))
          CFI (cfiCond132) DPH0 load(1, XDATA, add(CFA_XSP16, literal(-1)))
          CFI (cfiCond132) CFA_SP SP+-2
          CFI (cfiCond132) CFA_XSP16 add(XSP16, 9)
          CFI Block cfiCond133 Using cfiCommon0
          CFI (cfiCond133) Function ZDApp_LeaveUpdate
          CFI (cfiCond133) Conditional ??CrossCallReturnLabel_69
          CFI (cfiCond133) R6 load(1, XDATA, add(CFA_XSP16, literal(-15)))
          CFI (cfiCond133) VB load(1, XDATA, add(CFA_XSP16, literal(-14)))
          CFI (cfiCond133) V0 load(1, XDATA, add(CFA_XSP16, literal(-13)))
          CFI (cfiCond133) V1 load(1, XDATA, add(CFA_XSP16, literal(-12)))
          CFI (cfiCond133) V2 load(1, XDATA, add(CFA_XSP16, literal(-11)))
          CFI (cfiCond133) V3 load(1, XDATA, add(CFA_XSP16, literal(-10)))
          CFI (cfiCond133) V4 load(1, XDATA, add(CFA_XSP16, literal(-9)))
          CFI (cfiCond133) V5 load(1, XDATA, add(CFA_XSP16, literal(-8)))
          CFI (cfiCond133) V6 load(1, XDATA, add(CFA_XSP16, literal(-7)))
          CFI (cfiCond133) R7 load(1, XDATA, add(CFA_XSP16, literal(-6)))
          CFI (cfiCond133) ?RET_LOW load(1, XDATA, add(CFA_XSP16, literal(-5)))
          CFI (cfiCond133) ?RET_HIGH load(1, XDATA, add(CFA_XSP16, literal(-4)))
          CFI (cfiCond133) ?BRET_EXT load(1, XDATA, add(CFA_XSP16, literal(-3)))
          CFI (cfiCond133) DPL0 load(1, XDATA, add(CFA_XSP16, literal(-2)))
          CFI (cfiCond133) DPH0 load(1, XDATA, add(CFA_XSP16, literal(-1)))
          CFI (cfiCond133) CFA_SP SP+-2
          CFI (cfiCond133) CFA_XSP16 add(XSP16, 24)
          CFI Block cfiCond134 Using cfiCommon0
          CFI (cfiCond134) Function ZDO_beaconNotifyIndCB
          CFI (cfiCond134) Conditional ??CrossCallReturnLabel_70
          CFI (cfiCond134) R6 load(1, XDATA, add(CFA_XSP16, literal(-18)))
          CFI (cfiCond134) VB load(1, XDATA, add(CFA_XSP16, literal(-17)))
          CFI (cfiCond134) V0 load(1, XDATA, add(CFA_XSP16, literal(-16)))
          CFI (cfiCond134) V1 load(1, XDATA, add(CFA_XSP16, literal(-15)))
          CFI (cfiCond134) V2 load(1, XDATA, add(CFA_XSP16, literal(-14)))
          CFI (cfiCond134) V3 load(1, XDATA, add(CFA_XSP16, literal(-13)))
          CFI (cfiCond134) V4 load(1, XDATA, add(CFA_XSP16, literal(-12)))
          CFI (cfiCond134) V5 load(1, XDATA, add(CFA_XSP16, literal(-11)))
          CFI (cfiCond134) V6 load(1, XDATA, add(CFA_XSP16, literal(-10)))
          CFI (cfiCond134) V7 load(1, XDATA, add(CFA_XSP16, literal(-9)))
          CFI (cfiCond134) V8 load(1, XDATA, add(CFA_XSP16, literal(-8)))
          CFI (cfiCond134) V9 load(1, XDATA, add(CFA_XSP16, literal(-7)))
          CFI (cfiCond134) R7 load(1, XDATA, add(CFA_XSP16, literal(-6)))
          CFI (cfiCond134) ?RET_LOW load(1, XDATA, add(CFA_XSP16, literal(-5)))
          CFI (cfiCond134) ?RET_HIGH load(1, XDATA, add(CFA_XSP16, literal(-4)))
          CFI (cfiCond134) ?BRET_EXT load(1, XDATA, add(CFA_XSP16, literal(-3)))
          CFI (cfiCond134) DPL0 load(1, XDATA, add(CFA_XSP16, literal(-2)))
          CFI (cfiCond134) DPH0 load(1, XDATA, add(CFA_XSP16, literal(-1)))
          CFI (cfiCond134) CFA_SP SP+-2
          CFI (cfiCond134) CFA_XSP16 add(XSP16, 18)
          CFI Block cfiCond135 Using cfiCommon0
          CFI (cfiCond135) Function ZDO_JoinConfirmCB
          CFI (cfiCond135) Conditional ??CrossCallReturnLabel_71
          CFI (cfiCond135) R6 load(1, XDATA, add(CFA_XSP16, literal(-12)))
          CFI (cfiCond135) VB load(1, XDATA, add(CFA_XSP16, literal(-11)))
          CFI (cfiCond135) V0 load(1, XDATA, add(CFA_XSP16, literal(-10)))
          CFI (cfiCond135) V1 load(1, XDATA, add(CFA_XSP16, literal(-9)))
          CFI (cfiCond135) V2 load(1, XDATA, add(CFA_XSP16, literal(-8)))
          CFI (cfiCond135) V3 load(1, XDATA, add(CFA_XSP16, literal(-7)))
          CFI (cfiCond135) R7 load(1, XDATA, add(CFA_XSP16, literal(-6)))
          CFI (cfiCond135) ?RET_LOW load(1, XDATA, add(CFA_XSP16, literal(-5)))
          CFI (cfiCond135) ?RET_HIGH load(1, XDATA, add(CFA_XSP16, literal(-4)))
          CFI (cfiCond135) ?BRET_EXT load(1, XDATA, add(CFA_XSP16, literal(-3)))
          CFI (cfiCond135) DPL0 load(1, XDATA, add(CFA_XSP16, literal(-2)))
          CFI (cfiCond135) DPH0 load(1, XDATA, add(CFA_XSP16, literal(-1)))
          CFI (cfiCond135) CFA_SP SP+-2
          CFI (cfiCond135) CFA_XSP16 add(XSP16, 17)
          CFI Block cfiCond136 Using cfiCommon0
          CFI (cfiCond136) Function ZDO_JoinIndicationCB
          CFI (cfiCond136) Conditional ??CrossCallReturnLabel_72
          CFI (cfiCond136) R6 load(1, XDATA, add(CFA_XSP16, literal(-16)))
          CFI (cfiCond136) VB load(1, XDATA, add(CFA_XSP16, literal(-15)))
          CFI (cfiCond136) V0 load(1, XDATA, add(CFA_XSP16, literal(-14)))
          CFI (cfiCond136) V1 load(1, XDATA, add(CFA_XSP16, literal(-13)))
          CFI (cfiCond136) V2 load(1, XDATA, add(CFA_XSP16, literal(-12)))
          CFI (cfiCond136) V3 load(1, XDATA, add(CFA_XSP16, literal(-11)))
          CFI (cfiCond136) V4 load(1, XDATA, add(CFA_XSP16, literal(-10)))
          CFI (cfiCond136) V5 load(1, XDATA, add(CFA_XSP16, literal(-9)))
          CFI (cfiCond136) V6 load(1, XDATA, add(CFA_XSP16, literal(-8)))
          CFI (cfiCond136) V7 load(1, XDATA, add(CFA_XSP16, literal(-7)))
          CFI (cfiCond136) R7 load(1, XDATA, add(CFA_XSP16, literal(-6)))
          CFI (cfiCond136) ?RET_LOW load(1, XDATA, add(CFA_XSP16, literal(-5)))
          CFI (cfiCond136) ?RET_HIGH load(1, XDATA, add(CFA_XSP16, literal(-4)))
          CFI (cfiCond136) ?BRET_EXT load(1, XDATA, add(CFA_XSP16, literal(-3)))
          CFI (cfiCond136) DPL0 load(1, XDATA, add(CFA_XSP16, literal(-2)))
          CFI (cfiCond136) DPH0 load(1, XDATA, add(CFA_XSP16, literal(-1)))
          CFI (cfiCond136) CFA_SP SP+-2
          CFI (cfiCond136) CFA_XSP16 add(XSP16, 16)
          CFI Block cfiCond137 Using cfiCommon0
          CFI (cfiCond137) Function ZDO_JoinIndicationCB
          CFI (cfiCond137) Conditional ??CrossCallReturnLabel_73
          CFI (cfiCond137) R6 load(1, XDATA, add(CFA_XSP16, literal(-16)))
          CFI (cfiCond137) VB load(1, XDATA, add(CFA_XSP16, literal(-15)))
          CFI (cfiCond137) V0 load(1, XDATA, add(CFA_XSP16, literal(-14)))
          CFI (cfiCond137) V1 load(1, XDATA, add(CFA_XSP16, literal(-13)))
          CFI (cfiCond137) V2 load(1, XDATA, add(CFA_XSP16, literal(-12)))
          CFI (cfiCond137) V3 load(1, XDATA, add(CFA_XSP16, literal(-11)))
          CFI (cfiCond137) V4 load(1, XDATA, add(CFA_XSP16, literal(-10)))
          CFI (cfiCond137) V5 load(1, XDATA, add(CFA_XSP16, literal(-9)))
          CFI (cfiCond137) V6 load(1, XDATA, add(CFA_XSP16, literal(-8)))
          CFI (cfiCond137) V7 load(1, XDATA, add(CFA_XSP16, literal(-7)))
          CFI (cfiCond137) R7 load(1, XDATA, add(CFA_XSP16, literal(-6)))
          CFI (cfiCond137) ?RET_LOW load(1, XDATA, add(CFA_XSP16, literal(-5)))
          CFI (cfiCond137) ?RET_HIGH load(1, XDATA, add(CFA_XSP16, literal(-4)))
          CFI (cfiCond137) ?BRET_EXT load(1, XDATA, add(CFA_XSP16, literal(-3)))
          CFI (cfiCond137) DPL0 load(1, XDATA, add(CFA_XSP16, literal(-2)))
          CFI (cfiCond137) DPH0 load(1, XDATA, add(CFA_XSP16, literal(-1)))
          CFI (cfiCond137) CFA_SP SP+-2
          CFI (cfiCond137) CFA_XSP16 add(XSP16, 16)
          CFI Block cfiCond138 Using cfiCommon0
          CFI (cfiCond138) Function ZDO_SrcRtgIndCB
          CFI (cfiCond138) Conditional ??CrossCallReturnLabel_74
          CFI (cfiCond138) R6 load(1, XDATA, add(CFA_XSP16, literal(-9)))
          CFI (cfiCond138) VB load(1, XDATA, add(CFA_XSP16, literal(-8)))
          CFI (cfiCond138) V0 load(1, XDATA, add(CFA_XSP16, literal(-7)))
          CFI (cfiCond138) R7 load(1, XDATA, add(CFA_XSP16, literal(-6)))
          CFI (cfiCond138) ?RET_LOW load(1, XDATA, add(CFA_XSP16, literal(-5)))
          CFI (cfiCond138) ?RET_HIGH load(1, XDATA, add(CFA_XSP16, literal(-4)))
          CFI (cfiCond138) ?BRET_EXT load(1, XDATA, add(CFA_XSP16, literal(-3)))
          CFI (cfiCond138) DPL0 load(1, XDATA, add(CFA_XSP16, literal(-2)))
          CFI (cfiCond138) DPH0 load(1, XDATA, add(CFA_XSP16, literal(-1)))
          CFI (cfiCond138) CFA_SP SP+-2
          CFI (cfiCond138) CFA_XSP16 add(XSP16, 14)
          CFI Block cfiCond139 Using cfiCommon0
          CFI (cfiCond139) Function ZDApp_InitPendingBind
          CFI (cfiCond139) Conditional ??CrossCallReturnLabel_75
          CFI (cfiCond139) R6 load(1, XDATA, add(CFA_XSP16, literal(-9)))
          CFI (cfiCond139) VB load(1, XDATA, add(CFA_XSP16, literal(-8)))
          CFI (cfiCond139) V0 load(1, XDATA, add(CFA_XSP16, literal(-7)))
          CFI (cfiCond139) R7 load(1, XDATA, add(CFA_XSP16, literal(-6)))
          CFI (cfiCond139) ?RET_LOW load(1, XDATA, add(CFA_XSP16, literal(-5)))
          CFI (cfiCond139) ?RET_HIGH load(1, XDATA, add(CFA_XSP16, literal(-4)))
          CFI (cfiCond139) ?BRET_EXT load(1, XDATA, add(CFA_XSP16, literal(-3)))
          CFI (cfiCond139) DPL0 load(1, XDATA, add(CFA_XSP16, literal(-2)))
          CFI (cfiCond139) DPH0 load(1, XDATA, add(CFA_XSP16, literal(-1)))
          CFI (cfiCond139) CFA_SP SP+-2
          CFI (cfiCond139) CFA_XSP16 add(XSP16, 9)
          CFI Block cfiCond140 Using cfiCommon0
          CFI (cfiCond140) Function ZDApp_InitPendingBind
          CFI (cfiCond140) Conditional ??CrossCallReturnLabel_76
          CFI (cfiCond140) R6 load(1, XDATA, add(CFA_XSP16, literal(-9)))
          CFI (cfiCond140) VB load(1, XDATA, add(CFA_XSP16, literal(-8)))
          CFI (cfiCond140) V0 load(1, XDATA, add(CFA_XSP16, literal(-7)))
          CFI (cfiCond140) R7 load(1, XDATA, add(CFA_XSP16, literal(-6)))
          CFI (cfiCond140) ?RET_LOW load(1, XDATA, add(CFA_XSP16, literal(-5)))
          CFI (cfiCond140) ?RET_HIGH load(1, XDATA, add(CFA_XSP16, literal(-4)))
          CFI (cfiCond140) ?BRET_EXT load(1, XDATA, add(CFA_XSP16, literal(-3)))
          CFI (cfiCond140) DPL0 load(1, XDATA, add(CFA_XSP16, literal(-2)))
          CFI (cfiCond140) DPH0 load(1, XDATA, add(CFA_XSP16, literal(-1)))
          CFI (cfiCond140) CFA_SP SP+-2
          CFI (cfiCond140) CFA_XSP16 add(XSP16, 9)
          CFI Block cfiCond141 Using cfiCommon0
          CFI (cfiCond141) Function ZDApp_GetEmptyPendingBindReq
          CFI (cfiCond141) Conditional ??CrossCallReturnLabel_77
          CFI (cfiCond141) DPL0 Frame(CFA_SP, 4)
          CFI (cfiCond141) DPH0 Frame(CFA_SP, 5)
          CFI (cfiCond141) CFA_SP SP+-7
          CFI Block cfiCond142 Using cfiCommon0
          CFI (cfiCond142) Function ZDApp_ProcessPendingBindReq
          CFI (cfiCond142) Conditional ??CrossCallReturnLabel_78
          CFI (cfiCond142) R6 load(1, XDATA, add(CFA_XSP16, literal(-15)))
          CFI (cfiCond142) VB load(1, XDATA, add(CFA_XSP16, literal(-14)))
          CFI (cfiCond142) V0 load(1, XDATA, add(CFA_XSP16, literal(-13)))
          CFI (cfiCond142) V1 load(1, XDATA, add(CFA_XSP16, literal(-12)))
          CFI (cfiCond142) V2 load(1, XDATA, add(CFA_XSP16, literal(-11)))
          CFI (cfiCond142) V3 load(1, XDATA, add(CFA_XSP16, literal(-10)))
          CFI (cfiCond142) V4 load(1, XDATA, add(CFA_XSP16, literal(-9)))
          CFI (cfiCond142) V5 load(1, XDATA, add(CFA_XSP16, literal(-8)))
          CFI (cfiCond142) V6 load(1, XDATA, add(CFA_XSP16, literal(-7)))
          CFI (cfiCond142) R7 load(1, XDATA, add(CFA_XSP16, literal(-6)))
          CFI (cfiCond142) ?RET_LOW load(1, XDATA, add(CFA_XSP16, literal(-5)))
          CFI (cfiCond142) ?RET_HIGH load(1, XDATA, add(CFA_XSP16, literal(-4)))
          CFI (cfiCond142) ?BRET_EXT load(1, XDATA, add(CFA_XSP16, literal(-3)))
          CFI (cfiCond142) DPL0 load(1, XDATA, add(CFA_XSP16, literal(-2)))
          CFI (cfiCond142) DPH0 load(1, XDATA, add(CFA_XSP16, literal(-1)))
          CFI (cfiCond142) CFA_SP SP+-2
          CFI (cfiCond142) CFA_XSP16 add(XSP16, 16)
          CFI Block cfiCond143 Using cfiCommon0
          CFI (cfiCond143) Function ZDApp_AgeOutPendingBindEntry
          CFI (cfiCond143) Conditional ??CrossCallReturnLabel_79
          CFI (cfiCond143) R6 load(1, XDATA, add(CFA_XSP16, literal(-12)))
          CFI (cfiCond143) VB load(1, XDATA, add(CFA_XSP16, literal(-11)))
          CFI (cfiCond143) V0 load(1, XDATA, add(CFA_XSP16, literal(-10)))
          CFI (cfiCond143) V1 load(1, XDATA, add(CFA_XSP16, literal(-9)))
          CFI (cfiCond143) V2 load(1, XDATA, add(CFA_XSP16, literal(-8)))
          CFI (cfiCond143) V3 load(1, XDATA, add(CFA_XSP16, literal(-7)))
          CFI (cfiCond143) R7 load(1, XDATA, add(CFA_XSP16, literal(-6)))
          CFI (cfiCond143) ?RET_LOW load(1, XDATA, add(CFA_XSP16, literal(-5)))
          CFI (cfiCond143) ?RET_HIGH load(1, XDATA, add(CFA_XSP16, literal(-4)))
          CFI (cfiCond143) ?BRET_EXT load(1, XDATA, add(CFA_XSP16, literal(-3)))
          CFI (cfiCond143) DPL0 load(1, XDATA, add(CFA_XSP16, literal(-2)))
          CFI (cfiCond143) DPH0 load(1, XDATA, add(CFA_XSP16, literal(-1)))
          CFI (cfiCond143) CFA_SP SP+-2
          CFI (cfiCond143) CFA_XSP16 add(XSP16, 26)
          CFI Block cfiPicker144 Using cfiCommon1
          CFI (cfiPicker144) NoFunction
          CFI (cfiPicker144) Picker
        LCALL   ?Subroutine35 & 0xFFFF
??CrossCallReturnLabel_97:
        MOV     A,R0
        ORL     A,R1
        RET
          CFI EndBlock cfiCond131
          CFI EndBlock cfiCond132
          CFI EndBlock cfiCond133
          CFI EndBlock cfiCond134
          CFI EndBlock cfiCond135
          CFI EndBlock cfiCond136
          CFI EndBlock cfiCond137
          CFI EndBlock cfiCond138
          CFI EndBlock cfiCond139
          CFI EndBlock cfiCond140
          CFI EndBlock cfiCond141
          CFI EndBlock cfiCond142
          CFI EndBlock cfiCond143
          CFI EndBlock cfiPicker144
// 2915 
// 2916 /*********************************************************************
// 2917  * @fn          ZDO_ConcentratorIndicationCB
// 2918  *
// 2919  * @brief       This function allows the next higher layer of a
// 2920  *              device to be notified of existence of the concentrator.
// 2921  *
// 2922  * @param       nwkAddr - 16-bit NWK address of the concentrator
// 2923  * @param       extAddr - pointer to extended Address
// 2924  *                        NULL if not available
// 2925  * @param       pktCost - PktCost from RREQ
// 2926  *
// 2927  * @return      void
// 2928  */

        RSEG BANKED_CODE:CODE:NOROOT(0)
// 2929 void ZDO_ConcentratorIndicationCB( uint16 nwkAddr, uint8 *extAddr, uint8 pktCost )
ZDO_ConcentratorIndicationCB:
          CFI Block cfiBlock145 Using cfiCommon0
          CFI Function ZDO_ConcentratorIndicationCB
        CODE
// 2930 {
        MOV     A,#-0x9
        LCALL   ?BANKED_ENTER_XDATA
          CFI DPH0 load(1, XDATA, add(CFA_XSP16, literal(-1)))
          CFI DPL0 load(1, XDATA, add(CFA_XSP16, literal(-2)))
          CFI ?BRET_EXT load(1, XDATA, add(CFA_XSP16, literal(-3)))
          CFI ?RET_HIGH load(1, XDATA, add(CFA_XSP16, literal(-4)))
          CFI ?RET_LOW load(1, XDATA, add(CFA_XSP16, literal(-5)))
          CFI R7 load(1, XDATA, add(CFA_XSP16, literal(-6)))
          CFI V0 load(1, XDATA, add(CFA_XSP16, literal(-7)))
          CFI VB load(1, XDATA, add(CFA_XSP16, literal(-8)))
          CFI R6 load(1, XDATA, add(CFA_XSP16, literal(-9)))
          CFI CFA_SP SP+0
          CFI CFA_XSP16 add(XSP16, 9)
        ; Saved register size: 9
        ; Auto size: 5
        MOV     A,#-0x5
        LCALL   ?ALLOC_XSTACK8
          CFI CFA_XSP16 add(XSP16, 14)
// 2931   zdoConcentratorInd_t conInd;
// 2932 
// 2933   conInd.nwkAddr = nwkAddr;
        LCALL   ?Subroutine14 & 0xFFFF
// 2934   conInd.extAddr = extAddr;
??CrossCallReturnLabel_105:
        MOV     A,#0x2
        LCALL   ?XSTACK_DISP0_8
        MOV     A,R4
        MOVX    @DPTR,A
        INC     DPTR
        MOV     A,R5
        MOVX    @DPTR,A
// 2935   conInd.pktCost = pktCost;
        MOV     A,#0x4
        LCALL   ?XSTACK_DISP0_8
        MOV     A,R1
        MOVX    @DPTR,A
// 2936 
// 2937   if( zdoCBFunc[ZDO_CONCENTRATOR_IND_CBID] != NULL )
        MOV     DPTR,#zdoCBFunc + 2
        LCALL   ?Subroutine17 & 0xFFFF
??CrossCallReturnLabel_9:
        JZ      ??ZDO_ConcentratorIndicationCB_0
// 2938   {
// 2939     zdoCBFunc[ZDO_CONCENTRATOR_IND_CBID]( (void*)&conInd );
        ; Setup parameters for indirect call
        MOV     R2,?XSP + 0
        MOV     R3,?XSP + 1
        LCALL   ?CALL_IND
          CFI EndBlock cfiBlock145
// 2940   }
// 2941 }
??ZDO_ConcentratorIndicationCB_0:
        REQUIRE ?Subroutine7
        ; // Fall through to label ?Subroutine7

        RSEG BANKED_CODE:CODE:NOROOT(0)
?Subroutine7:
          CFI Block cfiBlock146 Using cfiCommon0
          CFI NoFunction
          CFI CFA_SP SP+0
          CFI CFA_XSP16 add(XSP16, 14)
          CFI VB load(1, XDATA, add(CFA_XSP16, literal(-8)))
          CFI DPL0 load(1, XDATA, add(CFA_XSP16, literal(-2)))
          CFI DPH0 load(1, XDATA, add(CFA_XSP16, literal(-1)))
          CFI R6 load(1, XDATA, add(CFA_XSP16, literal(-9)))
          CFI R7 load(1, XDATA, add(CFA_XSP16, literal(-6)))
          CFI V0 load(1, XDATA, add(CFA_XSP16, literal(-7)))
          CFI ?BRET_EXT load(1, XDATA, add(CFA_XSP16, literal(-3)))
          CFI ?RET_HIGH load(1, XDATA, add(CFA_XSP16, literal(-4)))
          CFI ?RET_LOW load(1, XDATA, add(CFA_XSP16, literal(-5)))
        MOV     A,#0x5
          CFI EndBlock cfiBlock146
        REQUIRE ??Subroutine47_0
        ; // Fall through to label ??Subroutine47_0

        RSEG BANKED_CODE:CODE:NOROOT(0)
??Subroutine47_0:
          CFI Block cfiBlock147 Using cfiCommon0
          CFI NoFunction
          CFI CFA_SP SP+0
          CFI CFA_XSP16 add(XSP16, 25)
          CFI VB load(1, XDATA, add(CFA_XSP16, literal(-8)))
          CFI DPL0 load(1, XDATA, add(CFA_XSP16, literal(-2)))
          CFI DPH0 load(1, XDATA, add(CFA_XSP16, literal(-1)))
          CFI R6 load(1, XDATA, add(CFA_XSP16, literal(-9)))
          CFI R7 load(1, XDATA, add(CFA_XSP16, literal(-6)))
          CFI V0 load(1, XDATA, add(CFA_XSP16, literal(-7)))
          CFI ?BRET_EXT load(1, XDATA, add(CFA_XSP16, literal(-3)))
          CFI ?RET_HIGH load(1, XDATA, add(CFA_XSP16, literal(-4)))
          CFI ?RET_LOW load(1, XDATA, add(CFA_XSP16, literal(-5)))
          CFI Invalid
        LCALL   ?DEALLOC_XSTACK8
          CFI CFA_XSP16 add(XSP16, 9)
          CFI Valid
        LJMP    ??Subroutine44_0 & 0xFFFF
          CFI EndBlock cfiBlock147

        RSEG BANKED_CODE:CODE:NOROOT(0)
?Subroutine17:
          CFI Block cfiCond148 Using cfiCommon0
          CFI Function ZDO_NetworkDiscoveryConfirmCB
          CFI Conditional ??CrossCallReturnLabel_6
          CFI DPL0 Frame(CFA_SP, 4)
          CFI DPH0 Frame(CFA_SP, 5)
          CFI CFA_SP SP+-7
          CFI CFA_XSP16 add(XSP16, 3)
          CFI Block cfiCond149 Using cfiCommon0
          CFI (cfiCond149) Function ZDO_beaconNotifyIndCB
          CFI (cfiCond149) Conditional ??CrossCallReturnLabel_7
          CFI (cfiCond149) R6 load(1, XDATA, add(CFA_XSP16, literal(-18)))
          CFI (cfiCond149) VB load(1, XDATA, add(CFA_XSP16, literal(-17)))
          CFI (cfiCond149) V0 load(1, XDATA, add(CFA_XSP16, literal(-16)))
          CFI (cfiCond149) V1 load(1, XDATA, add(CFA_XSP16, literal(-15)))
          CFI (cfiCond149) V2 load(1, XDATA, add(CFA_XSP16, literal(-14)))
          CFI (cfiCond149) V3 load(1, XDATA, add(CFA_XSP16, literal(-13)))
          CFI (cfiCond149) V4 load(1, XDATA, add(CFA_XSP16, literal(-12)))
          CFI (cfiCond149) V5 load(1, XDATA, add(CFA_XSP16, literal(-11)))
          CFI (cfiCond149) V6 load(1, XDATA, add(CFA_XSP16, literal(-10)))
          CFI (cfiCond149) V7 load(1, XDATA, add(CFA_XSP16, literal(-9)))
          CFI (cfiCond149) V8 load(1, XDATA, add(CFA_XSP16, literal(-8)))
          CFI (cfiCond149) V9 load(1, XDATA, add(CFA_XSP16, literal(-7)))
          CFI (cfiCond149) R7 load(1, XDATA, add(CFA_XSP16, literal(-6)))
          CFI (cfiCond149) ?RET_LOW load(1, XDATA, add(CFA_XSP16, literal(-5)))
          CFI (cfiCond149) ?RET_HIGH load(1, XDATA, add(CFA_XSP16, literal(-4)))
          CFI (cfiCond149) ?BRET_EXT load(1, XDATA, add(CFA_XSP16, literal(-3)))
          CFI (cfiCond149) DPL0 load(1, XDATA, add(CFA_XSP16, literal(-2)))
          CFI (cfiCond149) DPH0 load(1, XDATA, add(CFA_XSP16, literal(-1)))
          CFI (cfiCond149) CFA_SP SP+-2
          CFI (cfiCond149) CFA_XSP16 add(XSP16, 18)
          CFI Block cfiCond150 Using cfiCommon0
          CFI (cfiCond150) Function ZDO_PermitJoinCB
          CFI (cfiCond150) Conditional ??CrossCallReturnLabel_8
          CFI (cfiCond150) DPL0 Frame(CFA_SP, 4)
          CFI (cfiCond150) DPH0 Frame(CFA_SP, 5)
          CFI (cfiCond150) CFA_SP SP+-7
          CFI (cfiCond150) CFA_XSP16 add(XSP16, 1)
          CFI Block cfiCond151 Using cfiCommon0
          CFI (cfiCond151) Function ZDO_ConcentratorIndicationCB
          CFI (cfiCond151) Conditional ??CrossCallReturnLabel_9
          CFI (cfiCond151) R6 load(1, XDATA, add(CFA_XSP16, literal(-9)))
          CFI (cfiCond151) VB load(1, XDATA, add(CFA_XSP16, literal(-8)))
          CFI (cfiCond151) V0 load(1, XDATA, add(CFA_XSP16, literal(-7)))
          CFI (cfiCond151) R7 load(1, XDATA, add(CFA_XSP16, literal(-6)))
          CFI (cfiCond151) ?RET_LOW load(1, XDATA, add(CFA_XSP16, literal(-5)))
          CFI (cfiCond151) ?RET_HIGH load(1, XDATA, add(CFA_XSP16, literal(-4)))
          CFI (cfiCond151) ?BRET_EXT load(1, XDATA, add(CFA_XSP16, literal(-3)))
          CFI (cfiCond151) DPL0 load(1, XDATA, add(CFA_XSP16, literal(-2)))
          CFI (cfiCond151) DPH0 load(1, XDATA, add(CFA_XSP16, literal(-1)))
          CFI (cfiCond151) CFA_SP SP+-2
          CFI (cfiCond151) CFA_XSP16 add(XSP16, 14)
          CFI Block cfiCond152 Using cfiCommon0
          CFI (cfiCond152) Function ZDO_LeaveCnf
          CFI (cfiCond152) Conditional ??CrossCallReturnLabel_10
          CFI (cfiCond152) R6 load(1, XDATA, add(CFA_XSP16, literal(-10)))
          CFI (cfiCond152) VB load(1, XDATA, add(CFA_XSP16, literal(-9)))
          CFI (cfiCond152) V0 load(1, XDATA, add(CFA_XSP16, literal(-8)))
          CFI (cfiCond152) V1 load(1, XDATA, add(CFA_XSP16, literal(-7)))
          CFI (cfiCond152) R7 load(1, XDATA, add(CFA_XSP16, literal(-6)))
          CFI (cfiCond152) ?RET_LOW load(1, XDATA, add(CFA_XSP16, literal(-5)))
          CFI (cfiCond152) ?RET_HIGH load(1, XDATA, add(CFA_XSP16, literal(-4)))
          CFI (cfiCond152) ?BRET_EXT load(1, XDATA, add(CFA_XSP16, literal(-3)))
          CFI (cfiCond152) DPL0 load(1, XDATA, add(CFA_XSP16, literal(-2)))
          CFI (cfiCond152) DPH0 load(1, XDATA, add(CFA_XSP16, literal(-1)))
          CFI (cfiCond152) CFA_SP SP+-2
          CFI (cfiCond152) CFA_XSP16 add(XSP16, 10)
          CFI Block cfiCond153 Using cfiCommon0
          CFI (cfiCond153) Function ZDO_LeaveInd
          CFI (cfiCond153) Conditional ??CrossCallReturnLabel_11
          CFI (cfiCond153) R6 load(1, XDATA, add(CFA_XSP16, literal(-12)))
          CFI (cfiCond153) VB load(1, XDATA, add(CFA_XSP16, literal(-11)))
          CFI (cfiCond153) V0 load(1, XDATA, add(CFA_XSP16, literal(-10)))
          CFI (cfiCond153) V1 load(1, XDATA, add(CFA_XSP16, literal(-9)))
          CFI (cfiCond153) V2 load(1, XDATA, add(CFA_XSP16, literal(-8)))
          CFI (cfiCond153) V3 load(1, XDATA, add(CFA_XSP16, literal(-7)))
          CFI (cfiCond153) R7 load(1, XDATA, add(CFA_XSP16, literal(-6)))
          CFI (cfiCond153) ?RET_LOW load(1, XDATA, add(CFA_XSP16, literal(-5)))
          CFI (cfiCond153) ?RET_HIGH load(1, XDATA, add(CFA_XSP16, literal(-4)))
          CFI (cfiCond153) ?BRET_EXT load(1, XDATA, add(CFA_XSP16, literal(-3)))
          CFI (cfiCond153) DPL0 load(1, XDATA, add(CFA_XSP16, literal(-2)))
          CFI (cfiCond153) DPH0 load(1, XDATA, add(CFA_XSP16, literal(-1)))
          CFI (cfiCond153) CFA_SP SP+-2
          CFI (cfiCond153) CFA_XSP16 add(XSP16, 14)
          CFI Block cfiPicker154 Using cfiCommon1
          CFI (cfiPicker154) NoFunction
          CFI (cfiPicker154) Picker
        LCALL   ?Subroutine35 & 0xFFFF
??CrossCallReturnLabel_95:
        MOV     DPL,R0
        MOV     DPH,R1
        MOV     A,DPL
        ORL     A,DPH
        RET
          CFI EndBlock cfiCond148
          CFI EndBlock cfiCond149
          CFI EndBlock cfiCond150
          CFI EndBlock cfiCond151
          CFI EndBlock cfiCond152
          CFI EndBlock cfiCond153
          CFI EndBlock cfiPicker154
// 2942 
// 2943 /*********************************************************************
// 2944  * @fn          ZDO_LeaveCnf
// 2945  *
// 2946  * @brief       This function allows the next higher layer to be
// 2947  *              notified of the results of its request for this or
// 2948  *              a child device to leave the network.
// 2949  *
// 2950  * @param       cnf - NLME_LeaveCnf_t
// 2951  *
// 2952  * @return      none
// 2953  */

        RSEG BANKED_CODE:CODE:NOROOT(0)
// 2954 void ZDO_LeaveCnf( NLME_LeaveCnf_t* cnf )
ZDO_LeaveCnf:
          CFI Block cfiBlock155 Using cfiCommon0
          CFI Function ZDO_LeaveCnf
        CODE
// 2955 {
        FUNCALL ZDO_LeaveCnf, NLME_GetExtAddr
        LOCFRAME ISTACK, 0, STACK
        LOCFRAME PSTACK, 0, STACK
        LOCFRAME XSTACK, 10, STACK
        LOCFRAME IOVERLAY, 0, STATIC
        LOCFRAME DOVERLAY, 0, STATIC
        ARGFRAME ISTACK, 0, STACK
        ARGFRAME PSTACK, 0, STACK
        ARGFRAME XSTACK, 10, STACK
        ARGFRAME IOVERLAY, 0, STATIC
        ARGFRAME DOVERLAY, 0, STATIC
        FUNCALL ZDO_LeaveCnf, sAddrExtCmp
        LOCFRAME ISTACK, 0, STACK
        LOCFRAME PSTACK, 0, STACK
        LOCFRAME XSTACK, 10, STACK
        LOCFRAME IOVERLAY, 0, STATIC
        LOCFRAME DOVERLAY, 0, STATIC
        ARGFRAME ISTACK, 0, STACK
        ARGFRAME PSTACK, 0, STACK
        ARGFRAME XSTACK, 10, STACK
        ARGFRAME IOVERLAY, 0, STATIC
        ARGFRAME DOVERLAY, 0, STATIC
        FUNCALL ZDO_LeaveCnf, ZDApp_LeaveReset
        LOCFRAME ISTACK, 0, STACK
        LOCFRAME PSTACK, 0, STACK
        LOCFRAME XSTACK, 10, STACK
        LOCFRAME IOVERLAY, 0, STATIC
        LOCFRAME DOVERLAY, 0, STATIC
        ARGFRAME ISTACK, 0, STACK
        ARGFRAME PSTACK, 0, STACK
        ARGFRAME XSTACK, 10, STACK
        ARGFRAME IOVERLAY, 0, STATIC
        ARGFRAME DOVERLAY, 0, STATIC
        REQUIRE ?V0
        REQUIRE ?V1
        MOV     A,#-0xa
        LCALL   ?BANKED_ENTER_XDATA
          CFI DPH0 load(1, XDATA, add(CFA_XSP16, literal(-1)))
          CFI DPL0 load(1, XDATA, add(CFA_XSP16, literal(-2)))
          CFI ?BRET_EXT load(1, XDATA, add(CFA_XSP16, literal(-3)))
          CFI ?RET_HIGH load(1, XDATA, add(CFA_XSP16, literal(-4)))
          CFI ?RET_LOW load(1, XDATA, add(CFA_XSP16, literal(-5)))
          CFI R7 load(1, XDATA, add(CFA_XSP16, literal(-6)))
          CFI V1 load(1, XDATA, add(CFA_XSP16, literal(-7)))
          CFI V0 load(1, XDATA, add(CFA_XSP16, literal(-8)))
          CFI VB load(1, XDATA, add(CFA_XSP16, literal(-9)))
          CFI R6 load(1, XDATA, add(CFA_XSP16, literal(-10)))
          CFI CFA_SP SP+0
          CFI CFA_XSP16 add(XSP16, 10)
        ; Saved register size: 10
        ; Auto size: 0
        MOV     A,R2
        MOV     R6,A
        MOV     A,R3
        MOV     R7,A
// 2956   // Check for this device
// 2957   if ( osal_ExtAddrEqual( cnf->extAddr,
// 2958                           NLME_GetExtAddr() ) == TRUE )
        ; Setup parameters for call to function NLME_GetExtAddr
        LCALL   ??NLME_GetExtAddr?relay; Banked call to: NLME_GetExtAddr
        MOV     ?V0,R2
        MOV     ?V1,R3
        MOV     R4,?V0
        MOV     R5,?V1
        ; Setup parameters for call to function sAddrExtCmp
        LCALL   ?Subroutine30 & 0xFFFF
??CrossCallReturnLabel_31:
        LCALL   ??sAddrExtCmp?relay  ; Banked call to: sAddrExtCmp
        MOV     A,R1
        XRL     A,#0x1
        JNZ     ??ZDO_LeaveCnf_0
// 2959   {
// 2960     // Pass the leave confirm to higher layer if callback registered
// 2961     if ( ( zdoCBFunc[ZDO_LEAVE_CNF_CBID] == NULL ) ||
// 2962          ( (*zdoCBFunc[ZDO_LEAVE_CNF_CBID])( cnf ) == NULL ) )
        MOV     DPTR,#zdoCBFunc + 10
        LCALL   ?Subroutine17 & 0xFFFF
??CrossCallReturnLabel_10:
        JZ      ??ZDO_LeaveCnf_1
        ; Setup parameters for indirect call
        MOV     A,R6
        MOV     R2,A
        MOV     A,R7
        MOV     R3,A
        LCALL   ?CALL_IND
        MOV     ?V1,R3
        MOV     A,R2
        ORL     A,?V1
        JNZ     ??ZDO_LeaveCnf_0
// 2963     {
// 2964       // Prepare to leave with reset
// 2965       ZDApp_LeaveReset( cnf->rejoin );
??ZDO_LeaveCnf_1:
        ; Setup parameters for call to function ZDApp_LeaveReset
        LCALL   ?Subroutine29 & 0xFFFF
// 2966     }
// 2967   }
??CrossCallReturnLabel_28:
        LCALL   ??ZDApp_LeaveReset?relay; Banked call to: ZDApp_LeaveReset
// 2968   else if ( ZSTACK_ROUTER_BUILD )
// 2969   {
// 2970     // Remove device address(optionally descendents) from data
// 2971     ZDApp_LeaveUpdate( cnf->dstAddr,
// 2972                        cnf->extAddr,
// 2973                        cnf->removeChildren );
// 2974   }
// 2975 }
??ZDO_LeaveCnf_0:
        LJMP    ??Subroutine51_0 & 0xFFFF
          CFI EndBlock cfiBlock155

        RSEG BANKED_CODE:CODE:NOROOT(0)
?Subroutine30:
          CFI Block cfiCond156 Using cfiCommon0
          CFI Function ZDO_JoinConfirmCB
          CFI Conditional ??CrossCallReturnLabel_30
          CFI R6 load(1, XDATA, add(CFA_XSP16, literal(-12)))
          CFI VB load(1, XDATA, add(CFA_XSP16, literal(-11)))
          CFI V0 load(1, XDATA, add(CFA_XSP16, literal(-10)))
          CFI V1 load(1, XDATA, add(CFA_XSP16, literal(-9)))
          CFI V2 load(1, XDATA, add(CFA_XSP16, literal(-8)))
          CFI V3 load(1, XDATA, add(CFA_XSP16, literal(-7)))
          CFI R7 load(1, XDATA, add(CFA_XSP16, literal(-6)))
          CFI ?RET_LOW load(1, XDATA, add(CFA_XSP16, literal(-5)))
          CFI ?RET_HIGH load(1, XDATA, add(CFA_XSP16, literal(-4)))
          CFI ?BRET_EXT load(1, XDATA, add(CFA_XSP16, literal(-3)))
          CFI DPL0 load(1, XDATA, add(CFA_XSP16, literal(-2)))
          CFI DPH0 load(1, XDATA, add(CFA_XSP16, literal(-1)))
          CFI CFA_SP SP+-2
          CFI CFA_XSP16 add(XSP16, 17)
          CFI Block cfiCond157 Using cfiCommon0
          CFI (cfiCond157) Function ZDO_LeaveCnf
          CFI (cfiCond157) Conditional ??CrossCallReturnLabel_31
          CFI (cfiCond157) R6 load(1, XDATA, add(CFA_XSP16, literal(-10)))
          CFI (cfiCond157) VB load(1, XDATA, add(CFA_XSP16, literal(-9)))
          CFI (cfiCond157) V0 load(1, XDATA, add(CFA_XSP16, literal(-8)))
          CFI (cfiCond157) V1 load(1, XDATA, add(CFA_XSP16, literal(-7)))
          CFI (cfiCond157) R7 load(1, XDATA, add(CFA_XSP16, literal(-6)))
          CFI (cfiCond157) ?RET_LOW load(1, XDATA, add(CFA_XSP16, literal(-5)))
          CFI (cfiCond157) ?RET_HIGH load(1, XDATA, add(CFA_XSP16, literal(-4)))
          CFI (cfiCond157) ?BRET_EXT load(1, XDATA, add(CFA_XSP16, literal(-3)))
          CFI (cfiCond157) DPL0 load(1, XDATA, add(CFA_XSP16, literal(-2)))
          CFI (cfiCond157) DPH0 load(1, XDATA, add(CFA_XSP16, literal(-1)))
          CFI (cfiCond157) CFA_SP SP+-2
          CFI (cfiCond157) CFA_XSP16 add(XSP16, 10)
          CFI Block cfiCond158 Using cfiCommon0
          CFI (cfiCond158) Function ZDApp_InMsgCB
          CFI (cfiCond158) Conditional ??CrossCallReturnLabel_32
          CFI (cfiCond158) R6 load(1, XDATA, add(CFA_XSP16, literal(-10)))
          CFI (cfiCond158) VB load(1, XDATA, add(CFA_XSP16, literal(-9)))
          CFI (cfiCond158) V0 load(1, XDATA, add(CFA_XSP16, literal(-8)))
          CFI (cfiCond158) V1 load(1, XDATA, add(CFA_XSP16, literal(-7)))
          CFI (cfiCond158) R7 load(1, XDATA, add(CFA_XSP16, literal(-6)))
          CFI (cfiCond158) ?RET_LOW load(1, XDATA, add(CFA_XSP16, literal(-5)))
          CFI (cfiCond158) ?RET_HIGH load(1, XDATA, add(CFA_XSP16, literal(-4)))
          CFI (cfiCond158) ?BRET_EXT load(1, XDATA, add(CFA_XSP16, literal(-3)))
          CFI (cfiCond158) DPL0 load(1, XDATA, add(CFA_XSP16, literal(-2)))
          CFI (cfiCond158) DPH0 load(1, XDATA, add(CFA_XSP16, literal(-1)))
          CFI (cfiCond158) CFA_SP SP+-2
          CFI (cfiCond158) CFA_XSP16 add(XSP16, 14)
          CFI Block cfiPicker159 Using cfiCommon1
          CFI (cfiPicker159) NoFunction
          CFI (cfiPicker159) Picker
        MOV     A,R6
        ADD     A,#0x2
        MOV     R2,A
        CLR     A
        ADDC    A,R7
        MOV     R3,A
        RET
          CFI EndBlock cfiCond156
          CFI EndBlock cfiCond157
          CFI EndBlock cfiCond158
          CFI EndBlock cfiPicker159
// 2976 
// 2977 /*********************************************************************
// 2978  * @fn          ZDO_LeaveInd
// 2979  *
// 2980  * @brief       This function allows the next higher layer of a
// 2981  *              device to be notified of a remote leave request or
// 2982  *              indication.
// 2983  *
// 2984  * @param       ind - NLME_LeaveInd_t
// 2985  *
// 2986  * @return      none
// 2987  */

        RSEG BANKED_CODE:CODE:NOROOT(0)
// 2988 void ZDO_LeaveInd( NLME_LeaveInd_t* ind )
ZDO_LeaveInd:
          CFI Block cfiBlock160 Using cfiCommon0
          CFI Function ZDO_LeaveInd
        CODE
// 2989 {
        FUNCALL ZDO_LeaveInd, NLME_SetResponseRate
        LOCFRAME ISTACK, 0, STACK
        LOCFRAME PSTACK, 0, STACK
        LOCFRAME XSTACK, 14, STACK
        LOCFRAME IOVERLAY, 0, STATIC
        LOCFRAME DOVERLAY, 0, STATIC
        ARGFRAME ISTACK, 0, STACK
        ARGFRAME PSTACK, 0, STACK
        ARGFRAME XSTACK, 14, STACK
        ARGFRAME IOVERLAY, 0, STATIC
        ARGFRAME DOVERLAY, 0, STATIC
        FUNCALL ZDO_LeaveInd, NLME_SetQueuedPollRate
        LOCFRAME ISTACK, 0, STACK
        LOCFRAME PSTACK, 0, STACK
        LOCFRAME XSTACK, 14, STACK
        LOCFRAME IOVERLAY, 0, STATIC
        LOCFRAME DOVERLAY, 0, STATIC
        ARGFRAME ISTACK, 0, STACK
        ARGFRAME PSTACK, 0, STACK
        ARGFRAME XSTACK, 14, STACK
        ARGFRAME IOVERLAY, 0, STATIC
        ARGFRAME DOVERLAY, 0, STATIC
        FUNCALL ZDO_LeaveInd, NLME_LeaveRsp
        LOCFRAME ISTACK, 0, STACK
        LOCFRAME PSTACK, 0, STACK
        LOCFRAME XSTACK, 14, STACK
        LOCFRAME IOVERLAY, 0, STATIC
        LOCFRAME DOVERLAY, 0, STATIC
        ARGFRAME ISTACK, 0, STACK
        ARGFRAME PSTACK, 0, STACK
        ARGFRAME XSTACK, 14, STACK
        ARGFRAME IOVERLAY, 0, STATIC
        ARGFRAME DOVERLAY, 0, STATIC
        FUNCALL ZDO_LeaveInd, NLME_SetPollRate
        LOCFRAME ISTACK, 0, STACK
        LOCFRAME PSTACK, 0, STACK
        LOCFRAME XSTACK, 14, STACK
        LOCFRAME IOVERLAY, 0, STATIC
        LOCFRAME DOVERLAY, 0, STATIC
        ARGFRAME ISTACK, 0, STACK
        ARGFRAME PSTACK, 0, STACK
        ARGFRAME XSTACK, 14, STACK
        ARGFRAME IOVERLAY, 0, STATIC
        ARGFRAME DOVERLAY, 0, STATIC
        FUNCALL ZDO_LeaveInd, ZDApp_LeaveReset
        LOCFRAME ISTACK, 0, STACK
        LOCFRAME PSTACK, 0, STACK
        LOCFRAME XSTACK, 14, STACK
        LOCFRAME IOVERLAY, 0, STATIC
        LOCFRAME DOVERLAY, 0, STATIC
        ARGFRAME ISTACK, 0, STACK
        ARGFRAME PSTACK, 0, STACK
        ARGFRAME XSTACK, 14, STACK
        ARGFRAME IOVERLAY, 0, STATIC
        ARGFRAME DOVERLAY, 0, STATIC
        FUNCALL ZDO_LeaveInd, NLME_GetCoordShortAddr
        LOCFRAME ISTACK, 0, STACK
        LOCFRAME PSTACK, 0, STACK
        LOCFRAME XSTACK, 14, STACK
        LOCFRAME IOVERLAY, 0, STATIC
        LOCFRAME DOVERLAY, 0, STATIC
        ARGFRAME ISTACK, 0, STACK
        ARGFRAME PSTACK, 0, STACK
        ARGFRAME XSTACK, 14, STACK
        ARGFRAME IOVERLAY, 0, STATIC
        ARGFRAME DOVERLAY, 0, STATIC
        FUNCALL ZDO_LeaveInd, ZDApp_LeaveReset
        LOCFRAME ISTACK, 0, STACK
        LOCFRAME PSTACK, 0, STACK
        LOCFRAME XSTACK, 14, STACK
        LOCFRAME IOVERLAY, 0, STATIC
        LOCFRAME DOVERLAY, 0, STATIC
        ARGFRAME ISTACK, 0, STACK
        ARGFRAME PSTACK, 0, STACK
        ARGFRAME XSTACK, 14, STACK
        ARGFRAME IOVERLAY, 0, STATIC
        ARGFRAME DOVERLAY, 0, STATIC
        FUNCALL ZDO_LeaveInd, ZDApp_LeaveUpdate
        LOCFRAME ISTACK, 0, STACK
        LOCFRAME PSTACK, 0, STACK
        LOCFRAME XSTACK, 14, STACK
        LOCFRAME IOVERLAY, 0, STATIC
        LOCFRAME DOVERLAY, 0, STATIC
        ARGFRAME ISTACK, 0, STACK
        ARGFRAME PSTACK, 0, STACK
        ARGFRAME XSTACK, 14, STACK
        ARGFRAME IOVERLAY, 0, STATIC
        ARGFRAME DOVERLAY, 0, STATIC
        REQUIRE ?V0
        REQUIRE ?V1
        REQUIRE ?V2
        REQUIRE ?V3
        MOV     A,#-0xc
        LCALL   ?BANKED_ENTER_XDATA
          CFI DPH0 load(1, XDATA, add(CFA_XSP16, literal(-1)))
          CFI DPL0 load(1, XDATA, add(CFA_XSP16, literal(-2)))
          CFI ?BRET_EXT load(1, XDATA, add(CFA_XSP16, literal(-3)))
          CFI ?RET_HIGH load(1, XDATA, add(CFA_XSP16, literal(-4)))
          CFI ?RET_LOW load(1, XDATA, add(CFA_XSP16, literal(-5)))
          CFI R7 load(1, XDATA, add(CFA_XSP16, literal(-6)))
          CFI V3 load(1, XDATA, add(CFA_XSP16, literal(-7)))
          CFI V2 load(1, XDATA, add(CFA_XSP16, literal(-8)))
          CFI V1 load(1, XDATA, add(CFA_XSP16, literal(-9)))
          CFI V0 load(1, XDATA, add(CFA_XSP16, literal(-10)))
          CFI VB load(1, XDATA, add(CFA_XSP16, literal(-11)))
          CFI R6 load(1, XDATA, add(CFA_XSP16, literal(-12)))
          CFI CFA_SP SP+0
          CFI CFA_XSP16 add(XSP16, 12)
        ; Saved register size: 12
        ; Auto size: 2
        MOV     A,#-0x2
        LCALL   ?ALLOC_XSTACK8
          CFI CFA_XSP16 add(XSP16, 14)
        MOV     A,R2
        MOV     R6,A
        MOV     A,R3
        MOV     R7,A
// 2990   uint8 leave;
// 2991 
// 2992 
// 2993   // Parent is requesting the leave - NWK layer filters out illegal
// 2994   // requests
// 2995   if ( ind->request == TRUE )
        MOV     A,R6
        ADD     A,#0xc
        MOV     R0,A
        CLR     A
        ADDC    A,R7
        MOV     R1,A
        MOV     ?V0,R0
        MOV     ?V1,R1
        MOV     DPL,R6
        MOV     DPH,R7
        INC     DPTR
        INC     DPTR
        INC     DPTR
        INC     DPTR
        INC     DPTR
        INC     DPTR
        INC     DPTR
        INC     DPTR
        INC     DPTR
        INC     DPTR
        MOVX    A,@DPTR
        XRL     A,#0x1
        JNZ     ??ZDO_LeaveInd_0
// 2996   {
// 2997     // Only respond if we are not rejoining the network
// 2998     if ( ind->rejoin == FALSE )
        MOV     DPL,R0
        MOV     DPH,R1
        MOVX    A,@DPTR
        JNZ     ??ZDO_LeaveInd_1
// 2999     {
// 3000       // Notify network of leave
// 3001       NLME_LeaveRsp_t rsp;
// 3002       rsp.rejoin = ind->rejoin;
        MOV     A,#0x1
        LCALL   ?XSTACK_DISP0_8
        CLR     A
        MOVX    @DPTR,A
// 3003 
// 3004       if ( ZSTACK_ROUTER_BUILD )
// 3005       {
// 3006         rsp.removeChildren = ind->removeChildren;
// 3007       }
// 3008       else if ( ZSTACK_END_DEVICE_BUILD )
// 3009       {
// 3010         NLME_SetResponseRate(0);
        ; Setup parameters for call to function NLME_SetResponseRate
        MOV     R2,A
        MOV     R3,A
        LCALL   ??NLME_SetResponseRate?relay; Banked call to: NLME_SetResponseRate
// 3011         NLME_SetQueuedPollRate(0);
        ; Setup parameters for call to function NLME_SetQueuedPollRate
        MOV     R2,#0x0
        MOV     R3,#0x0
        LCALL   ??NLME_SetQueuedPollRate?relay; Banked call to: NLME_SetQueuedPollRate
// 3012         rsp.removeChildren = 0;
        MOV     DPL,?XSP + 0
        MOV     DPH,?XSP + 1
        CLR     A
        MOVX    @DPTR,A
// 3013       }
// 3014 
// 3015       NLME_LeaveRsp( &rsp );
        ; Setup parameters for call to function NLME_LeaveRsp
        MOV     R2,?XSP + 0
        MOV     R3,?XSP + 1
        LCALL   ??NLME_LeaveRsp?relay; Banked call to: NLME_LeaveRsp
// 3016     }
// 3017 
// 3018     if ( ZSTACK_END_DEVICE_BUILD )
// 3019     {
// 3020       // Stop polling and get ready to reset
// 3021       NLME_SetPollRate( 0 );
??ZDO_LeaveInd_1:
        ; Setup parameters for call to function NLME_SetPollRate
        MOV     DPTR,#__Constant_0
        LCALL   ?XLOAD_R2345
        LCALL   ??NLME_SetPollRate?relay; Banked call to: NLME_SetPollRate
// 3022     }
// 3023 
// 3024     // Prepare to leave with reset
// 3025     ZDApp_LeaveReset( ind->rejoin );
        ; Setup parameters for call to function ZDApp_LeaveReset
        SJMP    ??ZDO_LeaveInd_2
// 3026   }
// 3027   else
// 3028   {
// 3029     leave = FALSE;
// 3030 
// 3031     // Check if this device needs to leave as a child or descendent
// 3032     if ( ind->srcAddr == NLME_GetCoordShortAddr() )
??ZDO_LeaveInd_0:
        ; Setup parameters for call to function NLME_GetCoordShortAddr
        LCALL   ??NLME_GetCoordShortAddr?relay; Banked call to: NLME_GetCoordShortAddr
        MOV     ?V2,R2
        MOV     ?V3,R3
        LCALL   ?Subroutine29 & 0xFFFF
??CrossCallReturnLabel_29:
        MOV     DPL,R6
        MOV     DPH,R7
        LCALL   ??Subroutine48_0 & 0xFFFF
??CrossCallReturnLabel_84:
        MOV     A,?V2
        XRL     A,R2
        JNZ     ??ZDO_LeaveInd_3
        MOV     A,?V3
        XRL     A,R3
??ZDO_LeaveInd_3:
        JNZ     ??ZDO_LeaveInd_4
// 3033     {
// 3034       if ( ( ind->removeChildren == TRUE )   )
        MOV     A,#0x1
        XRL     A,R1
        JZ      ??ZDO_LeaveInd_2
// 3035       {
// 3036         leave = TRUE;
// 3037       }
// 3038       else if ( ZDO_Config_Node_Descriptor.LogicalType == NODETYPE_DEVICE)
        MOV     DPTR,#ZDO_Config_Node_Descriptor
        MOVX    A,@DPTR
        ANL     A,#0x7
        XRL     A,#0x2
        JNZ     ??ZDO_LeaveInd_4
// 3039       {
// 3040         // old parents is leaving the network, child needs to search for a new parent
// 3041         ind->rejoin = TRUE;
        MOV     DPL,?V0
        MOV     DPH,?V1
        MOV     A,#0x1
        MOVX    @DPTR,A
// 3042         leave = TRUE;
// 3043       }
// 3044 
// 3045     }
// 3046     else if ( ind->removeChildren == TRUE )
// 3047     {
// 3048       // Check NWK address allocation algorithm
// 3049       //leave = RTG_ANCESTOR(nwkAddr,thisAddr);
// 3050     }
// 3051 
// 3052     if ( leave == TRUE )
// 3053     {
// 3054       // Prepare to leave with reset
// 3055       ZDApp_LeaveReset( ind->rejoin );
??ZDO_LeaveInd_2:
        ; Setup parameters for call to function ZDApp_LeaveReset
        MOV     DPL,?V0
        MOV     DPH,?V1
        MOVX    A,@DPTR
        MOV     R1,A
        LCALL   ??ZDApp_LeaveReset?relay; Banked call to: ZDApp_LeaveReset
        SJMP    ??ZDO_LeaveInd_5
// 3056     }
// 3057     else
// 3058     {
// 3059       // Remove device address(optionally descendents) from data
// 3060       ZDApp_LeaveUpdate( ind->srcAddr,
// 3061                          ind->extAddr,
// 3062                          ind->removeChildren );
??ZDO_LeaveInd_4:
        ; Setup parameters for call to function ZDApp_LeaveUpdate
        MOV     A,R6
        ADD     A,#0x2
        MOV     R4,A
        CLR     A
        ADDC    A,R7
        MOV     R5,A
        LCALL   ??ZDApp_LeaveUpdate?relay; Banked call to: ZDApp_LeaveUpdate
// 3063     }
// 3064   }
// 3065 
// 3066   // Pass the leave indication to higher layer if callback registered.
// 3067   if (zdoCBFunc[ZDO_LEAVE_IND_CBID] != NULL)
??ZDO_LeaveInd_5:
        MOV     DPTR,#zdoCBFunc + 12
        LCALL   ?Subroutine17 & 0xFFFF
??CrossCallReturnLabel_11:
        JZ      ??ZDO_LeaveInd_6
// 3068   {
// 3069     (void)zdoCBFunc[ZDO_LEAVE_IND_CBID](ind);
        ; Setup parameters for indirect call
        MOV     A,R6
        MOV     R2,A
        MOV     A,R7
        MOV     R3,A
        LCALL   ?CALL_IND
// 3070   }
// 3071 }
??ZDO_LeaveInd_6:
        LJMP    ?Subroutine5 & 0xFFFF
          CFI EndBlock cfiBlock160

        RSEG BANKED_CODE:CODE:NOROOT(0)
?Subroutine29:
          CFI Block cfiCond161 Using cfiCommon0
          CFI Function ZDO_LeaveCnf
          CFI Conditional ??CrossCallReturnLabel_28
          CFI R6 load(1, XDATA, add(CFA_XSP16, literal(-10)))
          CFI VB load(1, XDATA, add(CFA_XSP16, literal(-9)))
          CFI V0 load(1, XDATA, add(CFA_XSP16, literal(-8)))
          CFI V1 load(1, XDATA, add(CFA_XSP16, literal(-7)))
          CFI R7 load(1, XDATA, add(CFA_XSP16, literal(-6)))
          CFI ?RET_LOW load(1, XDATA, add(CFA_XSP16, literal(-5)))
          CFI ?RET_HIGH load(1, XDATA, add(CFA_XSP16, literal(-4)))
          CFI ?BRET_EXT load(1, XDATA, add(CFA_XSP16, literal(-3)))
          CFI DPL0 load(1, XDATA, add(CFA_XSP16, literal(-2)))
          CFI DPH0 load(1, XDATA, add(CFA_XSP16, literal(-1)))
          CFI CFA_SP SP+-2
          CFI CFA_XSP16 add(XSP16, 10)
          CFI Block cfiCond162 Using cfiCommon0
          CFI (cfiCond162) Function ZDO_LeaveInd
          CFI (cfiCond162) Conditional ??CrossCallReturnLabel_29
          CFI (cfiCond162) R6 load(1, XDATA, add(CFA_XSP16, literal(-12)))
          CFI (cfiCond162) VB load(1, XDATA, add(CFA_XSP16, literal(-11)))
          CFI (cfiCond162) V0 load(1, XDATA, add(CFA_XSP16, literal(-10)))
          CFI (cfiCond162) V1 load(1, XDATA, add(CFA_XSP16, literal(-9)))
          CFI (cfiCond162) V2 load(1, XDATA, add(CFA_XSP16, literal(-8)))
          CFI (cfiCond162) V3 load(1, XDATA, add(CFA_XSP16, literal(-7)))
          CFI (cfiCond162) R7 load(1, XDATA, add(CFA_XSP16, literal(-6)))
          CFI (cfiCond162) ?RET_LOW load(1, XDATA, add(CFA_XSP16, literal(-5)))
          CFI (cfiCond162) ?RET_HIGH load(1, XDATA, add(CFA_XSP16, literal(-4)))
          CFI (cfiCond162) ?BRET_EXT load(1, XDATA, add(CFA_XSP16, literal(-3)))
          CFI (cfiCond162) DPL0 load(1, XDATA, add(CFA_XSP16, literal(-2)))
          CFI (cfiCond162) DPH0 load(1, XDATA, add(CFA_XSP16, literal(-1)))
          CFI (cfiCond162) CFA_SP SP+-2
          CFI (cfiCond162) CFA_XSP16 add(XSP16, 14)
          CFI Block cfiPicker163 Using cfiCommon1
          CFI (cfiPicker163) NoFunction
          CFI (cfiPicker163) Picker
        LCALL   ?Subroutine38 & 0xFFFF
??CrossCallReturnLabel_45:
        MOV     R1,A
        RET
          CFI EndBlock cfiCond161
          CFI EndBlock cfiCond162
          CFI EndBlock cfiPicker163

        RSEG BANKED_CODE:CODE:NOROOT(0)
?Subroutine21:
          CFI Block cfiCond164 Using cfiCommon0
          CFI Function ZDApp_ProcessMsgCBs
          CFI Conditional ??CrossCallReturnLabel_85
          CFI R6 load(1, XDATA, add(CFA_XSP16, literal(-14)))
          CFI VB load(1, XDATA, add(CFA_XSP16, literal(-13)))
          CFI V0 load(1, XDATA, add(CFA_XSP16, literal(-12)))
          CFI V1 load(1, XDATA, add(CFA_XSP16, literal(-11)))
          CFI V2 load(1, XDATA, add(CFA_XSP16, literal(-10)))
          CFI V3 load(1, XDATA, add(CFA_XSP16, literal(-9)))
          CFI V4 load(1, XDATA, add(CFA_XSP16, literal(-8)))
          CFI V5 load(1, XDATA, add(CFA_XSP16, literal(-7)))
          CFI R7 load(1, XDATA, add(CFA_XSP16, literal(-6)))
          CFI ?RET_LOW load(1, XDATA, add(CFA_XSP16, literal(-5)))
          CFI ?RET_HIGH load(1, XDATA, add(CFA_XSP16, literal(-4)))
          CFI ?BRET_EXT load(1, XDATA, add(CFA_XSP16, literal(-3)))
          CFI DPL0 load(1, XDATA, add(CFA_XSP16, literal(-2)))
          CFI DPH0 load(1, XDATA, add(CFA_XSP16, literal(-1)))
          CFI CFA_SP SP+-2
          CFI CFA_XSP16 add(XSP16, 35)
          CFI Block cfiCond165 Using cfiCommon0
          CFI (cfiCond165) Function ZDApp_ProcessPendingBindReq
          CFI (cfiCond165) Conditional ??CrossCallReturnLabel_86
          CFI (cfiCond165) R6 load(1, XDATA, add(CFA_XSP16, literal(-15)))
          CFI (cfiCond165) VB load(1, XDATA, add(CFA_XSP16, literal(-14)))
          CFI (cfiCond165) V0 load(1, XDATA, add(CFA_XSP16, literal(-13)))
          CFI (cfiCond165) V1 load(1, XDATA, add(CFA_XSP16, literal(-12)))
          CFI (cfiCond165) V2 load(1, XDATA, add(CFA_XSP16, literal(-11)))
          CFI (cfiCond165) V3 load(1, XDATA, add(CFA_XSP16, literal(-10)))
          CFI (cfiCond165) V4 load(1, XDATA, add(CFA_XSP16, literal(-9)))
          CFI (cfiCond165) V5 load(1, XDATA, add(CFA_XSP16, literal(-8)))
          CFI (cfiCond165) V6 load(1, XDATA, add(CFA_XSP16, literal(-7)))
          CFI (cfiCond165) R7 load(1, XDATA, add(CFA_XSP16, literal(-6)))
          CFI (cfiCond165) ?RET_LOW load(1, XDATA, add(CFA_XSP16, literal(-5)))
          CFI (cfiCond165) ?RET_HIGH load(1, XDATA, add(CFA_XSP16, literal(-4)))
          CFI (cfiCond165) ?BRET_EXT load(1, XDATA, add(CFA_XSP16, literal(-3)))
          CFI (cfiCond165) DPL0 load(1, XDATA, add(CFA_XSP16, literal(-2)))
          CFI (cfiCond165) DPH0 load(1, XDATA, add(CFA_XSP16, literal(-1)))
          CFI (cfiCond165) CFA_SP SP+-2
          CFI (cfiCond165) CFA_XSP16 add(XSP16, 17)
          CFI Block cfiPicker166 Using cfiCommon1
          CFI (cfiPicker166) NoFunction
          CFI (cfiPicker166) Picker
        INC     DPTR
          CFI EndBlock cfiCond164
          CFI EndBlock cfiCond165
          CFI EndBlock cfiPicker166
        REQUIRE ??Subroutine48_0
        ; // Fall through to label ??Subroutine48_0

        RSEG BANKED_CODE:CODE:NOROOT(0)
??Subroutine48_0:
          CFI Block cfiCond167 Using cfiCommon0
          CFI Function ZDApp_SecInit
          CFI Conditional ??CrossCallReturnLabel_80
          CFI R6 load(1, XDATA, add(CFA_XSP16, literal(-9)))
          CFI VB load(1, XDATA, add(CFA_XSP16, literal(-8)))
          CFI V0 load(1, XDATA, add(CFA_XSP16, literal(-7)))
          CFI R7 load(1, XDATA, add(CFA_XSP16, literal(-6)))
          CFI ?RET_LOW load(1, XDATA, add(CFA_XSP16, literal(-5)))
          CFI ?RET_HIGH load(1, XDATA, add(CFA_XSP16, literal(-4)))
          CFI ?BRET_EXT load(1, XDATA, add(CFA_XSP16, literal(-3)))
          CFI DPL0 load(1, XDATA, add(CFA_XSP16, literal(-2)))
          CFI DPH0 load(1, XDATA, add(CFA_XSP16, literal(-1)))
          CFI CFA_SP SP+-2
          CFI CFA_XSP16 add(XSP16, 25)
          CFI Block cfiCond168 Using cfiCommon0
          CFI (cfiCond168) Function ZDO_beaconNotifyIndCB
          CFI (cfiCond168) Conditional ??CrossCallReturnLabel_81
          CFI (cfiCond168) R6 load(1, XDATA, add(CFA_XSP16, literal(-18)))
          CFI (cfiCond168) VB load(1, XDATA, add(CFA_XSP16, literal(-17)))
          CFI (cfiCond168) V0 load(1, XDATA, add(CFA_XSP16, literal(-16)))
          CFI (cfiCond168) V1 load(1, XDATA, add(CFA_XSP16, literal(-15)))
          CFI (cfiCond168) V2 load(1, XDATA, add(CFA_XSP16, literal(-14)))
          CFI (cfiCond168) V3 load(1, XDATA, add(CFA_XSP16, literal(-13)))
          CFI (cfiCond168) V4 load(1, XDATA, add(CFA_XSP16, literal(-12)))
          CFI (cfiCond168) V5 load(1, XDATA, add(CFA_XSP16, literal(-11)))
          CFI (cfiCond168) V6 load(1, XDATA, add(CFA_XSP16, literal(-10)))
          CFI (cfiCond168) V7 load(1, XDATA, add(CFA_XSP16, literal(-9)))
          CFI (cfiCond168) V8 load(1, XDATA, add(CFA_XSP16, literal(-8)))
          CFI (cfiCond168) V9 load(1, XDATA, add(CFA_XSP16, literal(-7)))
          CFI (cfiCond168) R7 load(1, XDATA, add(CFA_XSP16, literal(-6)))
          CFI (cfiCond168) ?RET_LOW load(1, XDATA, add(CFA_XSP16, literal(-5)))
          CFI (cfiCond168) ?RET_HIGH load(1, XDATA, add(CFA_XSP16, literal(-4)))
          CFI (cfiCond168) ?BRET_EXT load(1, XDATA, add(CFA_XSP16, literal(-3)))
          CFI (cfiCond168) DPL0 load(1, XDATA, add(CFA_XSP16, literal(-2)))
          CFI (cfiCond168) DPH0 load(1, XDATA, add(CFA_XSP16, literal(-1)))
          CFI (cfiCond168) CFA_SP SP+-2
          CFI (cfiCond168) CFA_XSP16 add(XSP16, 18)
          CFI Block cfiCond169 Using cfiCommon0
          CFI (cfiCond169) Function ZDO_JoinConfirmCB
          CFI (cfiCond169) Conditional ??CrossCallReturnLabel_82
          CFI (cfiCond169) R6 load(1, XDATA, add(CFA_XSP16, literal(-12)))
          CFI (cfiCond169) VB load(1, XDATA, add(CFA_XSP16, literal(-11)))
          CFI (cfiCond169) V0 load(1, XDATA, add(CFA_XSP16, literal(-10)))
          CFI (cfiCond169) V1 load(1, XDATA, add(CFA_XSP16, literal(-9)))
          CFI (cfiCond169) V2 load(1, XDATA, add(CFA_XSP16, literal(-8)))
          CFI (cfiCond169) V3 load(1, XDATA, add(CFA_XSP16, literal(-7)))
          CFI (cfiCond169) R7 load(1, XDATA, add(CFA_XSP16, literal(-6)))
          CFI (cfiCond169) ?RET_LOW load(1, XDATA, add(CFA_XSP16, literal(-5)))
          CFI (cfiCond169) ?RET_HIGH load(1, XDATA, add(CFA_XSP16, literal(-4)))
          CFI (cfiCond169) ?BRET_EXT load(1, XDATA, add(CFA_XSP16, literal(-3)))
          CFI (cfiCond169) DPL0 load(1, XDATA, add(CFA_XSP16, literal(-2)))
          CFI (cfiCond169) DPH0 load(1, XDATA, add(CFA_XSP16, literal(-1)))
          CFI (cfiCond169) CFA_SP SP+-2
          CFI (cfiCond169) CFA_XSP16 add(XSP16, 17)
          CFI Block cfiCond170 Using cfiCommon0
          CFI (cfiCond170) Function ZDO_JoinConfirmCB
          CFI (cfiCond170) Conditional ??CrossCallReturnLabel_83
          CFI (cfiCond170) R6 load(1, XDATA, add(CFA_XSP16, literal(-12)))
          CFI (cfiCond170) VB load(1, XDATA, add(CFA_XSP16, literal(-11)))
          CFI (cfiCond170) V0 load(1, XDATA, add(CFA_XSP16, literal(-10)))
          CFI (cfiCond170) V1 load(1, XDATA, add(CFA_XSP16, literal(-9)))
          CFI (cfiCond170) V2 load(1, XDATA, add(CFA_XSP16, literal(-8)))
          CFI (cfiCond170) V3 load(1, XDATA, add(CFA_XSP16, literal(-7)))
          CFI (cfiCond170) R7 load(1, XDATA, add(CFA_XSP16, literal(-6)))
          CFI (cfiCond170) ?RET_LOW load(1, XDATA, add(CFA_XSP16, literal(-5)))
          CFI (cfiCond170) ?RET_HIGH load(1, XDATA, add(CFA_XSP16, literal(-4)))
          CFI (cfiCond170) ?BRET_EXT load(1, XDATA, add(CFA_XSP16, literal(-3)))
          CFI (cfiCond170) DPL0 load(1, XDATA, add(CFA_XSP16, literal(-2)))
          CFI (cfiCond170) DPH0 load(1, XDATA, add(CFA_XSP16, literal(-1)))
          CFI (cfiCond170) CFA_SP SP+-2
          CFI (cfiCond170) CFA_XSP16 add(XSP16, 17)
          CFI Block cfiCond171 Using cfiCommon0
          CFI (cfiCond171) Function ZDO_LeaveInd
          CFI (cfiCond171) Conditional ??CrossCallReturnLabel_84
          CFI (cfiCond171) R6 load(1, XDATA, add(CFA_XSP16, literal(-12)))
          CFI (cfiCond171) VB load(1, XDATA, add(CFA_XSP16, literal(-11)))
          CFI (cfiCond171) V0 load(1, XDATA, add(CFA_XSP16, literal(-10)))
          CFI (cfiCond171) V1 load(1, XDATA, add(CFA_XSP16, literal(-9)))
          CFI (cfiCond171) V2 load(1, XDATA, add(CFA_XSP16, literal(-8)))
          CFI (cfiCond171) V3 load(1, XDATA, add(CFA_XSP16, literal(-7)))
          CFI (cfiCond171) R7 load(1, XDATA, add(CFA_XSP16, literal(-6)))
          CFI (cfiCond171) ?RET_LOW load(1, XDATA, add(CFA_XSP16, literal(-5)))
          CFI (cfiCond171) ?RET_HIGH load(1, XDATA, add(CFA_XSP16, literal(-4)))
          CFI (cfiCond171) ?BRET_EXT load(1, XDATA, add(CFA_XSP16, literal(-3)))
          CFI (cfiCond171) DPL0 load(1, XDATA, add(CFA_XSP16, literal(-2)))
          CFI (cfiCond171) DPH0 load(1, XDATA, add(CFA_XSP16, literal(-1)))
          CFI (cfiCond171) CFA_SP SP+-2
          CFI (cfiCond171) CFA_XSP16 add(XSP16, 14)
          CFI Block cfiCond172 Using cfiCommon0
          CFI (cfiCond172) Function ZDApp_ProcessMsgCBs
          CFI (cfiCond172) Conditional ??CrossCallReturnLabel_85
          CFI (cfiCond172) R6 load(1, XDATA, add(CFA_XSP16, literal(-14)))
          CFI (cfiCond172) VB load(1, XDATA, add(CFA_XSP16, literal(-13)))
          CFI (cfiCond172) V0 load(1, XDATA, add(CFA_XSP16, literal(-12)))
          CFI (cfiCond172) V1 load(1, XDATA, add(CFA_XSP16, literal(-11)))
          CFI (cfiCond172) V2 load(1, XDATA, add(CFA_XSP16, literal(-10)))
          CFI (cfiCond172) V3 load(1, XDATA, add(CFA_XSP16, literal(-9)))
          CFI (cfiCond172) V4 load(1, XDATA, add(CFA_XSP16, literal(-8)))
          CFI (cfiCond172) V5 load(1, XDATA, add(CFA_XSP16, literal(-7)))
          CFI (cfiCond172) R7 load(1, XDATA, add(CFA_XSP16, literal(-6)))
          CFI (cfiCond172) ?RET_LOW load(1, XDATA, add(CFA_XSP16, literal(-5)))
          CFI (cfiCond172) ?RET_HIGH load(1, XDATA, add(CFA_XSP16, literal(-4)))
          CFI (cfiCond172) ?BRET_EXT load(1, XDATA, add(CFA_XSP16, literal(-3)))
          CFI (cfiCond172) DPL0 load(1, XDATA, add(CFA_XSP16, literal(-2)))
          CFI (cfiCond172) DPH0 load(1, XDATA, add(CFA_XSP16, literal(-1)))
          CFI (cfiCond172) CFA_SP SP+-2
          CFI (cfiCond172) CFA_XSP16 add(XSP16, 35)
          CFI Block cfiCond173 Using cfiCommon0
          CFI (cfiCond173) Function ZDApp_ProcessPendingBindReq
          CFI (cfiCond173) Conditional ??CrossCallReturnLabel_86
          CFI (cfiCond173) R6 load(1, XDATA, add(CFA_XSP16, literal(-15)))
          CFI (cfiCond173) VB load(1, XDATA, add(CFA_XSP16, literal(-14)))
          CFI (cfiCond173) V0 load(1, XDATA, add(CFA_XSP16, literal(-13)))
          CFI (cfiCond173) V1 load(1, XDATA, add(CFA_XSP16, literal(-12)))
          CFI (cfiCond173) V2 load(1, XDATA, add(CFA_XSP16, literal(-11)))
          CFI (cfiCond173) V3 load(1, XDATA, add(CFA_XSP16, literal(-10)))
          CFI (cfiCond173) V4 load(1, XDATA, add(CFA_XSP16, literal(-9)))
          CFI (cfiCond173) V5 load(1, XDATA, add(CFA_XSP16, literal(-8)))
          CFI (cfiCond173) V6 load(1, XDATA, add(CFA_XSP16, literal(-7)))
          CFI (cfiCond173) R7 load(1, XDATA, add(CFA_XSP16, literal(-6)))
          CFI (cfiCond173) ?RET_LOW load(1, XDATA, add(CFA_XSP16, literal(-5)))
          CFI (cfiCond173) ?RET_HIGH load(1, XDATA, add(CFA_XSP16, literal(-4)))
          CFI (cfiCond173) ?BRET_EXT load(1, XDATA, add(CFA_XSP16, literal(-3)))
          CFI (cfiCond173) DPL0 load(1, XDATA, add(CFA_XSP16, literal(-2)))
          CFI (cfiCond173) DPH0 load(1, XDATA, add(CFA_XSP16, literal(-1)))
          CFI (cfiCond173) CFA_SP SP+-2
          CFI (cfiCond173) CFA_XSP16 add(XSP16, 17)
          CFI Block cfiPicker174 Using cfiCommon1
          CFI (cfiPicker174) NoFunction
          CFI (cfiPicker174) Picker
        MOVX    A,@DPTR
        MOV     R2,A
        INC     DPTR
        MOVX    A,@DPTR
        MOV     R3,A
        RET
          CFI EndBlock cfiCond167
          CFI EndBlock cfiCond168
          CFI EndBlock cfiCond169
          CFI EndBlock cfiCond170
          CFI EndBlock cfiCond171
          CFI EndBlock cfiCond172
          CFI EndBlock cfiCond173
          CFI EndBlock cfiPicker174
// 3072 
// 3073 /*********************************************************************
// 3074  * @fn          ZDO_SyncIndicationCB
// 3075  *
// 3076  * @brief       This function allows the next higher layer of a
// 3077  *              coordinator to be notified of a loss of synchronization
// 3078  *                          with the parent/child device.
// 3079  *
// 3080  * @param       type: 0 - child; 1 - parent
// 3081  *
// 3082  *
// 3083  * @return      none
// 3084  */

        RSEG BANKED_CODE:CODE:NOROOT(0)
// 3085 void ZDO_SyncIndicationCB( uint8 type, uint16 shortAddr )
ZDO_SyncIndicationCB:
          CFI Block cfiBlock175 Using cfiCommon0
          CFI Function ZDO_SyncIndicationCB
        CODE
// 3086 {
        FUNCALL ZDO_SyncIndicationCB, nwkNeighborInitTable
        LOCFRAME ISTACK, 0, STACK
        LOCFRAME PSTACK, 0, STACK
        LOCFRAME XSTACK, 12, STACK
        LOCFRAME IOVERLAY, 0, STATIC
        LOCFRAME DOVERLAY, 0, STATIC
        ARGFRAME ISTACK, 0, STACK
        ARGFRAME PSTACK, 0, STACK
        ARGFRAME XSTACK, 12, STACK
        ARGFRAME IOVERLAY, 0, STATIC
        ARGFRAME DOVERLAY, 0, STATIC
        FUNCALL ZDO_SyncIndicationCB, ZDApp_SendMsg
        LOCFRAME ISTACK, 0, STACK
        LOCFRAME PSTACK, 0, STACK
        LOCFRAME XSTACK, 12, STACK
        LOCFRAME IOVERLAY, 0, STATIC
        LOCFRAME DOVERLAY, 0, STATIC
        ARGFRAME ISTACK, 0, STACK
        ARGFRAME PSTACK, 0, STACK
        ARGFRAME XSTACK, 12, STACK
        ARGFRAME IOVERLAY, 0, STATIC
        ARGFRAME DOVERLAY, 0, STATIC
        REQUIRE ?V0
        REQUIRE ?V1
        REQUIRE ?V2
        REQUIRE ?V3
        MOV     A,#-0xc
        LCALL   ?BANKED_ENTER_XDATA
          CFI DPH0 load(1, XDATA, add(CFA_XSP16, literal(-1)))
          CFI DPL0 load(1, XDATA, add(CFA_XSP16, literal(-2)))
          CFI ?BRET_EXT load(1, XDATA, add(CFA_XSP16, literal(-3)))
          CFI ?RET_HIGH load(1, XDATA, add(CFA_XSP16, literal(-4)))
          CFI ?RET_LOW load(1, XDATA, add(CFA_XSP16, literal(-5)))
          CFI R7 load(1, XDATA, add(CFA_XSP16, literal(-6)))
          CFI V3 load(1, XDATA, add(CFA_XSP16, literal(-7)))
          CFI V2 load(1, XDATA, add(CFA_XSP16, literal(-8)))
          CFI V1 load(1, XDATA, add(CFA_XSP16, literal(-9)))
          CFI V0 load(1, XDATA, add(CFA_XSP16, literal(-10)))
          CFI VB load(1, XDATA, add(CFA_XSP16, literal(-11)))
          CFI R6 load(1, XDATA, add(CFA_XSP16, literal(-12)))
          CFI CFA_SP SP+0
          CFI CFA_XSP16 add(XSP16, 12)
        ; Saved register size: 12
        ; Auto size: 0
        MOV     A,R1
        MOV     R6,A
// 3087   (void)shortAddr;  // Remove this line if this parameter is used.
// 3088 
// 3089   if ( ZSTACK_END_DEVICE_BUILD
// 3090     || (ZSTACK_ROUTER_BUILD && BUILD_FLEXABLE && ((_NIB.CapabilityFlags & ZMAC_ASSOC_CAPINFO_FFD_TYPE) == 0)))
// 3091   {
// 3092     if ( type == 1 && retryCnt == 0 )
        MOV     A,#0x1
        XRL     A,R6
        JNZ     ??ZDO_SyncIndicationCB_0
        MOV     DPTR,#retryCnt
        MOVX    A,@DPTR
        JNZ     ??ZDO_SyncIndicationCB_0
// 3093     {
// 3094       // We lost contact with our parent.  Clear the neighbor Table.
// 3095       nwkNeighborInitTable();
        ; Setup parameters for call to function nwkNeighborInitTable
        LCALL   ??nwkNeighborInitTable?relay; Banked call to: nwkNeighborInitTable
// 3096 
// 3097       runtimeChannel = (uint32) (1L << _NIB.nwkLogicalChannel);
        MOV     ?V0,#0x1
        MOV     ?V1,#0x0
        MOV     ?V2,#0x0
        MOV     ?V3,#0x0
        MOV     DPTR,#_NIB + 22
        MOVX    A,@DPTR
        MOV     R0,#?V0
        LCALL   ?L_SHL
        MOV     DPTR,#runtimeChannel
        MOV     R0,#?V0
        LCALL   ?L_MOV_TO_X
// 3098 
// 3099       // Start the rejoin process.
// 3100       ZDApp_SendMsg( ZDAppTaskID, ZDO_NWK_JOIN_REQ, sizeof(osal_event_hdr_t), NULL );
        ; Setup parameters for call to function ZDApp_SendMsg
        MOV     R4,#0x0
        MOV     R5,#0x0
        MOV     R3,#0x2
        MOV     R2,#0x3
        MOV     DPTR,#ZDAppTaskID
        MOVX    A,@DPTR
        MOV     R1,A
        LCALL   ??ZDApp_SendMsg?relay; Banked call to: ZDApp_SendMsg
// 3101     }
// 3102   }
// 3103 }
??ZDO_SyncIndicationCB_0:
        LJMP    ??Subroutine54_0 & 0xFFFF
          CFI EndBlock cfiBlock175
// 3104 
// 3105 /*********************************************************************
// 3106  * @fn          ZDO_ManytoOneFailureIndicationCB
// 3107  *
// 3108  * @brief       This function allows the next higher layer of a
// 3109  *              concentrator to be notified of a many-to-one route
// 3110  *              failure.
// 3111  *
// 3112  * @param       none
// 3113  *
// 3114  *
// 3115  * @return      none
// 3116  */

        RSEG BANKED_CODE:CODE:NOROOT(0)
// 3117 void ZDO_ManytoOneFailureIndicationCB()
ZDO_ManytoOneFailureIndicationCB:
          CFI Block cfiBlock176 Using cfiCommon0
          CFI Function ZDO_ManytoOneFailureIndicationCB
        CODE
// 3118 {
        FUNCALL ZDO_ManytoOneFailureIndicationCB, RTG_MTORouteReq
        LOCFRAME ISTACK, 2, STACK
        LOCFRAME PSTACK, 0, STACK
        LOCFRAME XSTACK, 0, STACK
        LOCFRAME IOVERLAY, 0, STATIC
        LOCFRAME DOVERLAY, 0, STATIC
        ARGFRAME ISTACK, 2, STACK
        ARGFRAME PSTACK, 0, STACK
        ARGFRAME XSTACK, 0, STACK
        ARGFRAME IOVERLAY, 0, STATIC
        ARGFRAME DOVERLAY, 0, STATIC
        PUSH    DPL
          CFI DPL0 Frame(CFA_SP, 4)
          CFI CFA_SP SP+-4
        PUSH    DPH
          CFI DPH0 Frame(CFA_SP, 5)
          CFI CFA_SP SP+-5
        ; Saved register size: 2
        ; Auto size: 0
// 3119   // By default, the concentrator automatically redo many-to-one route
// 3120   // discovery to update all many-to-one routes in the network
// 3121   // If you want anything processing other than the default,
// 3122   // please replace the following code.
// 3123 
// 3124   RTG_MTORouteReq();
        ; Setup parameters for call to function RTG_MTORouteReq
        LCALL   ??RTG_MTORouteReq?relay; Banked call to: RTG_MTORouteReq
// 3125 }
        LJMP    ??Subroutine40_0 & 0xFFFF
          CFI EndBlock cfiBlock176
// 3126 
// 3127 /*********************************************************************
// 3128  * @fn          ZDO_PollConfirmCB
// 3129  *
// 3130  * @brief       This function allows the next higher layer to be
// 3131  *              notified of a Poll Confirm.
// 3132  *
// 3133  * @param       none
// 3134  *
// 3135  * @return      none
// 3136  */

        RSEG BANKED_CODE:CODE:NOROOT(0)
// 3137 void ZDO_PollConfirmCB( uint8 status )
ZDO_PollConfirmCB:
          CFI Block cfiBlock177 Using cfiCommon0
          CFI Function ZDO_PollConfirmCB
        CODE
// 3138 {
        ; Saved register size: 0
        ; Auto size: 0
// 3139   (void)status;  // Remove this line if this parameter is used.
// 3140   return;
        LJMP    ?BRET
          CFI EndBlock cfiBlock177
// 3141 }
// 3142 
// 3143 /*********************************************************************
// 3144  * @fn          ZDO_NetworkStatusCB
// 3145  *
// 3146  * @brief       Network Status Callback function
// 3147  *
// 3148  * @param       nwkDstAddr - message's destination address- used to determine
// 3149  *                           if the message was intended for this device or
// 3150  *                           a sleeping end device.
// 3151  * @param       statusCode - message's status code (ie. NWKSTAT_NONTREE_LINK_FAILURE)
// 3152  * @param       dstAddr - the destination address related to the status code
// 3153  *
// 3154  * @return      none
// 3155  */

        RSEG BANKED_CODE:CODE:NOROOT(0)
// 3156 void ZDO_NetworkStatusCB( uint16 nwkDstAddr, uint8 statusCode, uint16 dstAddr )
ZDO_NetworkStatusCB:
          CFI Block cfiBlock178 Using cfiCommon0
          CFI Function ZDO_NetworkStatusCB
        CODE
// 3157 {
        FUNCALL ZDO_NetworkStatusCB, NLME_GetShortAddr
        LOCFRAME ISTACK, 2, STACK
        LOCFRAME PSTACK, 0, STACK
        LOCFRAME XSTACK, 0, STACK
        LOCFRAME IOVERLAY, 0, STATIC
        LOCFRAME DOVERLAY, 0, STATIC
        ARGFRAME ISTACK, 2, STACK
        ARGFRAME PSTACK, 0, STACK
        ARGFRAME XSTACK, 0, STACK
        ARGFRAME IOVERLAY, 0, STATIC
        ARGFRAME DOVERLAY, 0, STATIC
        PUSH    DPL
          CFI DPL0 Frame(CFA_SP, 4)
          CFI CFA_SP SP+-4
        PUSH    DPH
          CFI DPH0 Frame(CFA_SP, 5)
          CFI CFA_SP SP+-5
        ; Saved register size: 2
        ; Auto size: 0
// 3158   (void)dstAddr;     // Remove this line if this parameter is used.
// 3159 
// 3160   if ( (nwkDstAddr == NLME_GetShortAddr())
// 3161       && (statusCode == NWKSTAT_NONTREE_LINK_FAILURE) )
        ; Setup parameters for call to function NLME_GetShortAddr
        LCALL   ??NLME_GetShortAddr?relay; Banked call to: NLME_GetShortAddr
// 3162   {
// 3163     // Routing error for dstAddr, this is informational and a Route
// 3164     // Request should happen automatically.
// 3165   }
// 3166 }
        LJMP    ??Subroutine40_0 & 0xFFFF
          CFI EndBlock cfiBlock178
// 3167 
// 3168 /******************************************************************************
// 3169  * @fn          ZDApp_NwkWriteNVRequest (stubs AddrMgrWriteNVRequest)
// 3170  *
// 3171  * @brief       Stub routine implemented by NHLE. NHLE should call
// 3172  *              <AddrMgrWriteNV> when appropriate.
// 3173  *
// 3174  * @param       none
// 3175  *
// 3176  * @return      none
// 3177  */

        RSEG BANKED_CODE:CODE:NOROOT(0)
// 3178 void ZDApp_NwkWriteNVRequest( void )
AddrMgrWriteNVRequest:
          CFI Block cfiBlock179 Using cfiCommon0
          CFI Function AddrMgrWriteNVRequest
        CODE
// 3179 {
        FUNCALL AddrMgrWriteNVRequest, osal_get_timeoutEx
        LOCFRAME ISTACK, 2, STACK
        LOCFRAME PSTACK, 0, STACK
        LOCFRAME XSTACK, 0, STACK
        LOCFRAME IOVERLAY, 0, STATIC
        LOCFRAME DOVERLAY, 0, STATIC
        ARGFRAME ISTACK, 2, STACK
        ARGFRAME PSTACK, 0, STACK
        ARGFRAME XSTACK, 0, STACK
        ARGFRAME IOVERLAY, 0, STATIC
        ARGFRAME DOVERLAY, 0, STATIC
        FUNCALL AddrMgrWriteNVRequest, ZDApp_NVUpdate
        LOCFRAME ISTACK, 2, STACK
        LOCFRAME PSTACK, 0, STACK
        LOCFRAME XSTACK, 0, STACK
        LOCFRAME IOVERLAY, 0, STATIC
        LOCFRAME DOVERLAY, 0, STATIC
        ARGFRAME ISTACK, 2, STACK
        ARGFRAME PSTACK, 0, STACK
        ARGFRAME XSTACK, 0, STACK
        ARGFRAME IOVERLAY, 0, STATIC
        ARGFRAME DOVERLAY, 0, STATIC
        PUSH    DPL
          CFI DPL0 Frame(CFA_SP, 4)
          CFI CFA_SP SP+-4
        PUSH    DPH
          CFI DPH0 Frame(CFA_SP, 5)
          CFI CFA_SP SP+-5
        ; Saved register size: 2
        ; Auto size: 0
// 3180 #if defined ( NV_RESTORE )
// 3181   if ( !osal_get_timeoutEx( ZDAppTaskID, ZDO_NWK_UPDATE_NV ) )
        ; Setup parameters for call to function osal_get_timeoutEx
        MOV     R2,#0x0
        MOV     R3,#0x1
        MOV     DPTR,#ZDAppTaskID
        MOVX    A,@DPTR
        MOV     R1,A
        LCALL   ??osal_get_timeoutEx?relay; Banked call to: osal_get_timeoutEx
        MOV     A,R2
        ORL     A,R3
        ORL     A,R4
        ORL     A,R5
        JNZ     ??AddrMgrWriteNVRequest_0
// 3182   {
// 3183     // Trigger to save info into NV
// 3184     ZDApp_NVUpdate();
        ; Setup parameters for call to function ZDApp_NVUpdate
        LCALL   ??ZDApp_NVUpdate?relay; Banked call to: ZDApp_NVUpdate
// 3185   }
// 3186 #endif
// 3187 }
??AddrMgrWriteNVRequest_0:
        LJMP    ??Subroutine40_0 & 0xFFFF
          CFI EndBlock cfiBlock179
// 3188 
// 3189 /*********************************************************************
// 3190  * Call Back Functions from Security  - API
// 3191  */
// 3192 
// 3193  /*********************************************************************
// 3194  * @fn          ZDO_UpdateDeviceIndication
// 3195  *
// 3196  * @brief       This function notifies the "Trust Center" of a
// 3197  *              network when a device joins or leaves the network.
// 3198  *
// 3199  * @param       extAddr - pointer to 64 bit address of new device
// 3200  * @param       status  - 0 if a new device joined securely
// 3201  *                      - 1 if a new device joined un-securely
// 3202  *                      - 2 if a device left the network
// 3203  *
// 3204  * @return      true if newly joined device should be allowed to
// 3205  *                                              remain on network
// 3206  */

        RSEG BANKED_CODE:CODE:NOROOT(0)
// 3207 ZStatus_t ZDO_UpdateDeviceIndication( uint8 *extAddr, uint8 status )
ZDO_UpdateDeviceIndication:
          CFI Block cfiBlock180 Using cfiCommon0
          CFI Function ZDO_UpdateDeviceIndication
        CODE
// 3208 {
        ; Saved register size: 0
        ; Auto size: 0
// 3209   // can implement a network access policy based on the
// 3210   // IEEE address of newly joining devices...
// 3211   (void)extAddr;
// 3212   (void)status;
// 3213 
// 3214   return ZSuccess;
        MOV     R1,#0x0
        LJMP    ?BRET
          CFI EndBlock cfiBlock180
// 3215 }
// 3216 
// 3217 /*********************************************************************
// 3218  * @fn          ZDApp_InMsgCB
// 3219  *
// 3220  * @brief       This function is called to pass up any message that is
// 3221  *              not yet supported.  This allows for the developer to
// 3222  *              support features themselves..
// 3223  *
// 3224  * @return      none
// 3225  */

        RSEG BANKED_CODE:CODE:NOROOT(0)
// 3226 void ZDApp_InMsgCB( zdoIncomingMsg_t *inMsg )
ZDApp_InMsgCB:
          CFI Block cfiBlock181 Using cfiCommon0
          CFI Function ZDApp_InMsgCB
        CODE
// 3227 {
        FUNCALL ZDApp_InMsgCB, ZDP_GenericRsp
        LOCFRAME ISTACK, 0, STACK
        LOCFRAME PSTACK, 0, STACK
        LOCFRAME XSTACK, 14, STACK
        LOCFRAME IOVERLAY, 0, STATIC
        LOCFRAME DOVERLAY, 0, STATIC
        ARGFRAME ISTACK, 0, STACK
        ARGFRAME PSTACK, 0, STACK
        ARGFRAME XSTACK, 14, STACK
        ARGFRAME IOVERLAY, 0, STATIC
        ARGFRAME DOVERLAY, 0, STATIC
        REQUIRE ?V0
        REQUIRE ?V1
        MOV     A,#-0xa
        LCALL   ?BANKED_ENTER_XDATA
          CFI DPH0 load(1, XDATA, add(CFA_XSP16, literal(-1)))
          CFI DPL0 load(1, XDATA, add(CFA_XSP16, literal(-2)))
          CFI ?BRET_EXT load(1, XDATA, add(CFA_XSP16, literal(-3)))
          CFI ?RET_HIGH load(1, XDATA, add(CFA_XSP16, literal(-4)))
          CFI ?RET_LOW load(1, XDATA, add(CFA_XSP16, literal(-5)))
          CFI R7 load(1, XDATA, add(CFA_XSP16, literal(-6)))
          CFI V1 load(1, XDATA, add(CFA_XSP16, literal(-7)))
          CFI V0 load(1, XDATA, add(CFA_XSP16, literal(-8)))
          CFI VB load(1, XDATA, add(CFA_XSP16, literal(-9)))
          CFI R6 load(1, XDATA, add(CFA_XSP16, literal(-10)))
          CFI CFA_SP SP+0
          CFI CFA_XSP16 add(XSP16, 10)
        ; Saved register size: 10
        ; Auto size: 0
        MOV     A,R2
        MOV     R6,A
        MOV     A,R3
        MOV     R7,A
// 3228   if ( inMsg->clusterID & ZDO_RESPONSE_BIT )
        MOV     A,R6
        ADD     A,#0xc
        MOV     DPL,A
        CLR     A
        ADDC    A,R7
        MOV     DPH,A
        LCALL   ??Subroutine49_0 & 0xFFFF
??CrossCallReturnLabel_92:
        ANL     A,#0x80
        JNZ     ??ZDApp_InMsgCB_0
// 3229   {
// 3230     // Handle the response message
// 3231   }
// 3232   else
// 3233   {
// 3234     // Handle the request message by sending a generic "not supported".
// 3235     // Device Announce doesn't have a response.
// 3236     if ( !(inMsg->wasBroadcast) && inMsg->clusterID != Device_annce )
        LCALL   ?Subroutine38 & 0xFFFF
??CrossCallReturnLabel_44:
        JNZ     ??ZDApp_InMsgCB_0
        MOV     A,#0x13
        XRL     A,R0
        JNZ     ??ZDApp_InMsgCB_1
        MOV     A,R1
??ZDApp_InMsgCB_1:
        JZ      ??ZDApp_InMsgCB_0
// 3237     {
// 3238       ZDP_GenericRsp( inMsg->TransSeq, &(inMsg->srcAddr), ZDP_NOT_SUPPORTED, 0,
// 3239                       (uint16)(inMsg->clusterID | ZDO_RESPONSE_BIT), inMsg->SecurityUse );
        ; Setup parameters for call to function ZDP_GenericRsp
        MOV     A,R0
        MOV     ?V0,A
        MOV     A,R1
        ORL     A,#0x80
        MOV     ?V1,A
        MOV     R0,#?V0
        LCALL   ?PUSH_XSTACK_I_TWO
          CFI CFA_XSP16 add(XSP16, 12)
        CLR     A
        MOV     ?V0,A
        MOV     ?V1,A
        MOV     R0,#?V0
        LCALL   ?PUSH_XSTACK_I_TWO
          CFI CFA_XSP16 add(XSP16, 14)
        LCALL   ?Subroutine32 & 0xFFFF
// 3240     }
// 3241   }
??CrossCallReturnLabel_36:
        MOVX    A,@DPTR
        MOV     R5,A
        MOV     R4,#-0x7c
        LCALL   ?Subroutine30 & 0xFFFF
??CrossCallReturnLabel_32:
        LCALL   ?Subroutine31 & 0xFFFF
??CrossCallReturnLabel_34:
        MOVX    A,@DPTR
        MOV     R1,A
        LCALL   ??ZDP_GenericRsp?relay; Banked call to: ZDP_GenericRsp
        MOV     A,#0x4
        LCALL   ?DEALLOC_XSTACK8
          CFI CFA_XSP16 add(XSP16, 10)
// 3242 }
??ZDApp_InMsgCB_0:
        LJMP    ??Subroutine51_0 & 0xFFFF
          CFI EndBlock cfiBlock181

        RSEG BANKED_CODE:CODE:NOROOT(0)
?Subroutine38:
          CFI Block cfiCond182 Using cfiCommon0
          CFI Function ZDO_LeaveCnf
          CFI Conditional ??CrossCallReturnLabel_45, ??CrossCallReturnLabel_28
          CFI R6 load(1, XDATA, add(CFA_XSP16, literal(-10)))
          CFI VB load(1, XDATA, add(CFA_XSP16, literal(-9)))
          CFI V0 load(1, XDATA, add(CFA_XSP16, literal(-8)))
          CFI V1 load(1, XDATA, add(CFA_XSP16, literal(-7)))
          CFI R7 load(1, XDATA, add(CFA_XSP16, literal(-6)))
          CFI ?RET_LOW load(1, XDATA, add(CFA_XSP16, literal(-5)))
          CFI ?RET_HIGH load(1, XDATA, add(CFA_XSP16, literal(-4)))
          CFI ?BRET_EXT load(1, XDATA, add(CFA_XSP16, literal(-3)))
          CFI DPL0 load(1, XDATA, add(CFA_XSP16, literal(-2)))
          CFI DPH0 load(1, XDATA, add(CFA_XSP16, literal(-1)))
          CFI CFA_SP SP+-4
          CFI CFA_XSP16 add(XSP16, 10)
          CFI Block cfiCond183 Using cfiCommon0
          CFI (cfiCond183) Function ZDO_LeaveInd
          CFI (cfiCond183) Conditional ??CrossCallReturnLabel_45, ??CrossCallReturnLabel_29
          CFI (cfiCond183) R6 load(1, XDATA, add(CFA_XSP16, literal(-12)))
          CFI (cfiCond183) VB load(1, XDATA, add(CFA_XSP16, literal(-11)))
          CFI (cfiCond183) V0 load(1, XDATA, add(CFA_XSP16, literal(-10)))
          CFI (cfiCond183) V1 load(1, XDATA, add(CFA_XSP16, literal(-9)))
          CFI (cfiCond183) V2 load(1, XDATA, add(CFA_XSP16, literal(-8)))
          CFI (cfiCond183) V3 load(1, XDATA, add(CFA_XSP16, literal(-7)))
          CFI (cfiCond183) R7 load(1, XDATA, add(CFA_XSP16, literal(-6)))
          CFI (cfiCond183) ?RET_LOW load(1, XDATA, add(CFA_XSP16, literal(-5)))
          CFI (cfiCond183) ?RET_HIGH load(1, XDATA, add(CFA_XSP16, literal(-4)))
          CFI (cfiCond183) ?BRET_EXT load(1, XDATA, add(CFA_XSP16, literal(-3)))
          CFI (cfiCond183) DPL0 load(1, XDATA, add(CFA_XSP16, literal(-2)))
          CFI (cfiCond183) DPH0 load(1, XDATA, add(CFA_XSP16, literal(-1)))
          CFI (cfiCond183) CFA_SP SP+-4
          CFI (cfiCond183) CFA_XSP16 add(XSP16, 14)
          CFI Block cfiCond184 Using cfiCommon0
          CFI (cfiCond184) Function ZDApp_InMsgCB
          CFI (cfiCond184) Conditional ??CrossCallReturnLabel_44
          CFI (cfiCond184) R6 load(1, XDATA, add(CFA_XSP16, literal(-10)))
          CFI (cfiCond184) VB load(1, XDATA, add(CFA_XSP16, literal(-9)))
          CFI (cfiCond184) V0 load(1, XDATA, add(CFA_XSP16, literal(-8)))
          CFI (cfiCond184) V1 load(1, XDATA, add(CFA_XSP16, literal(-7)))
          CFI (cfiCond184) R7 load(1, XDATA, add(CFA_XSP16, literal(-6)))
          CFI (cfiCond184) ?RET_LOW load(1, XDATA, add(CFA_XSP16, literal(-5)))
          CFI (cfiCond184) ?RET_HIGH load(1, XDATA, add(CFA_XSP16, literal(-4)))
          CFI (cfiCond184) ?BRET_EXT load(1, XDATA, add(CFA_XSP16, literal(-3)))
          CFI (cfiCond184) DPL0 load(1, XDATA, add(CFA_XSP16, literal(-2)))
          CFI (cfiCond184) DPH0 load(1, XDATA, add(CFA_XSP16, literal(-1)))
          CFI (cfiCond184) CFA_SP SP+-2
          CFI (cfiCond184) CFA_XSP16 add(XSP16, 10)
          CFI Block cfiPicker185 Using cfiCommon1
          CFI (cfiPicker185) NoFunction
          CFI (cfiPicker185) Picker
        MOV     A,R6
        ADD     A,#0xb
        MOV     DPL,A
        CLR     A
        ADDC    A,R7
        MOV     DPH,A
        MOVX    A,@DPTR
        RET
          CFI EndBlock cfiCond182
          CFI EndBlock cfiCond183
          CFI EndBlock cfiCond184
          CFI EndBlock cfiPicker185

        RSEG BANKED_CODE:CODE:NOROOT(0)
?Subroutine32:
          CFI Block cfiCond186 Using cfiCommon0
          CFI Function ZDO_JoinConfirmCB
          CFI Conditional ??CrossCallReturnLabel_35
          CFI R6 load(1, XDATA, add(CFA_XSP16, literal(-12)))
          CFI VB load(1, XDATA, add(CFA_XSP16, literal(-11)))
          CFI V0 load(1, XDATA, add(CFA_XSP16, literal(-10)))
          CFI V1 load(1, XDATA, add(CFA_XSP16, literal(-9)))
          CFI V2 load(1, XDATA, add(CFA_XSP16, literal(-8)))
          CFI V3 load(1, XDATA, add(CFA_XSP16, literal(-7)))
          CFI R7 load(1, XDATA, add(CFA_XSP16, literal(-6)))
          CFI ?RET_LOW load(1, XDATA, add(CFA_XSP16, literal(-5)))
          CFI ?RET_HIGH load(1, XDATA, add(CFA_XSP16, literal(-4)))
          CFI ?BRET_EXT load(1, XDATA, add(CFA_XSP16, literal(-3)))
          CFI DPL0 load(1, XDATA, add(CFA_XSP16, literal(-2)))
          CFI DPH0 load(1, XDATA, add(CFA_XSP16, literal(-1)))
          CFI CFA_SP SP+-2
          CFI CFA_XSP16 add(XSP16, 17)
          CFI Block cfiCond187 Using cfiCommon0
          CFI (cfiCond187) Function ZDApp_InMsgCB
          CFI (cfiCond187) Conditional ??CrossCallReturnLabel_36
          CFI (cfiCond187) R6 load(1, XDATA, add(CFA_XSP16, literal(-10)))
          CFI (cfiCond187) VB load(1, XDATA, add(CFA_XSP16, literal(-9)))
          CFI (cfiCond187) V0 load(1, XDATA, add(CFA_XSP16, literal(-8)))
          CFI (cfiCond187) V1 load(1, XDATA, add(CFA_XSP16, literal(-7)))
          CFI (cfiCond187) R7 load(1, XDATA, add(CFA_XSP16, literal(-6)))
          CFI (cfiCond187) ?RET_LOW load(1, XDATA, add(CFA_XSP16, literal(-5)))
          CFI (cfiCond187) ?RET_HIGH load(1, XDATA, add(CFA_XSP16, literal(-4)))
          CFI (cfiCond187) ?BRET_EXT load(1, XDATA, add(CFA_XSP16, literal(-3)))
          CFI (cfiCond187) DPL0 load(1, XDATA, add(CFA_XSP16, literal(-2)))
          CFI (cfiCond187) DPH0 load(1, XDATA, add(CFA_XSP16, literal(-1)))
          CFI (cfiCond187) CFA_SP SP+-2
          CFI (cfiCond187) CFA_XSP16 add(XSP16, 14)
          CFI Block cfiPicker188 Using cfiCommon1
          CFI (cfiPicker188) NoFunction
          CFI (cfiPicker188) Picker
        MOV     A,R6
        ADD     A,#0xe
        MOV     DPL,A
        CLR     A
        ADDC    A,R7
        MOV     DPH,A
        RET
          CFI EndBlock cfiCond186
          CFI EndBlock cfiCond187
          CFI EndBlock cfiPicker188

        RSEG BANKED_CODE:CODE:NOROOT(0)
?Subroutine31:
          CFI Block cfiCond189 Using cfiCommon0
          CFI Function ZDO_JoinConfirmCB
          CFI Conditional ??CrossCallReturnLabel_33
          CFI R6 load(1, XDATA, add(CFA_XSP16, literal(-12)))
          CFI VB load(1, XDATA, add(CFA_XSP16, literal(-11)))
          CFI V0 load(1, XDATA, add(CFA_XSP16, literal(-10)))
          CFI V1 load(1, XDATA, add(CFA_XSP16, literal(-9)))
          CFI V2 load(1, XDATA, add(CFA_XSP16, literal(-8)))
          CFI V3 load(1, XDATA, add(CFA_XSP16, literal(-7)))
          CFI R7 load(1, XDATA, add(CFA_XSP16, literal(-6)))
          CFI ?RET_LOW load(1, XDATA, add(CFA_XSP16, literal(-5)))
          CFI ?RET_HIGH load(1, XDATA, add(CFA_XSP16, literal(-4)))
          CFI ?BRET_EXT load(1, XDATA, add(CFA_XSP16, literal(-3)))
          CFI DPL0 load(1, XDATA, add(CFA_XSP16, literal(-2)))
          CFI DPH0 load(1, XDATA, add(CFA_XSP16, literal(-1)))
          CFI CFA_SP SP+-2
          CFI CFA_XSP16 add(XSP16, 17)
          CFI Block cfiCond190 Using cfiCommon0
          CFI (cfiCond190) Function ZDApp_InMsgCB
          CFI (cfiCond190) Conditional ??CrossCallReturnLabel_34
          CFI (cfiCond190) R6 load(1, XDATA, add(CFA_XSP16, literal(-10)))
          CFI (cfiCond190) VB load(1, XDATA, add(CFA_XSP16, literal(-9)))
          CFI (cfiCond190) V0 load(1, XDATA, add(CFA_XSP16, literal(-8)))
          CFI (cfiCond190) V1 load(1, XDATA, add(CFA_XSP16, literal(-7)))
          CFI (cfiCond190) R7 load(1, XDATA, add(CFA_XSP16, literal(-6)))
          CFI (cfiCond190) ?RET_LOW load(1, XDATA, add(CFA_XSP16, literal(-5)))
          CFI (cfiCond190) ?RET_HIGH load(1, XDATA, add(CFA_XSP16, literal(-4)))
          CFI (cfiCond190) ?BRET_EXT load(1, XDATA, add(CFA_XSP16, literal(-3)))
          CFI (cfiCond190) DPL0 load(1, XDATA, add(CFA_XSP16, literal(-2)))
          CFI (cfiCond190) DPH0 load(1, XDATA, add(CFA_XSP16, literal(-1)))
          CFI (cfiCond190) CFA_SP SP+-2
          CFI (cfiCond190) CFA_XSP16 add(XSP16, 14)
          CFI Block cfiPicker191 Using cfiCommon1
          CFI (cfiPicker191) NoFunction
          CFI (cfiPicker191) Picker
        MOV     A,R6
        ADD     A,#0xf
        MOV     DPL,A
        CLR     A
        ADDC    A,R7
        MOV     DPH,A
        RET
          CFI EndBlock cfiCond189
          CFI EndBlock cfiCond190
          CFI EndBlock cfiPicker191

        RSEG BANKED_CODE:CODE:NOROOT(0)
?Subroutine23:
          CFI Block cfiCond192 Using cfiCommon0
          CFI Function ZDApp_NwkDescListProcessing
          CFI Conditional ??CrossCallReturnLabel_93
          CFI R6 load(1, XDATA, add(CFA_XSP16, literal(-14)))
          CFI VB load(1, XDATA, add(CFA_XSP16, literal(-13)))
          CFI V0 load(1, XDATA, add(CFA_XSP16, literal(-12)))
          CFI V1 load(1, XDATA, add(CFA_XSP16, literal(-11)))
          CFI V2 load(1, XDATA, add(CFA_XSP16, literal(-10)))
          CFI V3 load(1, XDATA, add(CFA_XSP16, literal(-9)))
          CFI V4 load(1, XDATA, add(CFA_XSP16, literal(-8)))
          CFI V5 load(1, XDATA, add(CFA_XSP16, literal(-7)))
          CFI R7 load(1, XDATA, add(CFA_XSP16, literal(-6)))
          CFI ?RET_LOW load(1, XDATA, add(CFA_XSP16, literal(-5)))
          CFI ?RET_HIGH load(1, XDATA, add(CFA_XSP16, literal(-4)))
          CFI ?BRET_EXT load(1, XDATA, add(CFA_XSP16, literal(-3)))
          CFI DPL0 load(1, XDATA, add(CFA_XSP16, literal(-2)))
          CFI DPH0 load(1, XDATA, add(CFA_XSP16, literal(-1)))
          CFI CFA_SP SP+-2
          CFI CFA_XSP16 add(XSP16, 14)
          CFI Block cfiCond193 Using cfiCommon0
          CFI (cfiCond193) Function ZDO_beaconNotifyIndCB
          CFI (cfiCond193) Conditional ??CrossCallReturnLabel_94
          CFI (cfiCond193) R6 load(1, XDATA, add(CFA_XSP16, literal(-18)))
          CFI (cfiCond193) VB load(1, XDATA, add(CFA_XSP16, literal(-17)))
          CFI (cfiCond193) V0 load(1, XDATA, add(CFA_XSP16, literal(-16)))
          CFI (cfiCond193) V1 load(1, XDATA, add(CFA_XSP16, literal(-15)))
          CFI (cfiCond193) V2 load(1, XDATA, add(CFA_XSP16, literal(-14)))
          CFI (cfiCond193) V3 load(1, XDATA, add(CFA_XSP16, literal(-13)))
          CFI (cfiCond193) V4 load(1, XDATA, add(CFA_XSP16, literal(-12)))
          CFI (cfiCond193) V5 load(1, XDATA, add(CFA_XSP16, literal(-11)))
          CFI (cfiCond193) V6 load(1, XDATA, add(CFA_XSP16, literal(-10)))
          CFI (cfiCond193) V7 load(1, XDATA, add(CFA_XSP16, literal(-9)))
          CFI (cfiCond193) V8 load(1, XDATA, add(CFA_XSP16, literal(-8)))
          CFI (cfiCond193) V9 load(1, XDATA, add(CFA_XSP16, literal(-7)))
          CFI (cfiCond193) R7 load(1, XDATA, add(CFA_XSP16, literal(-6)))
          CFI (cfiCond193) ?RET_LOW load(1, XDATA, add(CFA_XSP16, literal(-5)))
          CFI (cfiCond193) ?RET_HIGH load(1, XDATA, add(CFA_XSP16, literal(-4)))
          CFI (cfiCond193) ?BRET_EXT load(1, XDATA, add(CFA_XSP16, literal(-3)))
          CFI (cfiCond193) DPL0 load(1, XDATA, add(CFA_XSP16, literal(-2)))
          CFI (cfiCond193) DPH0 load(1, XDATA, add(CFA_XSP16, literal(-1)))
          CFI (cfiCond193) CFA_SP SP+-2
          CFI (cfiCond193) CFA_XSP16 add(XSP16, 18)
          CFI Block cfiPicker194 Using cfiCommon1
          CFI (cfiPicker194) NoFunction
          CFI (cfiPicker194) Picker
        MOV     DPL,R6
        MOV     DPH,R7
          CFI EndBlock cfiCond192
          CFI EndBlock cfiCond193
          CFI EndBlock cfiPicker194
        REQUIRE ??Subroutine49_0
        ; // Fall through to label ??Subroutine49_0

        RSEG BANKED_CODE:CODE:NOROOT(0)
??Subroutine49_0:
          CFI Block cfiCond195 Using cfiCommon0
          CFI Function ZDApp_ProcessOSALMsg
          CFI Conditional ??CrossCallReturnLabel_87
          CFI R6 load(1, XDATA, add(CFA_XSP16, literal(-12)))
          CFI VB load(1, XDATA, add(CFA_XSP16, literal(-11)))
          CFI V0 load(1, XDATA, add(CFA_XSP16, literal(-10)))
          CFI V1 load(1, XDATA, add(CFA_XSP16, literal(-9)))
          CFI V2 load(1, XDATA, add(CFA_XSP16, literal(-8)))
          CFI V3 load(1, XDATA, add(CFA_XSP16, literal(-7)))
          CFI R7 load(1, XDATA, add(CFA_XSP16, literal(-6)))
          CFI ?RET_LOW load(1, XDATA, add(CFA_XSP16, literal(-5)))
          CFI ?RET_HIGH load(1, XDATA, add(CFA_XSP16, literal(-4)))
          CFI ?BRET_EXT load(1, XDATA, add(CFA_XSP16, literal(-3)))
          CFI DPL0 load(1, XDATA, add(CFA_XSP16, literal(-2)))
          CFI DPH0 load(1, XDATA, add(CFA_XSP16, literal(-1)))
          CFI CFA_SP SP+-2
          CFI CFA_XSP16 add(XSP16, 15)
          CFI Block cfiCond196 Using cfiCommon0
          CFI (cfiCond196) Function ZDApp_ProcessOSALMsg
          CFI (cfiCond196) Conditional ??CrossCallReturnLabel_88
          CFI (cfiCond196) R6 load(1, XDATA, add(CFA_XSP16, literal(-12)))
          CFI (cfiCond196) VB load(1, XDATA, add(CFA_XSP16, literal(-11)))
          CFI (cfiCond196) V0 load(1, XDATA, add(CFA_XSP16, literal(-10)))
          CFI (cfiCond196) V1 load(1, XDATA, add(CFA_XSP16, literal(-9)))
          CFI (cfiCond196) V2 load(1, XDATA, add(CFA_XSP16, literal(-8)))
          CFI (cfiCond196) V3 load(1, XDATA, add(CFA_XSP16, literal(-7)))
          CFI (cfiCond196) R7 load(1, XDATA, add(CFA_XSP16, literal(-6)))
          CFI (cfiCond196) ?RET_LOW load(1, XDATA, add(CFA_XSP16, literal(-5)))
          CFI (cfiCond196) ?RET_HIGH load(1, XDATA, add(CFA_XSP16, literal(-4)))
          CFI (cfiCond196) ?BRET_EXT load(1, XDATA, add(CFA_XSP16, literal(-3)))
          CFI (cfiCond196) DPL0 load(1, XDATA, add(CFA_XSP16, literal(-2)))
          CFI (cfiCond196) DPH0 load(1, XDATA, add(CFA_XSP16, literal(-1)))
          CFI (cfiCond196) CFA_SP SP+-2
          CFI (cfiCond196) CFA_XSP16 add(XSP16, 15)
          CFI Block cfiCond197 Using cfiCommon0
          CFI (cfiCond197) Function ZDApp_LeaveReset
          CFI (cfiCond197) Conditional ??CrossCallReturnLabel_89
          CFI (cfiCond197) R6 load(1, XDATA, add(CFA_XSP16, literal(-10)))
          CFI (cfiCond197) VB load(1, XDATA, add(CFA_XSP16, literal(-9)))
          CFI (cfiCond197) V0 load(1, XDATA, add(CFA_XSP16, literal(-8)))
          CFI (cfiCond197) V1 load(1, XDATA, add(CFA_XSP16, literal(-7)))
          CFI (cfiCond197) R7 load(1, XDATA, add(CFA_XSP16, literal(-6)))
          CFI (cfiCond197) ?RET_LOW load(1, XDATA, add(CFA_XSP16, literal(-5)))
          CFI (cfiCond197) ?RET_HIGH load(1, XDATA, add(CFA_XSP16, literal(-4)))
          CFI (cfiCond197) ?BRET_EXT load(1, XDATA, add(CFA_XSP16, literal(-3)))
          CFI (cfiCond197) DPL0 load(1, XDATA, add(CFA_XSP16, literal(-2)))
          CFI (cfiCond197) DPH0 load(1, XDATA, add(CFA_XSP16, literal(-1)))
          CFI (cfiCond197) CFA_SP SP+-2
          CFI (cfiCond197) CFA_XSP16 add(XSP16, 10)
          CFI Block cfiCond198 Using cfiCommon0
          CFI (cfiCond198) Function ZDApp_LeaveReset
          CFI (cfiCond198) Conditional ??CrossCallReturnLabel_90
          CFI (cfiCond198) R6 load(1, XDATA, add(CFA_XSP16, literal(-10)))
          CFI (cfiCond198) VB load(1, XDATA, add(CFA_XSP16, literal(-9)))
          CFI (cfiCond198) V0 load(1, XDATA, add(CFA_XSP16, literal(-8)))
          CFI (cfiCond198) V1 load(1, XDATA, add(CFA_XSP16, literal(-7)))
          CFI (cfiCond198) R7 load(1, XDATA, add(CFA_XSP16, literal(-6)))
          CFI (cfiCond198) ?RET_LOW load(1, XDATA, add(CFA_XSP16, literal(-5)))
          CFI (cfiCond198) ?RET_HIGH load(1, XDATA, add(CFA_XSP16, literal(-4)))
          CFI (cfiCond198) ?BRET_EXT load(1, XDATA, add(CFA_XSP16, literal(-3)))
          CFI (cfiCond198) DPL0 load(1, XDATA, add(CFA_XSP16, literal(-2)))
          CFI (cfiCond198) DPH0 load(1, XDATA, add(CFA_XSP16, literal(-1)))
          CFI (cfiCond198) CFA_SP SP+-2
          CFI (cfiCond198) CFA_XSP16 add(XSP16, 10)
          CFI Block cfiCond199 Using cfiCommon0
          CFI (cfiCond199) Function ZDO_JoinConfirmCB
          CFI (cfiCond199) Conditional ??CrossCallReturnLabel_91
          CFI (cfiCond199) R6 load(1, XDATA, add(CFA_XSP16, literal(-12)))
          CFI (cfiCond199) VB load(1, XDATA, add(CFA_XSP16, literal(-11)))
          CFI (cfiCond199) V0 load(1, XDATA, add(CFA_XSP16, literal(-10)))
          CFI (cfiCond199) V1 load(1, XDATA, add(CFA_XSP16, literal(-9)))
          CFI (cfiCond199) V2 load(1, XDATA, add(CFA_XSP16, literal(-8)))
          CFI (cfiCond199) V3 load(1, XDATA, add(CFA_XSP16, literal(-7)))
          CFI (cfiCond199) R7 load(1, XDATA, add(CFA_XSP16, literal(-6)))
          CFI (cfiCond199) ?RET_LOW load(1, XDATA, add(CFA_XSP16, literal(-5)))
          CFI (cfiCond199) ?RET_HIGH load(1, XDATA, add(CFA_XSP16, literal(-4)))
          CFI (cfiCond199) ?BRET_EXT load(1, XDATA, add(CFA_XSP16, literal(-3)))
          CFI (cfiCond199) DPL0 load(1, XDATA, add(CFA_XSP16, literal(-2)))
          CFI (cfiCond199) DPH0 load(1, XDATA, add(CFA_XSP16, literal(-1)))
          CFI (cfiCond199) CFA_SP SP+-2
          CFI (cfiCond199) CFA_XSP16 add(XSP16, 17)
          CFI Block cfiCond200 Using cfiCommon0
          CFI (cfiCond200) Function ZDApp_InMsgCB
          CFI (cfiCond200) Conditional ??CrossCallReturnLabel_92
          CFI (cfiCond200) R6 load(1, XDATA, add(CFA_XSP16, literal(-10)))
          CFI (cfiCond200) VB load(1, XDATA, add(CFA_XSP16, literal(-9)))
          CFI (cfiCond200) V0 load(1, XDATA, add(CFA_XSP16, literal(-8)))
          CFI (cfiCond200) V1 load(1, XDATA, add(CFA_XSP16, literal(-7)))
          CFI (cfiCond200) R7 load(1, XDATA, add(CFA_XSP16, literal(-6)))
          CFI (cfiCond200) ?RET_LOW load(1, XDATA, add(CFA_XSP16, literal(-5)))
          CFI (cfiCond200) ?RET_HIGH load(1, XDATA, add(CFA_XSP16, literal(-4)))
          CFI (cfiCond200) ?BRET_EXT load(1, XDATA, add(CFA_XSP16, literal(-3)))
          CFI (cfiCond200) DPL0 load(1, XDATA, add(CFA_XSP16, literal(-2)))
          CFI (cfiCond200) DPH0 load(1, XDATA, add(CFA_XSP16, literal(-1)))
          CFI (cfiCond200) CFA_SP SP+-2
          CFI (cfiCond200) CFA_XSP16 add(XSP16, 10)
          CFI Block cfiCond201 Using cfiCommon0
          CFI (cfiCond201) Function ZDApp_NwkDescListProcessing
          CFI (cfiCond201) Conditional ??CrossCallReturnLabel_93
          CFI (cfiCond201) R6 load(1, XDATA, add(CFA_XSP16, literal(-14)))
          CFI (cfiCond201) VB load(1, XDATA, add(CFA_XSP16, literal(-13)))
          CFI (cfiCond201) V0 load(1, XDATA, add(CFA_XSP16, literal(-12)))
          CFI (cfiCond201) V1 load(1, XDATA, add(CFA_XSP16, literal(-11)))
          CFI (cfiCond201) V2 load(1, XDATA, add(CFA_XSP16, literal(-10)))
          CFI (cfiCond201) V3 load(1, XDATA, add(CFA_XSP16, literal(-9)))
          CFI (cfiCond201) V4 load(1, XDATA, add(CFA_XSP16, literal(-8)))
          CFI (cfiCond201) V5 load(1, XDATA, add(CFA_XSP16, literal(-7)))
          CFI (cfiCond201) R7 load(1, XDATA, add(CFA_XSP16, literal(-6)))
          CFI (cfiCond201) ?RET_LOW load(1, XDATA, add(CFA_XSP16, literal(-5)))
          CFI (cfiCond201) ?RET_HIGH load(1, XDATA, add(CFA_XSP16, literal(-4)))
          CFI (cfiCond201) ?BRET_EXT load(1, XDATA, add(CFA_XSP16, literal(-3)))
          CFI (cfiCond201) DPL0 load(1, XDATA, add(CFA_XSP16, literal(-2)))
          CFI (cfiCond201) DPH0 load(1, XDATA, add(CFA_XSP16, literal(-1)))
          CFI (cfiCond201) CFA_SP SP+-2
          CFI (cfiCond201) CFA_XSP16 add(XSP16, 14)
          CFI Block cfiCond202 Using cfiCommon0
          CFI (cfiCond202) Function ZDO_beaconNotifyIndCB
          CFI (cfiCond202) Conditional ??CrossCallReturnLabel_94
          CFI (cfiCond202) R6 load(1, XDATA, add(CFA_XSP16, literal(-18)))
          CFI (cfiCond202) VB load(1, XDATA, add(CFA_XSP16, literal(-17)))
          CFI (cfiCond202) V0 load(1, XDATA, add(CFA_XSP16, literal(-16)))
          CFI (cfiCond202) V1 load(1, XDATA, add(CFA_XSP16, literal(-15)))
          CFI (cfiCond202) V2 load(1, XDATA, add(CFA_XSP16, literal(-14)))
          CFI (cfiCond202) V3 load(1, XDATA, add(CFA_XSP16, literal(-13)))
          CFI (cfiCond202) V4 load(1, XDATA, add(CFA_XSP16, literal(-12)))
          CFI (cfiCond202) V5 load(1, XDATA, add(CFA_XSP16, literal(-11)))
          CFI (cfiCond202) V6 load(1, XDATA, add(CFA_XSP16, literal(-10)))
          CFI (cfiCond202) V7 load(1, XDATA, add(CFA_XSP16, literal(-9)))
          CFI (cfiCond202) V8 load(1, XDATA, add(CFA_XSP16, literal(-8)))
          CFI (cfiCond202) V9 load(1, XDATA, add(CFA_XSP16, literal(-7)))
          CFI (cfiCond202) R7 load(1, XDATA, add(CFA_XSP16, literal(-6)))
          CFI (cfiCond202) ?RET_LOW load(1, XDATA, add(CFA_XSP16, literal(-5)))
          CFI (cfiCond202) ?RET_HIGH load(1, XDATA, add(CFA_XSP16, literal(-4)))
          CFI (cfiCond202) ?BRET_EXT load(1, XDATA, add(CFA_XSP16, literal(-3)))
          CFI (cfiCond202) DPL0 load(1, XDATA, add(CFA_XSP16, literal(-2)))
          CFI (cfiCond202) DPH0 load(1, XDATA, add(CFA_XSP16, literal(-1)))
          CFI (cfiCond202) CFA_SP SP+-2
          CFI (cfiCond202) CFA_XSP16 add(XSP16, 18)
          CFI Block cfiPicker203 Using cfiCommon1
          CFI (cfiPicker203) NoFunction
          CFI (cfiPicker203) Picker
        LCALL   ?Subroutine35 & 0xFFFF
??CrossCallReturnLabel_98:
        RET
          CFI EndBlock cfiCond195
          CFI EndBlock cfiCond196
          CFI EndBlock cfiCond197
          CFI EndBlock cfiCond198
          CFI EndBlock cfiCond199
          CFI EndBlock cfiCond200
          CFI EndBlock cfiCond201
          CFI EndBlock cfiCond202
          CFI EndBlock cfiPicker203

        RSEG BANKED_CODE:CODE:NOROOT(0)
?Subroutine35:
          CFI Block cfiCond204 Using cfiCommon0
          CFI Function ZDApp_NwkDescListProcessing
          CFI Conditional ??CrossCallReturnLabel_96, ??CrossCallReturnLabel_17
          CFI R6 load(1, XDATA, add(CFA_XSP16, literal(-14)))
          CFI VB load(1, XDATA, add(CFA_XSP16, literal(-13)))
          CFI V0 load(1, XDATA, add(CFA_XSP16, literal(-12)))
          CFI V1 load(1, XDATA, add(CFA_XSP16, literal(-11)))
          CFI V2 load(1, XDATA, add(CFA_XSP16, literal(-10)))
          CFI V3 load(1, XDATA, add(CFA_XSP16, literal(-9)))
          CFI V4 load(1, XDATA, add(CFA_XSP16, literal(-8)))
          CFI V5 load(1, XDATA, add(CFA_XSP16, literal(-7)))
          CFI R7 load(1, XDATA, add(CFA_XSP16, literal(-6)))
          CFI ?RET_LOW load(1, XDATA, add(CFA_XSP16, literal(-5)))
          CFI ?RET_HIGH load(1, XDATA, add(CFA_XSP16, literal(-4)))
          CFI ?BRET_EXT load(1, XDATA, add(CFA_XSP16, literal(-3)))
          CFI DPL0 load(1, XDATA, add(CFA_XSP16, literal(-2)))
          CFI DPH0 load(1, XDATA, add(CFA_XSP16, literal(-1)))
          CFI CFA_SP SP+-4
          CFI CFA_XSP16 add(XSP16, 14)
          CFI Block cfiCond205 Using cfiCommon0
          CFI (cfiCond205) Function ZDO_JoinConfirmCB
          CFI (cfiCond205) Conditional ??CrossCallReturnLabel_96, ??CrossCallReturnLabel_18
          CFI (cfiCond205) R6 load(1, XDATA, add(CFA_XSP16, literal(-12)))
          CFI (cfiCond205) VB load(1, XDATA, add(CFA_XSP16, literal(-11)))
          CFI (cfiCond205) V0 load(1, XDATA, add(CFA_XSP16, literal(-10)))
          CFI (cfiCond205) V1 load(1, XDATA, add(CFA_XSP16, literal(-9)))
          CFI (cfiCond205) V2 load(1, XDATA, add(CFA_XSP16, literal(-8)))
          CFI (cfiCond205) V3 load(1, XDATA, add(CFA_XSP16, literal(-7)))
          CFI (cfiCond205) R7 load(1, XDATA, add(CFA_XSP16, literal(-6)))
          CFI (cfiCond205) ?RET_LOW load(1, XDATA, add(CFA_XSP16, literal(-5)))
          CFI (cfiCond205) ?RET_HIGH load(1, XDATA, add(CFA_XSP16, literal(-4)))
          CFI (cfiCond205) ?BRET_EXT load(1, XDATA, add(CFA_XSP16, literal(-3)))
          CFI (cfiCond205) DPL0 load(1, XDATA, add(CFA_XSP16, literal(-2)))
          CFI (cfiCond205) DPH0 load(1, XDATA, add(CFA_XSP16, literal(-1)))
          CFI (cfiCond205) CFA_SP SP+-4
          CFI (cfiCond205) CFA_XSP16 add(XSP16, 17)
          CFI Block cfiCond206 Using cfiCommon0
          CFI (cfiCond206) Function ZDApp_InitPendingBind
          CFI (cfiCond206) Conditional ??CrossCallReturnLabel_97, ??CrossCallReturnLabel_75
          CFI (cfiCond206) R6 load(1, XDATA, add(CFA_XSP16, literal(-9)))
          CFI (cfiCond206) VB load(1, XDATA, add(CFA_XSP16, literal(-8)))
          CFI (cfiCond206) V0 load(1, XDATA, add(CFA_XSP16, literal(-7)))
          CFI (cfiCond206) R7 load(1, XDATA, add(CFA_XSP16, literal(-6)))
          CFI (cfiCond206) ?RET_LOW load(1, XDATA, add(CFA_XSP16, literal(-5)))
          CFI (cfiCond206) ?RET_HIGH load(1, XDATA, add(CFA_XSP16, literal(-4)))
          CFI (cfiCond206) ?BRET_EXT load(1, XDATA, add(CFA_XSP16, literal(-3)))
          CFI (cfiCond206) DPL0 load(1, XDATA, add(CFA_XSP16, literal(-2)))
          CFI (cfiCond206) DPH0 load(1, XDATA, add(CFA_XSP16, literal(-1)))
          CFI (cfiCond206) CFA_SP SP+-4
          CFI (cfiCond206) CFA_XSP16 add(XSP16, 9)
          CFI Block cfiCond207 Using cfiCommon0
          CFI (cfiCond207) Function ZDApp_InitPendingBind
          CFI (cfiCond207) Conditional ??CrossCallReturnLabel_97, ??CrossCallReturnLabel_76
          CFI (cfiCond207) R6 load(1, XDATA, add(CFA_XSP16, literal(-9)))
          CFI (cfiCond207) VB load(1, XDATA, add(CFA_XSP16, literal(-8)))
          CFI (cfiCond207) V0 load(1, XDATA, add(CFA_XSP16, literal(-7)))
          CFI (cfiCond207) R7 load(1, XDATA, add(CFA_XSP16, literal(-6)))
          CFI (cfiCond207) ?RET_LOW load(1, XDATA, add(CFA_XSP16, literal(-5)))
          CFI (cfiCond207) ?RET_HIGH load(1, XDATA, add(CFA_XSP16, literal(-4)))
          CFI (cfiCond207) ?BRET_EXT load(1, XDATA, add(CFA_XSP16, literal(-3)))
          CFI (cfiCond207) DPL0 load(1, XDATA, add(CFA_XSP16, literal(-2)))
          CFI (cfiCond207) DPH0 load(1, XDATA, add(CFA_XSP16, literal(-1)))
          CFI (cfiCond207) CFA_SP SP+-4
          CFI (cfiCond207) CFA_XSP16 add(XSP16, 9)
          CFI Block cfiCond208 Using cfiCommon0
          CFI (cfiCond208) Function ZDApp_GetEmptyPendingBindReq
          CFI (cfiCond208) Conditional ??CrossCallReturnLabel_97, ??CrossCallReturnLabel_77
          CFI (cfiCond208) DPL0 Frame(CFA_SP, 4)
          CFI (cfiCond208) DPH0 Frame(CFA_SP, 5)
          CFI (cfiCond208) CFA_SP SP+-9
          CFI Block cfiCond209 Using cfiCommon0
          CFI (cfiCond209) Function ZDApp_ProcessPendingBindReq
          CFI (cfiCond209) Conditional ??CrossCallReturnLabel_97, ??CrossCallReturnLabel_78
          CFI (cfiCond209) R6 load(1, XDATA, add(CFA_XSP16, literal(-15)))
          CFI (cfiCond209) VB load(1, XDATA, add(CFA_XSP16, literal(-14)))
          CFI (cfiCond209) V0 load(1, XDATA, add(CFA_XSP16, literal(-13)))
          CFI (cfiCond209) V1 load(1, XDATA, add(CFA_XSP16, literal(-12)))
          CFI (cfiCond209) V2 load(1, XDATA, add(CFA_XSP16, literal(-11)))
          CFI (cfiCond209) V3 load(1, XDATA, add(CFA_XSP16, literal(-10)))
          CFI (cfiCond209) V4 load(1, XDATA, add(CFA_XSP16, literal(-9)))
          CFI (cfiCond209) V5 load(1, XDATA, add(CFA_XSP16, literal(-8)))
          CFI (cfiCond209) V6 load(1, XDATA, add(CFA_XSP16, literal(-7)))
          CFI (cfiCond209) R7 load(1, XDATA, add(CFA_XSP16, literal(-6)))
          CFI (cfiCond209) ?RET_LOW load(1, XDATA, add(CFA_XSP16, literal(-5)))
          CFI (cfiCond209) ?RET_HIGH load(1, XDATA, add(CFA_XSP16, literal(-4)))
          CFI (cfiCond209) ?BRET_EXT load(1, XDATA, add(CFA_XSP16, literal(-3)))
          CFI (cfiCond209) DPL0 load(1, XDATA, add(CFA_XSP16, literal(-2)))
          CFI (cfiCond209) DPH0 load(1, XDATA, add(CFA_XSP16, literal(-1)))
          CFI (cfiCond209) CFA_SP SP+-4
          CFI (cfiCond209) CFA_XSP16 add(XSP16, 16)
          CFI Block cfiCond210 Using cfiCommon0
          CFI (cfiCond210) Function ZDApp_AgeOutPendingBindEntry
          CFI (cfiCond210) Conditional ??CrossCallReturnLabel_97, ??CrossCallReturnLabel_79
          CFI (cfiCond210) R6 load(1, XDATA, add(CFA_XSP16, literal(-12)))
          CFI (cfiCond210) VB load(1, XDATA, add(CFA_XSP16, literal(-11)))
          CFI (cfiCond210) V0 load(1, XDATA, add(CFA_XSP16, literal(-10)))
          CFI (cfiCond210) V1 load(1, XDATA, add(CFA_XSP16, literal(-9)))
          CFI (cfiCond210) V2 load(1, XDATA, add(CFA_XSP16, literal(-8)))
          CFI (cfiCond210) V3 load(1, XDATA, add(CFA_XSP16, literal(-7)))
          CFI (cfiCond210) R7 load(1, XDATA, add(CFA_XSP16, literal(-6)))
          CFI (cfiCond210) ?RET_LOW load(1, XDATA, add(CFA_XSP16, literal(-5)))
          CFI (cfiCond210) ?RET_HIGH load(1, XDATA, add(CFA_XSP16, literal(-4)))
          CFI (cfiCond210) ?BRET_EXT load(1, XDATA, add(CFA_XSP16, literal(-3)))
          CFI (cfiCond210) DPL0 load(1, XDATA, add(CFA_XSP16, literal(-2)))
          CFI (cfiCond210) DPH0 load(1, XDATA, add(CFA_XSP16, literal(-1)))
          CFI (cfiCond210) CFA_SP SP+-4
          CFI (cfiCond210) CFA_XSP16 add(XSP16, 26)
          CFI Block cfiCond211 Using cfiCommon0
          CFI (cfiCond211) Function ZDApp_SecInit
          CFI (cfiCond211) Conditional ??CrossCallReturnLabel_97, ??CrossCallReturnLabel_67
          CFI (cfiCond211) R6 load(1, XDATA, add(CFA_XSP16, literal(-9)))
          CFI (cfiCond211) VB load(1, XDATA, add(CFA_XSP16, literal(-8)))
          CFI (cfiCond211) V0 load(1, XDATA, add(CFA_XSP16, literal(-7)))
          CFI (cfiCond211) R7 load(1, XDATA, add(CFA_XSP16, literal(-6)))
          CFI (cfiCond211) ?RET_LOW load(1, XDATA, add(CFA_XSP16, literal(-5)))
          CFI (cfiCond211) ?RET_HIGH load(1, XDATA, add(CFA_XSP16, literal(-4)))
          CFI (cfiCond211) ?BRET_EXT load(1, XDATA, add(CFA_XSP16, literal(-3)))
          CFI (cfiCond211) DPL0 load(1, XDATA, add(CFA_XSP16, literal(-2)))
          CFI (cfiCond211) DPH0 load(1, XDATA, add(CFA_XSP16, literal(-1)))
          CFI (cfiCond211) CFA_SP SP+-4
          CFI (cfiCond211) CFA_XSP16 add(XSP16, 25)
          CFI Block cfiCond212 Using cfiCommon0
          CFI (cfiCond212) Function ZDApp_RestoreNetworkState
          CFI (cfiCond212) Conditional ??CrossCallReturnLabel_97, ??CrossCallReturnLabel_68
          CFI (cfiCond212) R6 load(1, XDATA, add(CFA_XSP16, literal(-9)))
          CFI (cfiCond212) VB load(1, XDATA, add(CFA_XSP16, literal(-8)))
          CFI (cfiCond212) V0 load(1, XDATA, add(CFA_XSP16, literal(-7)))
          CFI (cfiCond212) R7 load(1, XDATA, add(CFA_XSP16, literal(-6)))
          CFI (cfiCond212) ?RET_LOW load(1, XDATA, add(CFA_XSP16, literal(-5)))
          CFI (cfiCond212) ?RET_HIGH load(1, XDATA, add(CFA_XSP16, literal(-4)))
          CFI (cfiCond212) ?BRET_EXT load(1, XDATA, add(CFA_XSP16, literal(-3)))
          CFI (cfiCond212) DPL0 load(1, XDATA, add(CFA_XSP16, literal(-2)))
          CFI (cfiCond212) DPH0 load(1, XDATA, add(CFA_XSP16, literal(-1)))
          CFI (cfiCond212) CFA_SP SP+-4
          CFI (cfiCond212) CFA_XSP16 add(XSP16, 9)
          CFI Block cfiCond213 Using cfiCommon0
          CFI (cfiCond213) Function ZDApp_LeaveUpdate
          CFI (cfiCond213) Conditional ??CrossCallReturnLabel_97, ??CrossCallReturnLabel_69
          CFI (cfiCond213) R6 load(1, XDATA, add(CFA_XSP16, literal(-15)))
          CFI (cfiCond213) VB load(1, XDATA, add(CFA_XSP16, literal(-14)))
          CFI (cfiCond213) V0 load(1, XDATA, add(CFA_XSP16, literal(-13)))
          CFI (cfiCond213) V1 load(1, XDATA, add(CFA_XSP16, literal(-12)))
          CFI (cfiCond213) V2 load(1, XDATA, add(CFA_XSP16, literal(-11)))
          CFI (cfiCond213) V3 load(1, XDATA, add(CFA_XSP16, literal(-10)))
          CFI (cfiCond213) V4 load(1, XDATA, add(CFA_XSP16, literal(-9)))
          CFI (cfiCond213) V5 load(1, XDATA, add(CFA_XSP16, literal(-8)))
          CFI (cfiCond213) V6 load(1, XDATA, add(CFA_XSP16, literal(-7)))
          CFI (cfiCond213) R7 load(1, XDATA, add(CFA_XSP16, literal(-6)))
          CFI (cfiCond213) ?RET_LOW load(1, XDATA, add(CFA_XSP16, literal(-5)))
          CFI (cfiCond213) ?RET_HIGH load(1, XDATA, add(CFA_XSP16, literal(-4)))
          CFI (cfiCond213) ?BRET_EXT load(1, XDATA, add(CFA_XSP16, literal(-3)))
          CFI (cfiCond213) DPL0 load(1, XDATA, add(CFA_XSP16, literal(-2)))
          CFI (cfiCond213) DPH0 load(1, XDATA, add(CFA_XSP16, literal(-1)))
          CFI (cfiCond213) CFA_SP SP+-4
          CFI (cfiCond213) CFA_XSP16 add(XSP16, 24)
          CFI Block cfiCond214 Using cfiCommon0
          CFI (cfiCond214) Function ZDO_beaconNotifyIndCB
          CFI (cfiCond214) Conditional ??CrossCallReturnLabel_97, ??CrossCallReturnLabel_70
          CFI (cfiCond214) R6 load(1, XDATA, add(CFA_XSP16, literal(-18)))
          CFI (cfiCond214) VB load(1, XDATA, add(CFA_XSP16, literal(-17)))
          CFI (cfiCond214) V0 load(1, XDATA, add(CFA_XSP16, literal(-16)))
          CFI (cfiCond214) V1 load(1, XDATA, add(CFA_XSP16, literal(-15)))
          CFI (cfiCond214) V2 load(1, XDATA, add(CFA_XSP16, literal(-14)))
          CFI (cfiCond214) V3 load(1, XDATA, add(CFA_XSP16, literal(-13)))
          CFI (cfiCond214) V4 load(1, XDATA, add(CFA_XSP16, literal(-12)))
          CFI (cfiCond214) V5 load(1, XDATA, add(CFA_XSP16, literal(-11)))
          CFI (cfiCond214) V6 load(1, XDATA, add(CFA_XSP16, literal(-10)))
          CFI (cfiCond214) V7 load(1, XDATA, add(CFA_XSP16, literal(-9)))
          CFI (cfiCond214) V8 load(1, XDATA, add(CFA_XSP16, literal(-8)))
          CFI (cfiCond214) V9 load(1, XDATA, add(CFA_XSP16, literal(-7)))
          CFI (cfiCond214) R7 load(1, XDATA, add(CFA_XSP16, literal(-6)))
          CFI (cfiCond214) ?RET_LOW load(1, XDATA, add(CFA_XSP16, literal(-5)))
          CFI (cfiCond214) ?RET_HIGH load(1, XDATA, add(CFA_XSP16, literal(-4)))
          CFI (cfiCond214) ?BRET_EXT load(1, XDATA, add(CFA_XSP16, literal(-3)))
          CFI (cfiCond214) DPL0 load(1, XDATA, add(CFA_XSP16, literal(-2)))
          CFI (cfiCond214) DPH0 load(1, XDATA, add(CFA_XSP16, literal(-1)))
          CFI (cfiCond214) CFA_SP SP+-4
          CFI (cfiCond214) CFA_XSP16 add(XSP16, 18)
          CFI Block cfiCond215 Using cfiCommon0
          CFI (cfiCond215) Function ZDO_JoinConfirmCB
          CFI (cfiCond215) Conditional ??CrossCallReturnLabel_97, ??CrossCallReturnLabel_71
          CFI (cfiCond215) R6 load(1, XDATA, add(CFA_XSP16, literal(-12)))
          CFI (cfiCond215) VB load(1, XDATA, add(CFA_XSP16, literal(-11)))
          CFI (cfiCond215) V0 load(1, XDATA, add(CFA_XSP16, literal(-10)))
          CFI (cfiCond215) V1 load(1, XDATA, add(CFA_XSP16, literal(-9)))
          CFI (cfiCond215) V2 load(1, XDATA, add(CFA_XSP16, literal(-8)))
          CFI (cfiCond215) V3 load(1, XDATA, add(CFA_XSP16, literal(-7)))
          CFI (cfiCond215) R7 load(1, XDATA, add(CFA_XSP16, literal(-6)))
          CFI (cfiCond215) ?RET_LOW load(1, XDATA, add(CFA_XSP16, literal(-5)))
          CFI (cfiCond215) ?RET_HIGH load(1, XDATA, add(CFA_XSP16, literal(-4)))
          CFI (cfiCond215) ?BRET_EXT load(1, XDATA, add(CFA_XSP16, literal(-3)))
          CFI (cfiCond215) DPL0 load(1, XDATA, add(CFA_XSP16, literal(-2)))
          CFI (cfiCond215) DPH0 load(1, XDATA, add(CFA_XSP16, literal(-1)))
          CFI (cfiCond215) CFA_SP SP+-4
          CFI (cfiCond215) CFA_XSP16 add(XSP16, 17)
          CFI Block cfiCond216 Using cfiCommon0
          CFI (cfiCond216) Function ZDO_JoinIndicationCB
          CFI (cfiCond216) Conditional ??CrossCallReturnLabel_97, ??CrossCallReturnLabel_72
          CFI (cfiCond216) R6 load(1, XDATA, add(CFA_XSP16, literal(-16)))
          CFI (cfiCond216) VB load(1, XDATA, add(CFA_XSP16, literal(-15)))
          CFI (cfiCond216) V0 load(1, XDATA, add(CFA_XSP16, literal(-14)))
          CFI (cfiCond216) V1 load(1, XDATA, add(CFA_XSP16, literal(-13)))
          CFI (cfiCond216) V2 load(1, XDATA, add(CFA_XSP16, literal(-12)))
          CFI (cfiCond216) V3 load(1, XDATA, add(CFA_XSP16, literal(-11)))
          CFI (cfiCond216) V4 load(1, XDATA, add(CFA_XSP16, literal(-10)))
          CFI (cfiCond216) V5 load(1, XDATA, add(CFA_XSP16, literal(-9)))
          CFI (cfiCond216) V6 load(1, XDATA, add(CFA_XSP16, literal(-8)))
          CFI (cfiCond216) V7 load(1, XDATA, add(CFA_XSP16, literal(-7)))
          CFI (cfiCond216) R7 load(1, XDATA, add(CFA_XSP16, literal(-6)))
          CFI (cfiCond216) ?RET_LOW load(1, XDATA, add(CFA_XSP16, literal(-5)))
          CFI (cfiCond216) ?RET_HIGH load(1, XDATA, add(CFA_XSP16, literal(-4)))
          CFI (cfiCond216) ?BRET_EXT load(1, XDATA, add(CFA_XSP16, literal(-3)))
          CFI (cfiCond216) DPL0 load(1, XDATA, add(CFA_XSP16, literal(-2)))
          CFI (cfiCond216) DPH0 load(1, XDATA, add(CFA_XSP16, literal(-1)))
          CFI (cfiCond216) CFA_SP SP+-4
          CFI (cfiCond216) CFA_XSP16 add(XSP16, 16)
          CFI Block cfiCond217 Using cfiCommon0
          CFI (cfiCond217) Function ZDO_JoinIndicationCB
          CFI (cfiCond217) Conditional ??CrossCallReturnLabel_97, ??CrossCallReturnLabel_73
          CFI (cfiCond217) R6 load(1, XDATA, add(CFA_XSP16, literal(-16)))
          CFI (cfiCond217) VB load(1, XDATA, add(CFA_XSP16, literal(-15)))
          CFI (cfiCond217) V0 load(1, XDATA, add(CFA_XSP16, literal(-14)))
          CFI (cfiCond217) V1 load(1, XDATA, add(CFA_XSP16, literal(-13)))
          CFI (cfiCond217) V2 load(1, XDATA, add(CFA_XSP16, literal(-12)))
          CFI (cfiCond217) V3 load(1, XDATA, add(CFA_XSP16, literal(-11)))
          CFI (cfiCond217) V4 load(1, XDATA, add(CFA_XSP16, literal(-10)))
          CFI (cfiCond217) V5 load(1, XDATA, add(CFA_XSP16, literal(-9)))
          CFI (cfiCond217) V6 load(1, XDATA, add(CFA_XSP16, literal(-8)))
          CFI (cfiCond217) V7 load(1, XDATA, add(CFA_XSP16, literal(-7)))
          CFI (cfiCond217) R7 load(1, XDATA, add(CFA_XSP16, literal(-6)))
          CFI (cfiCond217) ?RET_LOW load(1, XDATA, add(CFA_XSP16, literal(-5)))
          CFI (cfiCond217) ?RET_HIGH load(1, XDATA, add(CFA_XSP16, literal(-4)))
          CFI (cfiCond217) ?BRET_EXT load(1, XDATA, add(CFA_XSP16, literal(-3)))
          CFI (cfiCond217) DPL0 load(1, XDATA, add(CFA_XSP16, literal(-2)))
          CFI (cfiCond217) DPH0 load(1, XDATA, add(CFA_XSP16, literal(-1)))
          CFI (cfiCond217) CFA_SP SP+-4
          CFI (cfiCond217) CFA_XSP16 add(XSP16, 16)
          CFI Block cfiCond218 Using cfiCommon0
          CFI (cfiCond218) Function ZDO_SrcRtgIndCB
          CFI (cfiCond218) Conditional ??CrossCallReturnLabel_97, ??CrossCallReturnLabel_74
          CFI (cfiCond218) R6 load(1, XDATA, add(CFA_XSP16, literal(-9)))
          CFI (cfiCond218) VB load(1, XDATA, add(CFA_XSP16, literal(-8)))
          CFI (cfiCond218) V0 load(1, XDATA, add(CFA_XSP16, literal(-7)))
          CFI (cfiCond218) R7 load(1, XDATA, add(CFA_XSP16, literal(-6)))
          CFI (cfiCond218) ?RET_LOW load(1, XDATA, add(CFA_XSP16, literal(-5)))
          CFI (cfiCond218) ?RET_HIGH load(1, XDATA, add(CFA_XSP16, literal(-4)))
          CFI (cfiCond218) ?BRET_EXT load(1, XDATA, add(CFA_XSP16, literal(-3)))
          CFI (cfiCond218) DPL0 load(1, XDATA, add(CFA_XSP16, literal(-2)))
          CFI (cfiCond218) DPH0 load(1, XDATA, add(CFA_XSP16, literal(-1)))
          CFI (cfiCond218) CFA_SP SP+-4
          CFI (cfiCond218) CFA_XSP16 add(XSP16, 14)
          CFI Block cfiCond219 Using cfiCommon0
          CFI (cfiCond219) Function ZDO_NetworkDiscoveryConfirmCB
          CFI (cfiCond219) Conditional ??CrossCallReturnLabel_95, ??CrossCallReturnLabel_6
          CFI (cfiCond219) DPL0 Frame(CFA_SP, 4)
          CFI (cfiCond219) DPH0 Frame(CFA_SP, 5)
          CFI (cfiCond219) CFA_SP SP+-9
          CFI (cfiCond219) CFA_XSP16 add(XSP16, 3)
          CFI Block cfiCond220 Using cfiCommon0
          CFI (cfiCond220) Function ZDO_beaconNotifyIndCB
          CFI (cfiCond220) Conditional ??CrossCallReturnLabel_95, ??CrossCallReturnLabel_7
          CFI (cfiCond220) R6 load(1, XDATA, add(CFA_XSP16, literal(-18)))
          CFI (cfiCond220) VB load(1, XDATA, add(CFA_XSP16, literal(-17)))
          CFI (cfiCond220) V0 load(1, XDATA, add(CFA_XSP16, literal(-16)))
          CFI (cfiCond220) V1 load(1, XDATA, add(CFA_XSP16, literal(-15)))
          CFI (cfiCond220) V2 load(1, XDATA, add(CFA_XSP16, literal(-14)))
          CFI (cfiCond220) V3 load(1, XDATA, add(CFA_XSP16, literal(-13)))
          CFI (cfiCond220) V4 load(1, XDATA, add(CFA_XSP16, literal(-12)))
          CFI (cfiCond220) V5 load(1, XDATA, add(CFA_XSP16, literal(-11)))
          CFI (cfiCond220) V6 load(1, XDATA, add(CFA_XSP16, literal(-10)))
          CFI (cfiCond220) V7 load(1, XDATA, add(CFA_XSP16, literal(-9)))
          CFI (cfiCond220) V8 load(1, XDATA, add(CFA_XSP16, literal(-8)))
          CFI (cfiCond220) V9 load(1, XDATA, add(CFA_XSP16, literal(-7)))
          CFI (cfiCond220) R7 load(1, XDATA, add(CFA_XSP16, literal(-6)))
          CFI (cfiCond220) ?RET_LOW load(1, XDATA, add(CFA_XSP16, literal(-5)))
          CFI (cfiCond220) ?RET_HIGH load(1, XDATA, add(CFA_XSP16, literal(-4)))
          CFI (cfiCond220) ?BRET_EXT load(1, XDATA, add(CFA_XSP16, literal(-3)))
          CFI (cfiCond220) DPL0 load(1, XDATA, add(CFA_XSP16, literal(-2)))
          CFI (cfiCond220) DPH0 load(1, XDATA, add(CFA_XSP16, literal(-1)))
          CFI (cfiCond220) CFA_SP SP+-4
          CFI (cfiCond220) CFA_XSP16 add(XSP16, 18)
          CFI Block cfiCond221 Using cfiCommon0
          CFI (cfiCond221) Function ZDO_PermitJoinCB
          CFI (cfiCond221) Conditional ??CrossCallReturnLabel_95, ??CrossCallReturnLabel_8
          CFI (cfiCond221) DPL0 Frame(CFA_SP, 4)
          CFI (cfiCond221) DPH0 Frame(CFA_SP, 5)
          CFI (cfiCond221) CFA_SP SP+-9
          CFI (cfiCond221) CFA_XSP16 add(XSP16, 1)
          CFI Block cfiCond222 Using cfiCommon0
          CFI (cfiCond222) Function ZDO_ConcentratorIndicationCB
          CFI (cfiCond222) Conditional ??CrossCallReturnLabel_95, ??CrossCallReturnLabel_9
          CFI (cfiCond222) R6 load(1, XDATA, add(CFA_XSP16, literal(-9)))
          CFI (cfiCond222) VB load(1, XDATA, add(CFA_XSP16, literal(-8)))
          CFI (cfiCond222) V0 load(1, XDATA, add(CFA_XSP16, literal(-7)))
          CFI (cfiCond222) R7 load(1, XDATA, add(CFA_XSP16, literal(-6)))
          CFI (cfiCond222) ?RET_LOW load(1, XDATA, add(CFA_XSP16, literal(-5)))
          CFI (cfiCond222) ?RET_HIGH load(1, XDATA, add(CFA_XSP16, literal(-4)))
          CFI (cfiCond222) ?BRET_EXT load(1, XDATA, add(CFA_XSP16, literal(-3)))
          CFI (cfiCond222) DPL0 load(1, XDATA, add(CFA_XSP16, literal(-2)))
          CFI (cfiCond222) DPH0 load(1, XDATA, add(CFA_XSP16, literal(-1)))
          CFI (cfiCond222) CFA_SP SP+-4
          CFI (cfiCond222) CFA_XSP16 add(XSP16, 14)
          CFI Block cfiCond223 Using cfiCommon0
          CFI (cfiCond223) Function ZDO_LeaveCnf
          CFI (cfiCond223) Conditional ??CrossCallReturnLabel_95, ??CrossCallReturnLabel_10
          CFI (cfiCond223) R6 load(1, XDATA, add(CFA_XSP16, literal(-10)))
          CFI (cfiCond223) VB load(1, XDATA, add(CFA_XSP16, literal(-9)))
          CFI (cfiCond223) V0 load(1, XDATA, add(CFA_XSP16, literal(-8)))
          CFI (cfiCond223) V1 load(1, XDATA, add(CFA_XSP16, literal(-7)))
          CFI (cfiCond223) R7 load(1, XDATA, add(CFA_XSP16, literal(-6)))
          CFI (cfiCond223) ?RET_LOW load(1, XDATA, add(CFA_XSP16, literal(-5)))
          CFI (cfiCond223) ?RET_HIGH load(1, XDATA, add(CFA_XSP16, literal(-4)))
          CFI (cfiCond223) ?BRET_EXT load(1, XDATA, add(CFA_XSP16, literal(-3)))
          CFI (cfiCond223) DPL0 load(1, XDATA, add(CFA_XSP16, literal(-2)))
          CFI (cfiCond223) DPH0 load(1, XDATA, add(CFA_XSP16, literal(-1)))
          CFI (cfiCond223) CFA_SP SP+-4
          CFI (cfiCond223) CFA_XSP16 add(XSP16, 10)
          CFI Block cfiCond224 Using cfiCommon0
          CFI (cfiCond224) Function ZDO_LeaveInd
          CFI (cfiCond224) Conditional ??CrossCallReturnLabel_95, ??CrossCallReturnLabel_11
          CFI (cfiCond224) R6 load(1, XDATA, add(CFA_XSP16, literal(-12)))
          CFI (cfiCond224) VB load(1, XDATA, add(CFA_XSP16, literal(-11)))
          CFI (cfiCond224) V0 load(1, XDATA, add(CFA_XSP16, literal(-10)))
          CFI (cfiCond224) V1 load(1, XDATA, add(CFA_XSP16, literal(-9)))
          CFI (cfiCond224) V2 load(1, XDATA, add(CFA_XSP16, literal(-8)))
          CFI (cfiCond224) V3 load(1, XDATA, add(CFA_XSP16, literal(-7)))
          CFI (cfiCond224) R7 load(1, XDATA, add(CFA_XSP16, literal(-6)))
          CFI (cfiCond224) ?RET_LOW load(1, XDATA, add(CFA_XSP16, literal(-5)))
          CFI (cfiCond224) ?RET_HIGH load(1, XDATA, add(CFA_XSP16, literal(-4)))
          CFI (cfiCond224) ?BRET_EXT load(1, XDATA, add(CFA_XSP16, literal(-3)))
          CFI (cfiCond224) DPL0 load(1, XDATA, add(CFA_XSP16, literal(-2)))
          CFI (cfiCond224) DPH0 load(1, XDATA, add(CFA_XSP16, literal(-1)))
          CFI (cfiCond224) CFA_SP SP+-4
          CFI (cfiCond224) CFA_XSP16 add(XSP16, 14)
          CFI Block cfiCond225 Using cfiCommon0
          CFI (cfiCond225) Function ZDApp_NwkDescListProcessing
          CFI (cfiCond225) Conditional ??CrossCallReturnLabel_98, ??CrossCallReturnLabel_93
          CFI (cfiCond225) R6 load(1, XDATA, add(CFA_XSP16, literal(-14)))
          CFI (cfiCond225) VB load(1, XDATA, add(CFA_XSP16, literal(-13)))
          CFI (cfiCond225) V0 load(1, XDATA, add(CFA_XSP16, literal(-12)))
          CFI (cfiCond225) V1 load(1, XDATA, add(CFA_XSP16, literal(-11)))
          CFI (cfiCond225) V2 load(1, XDATA, add(CFA_XSP16, literal(-10)))
          CFI (cfiCond225) V3 load(1, XDATA, add(CFA_XSP16, literal(-9)))
          CFI (cfiCond225) V4 load(1, XDATA, add(CFA_XSP16, literal(-8)))
          CFI (cfiCond225) V5 load(1, XDATA, add(CFA_XSP16, literal(-7)))
          CFI (cfiCond225) R7 load(1, XDATA, add(CFA_XSP16, literal(-6)))
          CFI (cfiCond225) ?RET_LOW load(1, XDATA, add(CFA_XSP16, literal(-5)))
          CFI (cfiCond225) ?RET_HIGH load(1, XDATA, add(CFA_XSP16, literal(-4)))
          CFI (cfiCond225) ?BRET_EXT load(1, XDATA, add(CFA_XSP16, literal(-3)))
          CFI (cfiCond225) DPL0 load(1, XDATA, add(CFA_XSP16, literal(-2)))
          CFI (cfiCond225) DPH0 load(1, XDATA, add(CFA_XSP16, literal(-1)))
          CFI (cfiCond225) CFA_SP SP+-4
          CFI (cfiCond225) CFA_XSP16 add(XSP16, 14)
          CFI Block cfiCond226 Using cfiCommon0
          CFI (cfiCond226) Function ZDO_beaconNotifyIndCB
          CFI (cfiCond226) Conditional ??CrossCallReturnLabel_98, ??CrossCallReturnLabel_94
          CFI (cfiCond226) R6 load(1, XDATA, add(CFA_XSP16, literal(-18)))
          CFI (cfiCond226) VB load(1, XDATA, add(CFA_XSP16, literal(-17)))
          CFI (cfiCond226) V0 load(1, XDATA, add(CFA_XSP16, literal(-16)))
          CFI (cfiCond226) V1 load(1, XDATA, add(CFA_XSP16, literal(-15)))
          CFI (cfiCond226) V2 load(1, XDATA, add(CFA_XSP16, literal(-14)))
          CFI (cfiCond226) V3 load(1, XDATA, add(CFA_XSP16, literal(-13)))
          CFI (cfiCond226) V4 load(1, XDATA, add(CFA_XSP16, literal(-12)))
          CFI (cfiCond226) V5 load(1, XDATA, add(CFA_XSP16, literal(-11)))
          CFI (cfiCond226) V6 load(1, XDATA, add(CFA_XSP16, literal(-10)))
          CFI (cfiCond226) V7 load(1, XDATA, add(CFA_XSP16, literal(-9)))
          CFI (cfiCond226) V8 load(1, XDATA, add(CFA_XSP16, literal(-8)))
          CFI (cfiCond226) V9 load(1, XDATA, add(CFA_XSP16, literal(-7)))
          CFI (cfiCond226) R7 load(1, XDATA, add(CFA_XSP16, literal(-6)))
          CFI (cfiCond226) ?RET_LOW load(1, XDATA, add(CFA_XSP16, literal(-5)))
          CFI (cfiCond226) ?RET_HIGH load(1, XDATA, add(CFA_XSP16, literal(-4)))
          CFI (cfiCond226) ?BRET_EXT load(1, XDATA, add(CFA_XSP16, literal(-3)))
          CFI (cfiCond226) DPL0 load(1, XDATA, add(CFA_XSP16, literal(-2)))
          CFI (cfiCond226) DPH0 load(1, XDATA, add(CFA_XSP16, literal(-1)))
          CFI (cfiCond226) CFA_SP SP+-4
          CFI (cfiCond226) CFA_XSP16 add(XSP16, 18)
          CFI Block cfiCond227 Using cfiCommon0
          CFI (cfiCond227) Function ZDApp_ProcessOSALMsg
          CFI (cfiCond227) Conditional ??CrossCallReturnLabel_98, ??CrossCallReturnLabel_87
          CFI (cfiCond227) R6 load(1, XDATA, add(CFA_XSP16, literal(-12)))
          CFI (cfiCond227) VB load(1, XDATA, add(CFA_XSP16, literal(-11)))
          CFI (cfiCond227) V0 load(1, XDATA, add(CFA_XSP16, literal(-10)))
          CFI (cfiCond227) V1 load(1, XDATA, add(CFA_XSP16, literal(-9)))
          CFI (cfiCond227) V2 load(1, XDATA, add(CFA_XSP16, literal(-8)))
          CFI (cfiCond227) V3 load(1, XDATA, add(CFA_XSP16, literal(-7)))
          CFI (cfiCond227) R7 load(1, XDATA, add(CFA_XSP16, literal(-6)))
          CFI (cfiCond227) ?RET_LOW load(1, XDATA, add(CFA_XSP16, literal(-5)))
          CFI (cfiCond227) ?RET_HIGH load(1, XDATA, add(CFA_XSP16, literal(-4)))
          CFI (cfiCond227) ?BRET_EXT load(1, XDATA, add(CFA_XSP16, literal(-3)))
          CFI (cfiCond227) DPL0 load(1, XDATA, add(CFA_XSP16, literal(-2)))
          CFI (cfiCond227) DPH0 load(1, XDATA, add(CFA_XSP16, literal(-1)))
          CFI (cfiCond227) CFA_SP SP+-4
          CFI (cfiCond227) CFA_XSP16 add(XSP16, 15)
          CFI Block cfiCond228 Using cfiCommon0
          CFI (cfiCond228) Function ZDApp_ProcessOSALMsg
          CFI (cfiCond228) Conditional ??CrossCallReturnLabel_98, ??CrossCallReturnLabel_88
          CFI (cfiCond228) R6 load(1, XDATA, add(CFA_XSP16, literal(-12)))
          CFI (cfiCond228) VB load(1, XDATA, add(CFA_XSP16, literal(-11)))
          CFI (cfiCond228) V0 load(1, XDATA, add(CFA_XSP16, literal(-10)))
          CFI (cfiCond228) V1 load(1, XDATA, add(CFA_XSP16, literal(-9)))
          CFI (cfiCond228) V2 load(1, XDATA, add(CFA_XSP16, literal(-8)))
          CFI (cfiCond228) V3 load(1, XDATA, add(CFA_XSP16, literal(-7)))
          CFI (cfiCond228) R7 load(1, XDATA, add(CFA_XSP16, literal(-6)))
          CFI (cfiCond228) ?RET_LOW load(1, XDATA, add(CFA_XSP16, literal(-5)))
          CFI (cfiCond228) ?RET_HIGH load(1, XDATA, add(CFA_XSP16, literal(-4)))
          CFI (cfiCond228) ?BRET_EXT load(1, XDATA, add(CFA_XSP16, literal(-3)))
          CFI (cfiCond228) DPL0 load(1, XDATA, add(CFA_XSP16, literal(-2)))
          CFI (cfiCond228) DPH0 load(1, XDATA, add(CFA_XSP16, literal(-1)))
          CFI (cfiCond228) CFA_SP SP+-4
          CFI (cfiCond228) CFA_XSP16 add(XSP16, 15)
          CFI Block cfiCond229 Using cfiCommon0
          CFI (cfiCond229) Function ZDApp_LeaveReset
          CFI (cfiCond229) Conditional ??CrossCallReturnLabel_98, ??CrossCallReturnLabel_89
          CFI (cfiCond229) R6 load(1, XDATA, add(CFA_XSP16, literal(-10)))
          CFI (cfiCond229) VB load(1, XDATA, add(CFA_XSP16, literal(-9)))
          CFI (cfiCond229) V0 load(1, XDATA, add(CFA_XSP16, literal(-8)))
          CFI (cfiCond229) V1 load(1, XDATA, add(CFA_XSP16, literal(-7)))
          CFI (cfiCond229) R7 load(1, XDATA, add(CFA_XSP16, literal(-6)))
          CFI (cfiCond229) ?RET_LOW load(1, XDATA, add(CFA_XSP16, literal(-5)))
          CFI (cfiCond229) ?RET_HIGH load(1, XDATA, add(CFA_XSP16, literal(-4)))
          CFI (cfiCond229) ?BRET_EXT load(1, XDATA, add(CFA_XSP16, literal(-3)))
          CFI (cfiCond229) DPL0 load(1, XDATA, add(CFA_XSP16, literal(-2)))
          CFI (cfiCond229) DPH0 load(1, XDATA, add(CFA_XSP16, literal(-1)))
          CFI (cfiCond229) CFA_SP SP+-4
          CFI (cfiCond229) CFA_XSP16 add(XSP16, 10)
          CFI Block cfiCond230 Using cfiCommon0
          CFI (cfiCond230) Function ZDApp_LeaveReset
          CFI (cfiCond230) Conditional ??CrossCallReturnLabel_98, ??CrossCallReturnLabel_90
          CFI (cfiCond230) R6 load(1, XDATA, add(CFA_XSP16, literal(-10)))
          CFI (cfiCond230) VB load(1, XDATA, add(CFA_XSP16, literal(-9)))
          CFI (cfiCond230) V0 load(1, XDATA, add(CFA_XSP16, literal(-8)))
          CFI (cfiCond230) V1 load(1, XDATA, add(CFA_XSP16, literal(-7)))
          CFI (cfiCond230) R7 load(1, XDATA, add(CFA_XSP16, literal(-6)))
          CFI (cfiCond230) ?RET_LOW load(1, XDATA, add(CFA_XSP16, literal(-5)))
          CFI (cfiCond230) ?RET_HIGH load(1, XDATA, add(CFA_XSP16, literal(-4)))
          CFI (cfiCond230) ?BRET_EXT load(1, XDATA, add(CFA_XSP16, literal(-3)))
          CFI (cfiCond230) DPL0 load(1, XDATA, add(CFA_XSP16, literal(-2)))
          CFI (cfiCond230) DPH0 load(1, XDATA, add(CFA_XSP16, literal(-1)))
          CFI (cfiCond230) CFA_SP SP+-4
          CFI (cfiCond230) CFA_XSP16 add(XSP16, 10)
          CFI Block cfiCond231 Using cfiCommon0
          CFI (cfiCond231) Function ZDO_JoinConfirmCB
          CFI (cfiCond231) Conditional ??CrossCallReturnLabel_98, ??CrossCallReturnLabel_91
          CFI (cfiCond231) R6 load(1, XDATA, add(CFA_XSP16, literal(-12)))
          CFI (cfiCond231) VB load(1, XDATA, add(CFA_XSP16, literal(-11)))
          CFI (cfiCond231) V0 load(1, XDATA, add(CFA_XSP16, literal(-10)))
          CFI (cfiCond231) V1 load(1, XDATA, add(CFA_XSP16, literal(-9)))
          CFI (cfiCond231) V2 load(1, XDATA, add(CFA_XSP16, literal(-8)))
          CFI (cfiCond231) V3 load(1, XDATA, add(CFA_XSP16, literal(-7)))
          CFI (cfiCond231) R7 load(1, XDATA, add(CFA_XSP16, literal(-6)))
          CFI (cfiCond231) ?RET_LOW load(1, XDATA, add(CFA_XSP16, literal(-5)))
          CFI (cfiCond231) ?RET_HIGH load(1, XDATA, add(CFA_XSP16, literal(-4)))
          CFI (cfiCond231) ?BRET_EXT load(1, XDATA, add(CFA_XSP16, literal(-3)))
          CFI (cfiCond231) DPL0 load(1, XDATA, add(CFA_XSP16, literal(-2)))
          CFI (cfiCond231) DPH0 load(1, XDATA, add(CFA_XSP16, literal(-1)))
          CFI (cfiCond231) CFA_SP SP+-4
          CFI (cfiCond231) CFA_XSP16 add(XSP16, 17)
          CFI Block cfiCond232 Using cfiCommon0
          CFI (cfiCond232) Function ZDApp_InMsgCB
          CFI (cfiCond232) Conditional ??CrossCallReturnLabel_98, ??CrossCallReturnLabel_92
          CFI (cfiCond232) R6 load(1, XDATA, add(CFA_XSP16, literal(-10)))
          CFI (cfiCond232) VB load(1, XDATA, add(CFA_XSP16, literal(-9)))
          CFI (cfiCond232) V0 load(1, XDATA, add(CFA_XSP16, literal(-8)))
          CFI (cfiCond232) V1 load(1, XDATA, add(CFA_XSP16, literal(-7)))
          CFI (cfiCond232) R7 load(1, XDATA, add(CFA_XSP16, literal(-6)))
          CFI (cfiCond232) ?RET_LOW load(1, XDATA, add(CFA_XSP16, literal(-5)))
          CFI (cfiCond232) ?RET_HIGH load(1, XDATA, add(CFA_XSP16, literal(-4)))
          CFI (cfiCond232) ?BRET_EXT load(1, XDATA, add(CFA_XSP16, literal(-3)))
          CFI (cfiCond232) DPL0 load(1, XDATA, add(CFA_XSP16, literal(-2)))
          CFI (cfiCond232) DPH0 load(1, XDATA, add(CFA_XSP16, literal(-1)))
          CFI (cfiCond232) CFA_SP SP+-4
          CFI (cfiCond232) CFA_XSP16 add(XSP16, 10)
          CFI Block cfiPicker233 Using cfiCommon1
          CFI (cfiPicker233) NoFunction
          CFI (cfiPicker233) Picker
        MOVX    A,@DPTR
        MOV     R0,A
        INC     DPTR
        MOVX    A,@DPTR
        MOV     R1,A
        RET
          CFI EndBlock cfiCond204
          CFI EndBlock cfiCond205
          CFI EndBlock cfiCond206
          CFI EndBlock cfiCond207
          CFI EndBlock cfiCond208
          CFI EndBlock cfiCond209
          CFI EndBlock cfiCond210
          CFI EndBlock cfiCond211
          CFI EndBlock cfiCond212
          CFI EndBlock cfiCond213
          CFI EndBlock cfiCond214
          CFI EndBlock cfiCond215
          CFI EndBlock cfiCond216
          CFI EndBlock cfiCond217
          CFI EndBlock cfiCond218
          CFI EndBlock cfiCond219
          CFI EndBlock cfiCond220
          CFI EndBlock cfiCond221
          CFI EndBlock cfiCond222
          CFI EndBlock cfiCond223
          CFI EndBlock cfiCond224
          CFI EndBlock cfiCond225
          CFI EndBlock cfiCond226
          CFI EndBlock cfiCond227
          CFI EndBlock cfiCond228
          CFI EndBlock cfiCond229
          CFI EndBlock cfiCond230
          CFI EndBlock cfiCond231
          CFI EndBlock cfiCond232
          CFI EndBlock cfiPicker233
// 3243 
// 3244 
// 3245 /*********************************************************************
// 3246  * @fn      ZDApp_ChangeMatchDescRespPermission()
// 3247  *
// 3248  * @brief   Changes the Match Descriptor Response permission.
// 3249  *
// 3250  * @param   endpoint - endpoint to allow responses
// 3251  * @param   action - true to allow responses, false to not
// 3252  *
// 3253  * @return  none
// 3254  */

        RSEG BANKED_CODE:CODE:NOROOT(0)
// 3255 void ZDApp_ChangeMatchDescRespPermission( uint8 endpoint, uint8 action )
ZDApp_ChangeMatchDescRespPermission:
          CFI Block cfiBlock234 Using cfiCommon0
          CFI Function ZDApp_ChangeMatchDescRespPermission
        CODE
// 3256 {
        FUNCALL ZDApp_ChangeMatchDescRespPermission, afSetMatch
        LOCFRAME ISTACK, 0, STACK
        LOCFRAME PSTACK, 0, STACK
        LOCFRAME XSTACK, 9, STACK
        LOCFRAME IOVERLAY, 0, STATIC
        LOCFRAME DOVERLAY, 0, STATIC
        ARGFRAME ISTACK, 0, STACK
        ARGFRAME PSTACK, 0, STACK
        ARGFRAME XSTACK, 9, STACK
        ARGFRAME IOVERLAY, 0, STATIC
        ARGFRAME DOVERLAY, 0, STATIC
        MOV     A,#-0x9
        LCALL   ?BANKED_ENTER_XDATA
          CFI DPH0 load(1, XDATA, add(CFA_XSP16, literal(-1)))
          CFI DPL0 load(1, XDATA, add(CFA_XSP16, literal(-2)))
          CFI ?BRET_EXT load(1, XDATA, add(CFA_XSP16, literal(-3)))
          CFI ?RET_HIGH load(1, XDATA, add(CFA_XSP16, literal(-4)))
          CFI ?RET_LOW load(1, XDATA, add(CFA_XSP16, literal(-5)))
          CFI R7 load(1, XDATA, add(CFA_XSP16, literal(-6)))
          CFI V0 load(1, XDATA, add(CFA_XSP16, literal(-7)))
          CFI VB load(1, XDATA, add(CFA_XSP16, literal(-8)))
          CFI R6 load(1, XDATA, add(CFA_XSP16, literal(-9)))
          CFI CFA_SP SP+0
          CFI CFA_XSP16 add(XSP16, 9)
        ; Saved register size: 9
        ; Auto size: 0
// 3257   // Store the action
// 3258   afSetMatch( endpoint, action );
        ; Setup parameters for call to function afSetMatch
        LCALL   ??afSetMatch?relay   ; Banked call to: afSetMatch
// 3259 }
        LJMP    ??Subroutine44_0 & 0xFFFF
          CFI EndBlock cfiBlock234
// 3260 
// 3261 /*********************************************************************
// 3262  * @fn      ZDApp_NetworkInit()
// 3263  *
// 3264  * @brief   Used to start the network joining process
// 3265  *
// 3266  * @param   delay - mSec delay to wait before starting
// 3267  *
// 3268  * @return  none
// 3269  */

        RSEG BANKED_CODE:CODE:NOROOT(0)
// 3270 void ZDApp_NetworkInit( uint16 delay )
ZDApp_NetworkInit:
          CFI Block cfiBlock235 Using cfiCommon0
          CFI Function ZDApp_NetworkInit
        CODE
// 3271 {
        FUNCALL ZDApp_NetworkInit, osal_start_timerEx
        LOCFRAME ISTACK, 0, STACK
        LOCFRAME PSTACK, 0, STACK
        LOCFRAME XSTACK, 16, STACK
        LOCFRAME IOVERLAY, 0, STATIC
        LOCFRAME DOVERLAY, 0, STATIC
        ARGFRAME ISTACK, 0, STACK
        ARGFRAME PSTACK, 0, STACK
        ARGFRAME XSTACK, 16, STACK
        ARGFRAME IOVERLAY, 0, STATIC
        ARGFRAME DOVERLAY, 0, STATIC
        FUNCALL ZDApp_NetworkInit, osal_set_event
        LOCFRAME ISTACK, 0, STACK
        LOCFRAME PSTACK, 0, STACK
        LOCFRAME XSTACK, 12, STACK
        LOCFRAME IOVERLAY, 0, STATIC
        LOCFRAME DOVERLAY, 0, STATIC
        ARGFRAME ISTACK, 0, STACK
        ARGFRAME PSTACK, 0, STACK
        ARGFRAME XSTACK, 12, STACK
        ARGFRAME IOVERLAY, 0, STATIC
        ARGFRAME DOVERLAY, 0, STATIC
        REQUIRE ?V0
        REQUIRE ?V1
        REQUIRE ?V2
        REQUIRE ?V3
        MOV     A,#-0xc
        LCALL   ?BANKED_ENTER_XDATA
          CFI DPH0 load(1, XDATA, add(CFA_XSP16, literal(-1)))
          CFI DPL0 load(1, XDATA, add(CFA_XSP16, literal(-2)))
          CFI ?BRET_EXT load(1, XDATA, add(CFA_XSP16, literal(-3)))
          CFI ?RET_HIGH load(1, XDATA, add(CFA_XSP16, literal(-4)))
          CFI ?RET_LOW load(1, XDATA, add(CFA_XSP16, literal(-5)))
          CFI R7 load(1, XDATA, add(CFA_XSP16, literal(-6)))
          CFI V3 load(1, XDATA, add(CFA_XSP16, literal(-7)))
          CFI V2 load(1, XDATA, add(CFA_XSP16, literal(-8)))
          CFI V1 load(1, XDATA, add(CFA_XSP16, literal(-9)))
          CFI V0 load(1, XDATA, add(CFA_XSP16, literal(-10)))
          CFI VB load(1, XDATA, add(CFA_XSP16, literal(-11)))
          CFI R6 load(1, XDATA, add(CFA_XSP16, literal(-12)))
          CFI CFA_SP SP+0
          CFI CFA_XSP16 add(XSP16, 12)
        ; Saved register size: 12
        ; Auto size: 0
// 3272   if ( delay )
        MOV     A,R2
        ORL     A,R3
        JZ      ??ZDApp_NetworkInit_0
// 3273   {
// 3274     // Wait awhile before starting the device
// 3275     osal_start_timerEx( ZDAppTaskID, ZDO_NETWORK_INIT, delay );
        ; Setup parameters for call to function osal_start_timerEx
        MOV     ?V0,R2
        MOV     ?V1,R3
        CLR     A
        MOV     ?V2,A
        MOV     ?V3,A
        MOV     R0,#?V0
        LCALL   ?PUSH_XSTACK_I_FOUR
          CFI CFA_XSP16 add(XSP16, 16)
        MOV     R2,#0x1
        MOV     R3,#0x0
        MOV     DPTR,#ZDAppTaskID
        MOVX    A,@DPTR
        MOV     R1,A
        LCALL   ??osal_start_timerEx?relay; Banked call to: osal_start_timerEx
        MOV     A,#0x4
        LCALL   ?DEALLOC_XSTACK8
          CFI CFA_XSP16 add(XSP16, 12)
        SJMP    ??ZDApp_NetworkInit_1
// 3276   }
// 3277   else
// 3278   {
// 3279     osal_set_event( ZDAppTaskID, ZDO_NETWORK_INIT );
??ZDApp_NetworkInit_0:
        ; Setup parameters for call to function osal_set_event
        MOV     R2,#0x1
        MOV     R3,#0x0
        MOV     DPTR,#ZDAppTaskID
        MOVX    A,@DPTR
        MOV     R1,A
        LCALL   ??osal_set_event?relay; Banked call to: osal_set_event
// 3280   }
// 3281 }
??ZDApp_NetworkInit_1:
        LJMP    ??Subroutine54_0 & 0xFFFF
          CFI EndBlock cfiBlock235
// 3282 
// 3283 /*********************************************************************
// 3284  * @fn      ZDApp_NwkStateUpdateCB()
// 3285  *
// 3286  * @brief   This function notifies that this device's network
// 3287  *          state info has been changed.
// 3288  *
// 3289  * @param   none
// 3290  *
// 3291  * @return  none
// 3292  */

        RSEG BANKED_CODE:CODE:NOROOT(0)
// 3293 void ZDApp_NwkStateUpdateCB( void )
ZDApp_NwkStateUpdateCB:
          CFI Block cfiBlock236 Using cfiCommon0
          CFI Function ZDApp_NwkStateUpdateCB
        CODE
// 3294 {
        FUNCALL ZDApp_NwkStateUpdateCB, osal_get_timeoutEx
        LOCFRAME ISTACK, 2, STACK
        LOCFRAME PSTACK, 0, STACK
        LOCFRAME XSTACK, 0, STACK
        LOCFRAME IOVERLAY, 0, STATIC
        LOCFRAME DOVERLAY, 0, STATIC
        ARGFRAME ISTACK, 2, STACK
        ARGFRAME PSTACK, 0, STACK
        ARGFRAME XSTACK, 0, STACK
        ARGFRAME IOVERLAY, 0, STATIC
        ARGFRAME DOVERLAY, 0, STATIC
        FUNCALL ZDApp_NwkStateUpdateCB, ZDApp_NVUpdate
        LOCFRAME ISTACK, 2, STACK
        LOCFRAME PSTACK, 0, STACK
        LOCFRAME XSTACK, 0, STACK
        LOCFRAME IOVERLAY, 0, STATIC
        LOCFRAME DOVERLAY, 0, STATIC
        ARGFRAME ISTACK, 2, STACK
        ARGFRAME PSTACK, 0, STACK
        ARGFRAME XSTACK, 0, STACK
        ARGFRAME IOVERLAY, 0, STATIC
        ARGFRAME DOVERLAY, 0, STATIC
        PUSH    DPL
          CFI DPL0 Frame(CFA_SP, 4)
          CFI CFA_SP SP+-4
        PUSH    DPH
          CFI DPH0 Frame(CFA_SP, 5)
          CFI CFA_SP SP+-5
        ; Saved register size: 2
        ; Auto size: 0
// 3295   // Notify to save info into NV
// 3296   if ( !osal_get_timeoutEx( ZDAppTaskID, ZDO_NWK_UPDATE_NV ) )
        ; Setup parameters for call to function osal_get_timeoutEx
        MOV     R2,#0x0
        MOV     R3,#0x1
        MOV     DPTR,#ZDAppTaskID
        MOVX    A,@DPTR
        MOV     R1,A
        LCALL   ??osal_get_timeoutEx?relay; Banked call to: osal_get_timeoutEx
        MOV     A,R2
        ORL     A,R3
        ORL     A,R4
        ORL     A,R5
        JNZ     ??ZDApp_NwkStateUpdateCB_0
// 3297   {
// 3298     // Trigger to save info into NV
// 3299     ZDApp_NVUpdate();
        ; Setup parameters for call to function ZDApp_NVUpdate
        LCALL   ??ZDApp_NVUpdate?relay; Banked call to: ZDApp_NVUpdate
// 3300   }
// 3301 }
??ZDApp_NwkStateUpdateCB_0:
        LJMP    ??Subroutine40_0 & 0xFFFF
          CFI EndBlock cfiBlock236
// 3302 
// 3303 /*********************************************************************
// 3304  * @fn      ZDApp_NodeProfileSync()
// 3305  *
// 3306  * @brief   Sync node with stack profile.
// 3307  *
// 3308  * @param   stackProfile - stack profile of the network to join
// 3309  *
// 3310  * @return  none
// 3311  */

        RSEG BANKED_CODE:CODE:NOROOT(0)
// 3312 void ZDApp_NodeProfileSync( uint8 stackProfile )
ZDApp_NodeProfileSync:
          CFI Block cfiBlock237 Using cfiCommon0
          CFI Function ZDApp_NodeProfileSync
        CODE
// 3313 {
        FUNCALL ZDApp_NodeProfileSync, NLME_SetBroadcastFilter
        LOCFRAME ISTACK, 0, STACK
        LOCFRAME PSTACK, 0, STACK
        LOCFRAME XSTACK, 9, STACK
        LOCFRAME IOVERLAY, 0, STATIC
        LOCFRAME DOVERLAY, 0, STATIC
        ARGFRAME ISTACK, 0, STACK
        ARGFRAME PSTACK, 0, STACK
        ARGFRAME XSTACK, 9, STACK
        ARGFRAME IOVERLAY, 0, STATIC
        ARGFRAME DOVERLAY, 0, STATIC
        MOV     A,#-0x9
        LCALL   ?BANKED_ENTER_XDATA
          CFI DPH0 load(1, XDATA, add(CFA_XSP16, literal(-1)))
          CFI DPL0 load(1, XDATA, add(CFA_XSP16, literal(-2)))
          CFI ?BRET_EXT load(1, XDATA, add(CFA_XSP16, literal(-3)))
          CFI ?RET_HIGH load(1, XDATA, add(CFA_XSP16, literal(-4)))
          CFI ?RET_LOW load(1, XDATA, add(CFA_XSP16, literal(-5)))
          CFI R7 load(1, XDATA, add(CFA_XSP16, literal(-6)))
          CFI V0 load(1, XDATA, add(CFA_XSP16, literal(-7)))
          CFI VB load(1, XDATA, add(CFA_XSP16, literal(-8)))
          CFI R6 load(1, XDATA, add(CFA_XSP16, literal(-9)))
          CFI CFA_SP SP+0
          CFI CFA_XSP16 add(XSP16, 9)
        ; Saved register size: 9
        ; Auto size: 0
        MOV     A,R1
        MOV     R6,A
// 3314   if ( ZDO_Config_Node_Descriptor.CapabilityFlags & CAPINFO_DEVICETYPE_FFD  )
        MOV     DPTR,#ZDO_Config_Node_Descriptor + 2
        MOVX    A,@DPTR
        MOV     C,0xE0 /* A   */.1
        JNC     ??ZDApp_NodeProfileSync_0
// 3315   {
// 3316     if ( stackProfile != zgStackProfile )
        MOV     DPTR,#zgStackProfile
        MOVX    A,@DPTR
        XRL     A,R6
        JZ      ??ZDApp_NodeProfileSync_0
// 3317     {
// 3318       ZDO_Config_Node_Descriptor.LogicalType = NODETYPE_DEVICE;
        MOV     DPTR,#ZDO_Config_Node_Descriptor
        MOVX    A,@DPTR
        ANL     A,#0xf8
        ORL     A,#0x2
        MOVX    @DPTR,A
// 3319       ZDO_Config_Node_Descriptor.CapabilityFlags = CAPINFO_DEVICETYPE_RFD | CAPINFO_POWER_AC | CAPINFO_RCVR_ON_IDLE;
        MOV     DPTR,#ZDO_Config_Node_Descriptor + 2
        MOV     A,#0xc
        MOVX    @DPTR,A
// 3320       NLME_SetBroadcastFilter( ZDO_Config_Node_Descriptor.CapabilityFlags );
        ; Setup parameters for call to function NLME_SetBroadcastFilter
        MOV     R1,A
        LCALL   ??NLME_SetBroadcastFilter?relay; Banked call to: NLME_SetBroadcastFilter
// 3321     }
// 3322   }
// 3323 }
??ZDApp_NodeProfileSync_0:
        LJMP    ??Subroutine44_0 & 0xFFFF
          CFI EndBlock cfiBlock237
// 3324 
// 3325 /*********************************************************************
// 3326  * @fn      ZDApp_StartJoiningCycle()
// 3327  *
// 3328  * @brief   Starts the joining cycle of a device.  This will only
// 3329  *          continue an already started (or stopped) joining cycle.
// 3330  *
// 3331  * @param   none
// 3332  *
// 3333  * @return  TRUE if joining stopped, FALSE if joining or rejoining
// 3334  */

        RSEG BANKED_CODE:CODE:NOROOT(0)
// 3335 uint8 ZDApp_StartJoiningCycle( void )
ZDApp_StartJoiningCycle:
          CFI Block cfiBlock238 Using cfiCommon0
          CFI Function ZDApp_StartJoiningCycle
        CODE
// 3336 {
        FUNCALL ZDApp_StartJoiningCycle, ZDApp_NetworkInit
        LOCFRAME ISTACK, 2, STACK
        LOCFRAME PSTACK, 0, STACK
        LOCFRAME XSTACK, 0, STACK
        LOCFRAME IOVERLAY, 0, STATIC
        LOCFRAME DOVERLAY, 0, STATIC
        ARGFRAME ISTACK, 2, STACK
        ARGFRAME PSTACK, 0, STACK
        ARGFRAME XSTACK, 0, STACK
        ARGFRAME IOVERLAY, 0, STATIC
        ARGFRAME DOVERLAY, 0, STATIC
        PUSH    DPL
          CFI DPL0 Frame(CFA_SP, 4)
          CFI CFA_SP SP+-4
        PUSH    DPH
          CFI DPH0 Frame(CFA_SP, 5)
          CFI CFA_SP SP+-5
        ; Saved register size: 2
        ; Auto size: 0
// 3337   if ( devState == DEV_INIT || devState == DEV_NWK_DISC )
        MOV     DPTR,#devState
        MOVX    A,@DPTR
        XRL     A,#0x1
        JZ      ??ZDApp_StartJoiningCycle_0
        MOVX    A,@DPTR
        XRL     A,#0x2
        JNZ     ??ZDApp_StartJoiningCycle_1
// 3338   {
// 3339     continueJoining = TRUE;
??ZDApp_StartJoiningCycle_0:
        MOV     DPTR,#continueJoining
        MOV     A,#0x1
        MOVX    @DPTR,A
// 3340     ZDApp_NetworkInit( 0 );
        ; Setup parameters for call to function ZDApp_NetworkInit
        MOV     R2,#0x0
        MOV     R3,#0x0
        LCALL   ??ZDApp_NetworkInit?relay; Banked call to: ZDApp_NetworkInit
// 3341 
// 3342     return ( TRUE );
        MOV     R1,#0x1
        SJMP    ??ZDApp_StartJoiningCycle_2
// 3343   }
// 3344   else
// 3345     return ( FALSE );
??ZDApp_StartJoiningCycle_1:
        MOV     R1,#0x0
??ZDApp_StartJoiningCycle_2:
        LJMP    ??Subroutine40_0 & 0xFFFF
          CFI EndBlock cfiBlock238
// 3346 }
// 3347 
// 3348 /*********************************************************************
// 3349  * @fn      ZDApp_StopJoiningCycle()
// 3350  *
// 3351  * @brief   Stops the joining or rejoining process of a device.
// 3352  *
// 3353  * @param   none
// 3354  *
// 3355  * @return  TRUE if joining stopped, FALSE if joining or rejoining
// 3356  */

        RSEG BANKED_CODE:CODE:NOROOT(0)
// 3357 uint8 ZDApp_StopJoiningCycle( void )
ZDApp_StopJoiningCycle:
          CFI Block cfiBlock239 Using cfiCommon0
          CFI Function ZDApp_StopJoiningCycle
        CODE
// 3358 {
        PUSH    DPL
          CFI DPL0 Frame(CFA_SP, 4)
          CFI CFA_SP SP+-4
        PUSH    DPH
          CFI DPH0 Frame(CFA_SP, 5)
          CFI CFA_SP SP+-5
        ; Saved register size: 2
        ; Auto size: 0
// 3359   if ( devState == DEV_INIT || devState == DEV_NWK_DISC || devState == DEV_NWK_BACKOFF )
        MOV     DPTR,#devState
        MOVX    A,@DPTR
        XRL     A,#0x1
        JZ      ??ZDApp_StopJoiningCycle_0
        MOVX    A,@DPTR
        XRL     A,#0x2
        JZ      ??ZDApp_StopJoiningCycle_0
        MOVX    A,@DPTR
        XRL     A,#0xc
        JNZ     ??ZDApp_StopJoiningCycle_1
// 3360   {
// 3361     continueJoining = FALSE;
??ZDApp_StopJoiningCycle_0:
        MOV     DPTR,#continueJoining
        CLR     A
        MOVX    @DPTR,A
// 3362     return ( TRUE );
        MOV     R1,#0x1
        SJMP    ??ZDApp_StopJoiningCycle_2
// 3363   }
// 3364   else
// 3365     return ( FALSE );
??ZDApp_StopJoiningCycle_1:
        MOV     R1,#0x0
??ZDApp_StopJoiningCycle_2:
        LJMP    ??Subroutine40_0 & 0xFFFF
          CFI EndBlock cfiBlock239
// 3366 }
// 3367 
// 3368 /*********************************************************************
// 3369  * @fn      ZDApp_AnnounceNewAddress()
// 3370  *
// 3371  * @brief   Send Device Announce and hold all transmissions for
// 3372  *          new address timeout.
// 3373  *
// 3374  * @param   none
// 3375  *
// 3376  * @return  none
// 3377  */

        RSEG BANKED_CODE:CODE:NOROOT(0)
// 3378 void ZDApp_AnnounceNewAddress( void )
ZDApp_AnnounceNewAddress:
          CFI Block cfiBlock240 Using cfiCommon0
          CFI Function ZDApp_AnnounceNewAddress
        CODE
// 3379 {
        FUNCALL ZDApp_AnnounceNewAddress, APSME_HoldDataRequests
        LOCFRAME ISTACK, 0, STACK
        LOCFRAME PSTACK, 0, STACK
        LOCFRAME XSTACK, 18, STACK
        LOCFRAME IOVERLAY, 0, STATIC
        LOCFRAME DOVERLAY, 0, STATIC
        ARGFRAME ISTACK, 0, STACK
        ARGFRAME PSTACK, 0, STACK
        ARGFRAME XSTACK, 18, STACK
        ARGFRAME IOVERLAY, 0, STATIC
        ARGFRAME DOVERLAY, 0, STATIC
        FUNCALL ZDApp_AnnounceNewAddress, NLME_GetExtAddr
        LOCFRAME ISTACK, 0, STACK
        LOCFRAME PSTACK, 0, STACK
        LOCFRAME XSTACK, 18, STACK
        LOCFRAME IOVERLAY, 0, STATIC
        LOCFRAME DOVERLAY, 0, STATIC
        ARGFRAME ISTACK, 0, STACK
        ARGFRAME PSTACK, 0, STACK
        ARGFRAME XSTACK, 18, STACK
        ARGFRAME IOVERLAY, 0, STATIC
        ARGFRAME DOVERLAY, 0, STATIC
        FUNCALL ZDApp_AnnounceNewAddress, NLME_GetShortAddr
        LOCFRAME ISTACK, 0, STACK
        LOCFRAME PSTACK, 0, STACK
        LOCFRAME XSTACK, 18, STACK
        LOCFRAME IOVERLAY, 0, STATIC
        LOCFRAME DOVERLAY, 0, STATIC
        ARGFRAME ISTACK, 0, STACK
        ARGFRAME PSTACK, 0, STACK
        ARGFRAME XSTACK, 18, STACK
        ARGFRAME IOVERLAY, 0, STATIC
        ARGFRAME DOVERLAY, 0, STATIC
        FUNCALL ZDApp_AnnounceNewAddress, ZDP_DeviceAnnce
        LOCFRAME ISTACK, 0, STACK
        LOCFRAME PSTACK, 0, STACK
        LOCFRAME XSTACK, 19, STACK
        LOCFRAME IOVERLAY, 0, STATIC
        LOCFRAME DOVERLAY, 0, STATIC
        ARGFRAME ISTACK, 0, STACK
        ARGFRAME PSTACK, 0, STACK
        ARGFRAME XSTACK, 19, STACK
        ARGFRAME IOVERLAY, 0, STATIC
        ARGFRAME DOVERLAY, 0, STATIC
        FUNCALL ZDApp_AnnounceNewAddress, APSME_HoldDataRequests
        LOCFRAME ISTACK, 0, STACK
        LOCFRAME PSTACK, 0, STACK
        LOCFRAME XSTACK, 18, STACK
        LOCFRAME IOVERLAY, 0, STATIC
        LOCFRAME DOVERLAY, 0, STATIC
        ARGFRAME ISTACK, 0, STACK
        ARGFRAME PSTACK, 0, STACK
        ARGFRAME XSTACK, 18, STACK
        ARGFRAME IOVERLAY, 0, STATIC
        ARGFRAME DOVERLAY, 0, STATIC
        FUNCALL ZDApp_AnnounceNewAddress, NLME_GetCoordExtAddr
        LOCFRAME ISTACK, 0, STACK
        LOCFRAME PSTACK, 0, STACK
        LOCFRAME XSTACK, 18, STACK
        LOCFRAME IOVERLAY, 0, STATIC
        LOCFRAME DOVERLAY, 0, STATIC
        ARGFRAME ISTACK, 0, STACK
        ARGFRAME PSTACK, 0, STACK
        ARGFRAME XSTACK, 18, STACK
        ARGFRAME IOVERLAY, 0, STATIC
        ARGFRAME DOVERLAY, 0, STATIC
        FUNCALL ZDApp_AnnounceNewAddress, NLME_GetCoordShortAddr
        LOCFRAME ISTACK, 0, STACK
        LOCFRAME PSTACK, 0, STACK
        LOCFRAME XSTACK, 18, STACK
        LOCFRAME IOVERLAY, 0, STATIC
        LOCFRAME DOVERLAY, 0, STATIC
        ARGFRAME ISTACK, 0, STACK
        ARGFRAME PSTACK, 0, STACK
        ARGFRAME XSTACK, 18, STACK
        ARGFRAME IOVERLAY, 0, STATIC
        ARGFRAME DOVERLAY, 0, STATIC
        FUNCALL ZDApp_AnnounceNewAddress, NLME_SendEndDevTimeoutReq
        LOCFRAME ISTACK, 0, STACK
        LOCFRAME PSTACK, 0, STACK
        LOCFRAME XSTACK, 19, STACK
        LOCFRAME IOVERLAY, 0, STATIC
        LOCFRAME DOVERLAY, 0, STATIC
        ARGFRAME ISTACK, 0, STACK
        ARGFRAME PSTACK, 0, STACK
        ARGFRAME XSTACK, 19, STACK
        ARGFRAME IOVERLAY, 0, STATIC
        ARGFRAME DOVERLAY, 0, STATIC
        REQUIRE ?V0
        REQUIRE ?V1
        MOV     A,#-0xa
        LCALL   ?BANKED_ENTER_XDATA
          CFI DPH0 load(1, XDATA, add(CFA_XSP16, literal(-1)))
          CFI DPL0 load(1, XDATA, add(CFA_XSP16, literal(-2)))
          CFI ?BRET_EXT load(1, XDATA, add(CFA_XSP16, literal(-3)))
          CFI ?RET_HIGH load(1, XDATA, add(CFA_XSP16, literal(-4)))
          CFI ?RET_LOW load(1, XDATA, add(CFA_XSP16, literal(-5)))
          CFI R7 load(1, XDATA, add(CFA_XSP16, literal(-6)))
          CFI V1 load(1, XDATA, add(CFA_XSP16, literal(-7)))
          CFI V0 load(1, XDATA, add(CFA_XSP16, literal(-8)))
          CFI VB load(1, XDATA, add(CFA_XSP16, literal(-9)))
          CFI R6 load(1, XDATA, add(CFA_XSP16, literal(-10)))
          CFI CFA_SP SP+0
          CFI CFA_XSP16 add(XSP16, 10)
        ; Saved register size: 10
        ; Auto size: 8
        MOV     A,#-0x8
        LCALL   ?ALLOC_XSTACK8
          CFI CFA_XSP16 add(XSP16, 18)
// 3380 #if defined ( ZIGBEEPRO )
// 3381   // Turn off data request hold
// 3382   APSME_HoldDataRequests( 0 );
        ; Setup parameters for call to function APSME_HoldDataRequests
        MOV     R2,#0x0
        MOV     R3,#0x0
        LCALL   ??APSME_HoldDataRequests?relay; Banked call to: APSME_HoldDataRequests
// 3383 #endif
// 3384 
// 3385   ZDP_DeviceAnnce( NLME_GetShortAddr(), NLME_GetExtAddr(),
// 3386                      ZDO_Config_Node_Descriptor.CapabilityFlags, 0 );
        ; Setup parameters for call to function NLME_GetExtAddr
        LCALL   ??NLME_GetExtAddr?relay; Banked call to: NLME_GetExtAddr
        MOV     ?V0,R2
        MOV     ?V1,R3
        MOV     R6,?V0
        ; Setup parameters for call to function NLME_GetShortAddr
        LCALL   ??NLME_GetShortAddr?relay; Banked call to: NLME_GetShortAddr
        ; Setup parameters for call to function ZDP_DeviceAnnce
        MOV     ?V0,#0x0
        MOV     R0,#?V0
        LCALL   ?PUSH_XSTACK_I_ONE
          CFI CFA_XSP16 add(XSP16, 19)
        MOV     DPTR,#ZDO_Config_Node_Descriptor + 2
        MOVX    A,@DPTR
        MOV     R1,A
        MOV     A,R6
        MOV     R4,A
        MOV     R5,?V1
        LCALL   ??ZDP_DeviceAnnce?relay; Banked call to: ZDP_DeviceAnnce
        MOV     A,#0x1
        LCALL   ?DEALLOC_XSTACK8
          CFI CFA_XSP16 add(XSP16, 18)
// 3387 
// 3388 #if defined ( ZIGBEEPRO )
// 3389   // Setup the timeout
// 3390   APSME_HoldDataRequests( ZDAPP_HOLD_DATA_REQUESTS_TIMEOUT );
        ; Setup parameters for call to function APSME_HoldDataRequests
        MOV     R2,#0x0
        MOV     R3,#0x0
        LCALL   ??APSME_HoldDataRequests?relay; Banked call to: APSME_HoldDataRequests
// 3391 #endif
// 3392 
// 3393   if ( ZSTACK_END_DEVICE_BUILD )
// 3394   {
// 3395     if ( zgChildAgingEnable == TRUE )
        MOV     DPTR,#zgChildAgingEnable
        MOVX    A,@DPTR
        XRL     A,#0x1
        JNZ     ??ZDApp_AnnounceNewAddress_0
// 3396     {
// 3397       uint8 coordExtAddr[Z_EXTADDR_LEN];
// 3398 
// 3399       // Send the message to parent
// 3400       NLME_GetCoordExtAddr( coordExtAddr );
        ; Setup parameters for call to function NLME_GetCoordExtAddr
        MOV     R2,?XSP + 0
        MOV     R3,?XSP + 1
        LCALL   ??NLME_GetCoordExtAddr?relay; Banked call to: NLME_GetCoordExtAddr
// 3401       NLME_SendEndDevTimeoutReq( NLME_GetCoordShortAddr(), coordExtAddr,
// 3402                                  zgEndDeviceTimeoutValue,
// 3403                                  zgEndDeviceConfiguration );
        ; Setup parameters for call to function NLME_GetCoordShortAddr
        LCALL   ??NLME_GetCoordShortAddr?relay; Banked call to: NLME_GetCoordShortAddr
        ; Setup parameters for call to function NLME_SendEndDevTimeoutReq
        MOV     DPTR,#zgEndDeviceConfiguration
        MOVX    A,@DPTR
        MOV     ?V0,A
        MOV     R0,#?V0
        LCALL   ?PUSH_XSTACK_I_ONE
          CFI CFA_XSP16 add(XSP16, 19)
        MOV     DPTR,#zgEndDeviceTimeoutValue
        MOVX    A,@DPTR
        MOV     R1,A
        MOV     A,#0x1
        LCALL   ?XSTACK_DISP102_8
        LCALL   ??NLME_SendEndDevTimeoutReq?relay; Banked call to: NLME_SendEndDevTimeoutReq
        MOV     A,#0x1
        LCALL   ?DEALLOC_XSTACK8
          CFI CFA_XSP16 add(XSP16, 18)
// 3404     }
// 3405   }
// 3406 }
??ZDApp_AnnounceNewAddress_0:
        MOV     A,#0x8
        SJMP    ??Subroutine50_0
          CFI EndBlock cfiBlock240

        RSEG BANKED_CODE:CODE:NOROOT(0)
?Subroutine4:
          CFI Block cfiBlock241 Using cfiCommon0
          CFI NoFunction
          CFI CFA_SP SP+0
          CFI CFA_XSP16 add(XSP16, 10)
          CFI VB load(1, XDATA, add(CFA_XSP16, literal(-9)))
          CFI DPL0 load(1, XDATA, add(CFA_XSP16, literal(-2)))
          CFI DPH0 load(1, XDATA, add(CFA_XSP16, literal(-1)))
          CFI R6 load(1, XDATA, add(CFA_XSP16, literal(-10)))
          CFI R7 load(1, XDATA, add(CFA_XSP16, literal(-6)))
          CFI V0 load(1, XDATA, add(CFA_XSP16, literal(-8)))
          CFI V1 load(1, XDATA, add(CFA_XSP16, literal(-7)))
          CFI ?BRET_EXT load(1, XDATA, add(CFA_XSP16, literal(-3)))
          CFI ?RET_HIGH load(1, XDATA, add(CFA_XSP16, literal(-4)))
          CFI ?RET_LOW load(1, XDATA, add(CFA_XSP16, literal(-5)))
        MOV     ?V0,#ZDApp_LeaveCtrl & 0xff
        MOV     ?V1,#(ZDApp_LeaveCtrl >> 8) & 0xff
        MOV     R0,#?V0
        LCALL   ?PUSH_XSTACK_I_TWO
          CFI CFA_XSP16 add(XSP16, 12)
        MOV     ?V0,#0x1
        MOV     ?V1,#0x0
        MOV     R0,#?V0
        LCALL   ?PUSH_XSTACK_I_TWO
          CFI CFA_XSP16 add(XSP16, 14)
        MOV     R4,#0x0
        MOV     R5,#0x0
        MOV     R2,#-0x7b
        MOV     R3,#0x0
        LCALL   ??osal_nv_write?relay; Banked call to: osal_nv_write
        MOV     A,#0x4
          CFI EndBlock cfiBlock241
        REQUIRE ??Subroutine50_0
        ; // Fall through to label ??Subroutine50_0

        RSEG BANKED_CODE:CODE:NOROOT(0)
??Subroutine50_0:
          CFI Block cfiBlock242 Using cfiCommon0
          CFI NoFunction
          CFI CFA_SP SP+0
          CFI CFA_XSP16 add(XSP16, 27)
          CFI VB load(1, XDATA, add(CFA_XSP16, literal(-9)))
          CFI DPL0 load(1, XDATA, add(CFA_XSP16, literal(-2)))
          CFI DPH0 load(1, XDATA, add(CFA_XSP16, literal(-1)))
          CFI R6 load(1, XDATA, add(CFA_XSP16, literal(-10)))
          CFI R7 load(1, XDATA, add(CFA_XSP16, literal(-6)))
          CFI V0 load(1, XDATA, add(CFA_XSP16, literal(-8)))
          CFI V1 load(1, XDATA, add(CFA_XSP16, literal(-7)))
          CFI ?BRET_EXT load(1, XDATA, add(CFA_XSP16, literal(-3)))
          CFI ?RET_HIGH load(1, XDATA, add(CFA_XSP16, literal(-4)))
          CFI ?RET_LOW load(1, XDATA, add(CFA_XSP16, literal(-5)))
          CFI Invalid
        LCALL   ?DEALLOC_XSTACK8
          CFI EndBlock cfiBlock242
        REQUIRE ??Subroutine51_0
        ; // Fall through to label ??Subroutine51_0

        RSEG BANKED_CODE:CODE:NOROOT(0)
??Subroutine51_0:
          CFI Block cfiBlock243 Using cfiCommon0
          CFI NoFunction
          CFI CFA_SP SP+0
          CFI CFA_XSP16 add(XSP16, 10)
          CFI VB load(1, XDATA, add(CFA_XSP16, literal(-9)))
          CFI DPL0 load(1, XDATA, add(CFA_XSP16, literal(-2)))
          CFI DPH0 load(1, XDATA, add(CFA_XSP16, literal(-1)))
          CFI R6 load(1, XDATA, add(CFA_XSP16, literal(-10)))
          CFI R7 load(1, XDATA, add(CFA_XSP16, literal(-6)))
          CFI V0 load(1, XDATA, add(CFA_XSP16, literal(-8)))
          CFI V1 load(1, XDATA, add(CFA_XSP16, literal(-7)))
          CFI ?BRET_EXT load(1, XDATA, add(CFA_XSP16, literal(-3)))
          CFI ?RET_HIGH load(1, XDATA, add(CFA_XSP16, literal(-4)))
          CFI ?RET_LOW load(1, XDATA, add(CFA_XSP16, literal(-5)))
        MOV     R7,#0x2
        LJMP    ?BANKED_LEAVE_XDATA
          CFI EndBlock cfiBlock243
// 3407 
// 3408 /*********************************************************************
// 3409  * @fn      ZDApp_SendParentAnnce()
// 3410  *
// 3411  * @brief   Send Parent Announce message.
// 3412  *
// 3413  * @param   none
// 3414  *
// 3415  * @return  none
// 3416  */

        RSEG BANKED_CODE:CODE:NOROOT(0)
// 3417 void ZDApp_SendParentAnnce( void )
ZDApp_SendParentAnnce:
          CFI Block cfiBlock244 Using cfiCommon0
          CFI Function ZDApp_SendParentAnnce
        CODE
// 3418 {
        FUNCALL ZDApp_SendParentAnnce, AssocMakeListOfRfdChild
        LOCFRAME ISTACK, 0, STACK
        LOCFRAME PSTACK, 0, STACK
        LOCFRAME XSTACK, 22, STACK
        LOCFRAME IOVERLAY, 0, STATIC
        LOCFRAME DOVERLAY, 0, STATIC
        ARGFRAME ISTACK, 0, STACK
        ARGFRAME PSTACK, 0, STACK
        ARGFRAME XSTACK, 22, STACK
        ARGFRAME IOVERLAY, 0, STATIC
        ARGFRAME DOVERLAY, 0, STATIC
        FUNCALL ZDApp_SendParentAnnce, ZDP_ParentAnnce
        LOCFRAME ISTACK, 0, STACK
        LOCFRAME PSTACK, 0, STACK
        LOCFRAME XSTACK, 27, STACK
        LOCFRAME IOVERLAY, 0, STATIC
        LOCFRAME DOVERLAY, 0, STATIC
        ARGFRAME ISTACK, 0, STACK
        ARGFRAME PSTACK, 0, STACK
        ARGFRAME XSTACK, 27, STACK
        ARGFRAME IOVERLAY, 0, STATIC
        ARGFRAME DOVERLAY, 0, STATIC
        FUNCALL ZDApp_SendParentAnnce, osal_mem_free
        LOCFRAME ISTACK, 0, STACK
        LOCFRAME PSTACK, 0, STACK
        LOCFRAME XSTACK, 22, STACK
        LOCFRAME IOVERLAY, 0, STATIC
        LOCFRAME DOVERLAY, 0, STATIC
        ARGFRAME ISTACK, 0, STACK
        ARGFRAME PSTACK, 0, STACK
        ARGFRAME XSTACK, 22, STACK
        ARGFRAME IOVERLAY, 0, STATIC
        ARGFRAME DOVERLAY, 0, STATIC
        REQUIRE ?V0
        REQUIRE ?V1
        REQUIRE ?V2
        REQUIRE ?V3
        MOV     A,#-0xc
        LCALL   ?BANKED_ENTER_XDATA
          CFI DPH0 load(1, XDATA, add(CFA_XSP16, literal(-1)))
          CFI DPL0 load(1, XDATA, add(CFA_XSP16, literal(-2)))
          CFI ?BRET_EXT load(1, XDATA, add(CFA_XSP16, literal(-3)))
          CFI ?RET_HIGH load(1, XDATA, add(CFA_XSP16, literal(-4)))
          CFI ?RET_LOW load(1, XDATA, add(CFA_XSP16, literal(-5)))
          CFI R7 load(1, XDATA, add(CFA_XSP16, literal(-6)))
          CFI V3 load(1, XDATA, add(CFA_XSP16, literal(-7)))
          CFI V2 load(1, XDATA, add(CFA_XSP16, literal(-8)))
          CFI V1 load(1, XDATA, add(CFA_XSP16, literal(-9)))
          CFI V0 load(1, XDATA, add(CFA_XSP16, literal(-10)))
          CFI VB load(1, XDATA, add(CFA_XSP16, literal(-11)))
          CFI R6 load(1, XDATA, add(CFA_XSP16, literal(-12)))
          CFI CFA_SP SP+0
          CFI CFA_XSP16 add(XSP16, 12)
        ; Saved register size: 12
        ; Auto size: 10
        MOV     A,#-0xa
        LCALL   ?ALLOC_XSTACK8
          CFI CFA_XSP16 add(XSP16, 22)
// 3419   uint8 count;
// 3420   uint8 *childInfo;
// 3421 
// 3422   childInfo = AssocMakeListOfRfdChild( &count );
        ; Setup parameters for call to function AssocMakeListOfRfdChild
        MOV     R2,?XSP + 0
        MOV     R3,?XSP + 1
        LCALL   ??AssocMakeListOfRfdChild?relay; Banked call to: AssocMakeListOfRfdChild
        MOV     ?V0,R2
        MOV     ?V1,R3
// 3423 
// 3424   if ( childInfo != NULL )
        MOV     A,R2
        ORL     A,?V1
        JZ      ??ZDApp_SendParentAnnce_0
// 3425   {
// 3426     if ( count > 0 )
        MOV     DPL,?XSP + 0
        MOV     DPH,?XSP + 1
        MOVX    A,@DPTR
        JZ      ??ZDApp_SendParentAnnce_1
// 3427     {
// 3428       zAddrType_t dstAddr;
// 3429 
// 3430       dstAddr.addrMode = (afAddrMode_t)AddrBroadcast;
        MOV     A,#0x9
        LCALL   ?XSTACK_DISP0_8
        MOV     A,#0xf
        MOVX    @DPTR,A
// 3431       dstAddr.addr.shortAddr = NWK_BROADCAST_SHORTADDR_DEVZCZR;
        MOV     A,#0x1
        LCALL   ?XSTACK_DISP0_8
        MOV     A,#-0x4
        MOVX    @DPTR,A
        INC     DPTR
        MOV     A,#-0x1
        MOVX    @DPTR,A
// 3432 
// 3433       ZDP_ParentAnnceReq( dstAddr, count, childInfo, 0 );
        ; Setup parameters for call to function ZDP_ParentAnnce
        MOV     ?V2,#0x0
        MOV     R0,#?V2
        LCALL   ?PUSH_XSTACK_I_ONE
          CFI CFA_XSP16 add(XSP16, 23)
        MOV     ?V2,#0x1f
        MOV     ?V3,#0x0
        MOV     R0,#?V2
        LCALL   ?PUSH_XSTACK_I_TWO
          CFI CFA_XSP16 add(XSP16, 25)
        MOV     R0,#?V0
        LCALL   ?PUSH_XSTACK_I_TWO
          CFI CFA_XSP16 add(XSP16, 27)
        MOV     A,#0x5
        LCALL   ?XSTACK_DISP0_8
        MOVX    A,@DPTR
        MOV     R1,A
        MOV     A,#0x6
        LCALL   ?XSTACK_DISP102_8
        MOV     R2,#ZDP_TransID & 0xff
        MOV     R3,#(ZDP_TransID >> 8) & 0xff
        LCALL   ??ZDP_ParentAnnce?relay; Banked call to: ZDP_ParentAnnce
        MOV     A,#0x5
        LCALL   ?DEALLOC_XSTACK8
          CFI CFA_XSP16 add(XSP16, 22)
// 3434     }
// 3435 
// 3436     // Free the list after the message has been sent
// 3437     osal_mem_free( childInfo );
??ZDApp_SendParentAnnce_1:
        ; Setup parameters for call to function osal_mem_free
        MOV     R2,?V0
        MOV     R3,?V1
        LCALL   ??osal_mem_free?relay; Banked call to: osal_mem_free
// 3438   }
// 3439 }
??ZDApp_SendParentAnnce_0:
        MOV     A,#0xa
        LJMP    ??Subroutine53_0 & 0xFFFF
          CFI EndBlock cfiBlock244
// 3440 
// 3441 /*********************************************************************
// 3442  * @fn          ZDApp_NVUpdate
// 3443  *
// 3444  * @brief       Set the NV Update Timer.
// 3445  *
// 3446  * @param       none
// 3447  *
// 3448  * @return      none
// 3449  */

        RSEG BANKED_CODE:CODE:NOROOT(0)
// 3450 void ZDApp_NVUpdate( void )
ZDApp_NVUpdate:
          CFI Block cfiBlock245 Using cfiCommon0
          CFI Function ZDApp_NVUpdate
        CODE
// 3451 {
        FUNCALL ZDApp_NVUpdate, osal_set_event
        LOCFRAME ISTACK, 2, STACK
        LOCFRAME PSTACK, 0, STACK
        LOCFRAME XSTACK, 0, STACK
        LOCFRAME IOVERLAY, 0, STATIC
        LOCFRAME DOVERLAY, 0, STATIC
        ARGFRAME ISTACK, 2, STACK
        ARGFRAME PSTACK, 0, STACK
        ARGFRAME XSTACK, 0, STACK
        ARGFRAME IOVERLAY, 0, STATIC
        ARGFRAME DOVERLAY, 0, STATIC
        PUSH    DPL
          CFI DPL0 Frame(CFA_SP, 4)
          CFI CFA_SP SP+-4
        PUSH    DPH
          CFI DPH0 Frame(CFA_SP, 5)
          CFI CFA_SP SP+-5
        ; Saved register size: 2
        ; Auto size: 0
// 3452 #if defined ( NV_RESTORE )
// 3453   if ( (ZSTACK_END_DEVICE_BUILD)
// 3454        || (ZSTACK_ROUTER_BUILD
// 3455            && (_NIB.CapabilityFlags & CAPINFO_DEVICETYPE_FFD) == 0) )
// 3456   {
// 3457     // No need to wait, set the event to save the state
// 3458     osal_set_event(ZDAppTaskID, ZDO_NWK_UPDATE_NV);
        ; Setup parameters for call to function osal_set_event
        MOV     R2,#0x0
        MOV     R3,#0x1
        MOV     DPTR,#ZDAppTaskID
        MOVX    A,@DPTR
        MOV     R1,A
        LCALL   ??osal_set_event?relay; Banked call to: osal_set_event
// 3459   }
// 3460   else
// 3461   {
// 3462     // To allow for more changes to the network state before saving
// 3463     osal_start_timerEx( ZDAppTaskID, ZDO_NWK_UPDATE_NV, ZDAPP_UPDATE_NWK_NV_TIME );
// 3464   }
// 3465 #endif
// 3466 }
        LJMP    ??Subroutine40_0 & 0xFFFF
          CFI EndBlock cfiBlock245
// 3467 
// 3468 /*********************************************************************
// 3469  * @fn      ZDApp_CoordStartPANIDConflictCB()
// 3470  *
// 3471  * @brief   Returns a PAN ID for the network layer to use during
// 3472  *          a coordinator start and there is another network with
// 3473  *          the intended PANID.
// 3474  *
// 3475  * @param   panid - the intended PAN ID
// 3476  *
// 3477  * @return  PANID to try
// 3478  */

        RSEG BANKED_CODE:CODE:NOROOT(0)
// 3479 uint16 ZDApp_CoordStartPANIDConflictCB( uint16 panid )
ZDApp_CoordStartPANIDConflictCB:
          CFI Block cfiBlock246 Using cfiCommon0
          CFI Function ZDApp_CoordStartPANIDConflictCB
        CODE
// 3480 {
        ; Saved register size: 0
        ; Auto size: 0
// 3481   return ( panid + 1 );
        MOV     A,R2
        ADD     A,#0x1
        INC     R2
        JNC     ??ZDApp_CoordStartPANIDConflictCB_0
        INC     R3
??ZDApp_CoordStartPANIDConflictCB_0:
        LJMP    ?BRET
          CFI EndBlock cfiBlock246
// 3482 }
// 3483 
// 3484 /*********************************************************************
// 3485  * @fn          ZDO_SrcRtgIndCB
// 3486  *
// 3487  * @brief       This function notifies the ZDO available src route record received.
// 3488  *
// 3489  * @param       srcAddr - source address of the source route
// 3490  * @param       relayCnt - number of devices in the relay list
// 3491  * @param       relayList - relay list of the source route
// 3492  *
// 3493  * @return      none
// 3494  */

        RSEG BANKED_CODE:CODE:NOROOT(0)
// 3495 void ZDO_SrcRtgIndCB (uint16 srcAddr, uint8 relayCnt, uint16* pRelayList )
ZDO_SrcRtgIndCB:
          CFI Block cfiBlock247 Using cfiCommon0
          CFI Function ZDO_SrcRtgIndCB
        CODE
// 3496 {
        MOV     A,#-0x9
        LCALL   ?BANKED_ENTER_XDATA
          CFI DPH0 load(1, XDATA, add(CFA_XSP16, literal(-1)))
          CFI DPL0 load(1, XDATA, add(CFA_XSP16, literal(-2)))
          CFI ?BRET_EXT load(1, XDATA, add(CFA_XSP16, literal(-3)))
          CFI ?RET_HIGH load(1, XDATA, add(CFA_XSP16, literal(-4)))
          CFI ?RET_LOW load(1, XDATA, add(CFA_XSP16, literal(-5)))
          CFI R7 load(1, XDATA, add(CFA_XSP16, literal(-6)))
          CFI V0 load(1, XDATA, add(CFA_XSP16, literal(-7)))
          CFI VB load(1, XDATA, add(CFA_XSP16, literal(-8)))
          CFI R6 load(1, XDATA, add(CFA_XSP16, literal(-9)))
          CFI CFA_SP SP+0
          CFI CFA_XSP16 add(XSP16, 9)
        ; Saved register size: 9
        ; Auto size: 5
        MOV     A,#-0x5
        LCALL   ?ALLOC_XSTACK8
          CFI CFA_XSP16 add(XSP16, 14)
// 3497   zdoSrcRtg_t srcRtg;
// 3498 
// 3499   srcRtg.srcAddr = srcAddr;
        LCALL   ?Subroutine14 & 0xFFFF
// 3500   srcRtg.relayCnt = relayCnt;
??CrossCallReturnLabel_106:
        MOV     A,#0x2
        LCALL   ?XSTACK_DISP0_8
        MOV     A,R1
        MOVX    @DPTR,A
// 3501   srcRtg.pRelayList = pRelayList;
        MOV     A,#0x3
        LCALL   ?XSTACK_DISP0_8
        MOV     A,R4
        MOVX    @DPTR,A
        INC     DPTR
        MOV     A,R5
        MOVX    @DPTR,A
// 3502 
// 3503   if( zdoCBFunc[ZDO_SRC_RTG_IND_CBID] != NULL )
        MOV     DPTR,#zdoCBFunc
        LCALL   ??Subroutine46_0 & 0xFFFF
??CrossCallReturnLabel_74:
        JZ      ??ZDO_SrcRtgIndCB_0
// 3504   {
// 3505     zdoCBFunc[ZDO_SRC_RTG_IND_CBID]( (void*)&srcRtg );
        ; Setup parameters for indirect call
        MOV     R2,?XSP + 0
        MOV     R3,?XSP + 1
        LCALL   ??Subroutine43_0 & 0xFFFF
// 3506   }
??CrossCallReturnLabel_57:
        LCALL   ?CALL_IND
// 3507 }
??ZDO_SrcRtgIndCB_0:
        LJMP    ?Subroutine7 & 0xFFFF
          CFI EndBlock cfiBlock247
// 3508 
// 3509 /*********************************************************************
// 3510  * @fn          ZDApp_InitZdoCBFunc
// 3511  *
// 3512  * @brief       Call this function to initialize zdoCBFunc[]
// 3513  *
// 3514  * @param       none
// 3515  *
// 3516  * @return      none
// 3517  */

        RSEG BANKED_CODE:CODE:NOROOT(0)
// 3518 void ZDApp_InitZdoCBFunc( void )
ZDApp_InitZdoCBFunc:
          CFI Block cfiBlock248 Using cfiCommon0
          CFI Function ZDApp_InitZdoCBFunc
        CODE
// 3519 {
        PUSH    DPL
          CFI DPL0 Frame(CFA_SP, 4)
          CFI CFA_SP SP+-4
        PUSH    DPH
          CFI DPH0 Frame(CFA_SP, 5)
          CFI CFA_SP SP+-5
        ; Saved register size: 2
        ; Auto size: 0
// 3520   uint8 i;
// 3521 
// 3522   for ( i=0; i< MAX_ZDO_CB_FUNC; i++ )
        MOV     R2,#0x0
// 3523   {
// 3524     zdoCBFunc[i] = NULL;
??ZDApp_InitZdoCBFunc_0:
        MOV     A,R2
        ADD     A,0xE0 /* A   */
        LCALL   ?Subroutine27 & 0xFFFF
// 3525   }
??CrossCallReturnLabel_23:
        INC     R2
        MOV     A,R2
        CLR     C
        SUBB    A,#0x9
        JC      ??ZDApp_InitZdoCBFunc_0
// 3526 }
        LJMP    ??Subroutine40_0 & 0xFFFF
          CFI EndBlock cfiBlock248
// 3527 
// 3528 /*********************************************************************
// 3529  * @fn          ZDO_RegisterForZdoCB
// 3530  *
// 3531  * @brief       Call this function to register the higher layer (for
// 3532  *              example, the Application layer or MT layer) with ZDO
// 3533  *              callbacks to get notified of some ZDO indication like
// 3534  *              existence of a concentrator or receipt of a source
// 3535  *              route record.
// 3536  *
// 3537  * @param       indID - ZDO Indication ID
// 3538  * @param       pFn   - Callback function pointer
// 3539  *
// 3540  * @return      ZSuccess - successful, ZInvalidParameter if not
// 3541  */

        RSEG BANKED_CODE:CODE:NOROOT(0)
// 3542 ZStatus_t ZDO_RegisterForZdoCB( uint8 indID, pfnZdoCb pFn )
ZDO_RegisterForZdoCB:
          CFI Block cfiBlock249 Using cfiCommon0
          CFI Function ZDO_RegisterForZdoCB
        CODE
// 3543 {
        PUSH    DPL
          CFI DPL0 Frame(CFA_SP, 4)
          CFI CFA_SP SP+-4
        PUSH    DPH
          CFI DPH0 Frame(CFA_SP, 5)
          CFI CFA_SP SP+-5
        ; Saved register size: 2
        ; Auto size: 0
        MOV     A,R1
        MOV     R4,A
// 3544   // Check the range of the indication ID
// 3545   if ( indID < MAX_ZDO_CB_FUNC )
        CLR     C
        SUBB    A,#0x9
        JNC     ??ZDO_RegisterForZdoCB_0
// 3546   {
// 3547     zdoCBFunc[indID] = pFn;
        MOV     A,R4
        ADD     A,R1
        LCALL   ?Subroutine37 & 0xFFFF
??CrossCallReturnLabel_42:
        LCALL   ??Subroutine52_0 & 0xFFFF
// 3548     return ZSuccess;
??CrossCallReturnLabel_103:
        MOV     R1,#0x0
        SJMP    ??ZDO_RegisterForZdoCB_1
// 3549   }
// 3550 
// 3551   return ZInvalidParameter;
??ZDO_RegisterForZdoCB_0:
        MOV     R1,#0x2
??ZDO_RegisterForZdoCB_1:
        LJMP    ??Subroutine40_0 & 0xFFFF
          CFI EndBlock cfiBlock249
// 3552 }

        RSEG BANKED_CODE:CODE:NOROOT(0)
?Subroutine14:
          CFI Block cfiCond250 Using cfiCommon0
          CFI Function ZDO_ConcentratorIndicationCB
          CFI Conditional ??CrossCallReturnLabel_105
          CFI R6 load(1, XDATA, add(CFA_XSP16, literal(-9)))
          CFI VB load(1, XDATA, add(CFA_XSP16, literal(-8)))
          CFI V0 load(1, XDATA, add(CFA_XSP16, literal(-7)))
          CFI R7 load(1, XDATA, add(CFA_XSP16, literal(-6)))
          CFI ?RET_LOW load(1, XDATA, add(CFA_XSP16, literal(-5)))
          CFI ?RET_HIGH load(1, XDATA, add(CFA_XSP16, literal(-4)))
          CFI ?BRET_EXT load(1, XDATA, add(CFA_XSP16, literal(-3)))
          CFI DPL0 load(1, XDATA, add(CFA_XSP16, literal(-2)))
          CFI DPH0 load(1, XDATA, add(CFA_XSP16, literal(-1)))
          CFI CFA_SP SP+-2
          CFI CFA_XSP16 add(XSP16, 14)
          CFI Block cfiCond251 Using cfiCommon0
          CFI (cfiCond251) Function ZDO_SrcRtgIndCB
          CFI (cfiCond251) Conditional ??CrossCallReturnLabel_106
          CFI (cfiCond251) R6 load(1, XDATA, add(CFA_XSP16, literal(-9)))
          CFI (cfiCond251) VB load(1, XDATA, add(CFA_XSP16, literal(-8)))
          CFI (cfiCond251) V0 load(1, XDATA, add(CFA_XSP16, literal(-7)))
          CFI (cfiCond251) R7 load(1, XDATA, add(CFA_XSP16, literal(-6)))
          CFI (cfiCond251) ?RET_LOW load(1, XDATA, add(CFA_XSP16, literal(-5)))
          CFI (cfiCond251) ?RET_HIGH load(1, XDATA, add(CFA_XSP16, literal(-4)))
          CFI (cfiCond251) ?BRET_EXT load(1, XDATA, add(CFA_XSP16, literal(-3)))
          CFI (cfiCond251) DPL0 load(1, XDATA, add(CFA_XSP16, literal(-2)))
          CFI (cfiCond251) DPH0 load(1, XDATA, add(CFA_XSP16, literal(-1)))
          CFI (cfiCond251) CFA_SP SP+-2
          CFI (cfiCond251) CFA_XSP16 add(XSP16, 14)
          CFI Block cfiPicker252 Using cfiCommon1
          CFI (cfiPicker252) NoFunction
          CFI (cfiPicker252) Picker
        MOV     DPL,?XSP + 0
        MOV     DPH,?XSP + 1
          CFI EndBlock cfiCond250
          CFI EndBlock cfiCond251
          CFI EndBlock cfiPicker252
        REQUIRE ??Subroutine52_0
        ; // Fall through to label ??Subroutine52_0

        RSEG BANKED_CODE:CODE:NOROOT(0)
??Subroutine52_0:
          CFI Block cfiCond253 Using cfiCommon0
          CFI Function ZDApp_RestoreNetworkState
          CFI Conditional ??CrossCallReturnLabel_99
          CFI R6 load(1, XDATA, add(CFA_XSP16, literal(-9)))
          CFI VB load(1, XDATA, add(CFA_XSP16, literal(-8)))
          CFI V0 load(1, XDATA, add(CFA_XSP16, literal(-7)))
          CFI R7 load(1, XDATA, add(CFA_XSP16, literal(-6)))
          CFI ?RET_LOW load(1, XDATA, add(CFA_XSP16, literal(-5)))
          CFI ?RET_HIGH load(1, XDATA, add(CFA_XSP16, literal(-4)))
          CFI ?BRET_EXT load(1, XDATA, add(CFA_XSP16, literal(-3)))
          CFI DPL0 load(1, XDATA, add(CFA_XSP16, literal(-2)))
          CFI DPH0 load(1, XDATA, add(CFA_XSP16, literal(-1)))
          CFI CFA_SP SP+-2
          CFI CFA_XSP16 add(XSP16, 9)
          CFI Block cfiCond254 Using cfiCommon0
          CFI (cfiCond254) Function ZDO_beaconNotifyIndCB
          CFI (cfiCond254) Conditional ??CrossCallReturnLabel_100
          CFI (cfiCond254) R6 load(1, XDATA, add(CFA_XSP16, literal(-18)))
          CFI (cfiCond254) VB load(1, XDATA, add(CFA_XSP16, literal(-17)))
          CFI (cfiCond254) V0 load(1, XDATA, add(CFA_XSP16, literal(-16)))
          CFI (cfiCond254) V1 load(1, XDATA, add(CFA_XSP16, literal(-15)))
          CFI (cfiCond254) V2 load(1, XDATA, add(CFA_XSP16, literal(-14)))
          CFI (cfiCond254) V3 load(1, XDATA, add(CFA_XSP16, literal(-13)))
          CFI (cfiCond254) V4 load(1, XDATA, add(CFA_XSP16, literal(-12)))
          CFI (cfiCond254) V5 load(1, XDATA, add(CFA_XSP16, literal(-11)))
          CFI (cfiCond254) V6 load(1, XDATA, add(CFA_XSP16, literal(-10)))
          CFI (cfiCond254) V7 load(1, XDATA, add(CFA_XSP16, literal(-9)))
          CFI (cfiCond254) V8 load(1, XDATA, add(CFA_XSP16, literal(-8)))
          CFI (cfiCond254) V9 load(1, XDATA, add(CFA_XSP16, literal(-7)))
          CFI (cfiCond254) R7 load(1, XDATA, add(CFA_XSP16, literal(-6)))
          CFI (cfiCond254) ?RET_LOW load(1, XDATA, add(CFA_XSP16, literal(-5)))
          CFI (cfiCond254) ?RET_HIGH load(1, XDATA, add(CFA_XSP16, literal(-4)))
          CFI (cfiCond254) ?BRET_EXT load(1, XDATA, add(CFA_XSP16, literal(-3)))
          CFI (cfiCond254) DPL0 load(1, XDATA, add(CFA_XSP16, literal(-2)))
          CFI (cfiCond254) DPH0 load(1, XDATA, add(CFA_XSP16, literal(-1)))
          CFI (cfiCond254) CFA_SP SP+-2
          CFI (cfiCond254) CFA_XSP16 add(XSP16, 18)
          CFI Block cfiCond255 Using cfiCommon0
          CFI (cfiCond255) Function ZDO_JoinConfirmCB
          CFI (cfiCond255) Conditional ??CrossCallReturnLabel_101
          CFI (cfiCond255) R6 load(1, XDATA, add(CFA_XSP16, literal(-12)))
          CFI (cfiCond255) VB load(1, XDATA, add(CFA_XSP16, literal(-11)))
          CFI (cfiCond255) V0 load(1, XDATA, add(CFA_XSP16, literal(-10)))
          CFI (cfiCond255) V1 load(1, XDATA, add(CFA_XSP16, literal(-9)))
          CFI (cfiCond255) V2 load(1, XDATA, add(CFA_XSP16, literal(-8)))
          CFI (cfiCond255) V3 load(1, XDATA, add(CFA_XSP16, literal(-7)))
          CFI (cfiCond255) R7 load(1, XDATA, add(CFA_XSP16, literal(-6)))
          CFI (cfiCond255) ?RET_LOW load(1, XDATA, add(CFA_XSP16, literal(-5)))
          CFI (cfiCond255) ?RET_HIGH load(1, XDATA, add(CFA_XSP16, literal(-4)))
          CFI (cfiCond255) ?BRET_EXT load(1, XDATA, add(CFA_XSP16, literal(-3)))
          CFI (cfiCond255) DPL0 load(1, XDATA, add(CFA_XSP16, literal(-2)))
          CFI (cfiCond255) DPH0 load(1, XDATA, add(CFA_XSP16, literal(-1)))
          CFI (cfiCond255) CFA_SP SP+-2
          CFI (cfiCond255) CFA_XSP16 add(XSP16, 17)
          CFI Block cfiCond256 Using cfiCommon0
          CFI (cfiCond256) Function ZDO_JoinConfirmCB
          CFI (cfiCond256) Conditional ??CrossCallReturnLabel_102
          CFI (cfiCond256) R6 load(1, XDATA, add(CFA_XSP16, literal(-12)))
          CFI (cfiCond256) VB load(1, XDATA, add(CFA_XSP16, literal(-11)))
          CFI (cfiCond256) V0 load(1, XDATA, add(CFA_XSP16, literal(-10)))
          CFI (cfiCond256) V1 load(1, XDATA, add(CFA_XSP16, literal(-9)))
          CFI (cfiCond256) V2 load(1, XDATA, add(CFA_XSP16, literal(-8)))
          CFI (cfiCond256) V3 load(1, XDATA, add(CFA_XSP16, literal(-7)))
          CFI (cfiCond256) R7 load(1, XDATA, add(CFA_XSP16, literal(-6)))
          CFI (cfiCond256) ?RET_LOW load(1, XDATA, add(CFA_XSP16, literal(-5)))
          CFI (cfiCond256) ?RET_HIGH load(1, XDATA, add(CFA_XSP16, literal(-4)))
          CFI (cfiCond256) ?BRET_EXT load(1, XDATA, add(CFA_XSP16, literal(-3)))
          CFI (cfiCond256) DPL0 load(1, XDATA, add(CFA_XSP16, literal(-2)))
          CFI (cfiCond256) DPH0 load(1, XDATA, add(CFA_XSP16, literal(-1)))
          CFI (cfiCond256) CFA_SP SP+-2
          CFI (cfiCond256) CFA_XSP16 add(XSP16, 17)
          CFI Block cfiCond257 Using cfiCommon0
          CFI (cfiCond257) Function ZDO_RegisterForZdoCB
          CFI (cfiCond257) Conditional ??CrossCallReturnLabel_103
          CFI (cfiCond257) DPL0 Frame(CFA_SP, 4)
          CFI (cfiCond257) DPH0 Frame(CFA_SP, 5)
          CFI (cfiCond257) CFA_SP SP+-7
          CFI Block cfiCond258 Using cfiCommon0
          CFI (cfiCond258) Function ZDApp_InitPendingBind
          CFI (cfiCond258) Conditional ??CrossCallReturnLabel_104
          CFI (cfiCond258) R6 load(1, XDATA, add(CFA_XSP16, literal(-9)))
          CFI (cfiCond258) VB load(1, XDATA, add(CFA_XSP16, literal(-8)))
          CFI (cfiCond258) V0 load(1, XDATA, add(CFA_XSP16, literal(-7)))
          CFI (cfiCond258) R7 load(1, XDATA, add(CFA_XSP16, literal(-6)))
          CFI (cfiCond258) ?RET_LOW load(1, XDATA, add(CFA_XSP16, literal(-5)))
          CFI (cfiCond258) ?RET_HIGH load(1, XDATA, add(CFA_XSP16, literal(-4)))
          CFI (cfiCond258) ?BRET_EXT load(1, XDATA, add(CFA_XSP16, literal(-3)))
          CFI (cfiCond258) DPL0 load(1, XDATA, add(CFA_XSP16, literal(-2)))
          CFI (cfiCond258) DPH0 load(1, XDATA, add(CFA_XSP16, literal(-1)))
          CFI (cfiCond258) CFA_SP SP+-2
          CFI (cfiCond258) CFA_XSP16 add(XSP16, 9)
          CFI Block cfiCond259 Using cfiCommon0
          CFI (cfiCond259) Function ZDO_ConcentratorIndicationCB
          CFI (cfiCond259) Conditional ??CrossCallReturnLabel_105
          CFI (cfiCond259) R6 load(1, XDATA, add(CFA_XSP16, literal(-9)))
          CFI (cfiCond259) VB load(1, XDATA, add(CFA_XSP16, literal(-8)))
          CFI (cfiCond259) V0 load(1, XDATA, add(CFA_XSP16, literal(-7)))
          CFI (cfiCond259) R7 load(1, XDATA, add(CFA_XSP16, literal(-6)))
          CFI (cfiCond259) ?RET_LOW load(1, XDATA, add(CFA_XSP16, literal(-5)))
          CFI (cfiCond259) ?RET_HIGH load(1, XDATA, add(CFA_XSP16, literal(-4)))
          CFI (cfiCond259) ?BRET_EXT load(1, XDATA, add(CFA_XSP16, literal(-3)))
          CFI (cfiCond259) DPL0 load(1, XDATA, add(CFA_XSP16, literal(-2)))
          CFI (cfiCond259) DPH0 load(1, XDATA, add(CFA_XSP16, literal(-1)))
          CFI (cfiCond259) CFA_SP SP+-2
          CFI (cfiCond259) CFA_XSP16 add(XSP16, 14)
          CFI Block cfiCond260 Using cfiCommon0
          CFI (cfiCond260) Function ZDO_SrcRtgIndCB
          CFI (cfiCond260) Conditional ??CrossCallReturnLabel_106
          CFI (cfiCond260) R6 load(1, XDATA, add(CFA_XSP16, literal(-9)))
          CFI (cfiCond260) VB load(1, XDATA, add(CFA_XSP16, literal(-8)))
          CFI (cfiCond260) V0 load(1, XDATA, add(CFA_XSP16, literal(-7)))
          CFI (cfiCond260) R7 load(1, XDATA, add(CFA_XSP16, literal(-6)))
          CFI (cfiCond260) ?RET_LOW load(1, XDATA, add(CFA_XSP16, literal(-5)))
          CFI (cfiCond260) ?RET_HIGH load(1, XDATA, add(CFA_XSP16, literal(-4)))
          CFI (cfiCond260) ?BRET_EXT load(1, XDATA, add(CFA_XSP16, literal(-3)))
          CFI (cfiCond260) DPL0 load(1, XDATA, add(CFA_XSP16, literal(-2)))
          CFI (cfiCond260) DPH0 load(1, XDATA, add(CFA_XSP16, literal(-1)))
          CFI (cfiCond260) CFA_SP SP+-2
          CFI (cfiCond260) CFA_XSP16 add(XSP16, 14)
          CFI Block cfiPicker261 Using cfiCommon1
          CFI (cfiPicker261) NoFunction
          CFI (cfiPicker261) Picker
        MOV     A,R2
        MOVX    @DPTR,A
        INC     DPTR
        MOV     A,R3
        MOVX    @DPTR,A
        RET
          CFI EndBlock cfiCond253
          CFI EndBlock cfiCond254
          CFI EndBlock cfiCond255
          CFI EndBlock cfiCond256
          CFI EndBlock cfiCond257
          CFI EndBlock cfiCond258
          CFI EndBlock cfiCond259
          CFI EndBlock cfiCond260
          CFI EndBlock cfiPicker261
// 3553 
// 3554 /*********************************************************************
// 3555  * @fn          ZDO_DeregisterForZdoCB
// 3556  *
// 3557  * @brief       Call this function to de-register the higher layer (for
// 3558  *              example, the Application layer or MT layer) with ZDO
// 3559  *              callbacks to get notified of some ZDO indication like
// 3560  *              existence of a concentrator or receipt of a source
// 3561  *              route record.
// 3562  *
// 3563  * @param       indID - ZDO Indication ID
// 3564  *
// 3565  * @return      ZSuccess - successful, ZInvalidParameter if not
// 3566  */

        RSEG BANKED_CODE:CODE:NOROOT(0)
// 3567 ZStatus_t ZDO_DeregisterForZdoCB( uint8 indID )
ZDO_DeregisterForZdoCB:
          CFI Block cfiBlock262 Using cfiCommon0
          CFI Function ZDO_DeregisterForZdoCB
        CODE
// 3568 {
        PUSH    DPL
          CFI DPL0 Frame(CFA_SP, 4)
          CFI CFA_SP SP+-4
        PUSH    DPH
          CFI DPH0 Frame(CFA_SP, 5)
          CFI CFA_SP SP+-5
        ; Saved register size: 2
        ; Auto size: 0
        MOV     A,R1
        MOV     R2,A
// 3569   // Check the range of the indication ID
// 3570   if ( indID < MAX_ZDO_CB_FUNC )
        CLR     C
        SUBB    A,#0x9
        JNC     ??ZDO_DeregisterForZdoCB_0
// 3571   {
// 3572     zdoCBFunc[indID] = NULL;
        MOV     A,R2
        ADD     A,R1
        LCALL   ?Subroutine27 & 0xFFFF
// 3573     return ZSuccess;
??CrossCallReturnLabel_24:
        MOV     R1,A
        SJMP    ??ZDO_DeregisterForZdoCB_1
// 3574   }
// 3575 
// 3576   return ZInvalidParameter;
??ZDO_DeregisterForZdoCB_0:
        MOV     R1,#0x2
??ZDO_DeregisterForZdoCB_1:
        LJMP    ??Subroutine40_0 & 0xFFFF
          CFI EndBlock cfiBlock262
// 3577 }

        RSEG BANKED_CODE:CODE:NOROOT(0)
?Subroutine27:
          CFI Block cfiCond263 Using cfiCommon0
          CFI Function ZDApp_InitZdoCBFunc
          CFI Conditional ??CrossCallReturnLabel_23
          CFI DPL0 Frame(CFA_SP, 4)
          CFI DPH0 Frame(CFA_SP, 5)
          CFI CFA_SP SP+-7
          CFI Block cfiCond264 Using cfiCommon0
          CFI (cfiCond264) Function ZDO_DeregisterForZdoCB
          CFI (cfiCond264) Conditional ??CrossCallReturnLabel_24
          CFI (cfiCond264) DPL0 Frame(CFA_SP, 4)
          CFI (cfiCond264) DPH0 Frame(CFA_SP, 5)
          CFI (cfiCond264) CFA_SP SP+-7
          CFI Block cfiPicker265 Using cfiCommon1
          CFI (cfiPicker265) NoFunction
          CFI (cfiPicker265) Picker
        LCALL   ?Subroutine37 & 0xFFFF
??CrossCallReturnLabel_43:
        CLR     A
        MOVX    @DPTR,A
        INC     DPTR
        MOVX    @DPTR,A
        RET
          CFI EndBlock cfiCond263
          CFI EndBlock cfiCond264
          CFI EndBlock cfiPicker265

        RSEG BANKED_CODE:CODE:NOROOT(0)
?Subroutine37:
          CFI Block cfiCond266 Using cfiCommon0
          CFI Function ZDO_RegisterForZdoCB
          CFI Conditional ??CrossCallReturnLabel_42
          CFI DPL0 Frame(CFA_SP, 4)
          CFI DPH0 Frame(CFA_SP, 5)
          CFI CFA_SP SP+-7
          CFI Block cfiCond267 Using cfiCommon0
          CFI (cfiCond267) Function ZDApp_InitZdoCBFunc
          CFI (cfiCond267) Conditional ??CrossCallReturnLabel_43, ??CrossCallReturnLabel_23
          CFI (cfiCond267) DPL0 Frame(CFA_SP, 4)
          CFI (cfiCond267) DPH0 Frame(CFA_SP, 5)
          CFI (cfiCond267) CFA_SP SP+-9
          CFI Block cfiCond268 Using cfiCommon0
          CFI (cfiCond268) Function ZDO_DeregisterForZdoCB
          CFI (cfiCond268) Conditional ??CrossCallReturnLabel_43, ??CrossCallReturnLabel_24
          CFI (cfiCond268) DPL0 Frame(CFA_SP, 4)
          CFI (cfiCond268) DPH0 Frame(CFA_SP, 5)
          CFI (cfiCond268) CFA_SP SP+-9
          CFI Block cfiPicker269 Using cfiCommon1
          CFI (cfiPicker269) NoFunction
          CFI (cfiPicker269) Picker
        MOV     R0,A
        CLR     A
        RLC     A
        MOV     R1,A
        MOV     A,#zdoCBFunc & 0xff
        ADD     A,R0
        MOV     DPL,A
        MOV     A,#(zdoCBFunc >> 8) & 0xff
        ADDC    A,R1
        MOV     DPH,A
        RET
          CFI EndBlock cfiCond266
          CFI EndBlock cfiCond267
          CFI EndBlock cfiCond268
          CFI EndBlock cfiPicker269
// 3578 
// 3579 #if !defined ( ZDP_BIND_SKIP_VALIDATION )
// 3580 #if defined ( REFLECTOR )
// 3581 /*********************************************************************
// 3582  * @fn          ZDApp_SetPendingBindDefault
// 3583  *
// 3584  * @brief       This function initializes a specific entry of pending
// 3585  *              Bind Request.
// 3586  *
// 3587  * @param       pendBindReq - pointer to the entry in the table
// 3588  *
// 3589  * @return      none
// 3590  */

        RSEG BANKED_CODE:CODE:NOROOT(0)
// 3591 void ZDApp_SetPendingBindDefault( ZDO_PendingBindReq_t *pendBindReq )
ZDApp_SetPendingBindDefault:
          CFI Block cfiBlock270 Using cfiCommon0
          CFI Function ZDApp_SetPendingBindDefault
        CODE
// 3592 {
        FUNCALL ZDApp_SetPendingBindDefault, osal_memset
        LOCFRAME ISTACK, 0, STACK
        LOCFRAME PSTACK, 0, STACK
        LOCFRAME XSTACK, 9, STACK
        LOCFRAME IOVERLAY, 0, STATIC
        LOCFRAME DOVERLAY, 0, STATIC
        ARGFRAME ISTACK, 0, STACK
        ARGFRAME PSTACK, 0, STACK
        ARGFRAME XSTACK, 9, STACK
        ARGFRAME IOVERLAY, 0, STATIC
        ARGFRAME DOVERLAY, 0, STATIC
        MOV     A,#-0x9
        LCALL   ?BANKED_ENTER_XDATA
          CFI DPH0 load(1, XDATA, add(CFA_XSP16, literal(-1)))
          CFI DPL0 load(1, XDATA, add(CFA_XSP16, literal(-2)))
          CFI ?BRET_EXT load(1, XDATA, add(CFA_XSP16, literal(-3)))
          CFI ?RET_HIGH load(1, XDATA, add(CFA_XSP16, literal(-4)))
          CFI ?RET_LOW load(1, XDATA, add(CFA_XSP16, literal(-5)))
          CFI R7 load(1, XDATA, add(CFA_XSP16, literal(-6)))
          CFI V0 load(1, XDATA, add(CFA_XSP16, literal(-7)))
          CFI VB load(1, XDATA, add(CFA_XSP16, literal(-8)))
          CFI R6 load(1, XDATA, add(CFA_XSP16, literal(-9)))
          CFI CFA_SP SP+0
          CFI CFA_XSP16 add(XSP16, 9)
        ; Saved register size: 9
        ; Auto size: 0
        MOV     A,R2
        MOV     R6,A
        MOV     A,R3
        MOV     R7,A
// 3593   // Set it to an initial value
// 3594   osal_memset( pendBindReq, 0xFF, sizeof( ZDO_PendingBindReq_t ) );
        ; Setup parameters for call to function osal_memset
        MOV     R4,#0x21
        MOV     R5,#0x0
        MOV     R1,#-0x1
        LCALL   ??osal_memset?relay  ; Banked call to: osal_memset
// 3595 
// 3596   // We are checking for age 0 for aged-out records
// 3597   pendBindReq->age = 0;
        MOV     A,R6
        ADD     A,#0x20
        MOV     DPL,A
        CLR     A
        ADDC    A,R7
        MOV     DPH,A
        CLR     A
        MOVX    @DPTR,A
// 3598 }
        LJMP    ??Subroutine44_0 & 0xFFFF
          CFI EndBlock cfiBlock270
// 3599 
// 3600 /*********************************************************************
// 3601  * @fn          ZDApp_InitPendingBind
// 3602  *
// 3603  * @brief       This function initializes the buffer that holds
// 3604  *              pending Bind Request messages if no valid NWK address
// 3605  *              exists in Address Manager and a Network Address Req
// 3606  *              has been sent out.
// 3607  *
// 3608  * @param       none
// 3609  *
// 3610  * @return      none
// 3611  */

        RSEG BANKED_CODE:CODE:NOROOT(0)
// 3612 void ZDApp_InitPendingBind( void )
ZDApp_InitPendingBind:
          CFI Block cfiBlock271 Using cfiCommon0
          CFI Function ZDApp_InitPendingBind
        CODE
// 3613 {
        FUNCALL ZDApp_InitPendingBind, osal_mem_alloc
        LOCFRAME ISTACK, 0, STACK
        LOCFRAME PSTACK, 0, STACK
        LOCFRAME XSTACK, 9, STACK
        LOCFRAME IOVERLAY, 0, STATIC
        LOCFRAME DOVERLAY, 0, STATIC
        ARGFRAME ISTACK, 0, STACK
        ARGFRAME PSTACK, 0, STACK
        ARGFRAME XSTACK, 9, STACK
        ARGFRAME IOVERLAY, 0, STATIC
        ARGFRAME DOVERLAY, 0, STATIC
        FUNCALL ZDApp_InitPendingBind, ZDApp_SetPendingBindDefault
        LOCFRAME ISTACK, 0, STACK
        LOCFRAME PSTACK, 0, STACK
        LOCFRAME XSTACK, 9, STACK
        LOCFRAME IOVERLAY, 0, STATIC
        LOCFRAME DOVERLAY, 0, STATIC
        ARGFRAME ISTACK, 0, STACK
        ARGFRAME PSTACK, 0, STACK
        ARGFRAME XSTACK, 9, STACK
        ARGFRAME IOVERLAY, 0, STATIC
        ARGFRAME DOVERLAY, 0, STATIC
        MOV     A,#-0x9
        LCALL   ?BANKED_ENTER_XDATA
          CFI DPH0 load(1, XDATA, add(CFA_XSP16, literal(-1)))
          CFI DPL0 load(1, XDATA, add(CFA_XSP16, literal(-2)))
          CFI ?BRET_EXT load(1, XDATA, add(CFA_XSP16, literal(-3)))
          CFI ?RET_HIGH load(1, XDATA, add(CFA_XSP16, literal(-4)))
          CFI ?RET_LOW load(1, XDATA, add(CFA_XSP16, literal(-5)))
          CFI R7 load(1, XDATA, add(CFA_XSP16, literal(-6)))
          CFI V0 load(1, XDATA, add(CFA_XSP16, literal(-7)))
          CFI VB load(1, XDATA, add(CFA_XSP16, literal(-8)))
          CFI R6 load(1, XDATA, add(CFA_XSP16, literal(-9)))
          CFI CFA_SP SP+0
          CFI CFA_XSP16 add(XSP16, 9)
        ; Saved register size: 9
        ; Auto size: 0
// 3614   if ( ZDAppPendingBindReq == NULL )
        LCALL   ?Subroutine18 & 0xFFFF
??CrossCallReturnLabel_75:
        JNZ     ??ZDApp_InitPendingBind_0
// 3615   {
// 3616     if ( ( ZDAppPendingBindReq = osal_mem_alloc( sizeof(ZDO_PendingBindReq_t) * MAX_PENDING_BIND_REQ ) ) != NULL )
        ; Setup parameters for call to function osal_mem_alloc
        MOV     R2,#0x63
        MOV     R3,#0x0
        LCALL   ??osal_mem_alloc?relay; Banked call to: osal_mem_alloc
        MOV     DPTR,#ZDAppPendingBindReq
        LCALL   ??Subroutine52_0 & 0xFFFF
??CrossCallReturnLabel_104:
        LCALL   ?Subroutine18 & 0xFFFF
??CrossCallReturnLabel_76:
        JZ      ??ZDApp_InitPendingBind_0
// 3617     {
// 3618       uint8 i;
// 3619 
// 3620       for ( i = 0; i < MAX_PENDING_BIND_REQ; i++ )
        MOV     R6,#0x0
// 3621       {
// 3622         // Set to default values
// 3623         ZDApp_SetPendingBindDefault( &ZDAppPendingBindReq[i] );
??ZDApp_InitPendingBind_1:
        ; Setup parameters for call to function ZDApp_SetPendingBindDefault
        MOV     A,R6
        MOV     B,#0x21
        MUL     AB
        MOV     R0,A
        MOV     R1,B
        MOV     DPTR,#ZDAppPendingBindReq
        MOVX    A,@DPTR
        ADD     A,R0
        MOV     R2,A
        INC     DPTR
        MOVX    A,@DPTR
        ADDC    A,R1
        MOV     R3,A
        LCALL   ??ZDApp_SetPendingBindDefault?relay; Banked call to: ZDApp_SetPendingBindDefault
// 3624       }
        INC     R6
        MOV     A,R6
        CLR     C
        SUBB    A,#0x3
        JC      ??ZDApp_InitPendingBind_1
// 3625     }
// 3626   }
// 3627 }
??ZDApp_InitPendingBind_0:
        LJMP    ??Subroutine44_0 & 0xFFFF
          CFI EndBlock cfiBlock271
// 3628 
// 3629 /*********************************************************************
// 3630  * @fn          ZDApp_GetEmptyPendingBindReq
// 3631  *
// 3632  * @brief       This function looks for an empty entry.
// 3633  *
// 3634  * @param       none
// 3635  *
// 3636  * @return      Pointer to entry
// 3637  */

        RSEG BANKED_CODE:CODE:NOROOT(0)
// 3638 ZDO_PendingBindReq_t *ZDApp_GetEmptyPendingBindReq( void )
ZDApp_GetEmptyPendingBindReq:
          CFI Block cfiBlock272 Using cfiCommon0
          CFI Function ZDApp_GetEmptyPendingBindReq
        CODE
// 3639 {
        PUSH    DPL
          CFI DPL0 Frame(CFA_SP, 4)
          CFI CFA_SP SP+-4
        PUSH    DPH
          CFI DPH0 Frame(CFA_SP, 5)
          CFI CFA_SP SP+-5
        ; Saved register size: 2
        ; Auto size: 0
// 3640   uint8 i;
// 3641 
// 3642   if ( ZDAppPendingBindReq != NULL )
        LCALL   ?Subroutine18 & 0xFFFF
??CrossCallReturnLabel_77:
        JZ      ??ZDApp_GetEmptyPendingBindReq_0
// 3643   {
// 3644     for ( i = 0; i < MAX_PENDING_BIND_REQ; i++ )
        MOV     R4,#0x0
// 3645     {
// 3646       if ( ZDAppPendingBindReq[i].age == 0 )
??ZDApp_GetEmptyPendingBindReq_1:
        MOV     A,R4
        MOV     B,#0x21
        MUL     AB
        MOV     R0,A
        MOV     R1,B
        MOV     DPTR,#ZDAppPendingBindReq
        MOVX    A,@DPTR
        ADD     A,R0
        MOV     R2,A
        INC     DPTR
        MOVX    A,@DPTR
        ADDC    A,R1
        MOV     R3,A
        MOV     A,R2
        ADD     A,#0x20
        MOV     DPL,A
        CLR     A
        ADDC    A,R3
        MOV     DPH,A
        MOVX    A,@DPTR
        JZ      ??ZDApp_GetEmptyPendingBindReq_2
// 3647       {
// 3648         return ( &ZDAppPendingBindReq[i] );
// 3649       }
// 3650     }
        INC     R4
        MOV     A,R4
        CLR     C
        SUBB    A,#0x3
        JC      ??ZDApp_GetEmptyPendingBindReq_1
// 3651   }
// 3652 
// 3653   // No empty entry was found
// 3654   return NULL;
??ZDApp_GetEmptyPendingBindReq_0:
        MOV     R2,#0x0
        MOV     R3,#0x0
??ZDApp_GetEmptyPendingBindReq_2:
        LJMP    ??Subroutine40_0 & 0xFFFF
          CFI EndBlock cfiBlock272
// 3655 }
// 3656 
// 3657 /*********************************************************************
// 3658  * @fn          ZDApp_ProcessPendingBindReq
// 3659  *
// 3660  * @brief       Process pending entry based on EXT address.
// 3661  *
// 3662  * @param       extAddr - of device to look up
// 3663  *
// 3664  * @return      none
// 3665  */

        RSEG BANKED_CODE:CODE:NOROOT(0)
// 3666 void ZDApp_ProcessPendingBindReq( uint8 *extAddr )
ZDApp_ProcessPendingBindReq:
          CFI Block cfiBlock273 Using cfiCommon0
          CFI Function ZDApp_ProcessPendingBindReq
        CODE
// 3667 {
        FUNCALL ZDApp_ProcessPendingBindReq, osal_memcmp
        LOCFRAME ISTACK, 0, STACK
        LOCFRAME PSTACK, 0, STACK
        LOCFRAME XSTACK, 19, STACK
        LOCFRAME IOVERLAY, 0, STATIC
        LOCFRAME DOVERLAY, 0, STATIC
        ARGFRAME ISTACK, 0, STACK
        ARGFRAME PSTACK, 0, STACK
        ARGFRAME XSTACK, 19, STACK
        ARGFRAME IOVERLAY, 0, STATIC
        ARGFRAME DOVERLAY, 0, STATIC
        FUNCALL ZDApp_ProcessPendingBindReq, APSME_BindRequest
        LOCFRAME ISTACK, 0, STACK
        LOCFRAME PSTACK, 0, STACK
        LOCFRAME XSTACK, 17, STACK
        LOCFRAME IOVERLAY, 0, STATIC
        LOCFRAME DOVERLAY, 0, STATIC
        ARGFRAME ISTACK, 0, STACK
        ARGFRAME PSTACK, 0, STACK
        ARGFRAME XSTACK, 17, STACK
        ARGFRAME IOVERLAY, 0, STATIC
        ARGFRAME DOVERLAY, 0, STATIC
        FUNCALL ZDApp_ProcessPendingBindReq, ZDApp_NVUpdate
        LOCFRAME ISTACK, 0, STACK
        LOCFRAME PSTACK, 0, STACK
        LOCFRAME XSTACK, 16, STACK
        LOCFRAME IOVERLAY, 0, STATIC
        LOCFRAME DOVERLAY, 0, STATIC
        ARGFRAME ISTACK, 0, STACK
        ARGFRAME PSTACK, 0, STACK
        ARGFRAME XSTACK, 16, STACK
        ARGFRAME IOVERLAY, 0, STATIC
        ARGFRAME DOVERLAY, 0, STATIC
        FUNCALL ZDApp_ProcessPendingBindReq, ZDP_SendData
        LOCFRAME ISTACK, 0, STACK
        LOCFRAME PSTACK, 0, STACK
        LOCFRAME XSTACK, 21, STACK
        LOCFRAME IOVERLAY, 0, STATIC
        LOCFRAME DOVERLAY, 0, STATIC
        ARGFRAME ISTACK, 0, STACK
        ARGFRAME PSTACK, 0, STACK
        ARGFRAME XSTACK, 21, STACK
        ARGFRAME IOVERLAY, 0, STATIC
        ARGFRAME DOVERLAY, 0, STATIC
        FUNCALL ZDApp_ProcessPendingBindReq, ZDApp_SetPendingBindDefault
        LOCFRAME ISTACK, 0, STACK
        LOCFRAME PSTACK, 0, STACK
        LOCFRAME XSTACK, 16, STACK
        LOCFRAME IOVERLAY, 0, STATIC
        LOCFRAME DOVERLAY, 0, STATIC
        ARGFRAME ISTACK, 0, STACK
        ARGFRAME PSTACK, 0, STACK
        ARGFRAME XSTACK, 16, STACK
        ARGFRAME IOVERLAY, 0, STATIC
        ARGFRAME DOVERLAY, 0, STATIC
        REQUIRE ?V0
        REQUIRE ?V1
        REQUIRE ?V2
        REQUIRE ?V3
        REQUIRE ?V4
        REQUIRE ?V5
        REQUIRE ?V6
        MOV     A,#-0xf
        LCALL   ?BANKED_ENTER_XDATA
          CFI DPH0 load(1, XDATA, add(CFA_XSP16, literal(-1)))
          CFI DPL0 load(1, XDATA, add(CFA_XSP16, literal(-2)))
          CFI ?BRET_EXT load(1, XDATA, add(CFA_XSP16, literal(-3)))
          CFI ?RET_HIGH load(1, XDATA, add(CFA_XSP16, literal(-4)))
          CFI ?RET_LOW load(1, XDATA, add(CFA_XSP16, literal(-5)))
          CFI R7 load(1, XDATA, add(CFA_XSP16, literal(-6)))
          CFI V6 load(1, XDATA, add(CFA_XSP16, literal(-7)))
          CFI V5 load(1, XDATA, add(CFA_XSP16, literal(-8)))
          CFI V4 load(1, XDATA, add(CFA_XSP16, literal(-9)))
          CFI V3 load(1, XDATA, add(CFA_XSP16, literal(-10)))
          CFI V2 load(1, XDATA, add(CFA_XSP16, literal(-11)))
          CFI V1 load(1, XDATA, add(CFA_XSP16, literal(-12)))
          CFI V0 load(1, XDATA, add(CFA_XSP16, literal(-13)))
          CFI VB load(1, XDATA, add(CFA_XSP16, literal(-14)))
          CFI R6 load(1, XDATA, add(CFA_XSP16, literal(-15)))
          CFI CFA_SP SP+0
          CFI CFA_XSP16 add(XSP16, 15)
        ; Saved register size: 15
        ; Auto size: 1
        MOV     A,#-0x1
        LCALL   ?ALLOC_XSTACK8
          CFI CFA_XSP16 add(XSP16, 16)
        MOV     ?V2,R2
        MOV     ?V3,R3
// 3668   uint8 i;
// 3669 
// 3670   // Loop through all the pending entries for that Ext Address
// 3671   // to create Bind Entries and send Bind Rsp
// 3672   if ( ZDAppPendingBindReq != NULL )
        LCALL   ?Subroutine18 & 0xFFFF
??CrossCallReturnLabel_78:
        JNZ     $+5
        LJMP    ??ZDApp_ProcessPendingBindReq_0 & 0xFFFF
// 3673   {
// 3674     for ( i = 0; i < MAX_PENDING_BIND_REQ; i++ )
        MOV     ?V0,#0x0
// 3675     {
// 3676       if ( osal_memcmp( ZDAppPendingBindReq[i].bindReq.dstAddress.addr.extAddr,
// 3677                         extAddr, Z_EXTADDR_LEN ) == TRUE )
??ZDApp_ProcessPendingBindReq_1:
        MOV     A,?V0
        MOV     B,#0x21
        MUL     AB
        MOV     R6,A
        MOV     R7,B
        ; Setup parameters for call to function osal_memcmp
        MOV     ?V4,?V2
        MOV     ?V5,?V3
        MOV     ?V6,#0x0
        MOV     R0,#?V4
        LCALL   ?PUSH_XSTACK_I_THREE
          CFI CFA_XSP16 add(XSP16, 19)
        MOV     R4,#0x8
        MOV     R5,#0x0
        LCALL   ?Subroutine26 & 0xFFFF
??CrossCallReturnLabel_21:
        ADD     A,#0xb
        MOV     ?V4,A
        CLR     A
        ADDC    A,R1
        MOV     R1,?V4
        MOV     R2,A
        MOV     R3,#0x0
        LCALL   ??osal_memcmp?relay  ; Banked call to: osal_memcmp
        MOV     A,#0x3
        LCALL   ?DEALLOC_XSTACK8
          CFI CFA_XSP16 add(XSP16, 16)
        MOV     A,R1
        XRL     A,#0x1
        JZ      $+5
        LJMP    ??ZDApp_ProcessPendingBindReq_2 & 0xFFFF
// 3678       {
// 3679         uint8 bindStat = ZDP_TABLE_FULL; // Assume table is full
        MOV     DPL,?XSP + 0
        MOV     DPH,?XSP + 1
        MOV     A,#-0x74
        MOVX    @DPTR,A
// 3680 
// 3681         // Add Bind entry
// 3682         if ( APSME_BindRequest( ZDAppPendingBindReq[i].bindReq.srcEndpoint,
// 3683                                 ZDAppPendingBindReq[i].bindReq.clusterID,
// 3684                                 &(ZDAppPendingBindReq[i].bindReq.dstAddress),
// 3685                                 ZDAppPendingBindReq[i].bindReq.dstEndpoint ) == ZSuccess )
        MOV     DPTR,#ZDAppPendingBindReq
        MOVX    A,@DPTR
        ADD     A,R6
        MOV     ?V4,A
        INC     DPTR
        MOVX    A,@DPTR
        ADDC    A,R7
        MOV     ?V5,A
        ; Setup parameters for call to function APSME_BindRequest
        MOV     A,?V4
        ADD     A,#0x14
        MOV     DPL,A
        CLR     A
        ADDC    A,?V5
        MOV     DPH,A
        MOVX    A,@DPTR
        MOV     ?V1,A
        MOV     R0,#?V1
        LCALL   ?PUSH_XSTACK_I_ONE
          CFI CFA_XSP16 add(XSP16, 17)
        MOV     A,?V4
        ADD     A,#0xb
        MOV     R4,A
        CLR     A
        ADDC    A,?V5
        MOV     R5,A
        MOV     DPL,?V4
        MOV     DPH,?V5
        INC     DPTR
        INC     DPTR
        INC     DPTR
        INC     DPTR
        INC     DPTR
        INC     DPTR
        INC     DPTR
        INC     DPTR
        LCALL   ?Subroutine21 & 0xFFFF
??CrossCallReturnLabel_86:
        MOV     DPL,?V4
        MOV     DPH,?V5
        INC     DPTR
        INC     DPTR
        INC     DPTR
        INC     DPTR
        INC     DPTR
        INC     DPTR
        INC     DPTR
        INC     DPTR
        MOVX    A,@DPTR
        MOV     R1,A
        LCALL   ??APSME_BindRequest?relay; Banked call to: APSME_BindRequest
        MOV     A,#0x1
        LCALL   ?DEALLOC_XSTACK8
          CFI CFA_XSP16 add(XSP16, 16)
        MOV     A,R1
        JNZ     ??ZDApp_ProcessPendingBindReq_3
// 3686         {
// 3687           // valid entry
// 3688           bindStat = ZDP_SUCCESS;
        MOV     DPL,?XSP + 0
        MOV     DPH,?XSP + 1
        CLR     A
        MOVX    @DPTR,A
// 3689 
// 3690           // Notify to save info into NV
// 3691           ZDApp_NVUpdate();
        ; Setup parameters for call to function ZDApp_NVUpdate
        LCALL   ??ZDApp_NVUpdate?relay; Banked call to: ZDApp_NVUpdate
// 3692         }
// 3693 
// 3694         // Send back a response message
// 3695         ZDP_BindRsp( ZDAppPendingBindReq[i].transSeq, &(ZDAppPendingBindReq[i].srcAddr),
// 3696                      bindStat, ZDAppPendingBindReq[i].securityUse );
??ZDApp_ProcessPendingBindReq_3:
        LCALL   ?Subroutine19 & 0xFFFF
??CrossCallReturnLabel_12:
        MOV     ?V1,A
        MOV     R0,#?V1
        LCALL   ?PUSH_XSTACK_I_ONE
          CFI CFA_XSP16 add(XSP16, 17)
        MOV     A,#0x1
        LCALL   ?XSTACK_DISP100_8
        MOV     ?V4,R0
        MOV     ?V5,R1
        MOV     R0,#?V4
        LCALL   ?PUSH_XSTACK_I_TWO
          CFI CFA_XSP16 add(XSP16, 19)
        MOV     ?V4,#0x21
        MOV     ?V5,#-0x80
        MOV     R0,#?V4
        LCALL   ?PUSH_XSTACK_I_TWO
          CFI CFA_XSP16 add(XSP16, 21)
        LCALL   ?Subroutine33 & 0xFFFF
??CrossCallReturnLabel_37:
        JNC     ??ZDApp_ProcessPendingBindReq_4
        INC     R3
??ZDApp_ProcessPendingBindReq_4:
        LCALL   ??ZDP_SendData?relay ; Banked call to: ZDP_SendData
        MOV     A,#0x5
        LCALL   ?DEALLOC_XSTACK8
          CFI CFA_XSP16 add(XSP16, 16)
// 3697 
// 3698         // Set the pending request entry to default values
// 3699         ZDApp_SetPendingBindDefault( &ZDAppPendingBindReq[i] );
        ; Setup parameters for call to function ZDApp_SetPendingBindDefault
        LCALL   ?Subroutine34 & 0xFFFF
// 3700       }
// 3701     }
??CrossCallReturnLabel_39:
        LCALL   ??ZDApp_SetPendingBindDefault?relay; Banked call to: ZDApp_SetPendingBindDefault
??ZDApp_ProcessPendingBindReq_2:
        INC     ?V0
        MOV     A,?V0
        CLR     C
        SUBB    A,#0x3
        JNC     $+5
        LJMP    ??ZDApp_ProcessPendingBindReq_1 & 0xFFFF
// 3702   }
// 3703 }
??ZDApp_ProcessPendingBindReq_0:
        MOV     A,#0x1
        LJMP    ?Subroutine6 & 0xFFFF
          CFI EndBlock cfiBlock273
// 3704 
// 3705 /*********************************************************************
// 3706  * @fn          ZDApp_AgeOutPendingBindEntry
// 3707  *
// 3708  * @brief       Age out pending Bind Req entries.
// 3709  *
// 3710  * @param       none
// 3711  *
// 3712  * @return      none
// 3713  */

        RSEG BANKED_CODE:CODE:NOROOT(0)
// 3714 void ZDApp_AgeOutPendingBindEntry( void )
ZDApp_AgeOutPendingBindEntry:
          CFI Block cfiBlock274 Using cfiCommon0
          CFI Function ZDApp_AgeOutPendingBindEntry
        CODE
// 3715 {
        FUNCALL ZDApp_AgeOutPendingBindEntry, AddrMgrExtAddrSet
        LOCFRAME ISTACK, 0, STACK
        LOCFRAME PSTACK, 0, STACK
        LOCFRAME XSTACK, 26, STACK
        LOCFRAME IOVERLAY, 0, STATIC
        LOCFRAME DOVERLAY, 0, STATIC
        ARGFRAME ISTACK, 0, STACK
        ARGFRAME PSTACK, 0, STACK
        ARGFRAME XSTACK, 26, STACK
        ARGFRAME IOVERLAY, 0, STATIC
        ARGFRAME DOVERLAY, 0, STATIC
        FUNCALL ZDApp_AgeOutPendingBindEntry, AddrMgrEntryLookupExt
        LOCFRAME ISTACK, 0, STACK
        LOCFRAME PSTACK, 0, STACK
        LOCFRAME XSTACK, 26, STACK
        LOCFRAME IOVERLAY, 0, STATIC
        LOCFRAME DOVERLAY, 0, STATIC
        ARGFRAME ISTACK, 0, STACK
        ARGFRAME PSTACK, 0, STACK
        ARGFRAME XSTACK, 26, STACK
        ARGFRAME IOVERLAY, 0, STATIC
        ARGFRAME DOVERLAY, 0, STATIC
        FUNCALL ZDApp_AgeOutPendingBindEntry, AddrMgrEntryRelease
        LOCFRAME ISTACK, 0, STACK
        LOCFRAME PSTACK, 0, STACK
        LOCFRAME XSTACK, 26, STACK
        LOCFRAME IOVERLAY, 0, STATIC
        LOCFRAME DOVERLAY, 0, STATIC
        ARGFRAME ISTACK, 0, STACK
        ARGFRAME PSTACK, 0, STACK
        ARGFRAME XSTACK, 26, STACK
        ARGFRAME IOVERLAY, 0, STATIC
        ARGFRAME DOVERLAY, 0, STATIC
        FUNCALL ZDApp_AgeOutPendingBindEntry, ZDP_SendData
        LOCFRAME ISTACK, 0, STACK
        LOCFRAME PSTACK, 0, STACK
        LOCFRAME XSTACK, 31, STACK
        LOCFRAME IOVERLAY, 0, STATIC
        LOCFRAME DOVERLAY, 0, STATIC
        ARGFRAME ISTACK, 0, STACK
        ARGFRAME PSTACK, 0, STACK
        ARGFRAME XSTACK, 31, STACK
        ARGFRAME IOVERLAY, 0, STATIC
        ARGFRAME DOVERLAY, 0, STATIC
        FUNCALL ZDApp_AgeOutPendingBindEntry, ZDApp_SetPendingBindDefault
        LOCFRAME ISTACK, 0, STACK
        LOCFRAME PSTACK, 0, STACK
        LOCFRAME XSTACK, 26, STACK
        LOCFRAME IOVERLAY, 0, STATIC
        LOCFRAME DOVERLAY, 0, STATIC
        ARGFRAME ISTACK, 0, STACK
        ARGFRAME PSTACK, 0, STACK
        ARGFRAME XSTACK, 26, STACK
        ARGFRAME IOVERLAY, 0, STATIC
        ARGFRAME DOVERLAY, 0, STATIC
        FUNCALL ZDApp_AgeOutPendingBindEntry, osal_stop_timerEx
        LOCFRAME ISTACK, 0, STACK
        LOCFRAME PSTACK, 0, STACK
        LOCFRAME XSTACK, 26, STACK
        LOCFRAME IOVERLAY, 0, STATIC
        LOCFRAME DOVERLAY, 0, STATIC
        ARGFRAME ISTACK, 0, STACK
        ARGFRAME PSTACK, 0, STACK
        ARGFRAME XSTACK, 26, STACK
        ARGFRAME IOVERLAY, 0, STATIC
        ARGFRAME DOVERLAY, 0, STATIC
        FUNCALL ZDApp_AgeOutPendingBindEntry, osal_start_timerEx
        LOCFRAME ISTACK, 0, STACK
        LOCFRAME PSTACK, 0, STACK
        LOCFRAME XSTACK, 30, STACK
        LOCFRAME IOVERLAY, 0, STATIC
        LOCFRAME DOVERLAY, 0, STATIC
        ARGFRAME ISTACK, 0, STACK
        ARGFRAME PSTACK, 0, STACK
        ARGFRAME XSTACK, 30, STACK
        ARGFRAME IOVERLAY, 0, STATIC
        ARGFRAME DOVERLAY, 0, STATIC
        REQUIRE ?V0
        REQUIRE ?V1
        REQUIRE ?V2
        REQUIRE ?V3
        MOV     A,#-0xc
        LCALL   ?BANKED_ENTER_XDATA
          CFI DPH0 load(1, XDATA, add(CFA_XSP16, literal(-1)))
          CFI DPL0 load(1, XDATA, add(CFA_XSP16, literal(-2)))
          CFI ?BRET_EXT load(1, XDATA, add(CFA_XSP16, literal(-3)))
          CFI ?RET_HIGH load(1, XDATA, add(CFA_XSP16, literal(-4)))
          CFI ?RET_LOW load(1, XDATA, add(CFA_XSP16, literal(-5)))
          CFI R7 load(1, XDATA, add(CFA_XSP16, literal(-6)))
          CFI V3 load(1, XDATA, add(CFA_XSP16, literal(-7)))
          CFI V2 load(1, XDATA, add(CFA_XSP16, literal(-8)))
          CFI V1 load(1, XDATA, add(CFA_XSP16, literal(-9)))
          CFI V0 load(1, XDATA, add(CFA_XSP16, literal(-10)))
          CFI VB load(1, XDATA, add(CFA_XSP16, literal(-11)))
          CFI R6 load(1, XDATA, add(CFA_XSP16, literal(-12)))
          CFI CFA_SP SP+0
          CFI CFA_XSP16 add(XSP16, 12)
        ; Saved register size: 12
        ; Auto size: 14
        MOV     A,#-0xe
        LCALL   ?ALLOC_XSTACK8
          CFI CFA_XSP16 add(XSP16, 26)
// 3716   uint8 i;
// 3717   bool entryFound = FALSE;
        MOV     ?V0,#0x0
// 3718 
// 3719   if ( ZDAppPendingBindReq != NULL )
        LCALL   ?Subroutine18 & 0xFFFF
??CrossCallReturnLabel_79:
        JNZ     $+5
        LJMP    ??ZDApp_AgeOutPendingBindEntry_0 & 0xFFFF
// 3720   {
// 3721     for ( i = 0; i < MAX_PENDING_BIND_REQ; i++ )
        MOV     ?V1,#0x0
// 3722     {
// 3723       if ( ZDAppPendingBindReq[i].age > 1 )
??ZDApp_AgeOutPendingBindEntry_1:
        MOV     A,?V1
        MOV     B,#0x21
        MUL     AB
        MOV     R6,A
        MOV     R7,B
        LCALL   ?Subroutine26 & 0xFFFF
??CrossCallReturnLabel_22:
        ADD     A,#0x20
        MOV     DPL,A
        CLR     A
        ADDC    A,R1
        MOV     DPH,A
        MOVX    A,@DPTR
        MOV     R2,A
        CLR     C
        SUBB    A,#0x2
        JC      ??ZDApp_AgeOutPendingBindEntry_2
// 3724       {
// 3725         ZDAppPendingBindReq[i].age--;
        MOVX    A,@DPTR
        DEC     A
        MOVX    @DPTR,A
// 3726 
// 3727         entryFound = TRUE;
        MOV     ?V0,#0x1
        LJMP    ??ZDApp_AgeOutPendingBindEntry_3 & 0xFFFF
// 3728       }
// 3729       else if ( ZDAppPendingBindReq[i].age == 1 )
??ZDApp_AgeOutPendingBindEntry_2:
        MOV     A,#0x1
        XRL     A,R2
        JNZ     ??ZDApp_AgeOutPendingBindEntry_3
// 3730       {
// 3731         // The record has aged out and has valid data
// 3732         AddrMgrEntry_t entry;
// 3733         uint8 bindStat = ZDP_TABLE_FULL; // Assume table is full
        MOV     DPL,?XSP + 0
        MOV     DPH,?XSP + 1
        MOV     A,#-0x74
        MOVX    @DPTR,A
// 3734 
// 3735         entry.user = ADDRMGR_USER_BINDING;
        MOV     A,#0x1
        LCALL   ?XSTACK_DISP0_8
        MOV     A,#0x4
        MOVX    @DPTR,A
// 3736 
// 3737         // Remove the entry in address manager so we do not keep entries
// 3738         // with invalid addresses
// 3739         AddrMgrExtAddrSet( entry.extAddr, ZDAppPendingBindReq[i].bindReq.dstAddress.addr.extAddr );
        ; Setup parameters for call to function AddrMgrExtAddrSet
        MOV     A,R0
        ADD     A,#0xb
        MOV     R4,A
        CLR     A
        ADDC    A,R1
        MOV     R5,A
        MOV     A,#0x4
        LCALL   ?XSTACK_DISP0_8
        MOV     R2,DPL
        MOV     R3,DPH
        LCALL   ??AddrMgrExtAddrSet?relay; Banked call to: AddrMgrExtAddrSet
// 3740 
// 3741         if ( AddrMgrEntryLookupExt( &entry ) == TRUE )
        ; Setup parameters for call to function AddrMgrEntryLookupExt
        MOV     A,#0x1
        LCALL   ?XSTACK_DISP101_8
        LCALL   ??AddrMgrEntryLookupExt?relay; Banked call to: AddrMgrEntryLookupExt
        MOV     A,R1
        XRL     A,#0x1
        JNZ     ??ZDApp_AgeOutPendingBindEntry_4
// 3742         {
// 3743           if ( entry.nwkAddr == INVALID_NODE_ADDR )
        MOV     A,#0x2
        LCALL   ?XSTACK_DISP0_8
        MOVX    A,@DPTR
        XRL     A,#0xfe
        JNZ     ??ZDApp_AgeOutPendingBindEntry_5
        INC     DPTR
        MOVX    A,@DPTR
        CPL     A
??ZDApp_AgeOutPendingBindEntry_5:
        JNZ     ??ZDApp_AgeOutPendingBindEntry_4
// 3744           {
// 3745             // Release the entry that contains an invalid NWK address
// 3746             AddrMgrEntryRelease( &entry );
        ; Setup parameters for call to function AddrMgrEntryRelease
        MOV     A,#0x1
        LCALL   ?XSTACK_DISP101_8
        LCALL   ??AddrMgrEntryRelease?relay; Banked call to: AddrMgrEntryRelease
// 3747           }
// 3748         }
// 3749 
// 3750         // Send the Bind Response with failure status
// 3751         ZDP_BindRsp( ZDAppPendingBindReq[i].transSeq,
// 3752                      &(ZDAppPendingBindReq[i].srcAddr),
// 3753                      bindStat, ZDAppPendingBindReq[i].securityUse );
??ZDApp_AgeOutPendingBindEntry_4:
        LCALL   ?Subroutine19 & 0xFFFF
??CrossCallReturnLabel_13:
        MOV     ?V2,A
        MOV     R0,#?V2
        LCALL   ?PUSH_XSTACK_I_ONE
          CFI CFA_XSP16 add(XSP16, 27)
        MOV     A,#0x1
        LCALL   ?XSTACK_DISP100_8
        MOV     ?V2,R0
        MOV     ?V3,R1
        MOV     R0,#?V2
        LCALL   ?PUSH_XSTACK_I_TWO
          CFI CFA_XSP16 add(XSP16, 29)
        MOV     ?V2,#0x21
        MOV     ?V3,#-0x80
        MOV     R0,#?V2
        LCALL   ?PUSH_XSTACK_I_TWO
          CFI CFA_XSP16 add(XSP16, 31)
        LCALL   ?Subroutine33 & 0xFFFF
??CrossCallReturnLabel_38:
        JNC     ??ZDApp_AgeOutPendingBindEntry_6
        INC     R3
??ZDApp_AgeOutPendingBindEntry_6:
        LCALL   ??ZDP_SendData?relay ; Banked call to: ZDP_SendData
        MOV     A,#0x5
        LCALL   ?DEALLOC_XSTACK8
          CFI CFA_XSP16 add(XSP16, 26)
// 3754 
// 3755         // Clear the record and set to default values
// 3756         ZDApp_SetPendingBindDefault( &ZDAppPendingBindReq[i] );
        ; Setup parameters for call to function ZDApp_SetPendingBindDefault
        LCALL   ?Subroutine34 & 0xFFFF
// 3757       }
// 3758     }
??CrossCallReturnLabel_40:
        LCALL   ??ZDApp_SetPendingBindDefault?relay; Banked call to: ZDApp_SetPendingBindDefault
??ZDApp_AgeOutPendingBindEntry_3:
        INC     ?V1
        MOV     A,?V1
        CLR     C
        SUBB    A,#0x3
        JNC     $+5
        LJMP    ??ZDApp_AgeOutPendingBindEntry_1 & 0xFFFF
// 3759   }
// 3760 
// 3761   if ( entryFound == FALSE )
        MOV     A,?V0
        MOV     C,0xE0 /* A   */.0
        JC      ??ZDApp_AgeOutPendingBindEntry_7
// 3762   {
// 3763     osal_stop_timerEx( ZDAppTaskID, ZDO_PENDING_BIND_REQ_EVT );
??ZDApp_AgeOutPendingBindEntry_0:
        ; Setup parameters for call to function osal_stop_timerEx
        MOV     R2,#0x0
        MOV     R3,#0x10
        MOV     DPTR,#ZDAppTaskID
        MOVX    A,@DPTR
        MOV     R1,A
        LCALL   ??osal_stop_timerEx?relay; Banked call to: osal_stop_timerEx
        SJMP    ??ZDApp_AgeOutPendingBindEntry_8
// 3764   }
// 3765   else
// 3766   {
// 3767     osal_start_timerEx( ZDAppTaskID, ZDO_PENDING_BIND_REQ_EVT,
// 3768                         AGE_OUT_PEND_BIND_REQ_DELAY );
??ZDApp_AgeOutPendingBindEntry_7:
        ; Setup parameters for call to function osal_start_timerEx
        MOV     DPTR,#__Constant_3e8
        LCALL   ?PUSH_XSTACK8_X_FOUR
          CFI CFA_XSP16 add(XSP16, 30)
        MOV     R2,#0x0
        MOV     R3,#0x10
        MOV     DPTR,#ZDAppTaskID
        MOVX    A,@DPTR
        MOV     R1,A
        LCALL   ??osal_start_timerEx?relay; Banked call to: osal_start_timerEx
        MOV     A,#0x4
        LCALL   ?DEALLOC_XSTACK8
          CFI CFA_XSP16 add(XSP16, 26)
// 3769   }
// 3770 }
??ZDApp_AgeOutPendingBindEntry_8:
        MOV     A,#0xe
        SJMP    ??Subroutine53_0
          CFI EndBlock cfiBlock274

        RSEG BANKED_CODE:CODE:NOROOT(0)
?Subroutine34:
          CFI Block cfiCond275 Using cfiCommon0
          CFI Function ZDApp_ProcessPendingBindReq
          CFI Conditional ??CrossCallReturnLabel_39
          CFI R6 load(1, XDATA, add(CFA_XSP16, literal(-15)))
          CFI VB load(1, XDATA, add(CFA_XSP16, literal(-14)))
          CFI V0 load(1, XDATA, add(CFA_XSP16, literal(-13)))
          CFI V1 load(1, XDATA, add(CFA_XSP16, literal(-12)))
          CFI V2 load(1, XDATA, add(CFA_XSP16, literal(-11)))
          CFI V3 load(1, XDATA, add(CFA_XSP16, literal(-10)))
          CFI V4 load(1, XDATA, add(CFA_XSP16, literal(-9)))
          CFI V5 load(1, XDATA, add(CFA_XSP16, literal(-8)))
          CFI V6 load(1, XDATA, add(CFA_XSP16, literal(-7)))
          CFI R7 load(1, XDATA, add(CFA_XSP16, literal(-6)))
          CFI ?RET_LOW load(1, XDATA, add(CFA_XSP16, literal(-5)))
          CFI ?RET_HIGH load(1, XDATA, add(CFA_XSP16, literal(-4)))
          CFI ?BRET_EXT load(1, XDATA, add(CFA_XSP16, literal(-3)))
          CFI DPL0 load(1, XDATA, add(CFA_XSP16, literal(-2)))
          CFI DPH0 load(1, XDATA, add(CFA_XSP16, literal(-1)))
          CFI CFA_SP SP+-2
          CFI CFA_XSP16 add(XSP16, 16)
          CFI Block cfiCond276 Using cfiCommon0
          CFI (cfiCond276) Function ZDApp_AgeOutPendingBindEntry
          CFI (cfiCond276) Conditional ??CrossCallReturnLabel_40
          CFI (cfiCond276) R6 load(1, XDATA, add(CFA_XSP16, literal(-12)))
          CFI (cfiCond276) VB load(1, XDATA, add(CFA_XSP16, literal(-11)))
          CFI (cfiCond276) V0 load(1, XDATA, add(CFA_XSP16, literal(-10)))
          CFI (cfiCond276) V1 load(1, XDATA, add(CFA_XSP16, literal(-9)))
          CFI (cfiCond276) V2 load(1, XDATA, add(CFA_XSP16, literal(-8)))
          CFI (cfiCond276) V3 load(1, XDATA, add(CFA_XSP16, literal(-7)))
          CFI (cfiCond276) R7 load(1, XDATA, add(CFA_XSP16, literal(-6)))
          CFI (cfiCond276) ?RET_LOW load(1, XDATA, add(CFA_XSP16, literal(-5)))
          CFI (cfiCond276) ?RET_HIGH load(1, XDATA, add(CFA_XSP16, literal(-4)))
          CFI (cfiCond276) ?BRET_EXT load(1, XDATA, add(CFA_XSP16, literal(-3)))
          CFI (cfiCond276) DPL0 load(1, XDATA, add(CFA_XSP16, literal(-2)))
          CFI (cfiCond276) DPH0 load(1, XDATA, add(CFA_XSP16, literal(-1)))
          CFI (cfiCond276) CFA_SP SP+-2
          CFI (cfiCond276) CFA_XSP16 add(XSP16, 26)
          CFI Block cfiCond277 Using cfiCommon0
          CFI (cfiCond277) Function ZDApp_ProcessPendingBindReq
          CFI (cfiCond277) Conditional ??CrossCallReturnLabel_41, ??CrossCallReturnLabel_12
          CFI (cfiCond277) R6 load(1, XDATA, add(CFA_XSP16, literal(-15)))
          CFI (cfiCond277) VB load(1, XDATA, add(CFA_XSP16, literal(-14)))
          CFI (cfiCond277) V0 load(1, XDATA, add(CFA_XSP16, literal(-13)))
          CFI (cfiCond277) V1 load(1, XDATA, add(CFA_XSP16, literal(-12)))
          CFI (cfiCond277) V2 load(1, XDATA, add(CFA_XSP16, literal(-11)))
          CFI (cfiCond277) V3 load(1, XDATA, add(CFA_XSP16, literal(-10)))
          CFI (cfiCond277) V4 load(1, XDATA, add(CFA_XSP16, literal(-9)))
          CFI (cfiCond277) V5 load(1, XDATA, add(CFA_XSP16, literal(-8)))
          CFI (cfiCond277) V6 load(1, XDATA, add(CFA_XSP16, literal(-7)))
          CFI (cfiCond277) R7 load(1, XDATA, add(CFA_XSP16, literal(-6)))
          CFI (cfiCond277) ?RET_LOW load(1, XDATA, add(CFA_XSP16, literal(-5)))
          CFI (cfiCond277) ?RET_HIGH load(1, XDATA, add(CFA_XSP16, literal(-4)))
          CFI (cfiCond277) ?BRET_EXT load(1, XDATA, add(CFA_XSP16, literal(-3)))
          CFI (cfiCond277) DPL0 load(1, XDATA, add(CFA_XSP16, literal(-2)))
          CFI (cfiCond277) DPH0 load(1, XDATA, add(CFA_XSP16, literal(-1)))
          CFI (cfiCond277) CFA_SP SP+-4
          CFI (cfiCond277) CFA_XSP16 add(XSP16, 16)
          CFI Block cfiCond278 Using cfiCommon0
          CFI (cfiCond278) Function ZDApp_AgeOutPendingBindEntry
          CFI (cfiCond278) Conditional ??CrossCallReturnLabel_41, ??CrossCallReturnLabel_13
          CFI (cfiCond278) R6 load(1, XDATA, add(CFA_XSP16, literal(-12)))
          CFI (cfiCond278) VB load(1, XDATA, add(CFA_XSP16, literal(-11)))
          CFI (cfiCond278) V0 load(1, XDATA, add(CFA_XSP16, literal(-10)))
          CFI (cfiCond278) V1 load(1, XDATA, add(CFA_XSP16, literal(-9)))
          CFI (cfiCond278) V2 load(1, XDATA, add(CFA_XSP16, literal(-8)))
          CFI (cfiCond278) V3 load(1, XDATA, add(CFA_XSP16, literal(-7)))
          CFI (cfiCond278) R7 load(1, XDATA, add(CFA_XSP16, literal(-6)))
          CFI (cfiCond278) ?RET_LOW load(1, XDATA, add(CFA_XSP16, literal(-5)))
          CFI (cfiCond278) ?RET_HIGH load(1, XDATA, add(CFA_XSP16, literal(-4)))
          CFI (cfiCond278) ?BRET_EXT load(1, XDATA, add(CFA_XSP16, literal(-3)))
          CFI (cfiCond278) DPL0 load(1, XDATA, add(CFA_XSP16, literal(-2)))
          CFI (cfiCond278) DPH0 load(1, XDATA, add(CFA_XSP16, literal(-1)))
          CFI (cfiCond278) CFA_SP SP+-4
          CFI (cfiCond278) CFA_XSP16 add(XSP16, 26)
          CFI Block cfiPicker279 Using cfiCommon1
          CFI (cfiPicker279) NoFunction
          CFI (cfiPicker279) Picker
        MOV     DPTR,#ZDAppPendingBindReq
        MOVX    A,@DPTR
        ADD     A,R6
        MOV     R2,A
        INC     DPTR
        MOVX    A,@DPTR
        ADDC    A,R7
        MOV     R3,A
        RET
          CFI EndBlock cfiCond275
          CFI EndBlock cfiCond276
          CFI EndBlock cfiCond277
          CFI EndBlock cfiCond278
          CFI EndBlock cfiPicker279

        RSEG BANKED_CODE:CODE:NOROOT(0)
?Subroutine33:
          CFI Block cfiCond280 Using cfiCommon0
          CFI Function ZDApp_ProcessPendingBindReq
          CFI Conditional ??CrossCallReturnLabel_37
          CFI R6 load(1, XDATA, add(CFA_XSP16, literal(-15)))
          CFI VB load(1, XDATA, add(CFA_XSP16, literal(-14)))
          CFI V0 load(1, XDATA, add(CFA_XSP16, literal(-13)))
          CFI V1 load(1, XDATA, add(CFA_XSP16, literal(-12)))
          CFI V2 load(1, XDATA, add(CFA_XSP16, literal(-11)))
          CFI V3 load(1, XDATA, add(CFA_XSP16, literal(-10)))
          CFI V4 load(1, XDATA, add(CFA_XSP16, literal(-9)))
          CFI V5 load(1, XDATA, add(CFA_XSP16, literal(-8)))
          CFI V6 load(1, XDATA, add(CFA_XSP16, literal(-7)))
          CFI R7 load(1, XDATA, add(CFA_XSP16, literal(-6)))
          CFI ?RET_LOW load(1, XDATA, add(CFA_XSP16, literal(-5)))
          CFI ?RET_HIGH load(1, XDATA, add(CFA_XSP16, literal(-4)))
          CFI ?BRET_EXT load(1, XDATA, add(CFA_XSP16, literal(-3)))
          CFI DPL0 load(1, XDATA, add(CFA_XSP16, literal(-2)))
          CFI DPH0 load(1, XDATA, add(CFA_XSP16, literal(-1)))
          CFI CFA_SP SP+-2
          CFI CFA_XSP16 add(XSP16, 21)
          CFI Block cfiCond281 Using cfiCommon0
          CFI (cfiCond281) Function ZDApp_AgeOutPendingBindEntry
          CFI (cfiCond281) Conditional ??CrossCallReturnLabel_38
          CFI (cfiCond281) R6 load(1, XDATA, add(CFA_XSP16, literal(-12)))
          CFI (cfiCond281) VB load(1, XDATA, add(CFA_XSP16, literal(-11)))
          CFI (cfiCond281) V0 load(1, XDATA, add(CFA_XSP16, literal(-10)))
          CFI (cfiCond281) V1 load(1, XDATA, add(CFA_XSP16, literal(-9)))
          CFI (cfiCond281) V2 load(1, XDATA, add(CFA_XSP16, literal(-8)))
          CFI (cfiCond281) V3 load(1, XDATA, add(CFA_XSP16, literal(-7)))
          CFI (cfiCond281) R7 load(1, XDATA, add(CFA_XSP16, literal(-6)))
          CFI (cfiCond281) ?RET_LOW load(1, XDATA, add(CFA_XSP16, literal(-5)))
          CFI (cfiCond281) ?RET_HIGH load(1, XDATA, add(CFA_XSP16, literal(-4)))
          CFI (cfiCond281) ?BRET_EXT load(1, XDATA, add(CFA_XSP16, literal(-3)))
          CFI (cfiCond281) DPL0 load(1, XDATA, add(CFA_XSP16, literal(-2)))
          CFI (cfiCond281) DPH0 load(1, XDATA, add(CFA_XSP16, literal(-1)))
          CFI (cfiCond281) CFA_SP SP+-2
          CFI (cfiCond281) CFA_XSP16 add(XSP16, 31)
          CFI Block cfiPicker282 Using cfiCommon1
          CFI (cfiPicker282) NoFunction
          CFI (cfiPicker282) Picker
        MOV     R1,#0x1
        MOV     A,R2
        ADD     A,#0x15
        MOV     R4,A
        CLR     A
        ADDC    A,R3
        MOV     R5,A
        MOV     A,R2
        ADD     A,#0x1f
        MOV     R2,A
        RET
          CFI EndBlock cfiCond280
          CFI EndBlock cfiCond281
          CFI EndBlock cfiPicker282

        RSEG BANKED_CODE:CODE:NOROOT(0)
?Subroutine26:
          CFI Block cfiCond283 Using cfiCommon0
          CFI Function ZDApp_ProcessPendingBindReq
          CFI Conditional ??CrossCallReturnLabel_21
          CFI R6 load(1, XDATA, add(CFA_XSP16, literal(-15)))
          CFI VB load(1, XDATA, add(CFA_XSP16, literal(-14)))
          CFI V0 load(1, XDATA, add(CFA_XSP16, literal(-13)))
          CFI V1 load(1, XDATA, add(CFA_XSP16, literal(-12)))
          CFI V2 load(1, XDATA, add(CFA_XSP16, literal(-11)))
          CFI V3 load(1, XDATA, add(CFA_XSP16, literal(-10)))
          CFI V4 load(1, XDATA, add(CFA_XSP16, literal(-9)))
          CFI V5 load(1, XDATA, add(CFA_XSP16, literal(-8)))
          CFI V6 load(1, XDATA, add(CFA_XSP16, literal(-7)))
          CFI R7 load(1, XDATA, add(CFA_XSP16, literal(-6)))
          CFI ?RET_LOW load(1, XDATA, add(CFA_XSP16, literal(-5)))
          CFI ?RET_HIGH load(1, XDATA, add(CFA_XSP16, literal(-4)))
          CFI ?BRET_EXT load(1, XDATA, add(CFA_XSP16, literal(-3)))
          CFI DPL0 load(1, XDATA, add(CFA_XSP16, literal(-2)))
          CFI DPH0 load(1, XDATA, add(CFA_XSP16, literal(-1)))
          CFI CFA_SP SP+-2
          CFI CFA_XSP16 add(XSP16, 19)
          CFI Block cfiCond284 Using cfiCommon0
          CFI (cfiCond284) Function ZDApp_AgeOutPendingBindEntry
          CFI (cfiCond284) Conditional ??CrossCallReturnLabel_22
          CFI (cfiCond284) R6 load(1, XDATA, add(CFA_XSP16, literal(-12)))
          CFI (cfiCond284) VB load(1, XDATA, add(CFA_XSP16, literal(-11)))
          CFI (cfiCond284) V0 load(1, XDATA, add(CFA_XSP16, literal(-10)))
          CFI (cfiCond284) V1 load(1, XDATA, add(CFA_XSP16, literal(-9)))
          CFI (cfiCond284) V2 load(1, XDATA, add(CFA_XSP16, literal(-8)))
          CFI (cfiCond284) V3 load(1, XDATA, add(CFA_XSP16, literal(-7)))
          CFI (cfiCond284) R7 load(1, XDATA, add(CFA_XSP16, literal(-6)))
          CFI (cfiCond284) ?RET_LOW load(1, XDATA, add(CFA_XSP16, literal(-5)))
          CFI (cfiCond284) ?RET_HIGH load(1, XDATA, add(CFA_XSP16, literal(-4)))
          CFI (cfiCond284) ?BRET_EXT load(1, XDATA, add(CFA_XSP16, literal(-3)))
          CFI (cfiCond284) DPL0 load(1, XDATA, add(CFA_XSP16, literal(-2)))
          CFI (cfiCond284) DPH0 load(1, XDATA, add(CFA_XSP16, literal(-1)))
          CFI (cfiCond284) CFA_SP SP+-2
          CFI (cfiCond284) CFA_XSP16 add(XSP16, 26)
          CFI Block cfiPicker285 Using cfiCommon1
          CFI (cfiPicker285) NoFunction
          CFI (cfiPicker285) Picker
        MOV     DPTR,#ZDAppPendingBindReq
        MOVX    A,@DPTR
        ADD     A,R6
        MOV     R0,A
        INC     DPTR
        MOVX    A,@DPTR
        ADDC    A,R7
        MOV     R1,A
        MOV     A,R0
        RET
          CFI EndBlock cfiCond283
          CFI EndBlock cfiCond284
          CFI EndBlock cfiPicker285

        RSEG BANKED_CODE:CODE:NOROOT(0)
?Subroutine19:
          CFI Block cfiCond286 Using cfiCommon0
          CFI Function ZDApp_ProcessPendingBindReq
          CFI Conditional ??CrossCallReturnLabel_12
          CFI R6 load(1, XDATA, add(CFA_XSP16, literal(-15)))
          CFI VB load(1, XDATA, add(CFA_XSP16, literal(-14)))
          CFI V0 load(1, XDATA, add(CFA_XSP16, literal(-13)))
          CFI V1 load(1, XDATA, add(CFA_XSP16, literal(-12)))
          CFI V2 load(1, XDATA, add(CFA_XSP16, literal(-11)))
          CFI V3 load(1, XDATA, add(CFA_XSP16, literal(-10)))
          CFI V4 load(1, XDATA, add(CFA_XSP16, literal(-9)))
          CFI V5 load(1, XDATA, add(CFA_XSP16, literal(-8)))
          CFI V6 load(1, XDATA, add(CFA_XSP16, literal(-7)))
          CFI R7 load(1, XDATA, add(CFA_XSP16, literal(-6)))
          CFI ?RET_LOW load(1, XDATA, add(CFA_XSP16, literal(-5)))
          CFI ?RET_HIGH load(1, XDATA, add(CFA_XSP16, literal(-4)))
          CFI ?BRET_EXT load(1, XDATA, add(CFA_XSP16, literal(-3)))
          CFI DPL0 load(1, XDATA, add(CFA_XSP16, literal(-2)))
          CFI DPH0 load(1, XDATA, add(CFA_XSP16, literal(-1)))
          CFI CFA_SP SP+-2
          CFI CFA_XSP16 add(XSP16, 16)
          CFI Block cfiCond287 Using cfiCommon0
          CFI (cfiCond287) Function ZDApp_AgeOutPendingBindEntry
          CFI (cfiCond287) Conditional ??CrossCallReturnLabel_13
          CFI (cfiCond287) R6 load(1, XDATA, add(CFA_XSP16, literal(-12)))
          CFI (cfiCond287) VB load(1, XDATA, add(CFA_XSP16, literal(-11)))
          CFI (cfiCond287) V0 load(1, XDATA, add(CFA_XSP16, literal(-10)))
          CFI (cfiCond287) V1 load(1, XDATA, add(CFA_XSP16, literal(-9)))
          CFI (cfiCond287) V2 load(1, XDATA, add(CFA_XSP16, literal(-8)))
          CFI (cfiCond287) V3 load(1, XDATA, add(CFA_XSP16, literal(-7)))
          CFI (cfiCond287) R7 load(1, XDATA, add(CFA_XSP16, literal(-6)))
          CFI (cfiCond287) ?RET_LOW load(1, XDATA, add(CFA_XSP16, literal(-5)))
          CFI (cfiCond287) ?RET_HIGH load(1, XDATA, add(CFA_XSP16, literal(-4)))
          CFI (cfiCond287) ?BRET_EXT load(1, XDATA, add(CFA_XSP16, literal(-3)))
          CFI (cfiCond287) DPL0 load(1, XDATA, add(CFA_XSP16, literal(-2)))
          CFI (cfiCond287) DPH0 load(1, XDATA, add(CFA_XSP16, literal(-1)))
          CFI (cfiCond287) CFA_SP SP+-2
          CFI (cfiCond287) CFA_XSP16 add(XSP16, 26)
          CFI Block cfiPicker288 Using cfiCommon1
          CFI (cfiPicker288) NoFunction
          CFI (cfiPicker288) Picker
        LCALL   ?Subroutine34 & 0xFFFF
??CrossCallReturnLabel_41:
        ; Setup parameters for call to function ZDP_SendData
        ; Setup parameters for call to function ZDP_SendData
        MOV     A,R2
        ADD     A,#0x1e
        MOV     DPL,A
        CLR     A
        ADDC    A,R3
        MOV     DPH,A
        MOVX    A,@DPTR
        RET
          CFI EndBlock cfiCond286
          CFI EndBlock cfiCond287
          CFI EndBlock cfiPicker288

        RSEG BANKED_CODE:CODE:NOROOT(0)
?Subroutine5:
          CFI Block cfiBlock289 Using cfiCommon0
          CFI NoFunction
          CFI CFA_SP SP+0
          CFI CFA_XSP16 add(XSP16, 14)
          CFI VB load(1, XDATA, add(CFA_XSP16, literal(-11)))
          CFI DPL0 load(1, XDATA, add(CFA_XSP16, literal(-2)))
          CFI DPH0 load(1, XDATA, add(CFA_XSP16, literal(-1)))
          CFI R6 load(1, XDATA, add(CFA_XSP16, literal(-12)))
          CFI R7 load(1, XDATA, add(CFA_XSP16, literal(-6)))
          CFI V0 load(1, XDATA, add(CFA_XSP16, literal(-10)))
          CFI V1 load(1, XDATA, add(CFA_XSP16, literal(-9)))
          CFI V2 load(1, XDATA, add(CFA_XSP16, literal(-8)))
          CFI V3 load(1, XDATA, add(CFA_XSP16, literal(-7)))
          CFI ?BRET_EXT load(1, XDATA, add(CFA_XSP16, literal(-3)))
          CFI ?RET_HIGH load(1, XDATA, add(CFA_XSP16, literal(-4)))
          CFI ?RET_LOW load(1, XDATA, add(CFA_XSP16, literal(-5)))
        MOV     A,#0x2
          CFI EndBlock cfiBlock289
        REQUIRE ??Subroutine53_0
        ; // Fall through to label ??Subroutine53_0

        RSEG BANKED_CODE:CODE:NOROOT(0)
??Subroutine53_0:
          CFI Block cfiBlock290 Using cfiCommon0
          CFI NoFunction
          CFI CFA_SP SP+0
          CFI CFA_XSP16 add(XSP16, 15)
          CFI VB load(1, XDATA, add(CFA_XSP16, literal(-11)))
          CFI DPL0 load(1, XDATA, add(CFA_XSP16, literal(-2)))
          CFI DPH0 load(1, XDATA, add(CFA_XSP16, literal(-1)))
          CFI R6 load(1, XDATA, add(CFA_XSP16, literal(-12)))
          CFI R7 load(1, XDATA, add(CFA_XSP16, literal(-6)))
          CFI V0 load(1, XDATA, add(CFA_XSP16, literal(-10)))
          CFI V1 load(1, XDATA, add(CFA_XSP16, literal(-9)))
          CFI V2 load(1, XDATA, add(CFA_XSP16, literal(-8)))
          CFI V3 load(1, XDATA, add(CFA_XSP16, literal(-7)))
          CFI ?BRET_EXT load(1, XDATA, add(CFA_XSP16, literal(-3)))
          CFI ?RET_HIGH load(1, XDATA, add(CFA_XSP16, literal(-4)))
          CFI ?RET_LOW load(1, XDATA, add(CFA_XSP16, literal(-5)))
          CFI Invalid
        LCALL   ?DEALLOC_XSTACK8
          CFI EndBlock cfiBlock290
        REQUIRE ??Subroutine54_0
        ; // Fall through to label ??Subroutine54_0

        RSEG BANKED_CODE:CODE:NOROOT(0)
??Subroutine54_0:
          CFI Block cfiBlock291 Using cfiCommon0
          CFI NoFunction
          CFI CFA_SP SP+0
          CFI CFA_XSP16 add(XSP16, 12)
          CFI VB load(1, XDATA, add(CFA_XSP16, literal(-11)))
          CFI DPL0 load(1, XDATA, add(CFA_XSP16, literal(-2)))
          CFI DPH0 load(1, XDATA, add(CFA_XSP16, literal(-1)))
          CFI R6 load(1, XDATA, add(CFA_XSP16, literal(-12)))
          CFI R7 load(1, XDATA, add(CFA_XSP16, literal(-6)))
          CFI V0 load(1, XDATA, add(CFA_XSP16, literal(-10)))
          CFI V1 load(1, XDATA, add(CFA_XSP16, literal(-9)))
          CFI V2 load(1, XDATA, add(CFA_XSP16, literal(-8)))
          CFI V3 load(1, XDATA, add(CFA_XSP16, literal(-7)))
          CFI ?BRET_EXT load(1, XDATA, add(CFA_XSP16, literal(-3)))
          CFI ?RET_HIGH load(1, XDATA, add(CFA_XSP16, literal(-4)))
          CFI ?RET_LOW load(1, XDATA, add(CFA_XSP16, literal(-5)))
        MOV     R7,#0x4
        LJMP    ?BANKED_LEAVE_XDATA
          CFI EndBlock cfiBlock291
// 3771 #endif
// 3772 #endif
// 3773 
// 3774 /*********************************************************************
// 3775  * @fn          ZDO_ChangeState
// 3776  *
// 3777  * @brief       Chance the device state
// 3778  *
// 3779  * @param       state - new state
// 3780  *
// 3781  * @return      none
// 3782  */

        RSEG BANKED_CODE:CODE:NOROOT(0)
// 3783 void ZDApp_ChangeState( devStates_t state )
ZDApp_ChangeState:
          CFI Block cfiBlock292 Using cfiCommon0
          CFI Function ZDApp_ChangeState
        CODE
// 3784 {
        FUNCALL ZDApp_ChangeState, osal_set_event
        LOCFRAME ISTACK, 0, STACK
        LOCFRAME PSTACK, 0, STACK
        LOCFRAME XSTACK, 9, STACK
        LOCFRAME IOVERLAY, 0, STATIC
        LOCFRAME DOVERLAY, 0, STATIC
        ARGFRAME ISTACK, 0, STACK
        ARGFRAME PSTACK, 0, STACK
        ARGFRAME XSTACK, 9, STACK
        ARGFRAME IOVERLAY, 0, STATIC
        ARGFRAME DOVERLAY, 0, STATIC
        MOV     A,#-0x9
        LCALL   ?BANKED_ENTER_XDATA
          CFI DPH0 load(1, XDATA, add(CFA_XSP16, literal(-1)))
          CFI DPL0 load(1, XDATA, add(CFA_XSP16, literal(-2)))
          CFI ?BRET_EXT load(1, XDATA, add(CFA_XSP16, literal(-3)))
          CFI ?RET_HIGH load(1, XDATA, add(CFA_XSP16, literal(-4)))
          CFI ?RET_LOW load(1, XDATA, add(CFA_XSP16, literal(-5)))
          CFI R7 load(1, XDATA, add(CFA_XSP16, literal(-6)))
          CFI V0 load(1, XDATA, add(CFA_XSP16, literal(-7)))
          CFI VB load(1, XDATA, add(CFA_XSP16, literal(-8)))
          CFI R6 load(1, XDATA, add(CFA_XSP16, literal(-9)))
          CFI CFA_SP SP+0
          CFI CFA_XSP16 add(XSP16, 9)
        ; Saved register size: 9
        ; Auto size: 0
        MOV     A,R1
        MOV     R6,A
// 3785   if ( devState != state )
        MOV     DPTR,#devState
        MOVX    A,@DPTR
        XRL     A,R6
        JZ      ??ZDApp_ChangeState_0
// 3786   {
// 3787     devState = state;
        MOV     A,R6
        MOVX    @DPTR,A
// 3788     osal_set_event( ZDAppTaskID, ZDO_STATE_CHANGE_EVT );
        ; Setup parameters for call to function osal_set_event
        MOV     R2,#0x10
        MOV     R3,#0x0
        MOV     DPTR,#ZDAppTaskID
        MOVX    A,@DPTR
        MOV     R1,A
        LCALL   ??osal_set_event?relay; Banked call to: osal_set_event
// 3789   }
// 3790 }
??ZDApp_ChangeState_0:
        LJMP    ??Subroutine44_0 & 0xFFFF
          CFI EndBlock cfiBlock292
// 3791 
// 3792 /*********************************************************************
// 3793  * @fn      ZDApp_SetRejoinScanDuration()
// 3794  *
// 3795  * @brief   Sets scan duration for rejoin for an end device
// 3796  *
// 3797  * @param   rejoinScanDuration - milliseconds
// 3798  *
// 3799  * @return  none
// 3800  */

        RSEG BANKED_CODE:CODE:NOROOT(0)
// 3801 void ZDApp_SetRejoinScanDuration( uint32 rejoinScanDuration )
ZDApp_SetRejoinScanDuration:
          CFI Block cfiBlock293 Using cfiCommon0
          CFI Function ZDApp_SetRejoinScanDuration
        CODE
// 3802 {
        REQUIRE ?V0
        REQUIRE ?V1
        REQUIRE ?V2
        REQUIRE ?V3
        MOV     A,#-0xc
        LCALL   ?BANKED_ENTER_XDATA
          CFI DPH0 load(1, XDATA, add(CFA_XSP16, literal(-1)))
          CFI DPL0 load(1, XDATA, add(CFA_XSP16, literal(-2)))
          CFI ?BRET_EXT load(1, XDATA, add(CFA_XSP16, literal(-3)))
          CFI ?RET_HIGH load(1, XDATA, add(CFA_XSP16, literal(-4)))
          CFI ?RET_LOW load(1, XDATA, add(CFA_XSP16, literal(-5)))
          CFI R7 load(1, XDATA, add(CFA_XSP16, literal(-6)))
          CFI V3 load(1, XDATA, add(CFA_XSP16, literal(-7)))
          CFI V2 load(1, XDATA, add(CFA_XSP16, literal(-8)))
          CFI V1 load(1, XDATA, add(CFA_XSP16, literal(-9)))
          CFI V0 load(1, XDATA, add(CFA_XSP16, literal(-10)))
          CFI VB load(1, XDATA, add(CFA_XSP16, literal(-11)))
          CFI R6 load(1, XDATA, add(CFA_XSP16, literal(-12)))
          CFI CFA_SP SP+0
          CFI CFA_XSP16 add(XSP16, 12)
        ; Saved register size: 12
        ; Auto size: 0
        MOV     ?V0,R2
        MOV     ?V1,R3
        MOV     ?V2,R4
        MOV     ?V3,R5
// 3803   zgDefaultRejoinScan = rejoinScanDuration;
        MOV     DPTR,#zgDefaultRejoinScan
          CFI EndBlock cfiBlock293
        REQUIRE ?Subroutine10
        ; // Fall through to label ?Subroutine10
// 3804 }

        RSEG BANKED_CODE:CODE:NOROOT(0)
?Subroutine10:
          CFI Block cfiBlock294 Using cfiCommon0
          CFI NoFunction
          CFI CFA_SP SP+0
          CFI CFA_XSP16 add(XSP16, 12)
          CFI VB load(1, XDATA, add(CFA_XSP16, literal(-11)))
          CFI DPL0 load(1, XDATA, add(CFA_XSP16, literal(-2)))
          CFI DPH0 load(1, XDATA, add(CFA_XSP16, literal(-1)))
          CFI R6 load(1, XDATA, add(CFA_XSP16, literal(-12)))
          CFI R7 load(1, XDATA, add(CFA_XSP16, literal(-6)))
          CFI V0 load(1, XDATA, add(CFA_XSP16, literal(-10)))
          CFI V1 load(1, XDATA, add(CFA_XSP16, literal(-9)))
          CFI V2 load(1, XDATA, add(CFA_XSP16, literal(-8)))
          CFI V3 load(1, XDATA, add(CFA_XSP16, literal(-7)))
          CFI ?BRET_EXT load(1, XDATA, add(CFA_XSP16, literal(-3)))
          CFI ?RET_HIGH load(1, XDATA, add(CFA_XSP16, literal(-4)))
          CFI ?RET_LOW load(1, XDATA, add(CFA_XSP16, literal(-5)))
        MOV     R0,#?V0
        LCALL   ?L_MOV_TO_X
        SJMP    ??Subroutine54_0
          CFI EndBlock cfiBlock294
// 3805 
// 3806 /*********************************************************************
// 3807  * @fn      ZDApp_SetRejoinBackoffDuration()
// 3808  *
// 3809  * @brief   Sets rejoin backoff duration for rejoin for an end device
// 3810  *
// 3811  * @param   rejoinBackoffDuration - milliseconds
// 3812  *
// 3813  * @return  none
// 3814  */

        RSEG BANKED_CODE:CODE:NOROOT(0)
// 3815 void ZDApp_SetRejoinBackoffDuration( uint32 rejoinBackoffDuration )
ZDApp_SetRejoinBackoffDuration:
          CFI Block cfiBlock295 Using cfiCommon0
          CFI Function ZDApp_SetRejoinBackoffDuration
        CODE
// 3816 {
        REQUIRE ?V0
        REQUIRE ?V1
        REQUIRE ?V2
        REQUIRE ?V3
        MOV     A,#-0xc
        LCALL   ?BANKED_ENTER_XDATA
          CFI DPH0 load(1, XDATA, add(CFA_XSP16, literal(-1)))
          CFI DPL0 load(1, XDATA, add(CFA_XSP16, literal(-2)))
          CFI ?BRET_EXT load(1, XDATA, add(CFA_XSP16, literal(-3)))
          CFI ?RET_HIGH load(1, XDATA, add(CFA_XSP16, literal(-4)))
          CFI ?RET_LOW load(1, XDATA, add(CFA_XSP16, literal(-5)))
          CFI R7 load(1, XDATA, add(CFA_XSP16, literal(-6)))
          CFI V3 load(1, XDATA, add(CFA_XSP16, literal(-7)))
          CFI V2 load(1, XDATA, add(CFA_XSP16, literal(-8)))
          CFI V1 load(1, XDATA, add(CFA_XSP16, literal(-9)))
          CFI V0 load(1, XDATA, add(CFA_XSP16, literal(-10)))
          CFI VB load(1, XDATA, add(CFA_XSP16, literal(-11)))
          CFI R6 load(1, XDATA, add(CFA_XSP16, literal(-12)))
          CFI CFA_SP SP+0
          CFI CFA_XSP16 add(XSP16, 12)
        ; Saved register size: 12
        ; Auto size: 0
        MOV     ?V0,R2
        MOV     ?V1,R3
        MOV     ?V2,R4
        MOV     ?V3,R5
// 3817   zgDefaultRejoinBackoff = rejoinBackoffDuration;
        MOV     DPTR,#zgDefaultRejoinBackoff
        SJMP    ?Subroutine10
          CFI EndBlock cfiBlock295
// 3818 }
// 3819 
// 3820 /*********************************************************************
// 3821  * @fn          ZDApp_SetParentAnnceTimer
// 3822  *
// 3823  * @brief       This function sets up the link status timer.
// 3824  *
// 3825  * @param       none
// 3826  *
// 3827  * @return      none
// 3828  */

        RSEG BANKED_CODE:CODE:NOROOT(0)
// 3829 void ZDApp_SetParentAnnceTimer( void )
ZDApp_SetParentAnnceTimer:
          CFI Block cfiBlock296 Using cfiCommon0
          CFI Function ZDApp_SetParentAnnceTimer
        CODE
// 3830 {
        FUNCALL ZDApp_SetParentAnnceTimer, osal_rand
        LOCFRAME ISTACK, 0, STACK
        LOCFRAME PSTACK, 0, STACK
        LOCFRAME XSTACK, 12, STACK
        LOCFRAME IOVERLAY, 0, STATIC
        LOCFRAME DOVERLAY, 0, STATIC
        ARGFRAME ISTACK, 0, STACK
        ARGFRAME PSTACK, 0, STACK
        ARGFRAME XSTACK, 12, STACK
        ARGFRAME IOVERLAY, 0, STATIC
        ARGFRAME DOVERLAY, 0, STATIC
        FUNCALL ZDApp_SetParentAnnceTimer, osal_start_timerEx
        LOCFRAME ISTACK, 0, STACK
        LOCFRAME PSTACK, 0, STACK
        LOCFRAME XSTACK, 16, STACK
        LOCFRAME IOVERLAY, 0, STATIC
        LOCFRAME DOVERLAY, 0, STATIC
        ARGFRAME ISTACK, 0, STACK
        ARGFRAME PSTACK, 0, STACK
        ARGFRAME XSTACK, 16, STACK
        ARGFRAME IOVERLAY, 0, STATIC
        ARGFRAME DOVERLAY, 0, STATIC
        REQUIRE ?V0
        REQUIRE ?V1
        REQUIRE ?V2
        REQUIRE ?V3
        MOV     A,#-0xc
        LCALL   ?BANKED_ENTER_XDATA
          CFI DPH0 load(1, XDATA, add(CFA_XSP16, literal(-1)))
          CFI DPL0 load(1, XDATA, add(CFA_XSP16, literal(-2)))
          CFI ?BRET_EXT load(1, XDATA, add(CFA_XSP16, literal(-3)))
          CFI ?RET_HIGH load(1, XDATA, add(CFA_XSP16, literal(-4)))
          CFI ?RET_LOW load(1, XDATA, add(CFA_XSP16, literal(-5)))
          CFI R7 load(1, XDATA, add(CFA_XSP16, literal(-6)))
          CFI V3 load(1, XDATA, add(CFA_XSP16, literal(-7)))
          CFI V2 load(1, XDATA, add(CFA_XSP16, literal(-8)))
          CFI V1 load(1, XDATA, add(CFA_XSP16, literal(-9)))
          CFI V0 load(1, XDATA, add(CFA_XSP16, literal(-10)))
          CFI VB load(1, XDATA, add(CFA_XSP16, literal(-11)))
          CFI R6 load(1, XDATA, add(CFA_XSP16, literal(-12)))
          CFI CFA_SP SP+0
          CFI CFA_XSP16 add(XSP16, 12)
        ; Saved register size: 12
        ; Auto size: 0
// 3831   // Parent Announce shall be sent no earlier than 10 seconds
// 3832   uint32 timeout = 10000;
// 3833 
// 3834   // Add with jitter of up to 10 seconds
// 3835   timeout += (osal_rand() & 0x2710);
        ; Setup parameters for call to function osal_rand
        LCALL   ??osal_rand?relay    ; Banked call to: osal_rand
// 3836 
// 3837   // Set timer to send the message
// 3838   osal_start_timerEx( ZDAppTaskID, ZDO_PARENT_ANNCE_EVT, timeout );
        ; Setup parameters for call to function osal_start_timerEx
        MOV     A,R2
        ANL     A,#0x10
        MOV     ?V0,A
        MOV     A,R3
        ANL     A,#0x27
        MOV     ?V1,A
        CLR     A
        MOV     ?V2,A
        MOV     ?V3,A
        MOV     DPTR,#__Constant_2710
        MOV     R0,#?V0
        LCALL   ?L_ADD_X
        MOV     R0,#?V0
        LCALL   ?PUSH_XSTACK_I_FOUR
          CFI CFA_XSP16 add(XSP16, 16)
        MOV     R2,#0x0
        MOV     R3,#0x40
        MOV     DPTR,#ZDAppTaskID
        MOVX    A,@DPTR
        MOV     R1,A
        LCALL   ??osal_start_timerEx?relay; Banked call to: osal_start_timerEx
        LJMP    ?Subroutine9 & 0xFFFF
          CFI EndBlock cfiBlock296
// 3839 }

        RSEG XDATA_ID:CODE:NOROOT(0)
`?<Initializer for zdoDiscCounter>`:
        DATA8
        DB 1

        RSEG XDATA_ID:CODE:NOROOT(0)
`?<Initializer for continueJoining>`:
        DATA8
        DB 1

        RSEG XDATA_ID:CODE:NOROOT(0)
`?<Initializer for devState>`:
        DATA8
        DB 1

        RSEG XDATA_ID:CODE:NOROOT(0)
`?<Initializer for prevDevState>`:
        DATA8
        DB 4

        RSEG XDATA_ID:CODE:NOROOT(0)
`?<Initializer for ZDApp_epDesc>`:
        DATA8
        DB 0
        DATA16
        DW ZDAppTaskID
        DW 0H
        DATA8
        DB 0

        RSEG XDATA_ID:CODE:NOROOT(0)
`?<Initializer for ZDApp_SavedPollRate>`:
        DATA32
        DD 120000

        RSEG XDATA_ROM_C:CONST:REORDER:NOROOT(0)
        DATA32
__Constant_1770:
        DD 6000

        RSEG XDATA_ROM_C:CONST:REORDER:NOROOT(0)
        DATA32
__Constant_64:
        DD 100

        RSEG XDATA_ROM_C:CONST:REORDER:NOROOT(0)
        DATA32
__Constant_0:
        DD 0

        RSEG XDATA_ROM_C:CONST:REORDER:NOROOT(0)
        DATA32
__Constant_4e2:
        DD 1250

        RSEG XDATA_ROM_C:CONST:REORDER:NOROOT(0)
        DATA32
__Constant_258:
        DD 600

        RSEG XDATA_ROM_C:CONST:REORDER:NOROOT(0)
        DATA32
__Constant_3e8:
        DD 1000

        RSEG XDATA_ROM_C:CONST:REORDER:NOROOT(0)
        DATA32
__Constant_2710:
        DD 10000

        RSEG BANK_RELAYS:CODE:REORDER:NOROOT(0)
??ZDApp_Init?relay:
        CODE
        LCALL   ?BDISPATCH
        DATA24
        DC24    ZDApp_Init

        RSEG BANK_RELAYS:CODE:REORDER:NOROOT(0)
??ZDApp_SecInit?relay:
        CODE
        LCALL   ?BDISPATCH
        DATA24
        DC24    ZDApp_SecInit

        RSEG BANK_RELAYS:CODE:REORDER:NOROOT(0)
??ZDApp_event_loop?relay:
        CODE
        LCALL   ?BDISPATCH
        DATA24
        DC24    ZDApp_event_loop

        RSEG BANK_RELAYS:CODE:REORDER:NOROOT(0)
??ZDApp_ProcessSecEvent?relay:
        CODE
        LCALL   ?BDISPATCH
        DATA24
        DC24    ZDApp_ProcessSecEvent

        RSEG BANK_RELAYS:CODE:REORDER:NOROOT(0)
??ZDOInitDevice?relay:
        CODE
        LCALL   ?BDISPATCH
        DATA24
        DC24    ZDOInitDevice

        RSEG BANK_RELAYS:CODE:REORDER:NOROOT(0)
??ZDApp_ReadNetworkRestoreState?relay:
        CODE
        LCALL   ?BDISPATCH
        DATA24
        DC24    ZDApp_ReadNetworkRestoreState

        RSEG BANK_RELAYS:CODE:REORDER:NOROOT(0)
??ZDAppDetermineDeviceType?relay:
        CODE
        LCALL   ?BDISPATCH
        DATA24
        DC24    ZDAppDetermineDeviceType

        RSEG BANK_RELAYS:CODE:REORDER:NOROOT(0)
??ZDApp_NetworkStartEvt?relay:
        CODE
        LCALL   ?BDISPATCH
        DATA24
        DC24    ZDApp_NetworkStartEvt

        RSEG BANK_RELAYS:CODE:REORDER:NOROOT(0)
??ZDApp_DeviceAuthEvt?relay:
        CODE
        LCALL   ?BDISPATCH
        DATA24
        DC24    ZDApp_DeviceAuthEvt

        RSEG BANK_RELAYS:CODE:REORDER:NOROOT(0)
??ZDApp_SaveNetworkStateEvt?relay:
        CODE
        LCALL   ?BDISPATCH
        DATA24
        DC24    ZDApp_SaveNetworkStateEvt

        RSEG BANK_RELAYS:CODE:REORDER:NOROOT(0)
??ZDApp_RestoreNetworkState?relay:
        CODE
        LCALL   ?BDISPATCH
        DATA24
        DC24    ZDApp_RestoreNetworkState

        RSEG BANK_RELAYS:CODE:REORDER:NOROOT(0)
??ZDApp_InitUserDesc?relay:
        CODE
        LCALL   ?BDISPATCH
        DATA24
        DC24    ZDApp_InitUserDesc

        RSEG BANK_RELAYS:CODE:REORDER:NOROOT(0)
??ZDAppCheckForHoldKey?relay:
        CODE
        LCALL   ?BDISPATCH
        DATA24
        DC24    ZDAppCheckForHoldKey

        RSEG BANK_RELAYS:CODE:REORDER:NOROOT(0)
??ZDApp_ProcessOSALMsg?relay:
        CODE
        LCALL   ?BDISPATCH
        DATA24
        DC24    ZDApp_ProcessOSALMsg

        RSEG BANK_RELAYS:CODE:REORDER:NOROOT(0)
??ZDApp_ProcessMsgCBs?relay:
        CODE
        LCALL   ?BDISPATCH
        DATA24
        DC24    ZDApp_ProcessMsgCBs

        RSEG BANK_RELAYS:CODE:REORDER:NOROOT(0)
??ZDApp_RegisterCBs?relay:
        CODE
        LCALL   ?BDISPATCH
        DATA24
        DC24    ZDApp_RegisterCBs

        RSEG BANK_RELAYS:CODE:REORDER:NOROOT(0)
??ZDApp_ProcessSecMsg?relay:
        CODE
        LCALL   ?BDISPATCH
        DATA24
        DC24    ZDApp_ProcessSecMsg

        RSEG BANK_RELAYS:CODE:REORDER:NOROOT(0)
??ZDApp_ProcessNetworkJoin?relay:
        CODE
        LCALL   ?BDISPATCH
        DATA24
        DC24    ZDApp_ProcessNetworkJoin

        RSEG BANK_RELAYS:CODE:REORDER:NOROOT(0)
??ZDApp_SaveNwkKey?relay:
        CODE
        LCALL   ?BDISPATCH
        DATA24
        DC24    ZDApp_SaveNwkKey

        RSEG BANK_RELAYS:CODE:REORDER:NOROOT(0)
??ZDApp_ForceConcentratorChange?relay:
        CODE
        LCALL   ?BDISPATCH
        DATA24
        DC24    ZDApp_ForceConcentratorChange

        RSEG BANK_RELAYS:CODE:REORDER:NOROOT(0)
??ZDApp_ResetNwkKey?relay:
        CODE
        LCALL   ?BDISPATCH
        DATA24
        DC24    ZDApp_ResetNwkKey

        RSEG BANK_RELAYS:CODE:REORDER:NOROOT(0)
??ZDApp_RestoreNwkKey?relay:
        CODE
        LCALL   ?BDISPATCH
        DATA24
        DC24    ZDApp_RestoreNwkKey

        RSEG BANK_RELAYS:CODE:REORDER:NOROOT(0)
??ZDApp_ResetTimerStart?relay:
        CODE
        LCALL   ?BDISPATCH
        DATA24
        DC24    ZDApp_ResetTimerStart

        RSEG BANK_RELAYS:CODE:REORDER:NOROOT(0)
??ZDApp_ResetTimerCancel?relay:
        CODE
        LCALL   ?BDISPATCH
        DATA24
        DC24    ZDApp_ResetTimerCancel

        RSEG BANK_RELAYS:CODE:REORDER:NOROOT(0)
??ZDApp_LeaveCtrlInit?relay:
        CODE
        LCALL   ?BDISPATCH
        DATA24
        DC24    ZDApp_LeaveCtrlInit

        RSEG BANK_RELAYS:CODE:REORDER:NOROOT(0)
??ZDApp_LeaveCtrlSet?relay:
        CODE
        LCALL   ?BDISPATCH
        DATA24
        DC24    ZDApp_LeaveCtrlSet

        RSEG BANK_RELAYS:CODE:REORDER:NOROOT(0)
??ZDApp_LeaveCtrlReset?relay:
        CODE
        LCALL   ?BDISPATCH
        DATA24
        DC24    ZDApp_LeaveCtrlReset

        RSEG BANK_RELAYS:CODE:REORDER:NOROOT(0)
??ZDApp_LeaveCtrlBypass?relay:
        CODE
        LCALL   ?BDISPATCH
        DATA24
        DC24    ZDApp_LeaveCtrlBypass

        RSEG BANK_RELAYS:CODE:REORDER:NOROOT(0)
??ZDApp_LeaveCtrlStartup?relay:
        CODE
        LCALL   ?BDISPATCH
        DATA24
        DC24    ZDApp_LeaveCtrlStartup

        RSEG BANK_RELAYS:CODE:REORDER:NOROOT(0)
??ZDApp_LeaveReset?relay:
        CODE
        LCALL   ?BDISPATCH
        DATA24
        DC24    ZDApp_LeaveReset

        RSEG BANK_RELAYS:CODE:REORDER:NOROOT(0)
??ZDApp_LeaveUpdate?relay:
        CODE
        LCALL   ?BDISPATCH
        DATA24
        DC24    ZDApp_LeaveUpdate

        RSEG BANK_RELAYS:CODE:REORDER:NOROOT(0)
??ZDApp_NetworkDiscoveryReq?relay:
        CODE
        LCALL   ?BDISPATCH
        DATA24
        DC24    ZDApp_NetworkDiscoveryReq

        RSEG BANK_RELAYS:CODE:REORDER:NOROOT(0)
??ZDApp_JoinReq?relay:
        CODE
        LCALL   ?BDISPATCH
        DATA24
        DC24    ZDApp_JoinReq

        RSEG BANK_RELAYS:CODE:REORDER:NOROOT(0)
??ZDApp_DeviceConfigured?relay:
        CODE
        LCALL   ?BDISPATCH
        DATA24
        DC24    ZDApp_DeviceConfigured

        RSEG BANK_RELAYS:CODE:REORDER:NOROOT(0)
??ZDApp_SendEventMsg?relay:
        CODE
        LCALL   ?BDISPATCH
        DATA24
        DC24    ZDApp_SendEventMsg

        RSEG BANK_RELAYS:CODE:REORDER:NOROOT(0)
??ZDApp_SendMsg?relay:
        CODE
        LCALL   ?BDISPATCH
        DATA24
        DC24    ZDApp_SendMsg

        RSEG BANK_RELAYS:CODE:REORDER:NOROOT(0)
??ZDO_NetworkDiscoveryConfirmCB?relay:
        CODE
        LCALL   ?BDISPATCH
        DATA24
        DC24    ZDO_NetworkDiscoveryConfirmCB

        RSEG BANK_RELAYS:CODE:REORDER:NOROOT(0)
??ZDApp_NwkDescListProcessing?relay:
        CODE
        LCALL   ?BDISPATCH
        DATA24
        DC24    ZDApp_NwkDescListProcessing

        RSEG BANK_RELAYS:CODE:REORDER:NOROOT(0)
??ZDO_NetworkFormationConfirmCB?relay:
        CODE
        LCALL   ?BDISPATCH
        DATA24
        DC24    ZDO_NetworkFormationConfirmCB

        RSEG BANK_RELAYS:CODE:REORDER:NOROOT(0)
??ZDO_beaconNotifyIndCB?relay:
        CODE
        LCALL   ?BDISPATCH
        DATA24
        DC24    ZDO_beaconNotifyIndCB

        RSEG BANK_RELAYS:CODE:REORDER:NOROOT(0)
??ZDO_StartRouterConfirmCB?relay:
        CODE
        LCALL   ?BDISPATCH
        DATA24
        DC24    ZDO_StartRouterConfirmCB

        RSEG BANK_RELAYS:CODE:REORDER:NOROOT(0)
??ZDO_JoinConfirmCB?relay:
        CODE
        LCALL   ?BDISPATCH
        DATA24
        DC24    ZDO_JoinConfirmCB

        RSEG BANK_RELAYS:CODE:REORDER:NOROOT(0)
??ZDO_PermitJoinCB?relay:
        CODE
        LCALL   ?BDISPATCH
        DATA24
        DC24    ZDO_PermitJoinCB

        RSEG BANK_RELAYS:CODE:REORDER:NOROOT(0)
??ZDO_AddrChangeIndicationCB?relay:
        CODE
        LCALL   ?BDISPATCH
        DATA24
        DC24    ZDO_AddrChangeIndicationCB

        RSEG BANK_RELAYS:CODE:REORDER:NOROOT(0)
??ZDO_JoinIndicationCB?relay:
        CODE
        LCALL   ?BDISPATCH
        DATA24
        DC24    ZDO_JoinIndicationCB

        RSEG BANK_RELAYS:CODE:REORDER:NOROOT(0)
??ZDO_ConcentratorIndicationCB?relay:
        CODE
        LCALL   ?BDISPATCH
        DATA24
        DC24    ZDO_ConcentratorIndicationCB

        RSEG BANK_RELAYS:CODE:REORDER:NOROOT(0)
??ZDO_LeaveCnf?relay:
        CODE
        LCALL   ?BDISPATCH
        DATA24
        DC24    ZDO_LeaveCnf

        RSEG BANK_RELAYS:CODE:REORDER:NOROOT(0)
??ZDO_LeaveInd?relay:
        CODE
        LCALL   ?BDISPATCH
        DATA24
        DC24    ZDO_LeaveInd

        RSEG BANK_RELAYS:CODE:REORDER:NOROOT(0)
??ZDO_SyncIndicationCB?relay:
        CODE
        LCALL   ?BDISPATCH
        DATA24
        DC24    ZDO_SyncIndicationCB

        RSEG BANK_RELAYS:CODE:REORDER:NOROOT(0)
??ZDO_ManytoOneFailureIndicationCB?relay:
        CODE
        LCALL   ?BDISPATCH
        DATA24
        DC24    ZDO_ManytoOneFailureIndicationCB

        RSEG BANK_RELAYS:CODE:REORDER:NOROOT(0)
??ZDO_PollConfirmCB?relay:
        CODE
        LCALL   ?BDISPATCH
        DATA24
        DC24    ZDO_PollConfirmCB

        RSEG BANK_RELAYS:CODE:REORDER:NOROOT(0)
??ZDO_NetworkStatusCB?relay:
        CODE
        LCALL   ?BDISPATCH
        DATA24
        DC24    ZDO_NetworkStatusCB

        RSEG BANK_RELAYS:CODE:REORDER:NOROOT(0)
??AddrMgrWriteNVRequest?relay:
        CODE
        LCALL   ?BDISPATCH
        DATA24
        DC24    AddrMgrWriteNVRequest

        RSEG BANK_RELAYS:CODE:REORDER:NOROOT(0)
??ZDO_UpdateDeviceIndication?relay:
        CODE
        LCALL   ?BDISPATCH
        DATA24
        DC24    ZDO_UpdateDeviceIndication

        RSEG BANK_RELAYS:CODE:REORDER:NOROOT(0)
??ZDApp_InMsgCB?relay:
        CODE
        LCALL   ?BDISPATCH
        DATA24
        DC24    ZDApp_InMsgCB

        RSEG BANK_RELAYS:CODE:REORDER:NOROOT(0)
??ZDApp_ChangeMatchDescRespPermission?relay:
        CODE
        LCALL   ?BDISPATCH
        DATA24
        DC24    ZDApp_ChangeMatchDescRespPermission

        RSEG BANK_RELAYS:CODE:REORDER:NOROOT(0)
??ZDApp_NetworkInit?relay:
        CODE
        LCALL   ?BDISPATCH
        DATA24
        DC24    ZDApp_NetworkInit

        RSEG BANK_RELAYS:CODE:REORDER:NOROOT(0)
??ZDApp_NwkStateUpdateCB?relay:
        CODE
        LCALL   ?BDISPATCH
        DATA24
        DC24    ZDApp_NwkStateUpdateCB

        RSEG BANK_RELAYS:CODE:REORDER:NOROOT(0)
??ZDApp_NodeProfileSync?relay:
        CODE
        LCALL   ?BDISPATCH
        DATA24
        DC24    ZDApp_NodeProfileSync

        RSEG BANK_RELAYS:CODE:REORDER:NOROOT(0)
??ZDApp_StartJoiningCycle?relay:
        CODE
        LCALL   ?BDISPATCH
        DATA24
        DC24    ZDApp_StartJoiningCycle

        RSEG BANK_RELAYS:CODE:REORDER:NOROOT(0)
??ZDApp_StopJoiningCycle?relay:
        CODE
        LCALL   ?BDISPATCH
        DATA24
        DC24    ZDApp_StopJoiningCycle

        RSEG BANK_RELAYS:CODE:REORDER:NOROOT(0)
??ZDApp_AnnounceNewAddress?relay:
        CODE
        LCALL   ?BDISPATCH
        DATA24
        DC24    ZDApp_AnnounceNewAddress

        RSEG BANK_RELAYS:CODE:REORDER:NOROOT(0)
??ZDApp_SendParentAnnce?relay:
        CODE
        LCALL   ?BDISPATCH
        DATA24
        DC24    ZDApp_SendParentAnnce

        RSEG BANK_RELAYS:CODE:REORDER:NOROOT(0)
??ZDApp_NVUpdate?relay:
        CODE
        LCALL   ?BDISPATCH
        DATA24
        DC24    ZDApp_NVUpdate

        RSEG BANK_RELAYS:CODE:REORDER:NOROOT(0)
??ZDApp_CoordStartPANIDConflictCB?relay:
        CODE
        LCALL   ?BDISPATCH
        DATA24
        DC24    ZDApp_CoordStartPANIDConflictCB

        RSEG BANK_RELAYS:CODE:REORDER:NOROOT(0)
??ZDO_SrcRtgIndCB?relay:
        CODE
        LCALL   ?BDISPATCH
        DATA24
        DC24    ZDO_SrcRtgIndCB

        RSEG BANK_RELAYS:CODE:REORDER:NOROOT(0)
??ZDApp_InitZdoCBFunc?relay:
        CODE
        LCALL   ?BDISPATCH
        DATA24
        DC24    ZDApp_InitZdoCBFunc

        RSEG BANK_RELAYS:CODE:REORDER:NOROOT(0)
??ZDO_RegisterForZdoCB?relay:
        CODE
        LCALL   ?BDISPATCH
        DATA24
        DC24    ZDO_RegisterForZdoCB

        RSEG BANK_RELAYS:CODE:REORDER:NOROOT(0)
??ZDO_DeregisterForZdoCB?relay:
        CODE
        LCALL   ?BDISPATCH
        DATA24
        DC24    ZDO_DeregisterForZdoCB

        RSEG BANK_RELAYS:CODE:REORDER:NOROOT(0)
??ZDApp_SetPendingBindDefault?relay:
        CODE
        LCALL   ?BDISPATCH
        DATA24
        DC24    ZDApp_SetPendingBindDefault

        RSEG BANK_RELAYS:CODE:REORDER:NOROOT(0)
??ZDApp_InitPendingBind?relay:
        CODE
        LCALL   ?BDISPATCH
        DATA24
        DC24    ZDApp_InitPendingBind

        RSEG BANK_RELAYS:CODE:REORDER:NOROOT(0)
??ZDApp_GetEmptyPendingBindReq?relay:
        CODE
        LCALL   ?BDISPATCH
        DATA24
        DC24    ZDApp_GetEmptyPendingBindReq

        RSEG BANK_RELAYS:CODE:REORDER:NOROOT(0)
??ZDApp_ProcessPendingBindReq?relay:
        CODE
        LCALL   ?BDISPATCH
        DATA24
        DC24    ZDApp_ProcessPendingBindReq

        RSEG BANK_RELAYS:CODE:REORDER:NOROOT(0)
??ZDApp_AgeOutPendingBindEntry?relay:
        CODE
        LCALL   ?BDISPATCH
        DATA24
        DC24    ZDApp_AgeOutPendingBindEntry

        RSEG BANK_RELAYS:CODE:REORDER:NOROOT(0)
??ZDApp_ChangeState?relay:
        CODE
        LCALL   ?BDISPATCH
        DATA24
        DC24    ZDApp_ChangeState

        RSEG BANK_RELAYS:CODE:REORDER:NOROOT(0)
??ZDApp_SetRejoinScanDuration?relay:
        CODE
        LCALL   ?BDISPATCH
        DATA24
        DC24    ZDApp_SetRejoinScanDuration

        RSEG BANK_RELAYS:CODE:REORDER:NOROOT(0)
??ZDApp_SetRejoinBackoffDuration?relay:
        CODE
        LCALL   ?BDISPATCH
        DATA24
        DC24    ZDApp_SetRejoinBackoffDuration

        RSEG BANK_RELAYS:CODE:REORDER:NOROOT(0)
??ZDApp_SetParentAnnceTimer?relay:
        CODE
        LCALL   ?BDISPATCH
        DATA24
        DC24    ZDApp_SetParentAnnceTimer

        END
// 3840 
// 3841 /*********************************************************************
// 3842 *********************************************************************/
// 
// 8 078 bytes in segment BANKED_CODE
//   468 bytes in segment BANK_RELAYS
//    14 bytes in segment XDATA_I
//    14 bytes in segment XDATA_ID
//    28 bytes in segment XDATA_ROM_C
//    66 bytes in segment XDATA_Z
// 
// 8 560 bytes of CODE  memory
//     0 bytes of CONST memory (+ 28 bytes shared)
//    80 bytes of XDATA memory
//
//Errors: none
//Warnings: none
