###############################################################################
#
# IAR C/C++ Compiler V9.10.1.2146 for 8051                22/Jan/2018  09:11:12
# Copyright 2004-2014 IAR Systems AB.
# Standalone license - IAR Embedded Workbench for 8051
#
#    Core               =  plain
#    Code model         =  banked
#    Data model         =  large
#    Calling convention =  xdata reentrant
#    Constant location  =  data_rom
#    Dptr setup         =  1,16
#                          
#    Source file        =  
#        E:\GitHub\面板Z-Stack Home
#        1.2.2a.44539\Components\stack\zdo\ZDObject.c
#    Command line       =  
#        -f "E:\GitHub\面板Z-Stack Home
#        1.2.2a.44539\Projects\zstack\HomeAutomation\SceneSelector\CC2530DB\..\..\..\Tools\CC2530DB\f8wEndev.cfg"
#        (-DCPU32MHZ -DROOT=__near_func -DMAC_CFG_TX_DATA_MAX=3
#        -DMAC_CFG_TX_MAX=6 -DMAC_CFG_RX_MAX=3) -f "E:\GitHub\面板Z-Stack Home
#        1.2.2a.44539\Projects\zstack\HomeAutomation\SceneSelector\CC2530DB\..\..\..\Tools\CC2530DB\f8wConfig.cfg"
#        (-DZIGBEEPRO -DSECURE=1 -DZG_SECURE_DYNAMIC=0 -DREFLECTOR
#        -DDEFAULT_CHANLIST=0x07FFF800 -DZDAPP_CONFIG_PAN_ID=0xFFFF
#        -DNWK_START_DELAY=100 -DEXTENDED_JOINING_RANDOM_MASK=0x007F
#        -DBEACON_REQUEST_DELAY=100 -DBEACON_REQ_DELAY_MASK=0x00FF
#        -DLINK_STATUS_JITTER_MASK=0x007F -DROUTE_EXPIRY_TIME=30
#        -DAPSC_ACK_WAIT_DURATION_POLLED=3000 -DNWK_INDIRECT_MSG_TIMEOUT=7
#        -DMAX_RREQ_ENTRIES=8 -DAPSC_MAX_FRAME_RETRIES=3
#        -DNWK_MAX_DATA_RETRIES=2 -DMAX_POLL_FAILURE_RETRIES=2 -DMAX_BCAST=9
#        -DAPS_MAX_GROUPS=16 -DMAX_RTG_ENTRIES=40 -DNWK_MAX_BINDING_ENTRIES=4
#        -DMAX_BINDING_CLUSTER_IDS=4 "-DDEFAULT_KEY={0x01, 0x03, 0x05, 0x07,
#        0x09, 0x0B, 0x0D, 0x0F, 0x00, 0x02, 0x04, 0x06, 0x08, 0x0A, 0x0C,
#        0x0D}" -DMAC_MAX_FRAME_SIZE=116 -DZDNWKMGR_MIN_TRANSMISSIONS=20
#        "-DCONST=const __code" -DGENERIC=__generic -DRFD_RCVC_ALWAYS_ON=FALSE
#        -DPOLL_RATE=120000 -DQUEUED_POLL_RATE=100 -DRESPONSE_POLL_RATE=100
#        -DREJOIN_POLL_RATE=440 -DREJOIN_BACKOFF=900000 -DREJOIN_SCAN=120000)
#        -f "E:\GitHub\面板Z-Stack Home
#        1.2.2a.44539\Projects\zstack\HomeAutomation\SceneSelector\CC2530DB\..\..\..\Tools\CC2530DB\f8wZCL.cfg"
#        "E:\GitHub\面板Z-Stack Home
#        1.2.2a.44539\Components\stack\zdo\ZDObject.c" -D
#        SCENE_SELECTOR_TOUCHKEY -D xSCENE_SELECTOR -D ISR_KEYINTERRUPT -D
#        OSC32K_CRYSTAL_INSTALLED=FALSE -D xxHAL_PA_LNA -D SECURE=1 -D
#        TC_LINKKEY_JOIN -D NV_INIT -D NV_RESTORE -D POWER_SAVING -D
#        NWK_AUTO_POLL -D xHOLD_AUTO_START -D xZTOOL_P1 -D MT_TASK -D
#        MT_APP_FUNC -D MT_SYS_FUNC -D MT_ZDO_FUNC -D xLCD_SUPPORTED=DEBUG -D
#        MULTICAST_ENABLED=FALSE -D ZCL_READ -D ZCL_WRITE -D ZCL_REPORT -D
#        xZCL_EZMODE -D ZCL_BASIC -D ZCL_IDENTIFY -D ZCL_GROUPS -D ZCL_SCENES
#        -D ZCL_ON_OFF -D ZCL_LEVEL_CTRL -D ZCL_DIAGNOSTIC -D
#        FEATURE_SYSTEM_STATS -lC "E:\GitHub\面板Z-Stack Home
#        1.2.2a.44539\Projects\zstack\HomeAutomation\SceneSelector\CC2530DB\EndDeviceEB\List\"
#        -lA "E:\GitHub\面板Z-Stack Home
#        1.2.2a.44539\Projects\zstack\HomeAutomation\SceneSelector\CC2530DB\EndDeviceEB\List\"
#        --diag_suppress Pe001,Pa010 -o "E:\GitHub\面板Z-Stack Home
#        1.2.2a.44539\Projects\zstack\HomeAutomation\SceneSelector\CC2530DB\EndDeviceEB\Obj\"
#        -e --debug --core=plain --dptr=16,1 --data_model=large
#        --code_model=banked --calling_convention=xdata_reentrant
#        --place_constants=data_rom --nr_virtual_regs 16 -I
#        "E:\GitHub\面板Z-Stack Home
#        1.2.2a.44539\Projects\zstack\HomeAutomation\SceneSelector\CC2530DB\..\..\Add\AddSceneSelector\"
#        -I "E:\GitHub\面板Z-Stack Home
#        1.2.2a.44539\Projects\zstack\HomeAutomation\SceneSelector\CC2530DB\..\..\Add\AddCommon\"
#        -I "E:\GitHub\面板Z-Stack Home
#        1.2.2a.44539\Projects\zstack\HomeAutomation\SceneSelector\CC2530DB\..\..\Add\"
#        -I "E:\GitHub\面板Z-Stack Home
#        1.2.2a.44539\Projects\zstack\HomeAutomation\SceneSelector\CC2530DB\"
#        -I "E:\GitHub\面板Z-Stack Home
#        1.2.2a.44539\Projects\zstack\HomeAutomation\SceneSelector\CC2530DB\..\Source\"
#        -I "E:\GitHub\面板Z-Stack Home
#        1.2.2a.44539\Projects\zstack\HomeAutomation\SceneSelector\CC2530DB\..\..\Source\"
#        -I "E:\GitHub\面板Z-Stack Home
#        1.2.2a.44539\Projects\zstack\HomeAutomation\SceneSelector\CC2530DB\..\..\..\ZMain\TI2530DB\"
#        -I "E:\GitHub\面板Z-Stack Home
#        1.2.2a.44539\Projects\zstack\HomeAutomation\SceneSelector\CC2530DB\..\..\..\..\..\Components\hal\include\"
#        -I "E:\GitHub\面板Z-Stack Home
#        1.2.2a.44539\Projects\zstack\HomeAutomation\SceneSelector\CC2530DB\..\..\..\..\..\Components\hal\target\CC2530EB\"
#        -I "E:\GitHub\面板Z-Stack Home
#        1.2.2a.44539\Projects\zstack\HomeAutomation\SceneSelector\CC2530DB\..\..\..\..\..\Components\mac\include\"
#        -I "E:\GitHub\面板Z-Stack Home
#        1.2.2a.44539\Projects\zstack\HomeAutomation\SceneSelector\CC2530DB\..\..\..\..\..\Components\mac\high_level\"
#        -I "E:\GitHub\面板Z-Stack Home
#        1.2.2a.44539\Projects\zstack\HomeAutomation\SceneSelector\CC2530DB\..\..\..\..\..\Components\mac\low_level\srf04\"
#        -I "E:\GitHub\面板Z-Stack Home
#        1.2.2a.44539\Projects\zstack\HomeAutomation\SceneSelector\CC2530DB\..\..\..\..\..\Components\mac\low_level\srf04\single_chip\"
#        -I "E:\GitHub\面板Z-Stack Home
#        1.2.2a.44539\Projects\zstack\HomeAutomation\SceneSelector\CC2530DB\..\..\..\..\..\Components\mt\"
#        -I "E:\GitHub\面板Z-Stack Home
#        1.2.2a.44539\Projects\zstack\HomeAutomation\SceneSelector\CC2530DB\..\..\..\..\..\Components\osal\include\"
#        -I "E:\GitHub\面板Z-Stack Home
#        1.2.2a.44539\Projects\zstack\HomeAutomation\SceneSelector\CC2530DB\..\..\..\..\..\Components\services\saddr\"
#        -I "E:\GitHub\面板Z-Stack Home
#        1.2.2a.44539\Projects\zstack\HomeAutomation\SceneSelector\CC2530DB\..\..\..\..\..\Components\services\sdata\"
#        -I "E:\GitHub\面板Z-Stack Home
#        1.2.2a.44539\Projects\zstack\HomeAutomation\SceneSelector\CC2530DB\..\..\..\..\..\Components\stack\af\"
#        -I "E:\GitHub\面板Z-Stack Home
#        1.2.2a.44539\Projects\zstack\HomeAutomation\SceneSelector\CC2530DB\..\..\..\..\..\Components\stack\nwk\"
#        -I "E:\GitHub\面板Z-Stack Home
#        1.2.2a.44539\Projects\zstack\HomeAutomation\SceneSelector\CC2530DB\..\..\..\..\..\Components\stack\sapi\"
#        -I "E:\GitHub\面板Z-Stack Home
#        1.2.2a.44539\Projects\zstack\HomeAutomation\SceneSelector\CC2530DB\..\..\..\..\..\Components\stack\sec\"
#        -I "E:\GitHub\面板Z-Stack Home
#        1.2.2a.44539\Projects\zstack\HomeAutomation\SceneSelector\CC2530DB\..\..\..\..\..\Components\stack\sys\"
#        -I "E:\GitHub\面板Z-Stack Home
#        1.2.2a.44539\Projects\zstack\HomeAutomation\SceneSelector\CC2530DB\..\..\..\..\..\Components\stack\zcl\"
#        -I "E:\GitHub\面板Z-Stack Home
#        1.2.2a.44539\Projects\zstack\HomeAutomation\SceneSelector\CC2530DB\..\..\..\..\..\Components\stack\zdo\"
#        -I "E:\GitHub\面板Z-Stack Home
#        1.2.2a.44539\Projects\zstack\HomeAutomation\SceneSelector\CC2530DB\..\..\..\..\..\Components\zmac\"
#        -I "E:\GitHub\面板Z-Stack Home
#        1.2.2a.44539\Projects\zstack\HomeAutomation\SceneSelector\CC2530DB\..\..\..\..\..\Components\zmac\f8w\"
#        -Ohz --require_prototypes
#    List file          =  
#        E:\GitHub\面板Z-Stack Home
#        1.2.2a.44539\Projects\zstack\HomeAutomation\SceneSelector\CC2530DB\EndDeviceEB\List\ZDObject.lst
#    Object file        =  
#        E:\GitHub\面板Z-Stack Home
#        1.2.2a.44539\Projects\zstack\HomeAutomation\SceneSelector\CC2530DB\EndDeviceEB\Obj\ZDObject.r51
#
###############################################################################

E:\GitHub\面板Z-Stack Home 1.2.2a.44539\Components\stack\zdo\ZDObject.c
      1          /**************************************************************************************************
      2            Filename:       ZDObject.c
      3            Revised:        $Date: 2015-10-01 15:01:50 -0700 (Thu, 01 Oct 2015) $
      4            Revision:       $Revision: 44513 $
      5          
      6            Description:    This is the Zigbee Device Object.
      7          
      8          
      9            Copyright 2004-2015 Texas Instruments Incorporated. All rights reserved.
     10          
     11            IMPORTANT: Your use of this Software is limited to those specific rights
     12            granted under the terms of a software license agreement between the user
     13            who downloaded the software, his/her employer (which must be your employer)
     14            and Texas Instruments Incorporated (the "License"). You may not use this
     15            Software unless you agree to abide by the terms of the License. The License
     16            limits your use, and you acknowledge, that the Software may not be modified,
     17            copied or distributed unless embedded on a Texas Instruments microcontroller
     18            or used solely and exclusively in conjunction with a Texas Instruments radio
     19            frequency transceiver, which is integrated into your product. Other than for
     20            the foregoing purpose, you may not use, reproduce, copy, prepare derivative
     21            works of, modify, distribute, perform, display or sell this Software and/or
     22            its documentation for any purpose.
     23          
     24            YOU FURTHER ACKNOWLEDGE AND AGREE THAT THE SOFTWARE AND DOCUMENTATION ARE
     25            PROVIDED "AS IS" WITHOUT WARRANTY OF ANY KIND, EITHER EXPRESS OR IMPLIED,
     26            INCLUDING WITHOUT LIMITATION, ANY WARRANTY OF MERCHANTABILITY, TITLE,
     27            NON-INFRINGEMENT AND FITNESS FOR A PARTICULAR PURPOSE. IN NO EVENT SHALL
     28            TEXAS INSTRUMENTS OR ITS LICENSORS BE LIABLE OR OBLIGATED UNDER CONTRACT,
     29            NEGLIGENCE, STRICT LIABILITY, CONTRIBUTION, BREACH OF WARRANTY, OR OTHER
     30            LEGAL EQUITABLE THEORY ANY DIRECT OR INDIRECT DAMAGES OR EXPENSES
     31            INCLUDING BUT NOT LIMITED TO ANY INCIDENTAL, SPECIAL, INDIRECT, PUNITIVE
     32            OR CONSEQUENTIAL DAMAGES, LOST PROFITS OR LOST DATA, COST OF PROCUREMENT
     33            OF SUBSTITUTE GOODS, TECHNOLOGY, SERVICES, OR ANY CLAIMS BY THIRD PARTIES
     34            (INCLUDING BUT NOT LIMITED TO ANY DEFENSE THEREOF), OR OTHER SIMILAR COSTS.
     35          
     36            Should you have any questions regarding your right to use this Software,
     37            contact Texas Instruments Incorporated at www.TI.com.
     38          **************************************************************************************************/
     39          
     40          /*********************************************************************
     41           * INCLUDES
     42           */
     43          #include "ZComDef.h"
     44          #include "OSAL.h"
     45          #include "OSAL_Nv.h"
     46          #include "rtg.h"
     47          #include "NLMEDE.h"
     48          #include "nwk_globals.h"
     49          #include "APS.h"
     50          #include "APSMEDE.h"
     51          #include "AssocList.h"
     52          #include "BindingTable.h"
     53          #include "AddrMgr.h"
     54          #include "AF.h"
     55          #include "ZDObject.h"
     56          #include "ZDProfile.h"
     57          #include "ZDConfig.h"
     58          #include "ZDSecMgr.h"
     59          #include "ZDApp.h"
     60          #include "nwk_util.h"   // NLME_IsAddressBroadcast()
     61          #include "ZGlobals.h"
     62          #if defined MT_ZDO_CB_FUNC
     63          #include "MT.h"
     64          #endif
     65          
     66          #if defined( LCD_SUPPORTED )
     67            #include "OnBoard.h"
     68          #endif
     69          
     70          /* HAL */
     71          #include "hal_lcd.h"
     72          
     73          /*********************************************************************
     74           * MACROS
     75           */
     76          
     77          /*********************************************************************
     78           * CONSTANTS
     79           */
     80          // NLME Stub Implementations
     81          #define ZDO_ProcessMgmtPermitJoinTimeout NLME_PermitJoiningTimeout
     82          
     83          /*********************************************************************
     84           * TYPEDEFS
     85           */
     86          #if defined ( REFLECTOR )
     87          typedef struct
     88          {
     89            byte SrcTransSeq;
     90            zAddrType_t SrcAddr;
     91            uint16 LocalCoordinator;
     92            byte epIntf;
     93            uint16 ProfileID;
     94            byte numInClusters;
     95            uint16 *inClusters;
     96            byte numOutClusters;
     97            uint16 *outClusters;
     98            byte SecurityUse;
     99            byte status;
    100          } ZDO_EDBind_t;
    101          #endif // defined ( REFLECTOR )
    102          
    103          enum
    104          {
    105            ZDMATCH_INIT,           // Initialized
    106            ZDMATCH_WAIT_REQ,       // Received first request, waiting for second
    107            ZDMATCH_SENDING_BINDS   // Received both requests, sending unbind/binds
    108          };
    109          
    110          enum
    111          {
    112            ZDMATCH_SENDING_NOT,
    113            ZDMATCH_SENDING_UNBIND,
    114            ZDMATCH_SENDING_BIND
    115          };
    116          
    117          /*********************************************************************
    118           * GLOBAL VARIABLES
    119           */
    120          
    121          /*********************************************************************
    122           * EXTERNAL VARIABLES
    123           */
    124          
    125          /*********************************************************************
    126           * EXTERNAL FUNCTIONS
    127           */
    128          
    129          /*********************************************************************
    130           * LOCAL VARIABLES
    131           */

   \                                 In  segment XDATA_Z, align 1, keep-with-next
    132          static uint16 ZDOBuildBuf[26];  // temp area to build data without allocation
   \                     ZDOBuildBuf:
   \   000000                DS 52
   \   000034                REQUIRE __INIT_XDATA_Z
    133          
    134          #if defined ( REFLECTOR )

   \                                 In  segment XDATA_Z, align 1, keep-with-next
    135          static ZDO_EDBind_t *ZDO_EDBind;     // Null when not used
   \                     ZDO_EDBind:
   \   000000                DS 2
   \   000002                REQUIRE __INIT_XDATA_Z
    136          #endif
    137          
    138          #if defined ( MANAGED_SCAN )
    139            uint32 managedScanNextChannel = 0;
    140            uint32 managedScanChannelMask = 0;
    141            uint8  managedScanTimesPerChannel = 0;
    142          #endif
    143          

   \                                 In  segment XDATA_Z, align 1, keep-with-next
    144          ZDMatchEndDeviceBind_t *matchED = (ZDMatchEndDeviceBind_t *)NULL;
   \                     matchED:
   \   000000                DS 2
   \   000002                REQUIRE __INIT_XDATA_Z
    145          

   \                                 In  segment XDATA_Z, align 1, keep-with-next
    146          uint32 apsChannelMask = 0;
   \                     apsChannelMask:
   \   000000                DS 4
   \   000004                REQUIRE __INIT_XDATA_Z
    147          

   \                                 In  segment XDATA_I, align 1, keep-with-next
    148          int16 zdpExternalStateTaskID = -1;
   \                     zdpExternalStateTaskID:
   \   000000                DS 2
   \   000002                REQUIRE `?<Initializer for zdpExternalStateTaskID>`
   \   000002                REQUIRE __INIT_XDATA_I
    149          
    150          /*********************************************************************
    151           * LOCAL FUNCTIONS
    152           */
    153          static void ZDODeviceSetup( void );
    154          #if defined ( MANAGED_SCAN )
    155            static void ZDOManagedScan_Next( void );
    156          #endif
    157          #if defined ( REFLECTOR )
    158            static void ZDO_RemoveEndDeviceBind( void );
    159            static void ZDO_SendEDBindRsp( byte TransSeq, zAddrType_t *dstAddr, byte Status, byte secUse );
    160          #endif
    161          #if ( ZG_BUILD_COORDINATOR_TYPE )
    162            static byte ZDO_CompareClusterLists( byte numList1, uint16 *list1,
    163                                                 byte numList2, uint16 *list2, uint16 *pMatches );
    164            static void ZDO_RemoveMatchMemory( void );
    165            static uint8 ZDO_CopyMatchInfo( ZDEndDeviceBind_t *destReq, ZDEndDeviceBind_t *srcReq );
    166            static void ZDO_EndDeviceBindMatchTimeoutCB( void );
    167          #endif
    168          uint8 *ZDO_ConvertOTAClusters( uint8 cnt, uint8 *inBuf, uint16 *outList );
    169          static void zdoSendStateChangeMsg(uint8 state, uint8 taskId);
    170          
    171          /*********************************************************************
    172           * @fn          ZDO_Init
    173           *
    174           * @brief       ZDObject and ZDProfile initialization.
    175           *
    176           * @param       none
    177           *
    178           * @return      none
    179           */

   \                                 In  segment BANKED_CODE, align 1, keep-with-next
    180          void ZDO_Init( void )
   \                     ZDO_Init:
    181          {
   \   000000   C082         PUSH    DPL
   \   000002   C083         PUSH    DPH
   \   000004                ; Saved register size: 2
   \   000004                ; Auto size: 0
    182            // Initialize ZD items
    183            #if defined ( REFLECTOR )
    184            ZDO_EDBind = NULL;
   \   000004   90....       MOV     DPTR,#ZDO_EDBind
   \   000007   E4           CLR     A
   \   000008   F0           MOVX    @DPTR,A
   \   000009   A3           INC     DPTR
   \   00000A   F0           MOVX    @DPTR,A
    185            #endif
    186          
    187            // Initialize default ZDO_UseExtendedPANID to the APS one.
    188            osal_cpyExtAddr( ZDO_UseExtendedPANID, AIB_apsUseExtendedPANID );
   \   00000B                ; Setup parameters for call to function sAddrExtCpy
   \   00000B   7C..         MOV     R4,#AIB_apsUseExtendedPANID & 0xff
   \   00000D   7D..         MOV     R5,#(AIB_apsUseExtendedPANID >> 8) & 0xff
   \   00000F   7A..         MOV     R2,#ZDO_UseExtendedPANID & 0xff
   \   000011   7B..         MOV     R3,#(ZDO_UseExtendedPANID >> 8) & 0xff
   \   000013   12....       LCALL   ??sAddrExtCpy?relay  ; Banked call to: sAddrExtCpy
    189          
    190            // Setup the device - type of device to create.
    191            ZDODeviceSetup();
   \   000016                ; Setup parameters for call to function APS_ReflectorInit
   \   000016   12....       LCALL   ??APS_ReflectorInit?relay; Banked call to: APS_ReflectorInit
   \   000019                ; Setup parameters for call to function NLME_DeviceJoiningInit
   \   000019   12....       LCALL   ??NLME_DeviceJoiningInit?relay; Banked call to: NLME_DeviceJoiningInit
    192          }
   \   00001C                REQUIRE ?Subroutine0
   \   00001C                ; // Fall through to label ?Subroutine0

   \                                 In  segment BANKED_CODE, align 1, keep-with-next
   \                     ?Subroutine0:
   \   000000   D083         POP     DPH
   \   000002   D082         POP     DPL
   \   000004   02....       LJMP    ?BRET
    193          
    194          #if defined ( MANAGED_SCAN )
    195          /*********************************************************************
    196           * @fn      ZDOManagedScan_Next()
    197           *
    198           * @brief   Setup a managed scan.
    199           *
    200           * @param   none
    201           *
    202           * @return  none
    203           */
    204          static void ZDOManagedScan_Next( void )
    205          {
    206            // Is it the first time
    207            if ( managedScanNextChannel == 0 && managedScanTimesPerChannel == 0 )
    208            {
    209              // Setup the defaults
    210              managedScanNextChannel  = 1;
    211          
    212              while( managedScanNextChannel && (runtimeChannel & managedScanNextChannel) == 0 )
    213                managedScanNextChannel <<= 1;
    214          
    215              managedScanChannelMask = managedScanNextChannel;
    216              managedScanTimesPerChannel = MANAGEDSCAN_TIMES_PRE_CHANNEL;
    217            }
    218            else
    219            {
    220              // Do we need to go to the next channel
    221              if ( managedScanTimesPerChannel == 0 )
    222              {
    223                // Find next active channel
    224                managedScanChannelMask  = managedScanNextChannel;
    225                managedScanTimesPerChannel = MANAGEDSCAN_TIMES_PRE_CHANNEL;
    226              }
    227              else
    228              {
    229                managedScanTimesPerChannel--;
    230          
    231                if ( managedScanTimesPerChannel == 0 )
    232                {
    233                  managedScanNextChannel  <<= 1;
    234                  while( managedScanNextChannel && (runtimeChannel & managedScanNextChannel) == 0 )
    235                    managedScanNextChannel <<= 1;
    236          
    237                  if ( managedScanNextChannel == 0 )
    238                    zdoDiscCounter  = NUM_DISC_ATTEMPTS + 1; // Stop
    239                }
    240              }
    241            }
    242          }
    243          #endif // MANAGED_SCAN
    244          
    245          /*********************************************************************
    246           * @fn      ZDODeviceSetup()
    247           *
    248           * @brief   Call set functions depending on the type of device compiled.
    249           *
    250           * @param   none
    251           *
    252           * @return  none
    253           */
    254          static void ZDODeviceSetup( void )
    255          {
    256            if ( ZG_BUILD_COORDINATOR_TYPE )
    257            {
    258              NLME_CoordinatorInit();
    259            }
    260          
    261          #if defined ( REFLECTOR )
    262            APS_ReflectorInit();
    263          #endif
    264          
    265            if ( ZG_BUILD_JOINING_TYPE )
    266            {
    267              NLME_DeviceJoiningInit();
    268            }
    269          }
    270          
    271          /*********************************************************************
    272           * @fn          ZDO_StartDevice
    273           *
    274           * @brief       This function starts a device in a network.
    275           *
    276           * @param       logicalType     - Device type to start
    277           *              startMode       - indicates mode of device startup
    278           *              beaconOrder     - indicates time betwen beacons
    279           *              superframeOrder - indicates length of active superframe
    280           *
    281           * @return      none
    282           */

   \                                 In  segment BANKED_CODE, align 1, keep-with-next
    283          void ZDO_StartDevice( byte logicalType, devStartModes_t startMode, byte beaconOrder, byte superframeOrder )
   \                     ZDO_StartDevice:
    284          {
   \   000000                REQUIRE ?V0
   \   000000                REQUIRE ?V1
   \   000000   74F6         MOV     A,#-0xa
   \   000002   12....       LCALL   ?BANKED_ENTER_XDATA
   \   000005                ; Saved register size: 10
   \   000005                ; Auto size: 11
   \   000005   74F5         MOV     A,#-0xb
   \   000007   12....       LCALL   ?ALLOC_XSTACK8
   \   00000A   89..         MOV     ?V0,R1
   \   00000C   8A..         MOV     ?V1,R2
    285            ZStatus_t ret;
    286          #if defined ( ZIGBEE_FREQ_AGILITY )
    287            static uint8 discRetries = 0;
    288          #endif
    289          #if defined ( ZIGBEE_COMMISSIONING )
    290            static uint8 scanCnt = 0;
    291          #endif
    292          
    293            ret = ZUnsupportedMode;
    294          
    295            if ( ZG_BUILD_COORDINATOR_TYPE && logicalType == NODETYPE_COORDINATOR )
    296            {
    297              if ( startMode == MODE_HARD )
    298              {
    299                ZDApp_ChangeState( DEV_COORD_STARTING );
    300                ret = NLME_NetworkFormationRequest( zgConfigPANID, zgApsUseExtendedPANID, runtimeChannel,
    301                                                    zgDefaultStartingScanDuration, beaconOrder,
    302                                                    superframeOrder, false );
    303              }
    304              else if ( startMode == MODE_RESUME )
    305              {
    306                // Just start the coordinator
    307                ZDApp_ChangeState( DEV_COORD_STARTING );
    308                ret = NLME_StartRouterRequest( beaconOrder, beaconOrder, false );
    309              }
    310              else
    311              {
    312          #if defined( LCD_SUPPORTED )
    313                HalLcdWriteScreen( "StartDevice ERR", "MODE unknown" );
    314          #endif
    315              }
    316            }
    317          
    318            if ( ZG_BUILD_JOINING_TYPE && (logicalType == NODETYPE_ROUTER || logicalType == NODETYPE_DEVICE) )
   \   00000E   7401         MOV     A,#0x1
   \   000010   65..         XRL     A,?V0
   \   000012   6009         JZ      ??ZDO_StartDevice_0
   \   000014   7402         MOV     A,#0x2
   \   000016   65..         XRL     A,?V0
   \   000018   6003         JZ      $+5
   \   00001A   02....       LJMP    ??ZDO_StartDevice_1 & 0xFFFF
    319            {
    320              if ( (startMode == MODE_JOIN) || (startMode == MODE_REJOIN) )
   \                     ??ZDO_StartDevice_0:
   \   00001D   EA           MOV     A,R2
   \   00001E   6006         JZ      ??ZDO_StartDevice_2
   \   000020   7403         MOV     A,#0x3
   \   000022   65..         XRL     A,?V1
   \   000024   7040         JNZ     ??ZDO_StartDevice_3
    321              {
    322                ZDApp_ChangeState( DEV_NWK_DISC );
   \                     ??ZDO_StartDevice_2:
   \   000026                ; Setup parameters for call to function ZDApp_ChangeState
   \   000026   7902         MOV     R1,#0x2
   \   000028   12....       LCALL   ??ZDApp_ChangeState?relay; Banked call to: ZDApp_ChangeState
    323          
    324            #if defined( MANAGED_SCAN )
    325                ZDOManagedScan_Next();
    326                ret = NLME_NetworkDiscoveryRequest( managedScanChannelMask, BEACON_ORDER_15_MSEC );
    327          #else
    328                ret = NLME_NetworkDiscoveryRequest( runtimeChannel, zgDefaultStartingScanDuration );
   \   00002B                ; Setup parameters for call to function NLME_NetworkDiscoveryRequest
   \   00002B   90....       MOV     DPTR,#zgDefaultStartingScanDuration
   \   00002E   E0           MOVX    A,@DPTR
   \   00002F   F9           MOV     R1,A
   \   000030   90....       MOV     DPTR,#runtimeChannel
   \   000033   12....       LCALL   ?XLOAD_R2345
   \   000036   12....       LCALL   ??NLME_NetworkDiscoveryRequest?relay; Banked call to: NLME_NetworkDiscoveryRequest
   \   000039   E9           MOV     A,R1
   \   00003A   F9           MOV     R1,A
    329          #if defined ( ZIGBEE_FREQ_AGILITY )
    330                if ( !( ZDO_Config_Node_Descriptor.CapabilityFlags & CAPINFO_RCVR_ON_IDLE ) &&
    331                    ( ret == ZSuccess ) && ( ++discRetries == 4 ) )
    332                {
    333                  // For devices with RxOnWhenIdle equals to FALSE, any network channel
    334                  // change will not be recieved. On these devices or routers that have
    335                  // lost the network, an active scan shall be conducted on the Default
    336                  // Channel list using the extended PANID to find the network. If the
    337                  // extended PANID isn't found using the Default Channel list, an scan
    338                  // should be completed using all channels.
    339                  runtimeChannel = MAX_CHANNELS_24GHZ;
    340                }
    341              #endif // ZIGBEE_FREQ_AGILITY
    342              #if defined ( ZIGBEE_COMMISSIONING )
    343                if (startMode == MODE_REJOIN && scanCnt++ >= 5 )
   \   00003B   7403         MOV     A,#0x3
   \   00003D   65..         XRL     A,?V1
   \   00003F   6003         JZ      $+5
   \   000041   02....       LJMP    ??ZDO_StartDevice_4 & 0xFFFF
   \   000044   90....       MOV     DPTR,#??scanCnt
   \   000047   E0           MOVX    A,@DPTR
   \   000048   F8           MOV     R0,A
   \   000049   7401         MOV     A,#0x1
   \   00004B   28           ADD     A,R0
   \   00004C   F0           MOVX    @DPTR,A
   \   00004D   E8           MOV     A,R0
   \   00004E   C3           CLR     C
   \   00004F   9405         SUBB    A,#0x5
   \   000051   4079         JC      ??ZDO_StartDevice_4
    344                {
    345                  // When ApsUseExtendedPanID is commissioned to a non zero value via
    346                  // application specific means, the device shall conduct an active scan
    347                  // on the Default Channel list and join the PAN with the same
    348                  // ExtendedPanID. If the PAN is not found, an scan should be completed
    349                  // on all channels.
    350                  // When devices rejoin the network and the PAN is not found from
    351                  runtimeChannel = MAX_CHANNELS_24GHZ;
   \   000053   90....       MOV     DPTR,#runtimeChannel
   \   000056   E4           CLR     A
   \   000057   F0           MOVX    @DPTR,A
   \   000058   A3           INC     DPTR
   \   000059   74F8         MOV     A,#-0x8
   \   00005B   F0           MOVX    @DPTR,A
   \   00005C   A3           INC     DPTR
   \   00005D   74FF         MOV     A,#-0x1
   \   00005F   F0           MOVX    @DPTR,A
   \   000060   A3           INC     DPTR
   \   000061   7407         MOV     A,#0x7
   \   000063   F0           MOVX    @DPTR,A
   \   000064   8066         SJMP    ??ZDO_StartDevice_4
    352                }
    353              #endif // ZIGBEE_COMMISSIONING
    354            #endif
    355              }
    356              else if ( startMode == MODE_RESUME )
   \                     ??ZDO_StartDevice_3:
   \   000066   7401         MOV     A,#0x1
   \   000068   65..         XRL     A,?V1
   \   00006A   7063         JNZ     ??ZDO_StartDevice_1
    357              {
    358                if ( logicalType == NODETYPE_ROUTER )
   \   00006C   7401         MOV     A,#0x1
   \   00006E   65..         XRL     A,?V0
   \   000070   790A         MOV     R1,#0xa
   \   000072   702E         JNZ     ??ZDO_StartDevice_5
    359                {
    360                  ZMacScanCnf_t scanCnf;
    361                  ZDApp_ChangeState( DEV_NWK_ORPHAN );
   \   000074                ; Setup parameters for call to function ZDApp_ChangeState
   \   000074   12....       LCALL   ??ZDApp_ChangeState?relay; Banked call to: ZDApp_ChangeState
    362          
    363                  /* if router and nvram is available, fake successful orphan scan */
    364                  scanCnf.hdr.Status = ZSUCCESS;
   \   000077   7401         MOV     A,#0x1
   \   000079   12....       LCALL   ?XSTACK_DISP0_8
   \   00007C   E4           CLR     A
   \   00007D   F0           MOVX    @DPTR,A
    365                  scanCnf.ScanType = ZMAC_ORPHAN_SCAN;
   \   00007E   7402         MOV     A,#0x2
   \   000080   12....       LCALL   ?XSTACK_DISP0_8
   \   000083   7403         MOV     A,#0x3
   \   000085   F0           MOVX    @DPTR,A
    366                  scanCnf.UnscannedChannels = 0;
   \   000086   04           INC     A
   \   000087   12....       LCALL   ?XSTACK_DISP0_8
   \   00008A   E4           CLR     A
   \   00008B   F0           MOVX    @DPTR,A
   \   00008C   A3           INC     DPTR
   \   00008D   F0           MOVX    @DPTR,A
   \   00008E   A3           INC     DPTR
   \   00008F   F0           MOVX    @DPTR,A
   \   000090   A3           INC     DPTR
   \   000091   F0           MOVX    @DPTR,A
    367                  scanCnf.ResultListSize = 0;
   \   000092   7408         MOV     A,#0x8
   \   000094   12....       LCALL   ?XSTACK_DISP0_8
   \   000097   E4           CLR     A
   \   000098   F0           MOVX    @DPTR,A
    368                  nwk_ScanJoiningOrphan(&scanCnf);
   \   000099                ; Setup parameters for call to function nwk_ScanJoiningOrphan
   \   000099   AA..         MOV     R2,?XSP + 0
   \   00009B   AB..         MOV     R3,?XSP + 1
   \   00009D   12....       LCALL   ??nwk_ScanJoiningOrphan?relay; Banked call to: nwk_ScanJoiningOrphan
    369          
    370                  ret = ZSuccess;
   \   0000A0   8044         SJMP    ??ZDO_StartDevice_6
    371                }
    372                else
    373                {
    374          //####################################################################
    375          //####################################################################
    376                  ZDApp_ChangeState( DEV_NWK_ORPHAN );    //modify by JC,进行孤立节点重入网
   \                     ??ZDO_StartDevice_5:
   \   0000A2                ; Setup parameters for call to function ZDApp_ChangeState
   \   0000A2   12....       LCALL   ??ZDApp_ChangeState?relay; Banked call to: ZDApp_ChangeState
    377                  //set timer for scan and rejoin
    378                  osal_start_timerEx( ZDAppTaskID, ZDO_REJOIN_BACKOFF, zgDefaultRejoinScan );
   \   0000A5                ; Setup parameters for call to function osal_start_timerEx
   \   0000A5   90....       MOV     DPTR,#zgDefaultRejoinScan
   \   0000A8   12....       LCALL   ?PUSH_XSTACK8_X_FOUR
   \   0000AB   7A00         MOV     R2,#0x0
   \   0000AD   7B20         MOV     R3,#0x20
   \   0000AF   90....       MOV     DPTR,#ZDAppTaskID
   \   0000B2   E0           MOVX    A,@DPTR
   \   0000B3   F9           MOV     R1,A
   \   0000B4   12....       LCALL   ??osal_start_timerEx?relay; Banked call to: osal_start_timerEx
   \   0000B7   7404         MOV     A,#0x4
   \   0000B9   12....       LCALL   ?DEALLOC_XSTACK8
    379                  ret = NLME_OrphanJoinRequest( runtimeChannel,
    380                                                zgDefaultStartingScanDuration );
   \   0000BC                ; Setup parameters for call to function NLME_OrphanJoinRequest
   \   0000BC   90....       MOV     DPTR,#zgDefaultStartingScanDuration
   \   0000BF   E0           MOVX    A,@DPTR
   \   0000C0   F9           MOV     R1,A
   \   0000C1   90....       MOV     DPTR,#runtimeChannel
   \   0000C4   12....       LCALL   ?XLOAD_R2345
   \   0000C7   12....       LCALL   ??NLME_OrphanJoinRequest?relay; Banked call to: NLME_OrphanJoinRequest
   \   0000CA   E9           MOV     A,R1
   \   0000CB   F9           MOV     R1,A
    381          //####################################################################
    382          //####################################################################
    383                }
    384              }
    385              else
    386              {
    387          #if defined( LCD_SUPPORTED )
    388                HalLcdWriteScreen( "StartDevice ERR", "MODE unknown" );
    389          #endif
    390              }
    391            }
    392          
    393            if ( ret != ZSuccess )
   \                     ??ZDO_StartDevice_4:
   \   0000CC   E9           MOV     A,R1
   \   0000CD   6017         JZ      ??ZDO_StartDevice_6
    394            {
    395              osal_start_timerEx(ZDAppTaskID, ZDO_NETWORK_INIT, NWK_RETRY_DELAY );
   \                     ??ZDO_StartDevice_1:
   \   0000CF                ; Setup parameters for call to function osal_start_timerEx
   \   0000CF   90....       MOV     DPTR,#__Constant_3e8
   \   0000D2   12....       LCALL   ?PUSH_XSTACK8_X_FOUR
   \   0000D5   7A01         MOV     R2,#0x1
   \   0000D7   7B00         MOV     R3,#0x0
   \   0000D9   90....       MOV     DPTR,#ZDAppTaskID
   \   0000DC   E0           MOVX    A,@DPTR
   \   0000DD   F9           MOV     R1,A
   \   0000DE   12....       LCALL   ??osal_start_timerEx?relay; Banked call to: osal_start_timerEx
   \   0000E1   7404         MOV     A,#0x4
   \   0000E3   12....       LCALL   ?DEALLOC_XSTACK8
    396            }
    397          }
   \                     ??ZDO_StartDevice_6:
   \   0000E6   740B         MOV     A,#0xb
   \   0000E8   02....       LJMP    ??Subroutine140_0 & 0xFFFF

   \                                 In  segment BANKED_CODE, align 1, keep-with-next
   \                     ??Subroutine140_0:
   \   000000   12....       LCALL   ?DEALLOC_XSTACK8
   \   000003                REQUIRE ??Subroutine141_0
   \   000003                ; // Fall through to label ??Subroutine141_0

   \                                 In  segment BANKED_CODE, align 1, keep-with-next
   \                     ??Subroutine141_0:
   \   000000   7F02         MOV     R7,#0x2
   \   000002   02....       LJMP    ?BANKED_LEAVE_XDATA

   \                                 In  segment XDATA_Z, align 1, keep-with-next
   \                     ??scanCnt:
   \   000000                DS 1
   \   000001                REQUIRE __INIT_XDATA_Z
    398          
    399          /**************************************************************************************************
    400           * @fn          zdoSendStateChangeMsg
    401           *
    402           * @brief       Helper function for ZDO_UpdateNwkStatus.
    403           *
    404           * input parameters
    405           *
    406           * @param       taskId - The OSAL task identifier to which to send the ZDO_STATE_CHANGE_EVT.
    407           * @param       state - The current device state.
    408           *
    409           * output parameters
    410           *
    411           * None.
    412           *
    413           * @return      None.
    414           **************************************************************************************************
    415           */

   \                                 In  segment BANKED_CODE, align 1, keep-with-next
    416          static void zdoSendStateChangeMsg(uint8 state, uint8 taskId)
   \                     zdoSendStateChangeMsg:
    417          {
   \   000000                REQUIRE ?V0
   \   000000                REQUIRE ?V1
   \   000000   74F6         MOV     A,#-0xa
   \   000002   12....       LCALL   ?BANKED_ENTER_XDATA
   \   000005                ; Saved register size: 10
   \   000005                ; Auto size: 0
   \   000005   E9           MOV     A,R1
   \   000006   FF           MOV     R7,A
   \   000007   EA           MOV     A,R2
   \   000008   FE           MOV     R6,A
    418            osal_event_hdr_t *pMsg = (osal_event_hdr_t *)osal_msg_find(taskId, ZDO_STATE_CHANGE);
   \   000009                ; Setup parameters for call to function osal_msg_find
   \   000009   7AD1         MOV     R2,#-0x2f
   \   00000B   F9           MOV     R1,A
   \   00000C   12....       LCALL   ??osal_msg_find?relay; Banked call to: osal_msg_find
   \   00000F   8A82         MOV     DPL,R2
   \   000011   8B83         MOV     DPH,R3
    419          
    420            if (NULL == pMsg)
   \   000013   E582         MOV     A,DPL
   \   000015   4583         ORL     A,DPH
   \   000017   702A         JNZ     ??zdoSendStateChangeMsg_0
    421            {
    422              if (NULL == (pMsg = (osal_event_hdr_t *)osal_msg_allocate(sizeof(osal_event_hdr_t))))
   \   000019                ; Setup parameters for call to function osal_msg_allocate
   \   000019   7A02         MOV     R2,#0x2
   \   00001B   7B00         MOV     R3,#0x0
   \   00001D   12....       LCALL   ??osal_msg_allocate?relay; Banked call to: osal_msg_allocate
   \   000020   EA           MOV     A,R2
   \   000021   4B           ORL     A,R3
   \   000022   700E         JNZ     ??zdoSendStateChangeMsg_1
    423              {
    424                // Upon failure to notify any EndPoint of the state change, re-set the ZDO event to
    425                // try again later when more Heap may be available.
    426                osal_set_event(ZDAppTaskID, ZDO_STATE_CHANGE_EVT);
   \   000024                ; Setup parameters for call to function osal_set_event
   \   000024   7A10         MOV     R2,#0x10
   \   000026   7B00         MOV     R3,#0x0
   \   000028   90....       MOV     DPTR,#ZDAppTaskID
   \   00002B   E0           MOVX    A,@DPTR
   \   00002C   F9           MOV     R1,A
   \   00002D   12....       LCALL   ??osal_set_event?relay; Banked call to: osal_set_event
   \   000030   8014         SJMP    ??zdoSendStateChangeMsg_2
    427              }
    428              else
    429              {
    430                pMsg->event = ZDO_STATE_CHANGE;
   \                     ??zdoSendStateChangeMsg_1:
   \   000032   8A82         MOV     DPL,R2
   \   000034   8B83         MOV     DPH,R3
   \   000036   74D1         MOV     A,#-0x2f
   \   000038   F0           MOVX    @DPTR,A
    431                pMsg->status = state;
   \   000039   EF           MOV     A,R7
   \   00003A   A3           INC     DPTR
   \   00003B   F0           MOVX    @DPTR,A
    432          
    433                (void)osal_msg_send(taskId, (uint8 *)pMsg);
   \   00003C                ; Setup parameters for call to function osal_msg_send
   \   00003C   EE           MOV     A,R6
   \   00003D   F9           MOV     R1,A
   \   00003E   12....       LCALL   ??osal_msg_send?relay; Banked call to: osal_msg_send
   \   000041   8003         SJMP    ??zdoSendStateChangeMsg_2
    434              }
    435            }
    436            else
    437            {
    438              // Modify in place the status of an existing ZDO_STATE_CHANGE message to the EndPoint.
    439              pMsg->status = state;
   \                     ??zdoSendStateChangeMsg_0:
   \   000043   EF           MOV     A,R7
   \   000044   A3           INC     DPTR
   \   000045   F0           MOVX    @DPTR,A
    440            }
    441          }
   \                     ??zdoSendStateChangeMsg_2:
   \   000046   02....       LJMP    ??Subroutine141_0 & 0xFFFF
    442          
    443          /**************************************************************************************************
    444           * @fn          ZDO_UpdateNwkStatus
    445           *
    446           * @brief       This function sends a ZDO_STATE_CHANGE message to the task of every EndPoint
    447           *              registered with AF (except, of course, the ZDO_EP). Even if a single task has more
    448           *              than one registered EndPoint, it will only receive one notification per state
    449           *              change. Although the device may go through a sequence of state changes, the
    450           *              Application task may only receive notification of the final, steady-state state
    451           *              because it has the lowest priority and never even runs to receive the intermediate
    452           *              state change notifications.
    453           *
    454           * input parameters
    455           *
    456           * @param       state - The current device state.
    457           *
    458           * output parameters
    459           *
    460           * None.
    461           *
    462           * @return      None.
    463           **************************************************************************************************
    464           */

   \                                 In  segment BANKED_CODE, align 1, keep-with-next
    465          void ZDO_UpdateNwkStatus(devStates_t state)
   \                     ZDO_UpdateNwkStatus:
    466          {
   \   000000                REQUIRE ?V0
   \   000000   74F7         MOV     A,#-0x9
   \   000002   12....       LCALL   ?BANKED_ENTER_XDATA
   \   000005                ; Saved register size: 9
   \   000005                ; Auto size: 0
   \   000005   89..         MOV     ?V0,R1
    467            epList_t *pItem = epList;
   \   000007   90....       MOV     DPTR,#epList
   \   00000A   E0           MOVX    A,@DPTR
   \   00000B   FE           MOV     R6,A
   \   00000C   A3           INC     DPTR
   \   00000D   E0           MOVX    A,@DPTR
   \   00000E   801B         SJMP    ??CrossCallReturnLabel_132
    468          
    469          #if defined MT_ZDO_CB_FUNC
    470            if ( zdpExternalStateTaskID == -1 )
    471            {
    472              zdpExternalStateTaskID = MT_TaskID;
    473            }
    474          #endif
    475          
    476            while (pItem != NULL)
    477            {
    478              if (pItem->epDesc->endPoint != ZDO_EP)
   \                     ??ZDO_UpdateNwkStatus_0:
   \   000010   8E82         MOV     DPL,R6
   \   000012   8F83         MOV     DPH,R7
   \   000014   12....       LCALL   ?Subroutine57 & 0xFFFF
   \                     ??CrossCallReturnLabel_254:
   \   000017   E0           MOVX    A,@DPTR
   \   000018   600A         JZ      ??ZDO_UpdateNwkStatus_1
    479              {
    480                zdoSendStateChangeMsg(state, *(pItem->epDesc->task_id));
   \   00001A                ; Setup parameters for call to function zdoSendStateChangeMsg
   \   00001A   A3           INC     DPTR
   \   00001B   12....       LCALL   ??Subroutine151_0 & 0xFFFF
    481              }
   \                     ??CrossCallReturnLabel_313:
   \   00001E   FA           MOV     R2,A
   \   00001F   A9..         MOV     R1,?V0
   \   000021   12....       LCALL   ??zdoSendStateChangeMsg?relay; Banked call to: zdoSendStateChangeMsg
    482          
    483              pItem = pItem->nextDesc;
   \                     ??ZDO_UpdateNwkStatus_1:
   \   000024   8E82         MOV     DPL,R6
   \   000026   8F83         MOV     DPH,R7
   \   000028   12....       LCALL   ?Subroutine77 & 0xFFFF
    484            }
   \                     ??CrossCallReturnLabel_132:
   \   00002B   FF           MOV     R7,A
   \   00002C   EE           MOV     A,R6
   \   00002D   4F           ORL     A,R7
   \   00002E   70E0         JNZ     ??ZDO_UpdateNwkStatus_0
    485          
    486            if ( zdpExternalStateTaskID != -1 )
   \   000030   90....       MOV     DPTR,#zdpExternalStateTaskID
   \   000033   E0           MOVX    A,@DPTR
   \   000034   F4           CPL     A
   \   000035   7003         JNZ     ??ZDO_UpdateNwkStatus_2
   \   000037   A3           INC     DPTR
   \   000038   E0           MOVX    A,@DPTR
   \   000039   F4           CPL     A
   \                     ??ZDO_UpdateNwkStatus_2:
   \   00003A   600A         JZ      ??ZDO_UpdateNwkStatus_3
    487            {
    488              zdoSendStateChangeMsg( state, zdpExternalStateTaskID );
   \   00003C                ; Setup parameters for call to function zdoSendStateChangeMsg
   \   00003C   90....       MOV     DPTR,#zdpExternalStateTaskID
   \   00003F   E0           MOVX    A,@DPTR
   \   000040   FA           MOV     R2,A
   \   000041   A9..         MOV     R1,?V0
   \   000043   12....       LCALL   ??zdoSendStateChangeMsg?relay; Banked call to: zdoSendStateChangeMsg
    489            }
    490          
    491            ZDAppNwkAddr.addr.shortAddr = NLME_GetShortAddr();
   \                     ??ZDO_UpdateNwkStatus_3:
   \   000046                ; Setup parameters for call to function NLME_GetShortAddr
   \   000046   12....       LCALL   ??NLME_GetShortAddr?relay; Banked call to: NLME_GetShortAddr
   \   000049   90....       MOV     DPTR,#ZDAppNwkAddr
   \   00004C   12....       LCALL   ?Subroutine39 & 0xFFFF
    492            (void)NLME_GetExtAddr();  // Load the saveExtAddr pointer.
   \                     ??CrossCallReturnLabel_63:
   \   00004F                ; Setup parameters for call to function NLME_GetExtAddr
   \   00004F   12....       LCALL   ??NLME_GetExtAddr?relay; Banked call to: NLME_GetExtAddr
    493          }
   \   000052                REQUIRE ?Subroutine2
   \   000052                ; // Fall through to label ?Subroutine2

   \                                 In  segment BANKED_CODE, align 1, keep-with-next
   \                     ?Subroutine2:
   \   000000   7F01         MOV     R7,#0x1
   \   000002   02....       LJMP    ?BANKED_LEAVE_XDATA

   \                                 In  segment BANKED_CODE, align 1, keep-with-next
   \                     ?Subroutine57:
   \   000000   A3           INC     DPTR
   \   000001   A3           INC     DPTR
   \   000002                REQUIRE ??Subroutine138_0
   \   000002                ; // Fall through to label ??Subroutine138_0

   \                                 In  segment BANKED_CODE, align 1, keep-with-next
   \                     ??Subroutine138_0:
   \   000000   E0           MOVX    A,@DPTR
   \   000001                REQUIRE ??Subroutine139_0
   \   000001                ; // Fall through to label ??Subroutine139_0

   \                                 In  segment BANKED_CODE, align 1, keep-with-next
   \                     ??Subroutine139_0:
   \   000000   F8           MOV     R0,A
   \   000001   A3           INC     DPTR
   \   000002   E0           MOVX    A,@DPTR
   \   000003   F9           MOV     R1,A
   \   000004   8882         MOV     DPL,R0
   \   000006   8983         MOV     DPH,R1
   \   000008   22           RET

   \                                 In  segment BANKED_CODE, align 1, keep-with-next
   \                     ?Subroutine39:
   \   000000   EA           MOV     A,R2
   \   000001   F0           MOVX    @DPTR,A
   \   000002   A3           INC     DPTR
   \   000003   EB           MOV     A,R3
   \   000004   F0           MOVX    @DPTR,A
   \   000005   22           RET

   \                                 In  segment BANKED_CODE, align 1, keep-with-next
   \                     ??Subroutine151_0:
   \   000000   12....       LCALL   ?Subroutine124 & 0xFFFF
   \                     ??CrossCallReturnLabel_320:
   \   000003   E0           MOVX    A,@DPTR
   \   000004   22           RET

   \                                 In  segment BANKED_CODE, align 1, keep-with-next
   \                     ?Subroutine124:
   \   000000   E0           MOVX    A,@DPTR
   \   000001   F8           MOV     R0,A
   \   000002   A3           INC     DPTR
   \   000003   E0           MOVX    A,@DPTR
   \   000004   F583         MOV     DPH,A
   \   000006   8882         MOV     DPL,R0
   \   000008   22           RET

   \                                 In  segment BANKED_CODE, align 1, keep-with-next
   \                     ?Subroutine121:
   \   000000   E0           MOVX    A,@DPTR
   \   000001   F8           MOV     R0,A
   \   000002   A3           INC     DPTR
   \   000003   E0           MOVX    A,@DPTR
   \   000004   F9           MOV     R1,A
   \   000005   22           RET

   \                                 In  segment BANKED_CODE, align 1, keep-with-next
   \                     ?Subroutine77:
   \   000000   12....       LCALL   ?Subroutine121 & 0xFFFF
   \                     ??CrossCallReturnLabel_354:
   \   000003   E8           MOV     A,R0
   \   000004   FE           MOV     R6,A
   \   000005   E9           MOV     A,R1
   \   000006   22           RET
    494          
    495          #if defined ( REFLECTOR )
    496          /*********************************************************************
    497           * @fn          ZDO_RemoveEndDeviceBind
    498           *
    499           * @brief       Remove the end device bind
    500           *
    501           * @param  none
    502           *
    503           * @return      none
    504           */
    505          static void ZDO_RemoveEndDeviceBind( void )
    506          {
    507            if ( ZDO_EDBind != NULL )
    508            {
    509              // Free the RAM
    510              if ( ZDO_EDBind->inClusters != NULL )
    511              {
    512                osal_mem_free( ZDO_EDBind->inClusters );
    513              }
    514              if ( ZDO_EDBind->outClusters != NULL )
    515              {
    516                osal_mem_free( ZDO_EDBind->outClusters );
    517              }
    518              osal_mem_free( ZDO_EDBind );
    519              ZDO_EDBind = NULL;
    520            }
    521          }
    522          #endif // REFLECTOR
    523          
    524          #if defined ( REFLECTOR )
    525          /*********************************************************************
    526           * @fn          ZDO_SendEDBindRsp
    527           *
    528           * @brief       Send the end device bind response
    529           *
    530           * @param  none
    531           *
    532           * @return      none
    533           */
    534          static void ZDO_SendEDBindRsp( byte TransSeq, zAddrType_t *dstAddr, byte Status, byte secUse )
    535          {
    536            ZDP_EndDeviceBindRsp( TransSeq, dstAddr, Status, secUse );
    537          
    538          #if defined( LCD_SUPPORTED )
    539            HalLcdWriteString( "End Device Bind", HAL_LCD_LINE_1 );
    540            if ( Status == ZDP_SUCCESS )
    541            {
    542              HalLcdWriteString( "Success Sent", HAL_LCD_LINE_2 );
    543            }
    544            else
    545            {
    546              HalLcdWriteString( "Timeout", HAL_LCD_LINE_2 );
    547            }
    548          #endif
    549          
    550          }
    551          #endif // REFLECTOR
    552          
    553          #if ( ZG_BUILD_COORDINATOR_TYPE )
    554          /*********************************************************************
    555           * @fn          ZDO_CompareClusterLists
    556           *
    557           * @brief       Compare one list to another list
    558           *
    559           * @param       numList1 - number of items in list 1
    560           * @param       list1 - first list of cluster IDs
    561           * @param       numList2 - number of items in list 2
    562           * @param       list2 - second list of cluster IDs
    563           * @param       pMatches - buffer to put matches
    564           *
    565           * @return      number of matches
    566           */
    567          static byte ZDO_CompareClusterLists( byte numList1, uint16 *list1,
    568                                    byte numList2, uint16 *list2, uint16 *pMatches )
    569          {
    570            byte x, y;
    571            uint16 z;
    572            byte numMatches = 0;
    573          
    574            // Check the first in against the seconds out
    575            for ( x = 0; x < numList1; x++ )
    576            {
    577              for ( y = 0; y < numList2; y++ )
    578              {
    579                z = list2[y];
    580                if ( list1[x] == z )
    581                {
    582                  pMatches[numMatches++] = z;
    583                }
    584              }
    585            }
    586          
    587            return ( numMatches );
    588          }
    589          #endif // ZG_BUILD_COORDINATOR_TYPE
    590          
    591          /*********************************************************************
    592           * Utility functions
    593           */
    594          
    595          /*********************************************************************
    596           * @fn          ZDO_CompareByteLists
    597           *
    598           * @brief       Compares two lists for matches.
    599           *
    600           * @param       ACnt  - number of entries in list A
    601           * @param       AList  - List A
    602           * @param       BCnt  - number of entries in list B
    603           * @param       BList  - List B
    604           *
    605           * @return      true if a match is found
    606           */

   \                                 In  segment BANKED_CODE, align 1, keep-with-next
    607          byte ZDO_AnyClusterMatches( byte ACnt, uint16 *AList, byte BCnt, uint16 *BList )
   \                     ZDO_AnyClusterMatches:
    608          {
   \   000000                REQUIRE ?V0
   \   000000                REQUIRE ?V1
   \   000000                REQUIRE ?V2
   \   000000                REQUIRE ?V3
   \   000000   74F4         MOV     A,#-0xc
   \   000002   12....       LCALL   ?BANKED_ENTER_XDATA
   \   000005                ; Saved register size: 12
   \   000005                ; Auto size: 0
   \   000005   89..         MOV     ?V3,R1
   \   000007   8C..         MOV     ?V2,R4
    609            byte x, y;
    610          
    611            for ( x = 0; x < ACnt; x++ )
   \   000009   75..00       MOV     ?V0,#0x0
   \   00000C   740C         MOV     A,#0xc
   \   00000E   12....       LCALL   ?XSTACK_DISP0_8
   \   000011   12....       LCALL   ??Subroutine156_0 & 0xFFFF
   \                     ??CrossCallReturnLabel_342:
   \   000014   E8           MOV     A,R0
   \   000015   FC           MOV     R4,A
   \   000016   E9           MOV     A,R1
   \   000017   FD           MOV     R5,A
   \   000018   8002         SJMP    ??ZDO_AnyClusterMatches_0
   \                     ??ZDO_AnyClusterMatches_1:
   \   00001A   05..         INC     ?V0
   \                     ??ZDO_AnyClusterMatches_0:
   \   00001C   E5..         MOV     A,?V0
   \   00001E   C3           CLR     C
   \   00001F   95..         SUBB    A,?V3
   \   000021   502A         JNC     ??ZDO_AnyClusterMatches_2
    612            {
    613              for ( y = 0; y < BCnt; y++ )
   \   000023   75..00       MOV     ?V1,#0x0
   \   000026   8002         SJMP    ??ZDO_AnyClusterMatches_3
   \                     ??ZDO_AnyClusterMatches_4:
   \   000028   05..         INC     ?V1
   \                     ??ZDO_AnyClusterMatches_3:
   \   00002A   E5..         MOV     A,?V1
   \   00002C   C3           CLR     C
   \   00002D   95..         SUBB    A,?V2
   \   00002F   50E9         JNC     ??ZDO_AnyClusterMatches_1
    614              {
    615                if ( AList[x] == BList[y] )
   \   000031   A8..         MOV     R0,?V0
   \   000033   E8           MOV     A,R0
   \   000034   28           ADD     A,R0
   \   000035   12....       LCALL   ??Subroutine169_0 & 0xFFFF
   \                     ??CrossCallReturnLabel_420:
   \   000038   12....       LCALL   ?Subroutine122 & 0xFFFF
   \                     ??CrossCallReturnLabel_218:
   \   00003B   A8..         MOV     R0,?V1
   \   00003D   12....       LCALL   ?Subroutine81 & 0xFFFF
   \                     ??CrossCallReturnLabel_138:
   \   000040   E0           MOVX    A,@DPTR
   \   000041   6E           XRL     A,R6
   \   000042   7003         JNZ     ??ZDO_AnyClusterMatches_5
   \   000044   A3           INC     DPTR
   \   000045   E0           MOVX    A,@DPTR
   \   000046   6F           XRL     A,R7
   \                     ??ZDO_AnyClusterMatches_5:
   \   000047   70DF         JNZ     ??ZDO_AnyClusterMatches_4
    616                {
    617                  return true;
   \   000049   7901         MOV     R1,#0x1
   \   00004B   8002         SJMP    ??ZDO_AnyClusterMatches_6
    618                }
    619              }
    620            }
    621          
    622            return false;
   \                     ??ZDO_AnyClusterMatches_2:
   \   00004D   7900         MOV     R1,#0x0
   \                     ??ZDO_AnyClusterMatches_6:
   \   00004F                REQUIRE ?Subroutine3
   \   00004F                ; // Fall through to label ?Subroutine3
    623          }

   \                                 In  segment BANKED_CODE, align 1, keep-with-next
   \                     ?Subroutine3:
   \   000000   7F04         MOV     R7,#0x4
   \   000002   02....       LJMP    ?BANKED_LEAVE_XDATA

   \                                 In  segment BANKED_CODE, align 1, keep-with-next
   \                     ?Subroutine81:
   \   000000   E8           MOV     A,R0
   \   000001   28           ADD     A,R0
   \   000002   F8           MOV     R0,A
   \   000003   E4           CLR     A
   \   000004   33           RLC     A
   \   000005   F9           MOV     R1,A
   \   000006   EC           MOV     A,R4
   \   000007   28           ADD     A,R0
   \   000008   F582         MOV     DPL,A
   \   00000A   ED           MOV     A,R5
   \   00000B   39           ADDC    A,R1
   \   00000C   F583         MOV     DPH,A
   \   00000E   22           RET

   \                                 In  segment BANKED_CODE, align 1, keep-with-next
   \                     ??Subroutine156_0:
   \   000000   12....       LCALL   ?Subroutine121 & 0xFFFF
   \                     ??CrossCallReturnLabel_356:
   \   000003   22           RET

   \                                 In  segment BANKED_CODE, align 1, keep-with-next
   \                     ?Subroutine122:
   \   000000   E0           MOVX    A,@DPTR
   \   000001   FE           MOV     R6,A
   \   000002   A3           INC     DPTR
   \   000003   E0           MOVX    A,@DPTR
   \   000004   FF           MOV     R7,A
   \   000005   22           RET

   \                                 In  segment BANKED_CODE, align 1, keep-with-next
   \                     ??Subroutine169_0:
   \   000000   F8           MOV     R0,A
   \   000001   E4           CLR     A
   \   000002   33           RLC     A
   \   000003   F9           MOV     R1,A
   \   000004   EA           MOV     A,R2
   \   000005   28           ADD     A,R0
   \   000006   F582         MOV     DPL,A
   \   000008   EB           MOV     A,R3
   \   000009   39           ADDC    A,R1
   \   00000A   F583         MOV     DPH,A
   \   00000C   22           RET
    624          
    625          /*********************************************************************
    626           * Callback functions from ZDProfile
    627           */
    628          
    629          /*********************************************************************
    630           * @fn          ZDO_ProcessNodeDescReq
    631           *
    632           * @brief       This function processes and responds to the
    633           *              Node_Desc_req message.
    634           *
    635           * @param       inMsg - incoming message
    636           *
    637           * @return      none
    638           */

   \                                 In  segment BANKED_CODE, align 1, keep-with-next
    639          void ZDO_ProcessNodeDescReq( zdoIncomingMsg_t *inMsg )
   \                     ZDO_ProcessNodeDescReq:
    640          {
   \   000000                REQUIRE ?V0
   \   000000                REQUIRE ?V1
   \   000000   74F6         MOV     A,#-0xa
   \   000002   12....       LCALL   ?BANKED_ENTER_XDATA
   \   000005                ; Saved register size: 10
   \   000005                ; Auto size: 0
   \   000005   12....       LCALL   ?Subroutine45 & 0xFFFF
    641            uint16 aoi = BUILD_UINT16( inMsg->asdu[0], inMsg->asdu[1] );
    642            NodeDescriptorFormat_t *desc = NULL;
    643          
    644            if ( aoi == ZDAppNwkAddr.addr.shortAddr )
   \                     ??CrossCallReturnLabel_86:
   \   000008   7003         JNZ     ??ZDO_ProcessNodeDescReq_0
   \   00000A   A3           INC     DPTR
   \   00000B   E0           MOVX    A,@DPTR
   \   00000C   6D           XRL     A,R5
   \                     ??ZDO_ProcessNodeDescReq_0:
   \   00000D   7017         JNZ     ??ZDO_ProcessNodeDescReq_1
    645            {
    646              desc = &ZDO_Config_Node_Descriptor;
    647            }
    648          
    649            if ( desc != NULL )
    650            {
    651              ZDP_NodeDescMsg( inMsg, aoi, desc );
   \   00000F                ; Setup parameters for call to function ZDP_NodeDescMsg
   \   00000F   75....       MOV     ?V0,#ZDO_Config_Node_Descriptor & 0xff
   \   000012   75....       MOV     ?V1,#(ZDO_Config_Node_Descriptor >> 8) & 0xff
   \   000015   78..         MOV     R0,#?V0
   \   000017   12....       LCALL   ?PUSH_XSTACK_I_TWO
   \   00001A   EE           MOV     A,R6
   \   00001B   FA           MOV     R2,A
   \   00001C   12....       LCALL   ??ZDP_NodeDescMsg?relay; Banked call to: ZDP_NodeDescMsg
   \   00001F   7402         MOV     A,#0x2
   \   000021   12....       LCALL   ?DEALLOC_XSTACK8
   \   000024   801F         SJMP    ??ZDO_ProcessNodeDescReq_2
    652            }
    653            else
    654            {
    655              ZDP_GenericRsp( inMsg->TransSeq, &(inMsg->srcAddr),
    656                        ZDP_INVALID_REQTYPE, aoi, Node_Desc_rsp, inMsg->SecurityUse );
   \                     ??ZDO_ProcessNodeDescReq_1:
   \   000026                ; Setup parameters for call to function ZDP_GenericRsp
   \   000026   75..02       MOV     ?V0,#0x2
   \   000029   75..80       MOV     ?V1,#-0x80
   \   00002C   78..         MOV     R0,#?V0
   \   00002E   12....       LCALL   ?PUSH_XSTACK_I_TWO
   \   000031   8C..         MOV     ?V0,R4
   \   000033   8D..         MOV     ?V1,R5
   \   000035   78..         MOV     R0,#?V0
   \   000037   12....       LCALL   ?PUSH_XSTACK_I_TWO
   \   00003A   12....       LCALL   ?Subroutine46 & 0xFFFF
    657            }
   \                     ??CrossCallReturnLabel_88:
   \   00003D   12....       LCALL   ??ZDP_GenericRsp?relay; Banked call to: ZDP_GenericRsp
   \   000040   7404         MOV     A,#0x4
   \   000042   12....       LCALL   ?DEALLOC_XSTACK8
    658          }
   \                     ??ZDO_ProcessNodeDescReq_2:
   \   000045   80..         SJMP    ??Subroutine141_0

   \                                 In  segment BANKED_CODE, align 1, keep-with-next
   \                     ?Subroutine46:
   \   000000   EE           MOV     A,R6
   \   000001   240E         ADD     A,#0xe
   \   000003   F582         MOV     DPL,A
   \   000005   E4           CLR     A
   \   000006   3F           ADDC    A,R7
   \   000007   F583         MOV     DPH,A
   \   000009   E0           MOVX    A,@DPTR
   \   00000A   FD           MOV     R5,A
   \   00000B   7C80         MOV     R4,#-0x80
   \   00000D   EE           MOV     A,R6
   \   00000E   2402         ADD     A,#0x2
   \   000010   FA           MOV     R2,A
   \   000011   E4           CLR     A
   \   000012   3F           ADDC    A,R7
   \   000013   FB           MOV     R3,A
   \   000014   EE           MOV     A,R6
   \   000015   12....       LCALL   ?Subroutine126 & 0xFFFF
   \                     ??CrossCallReturnLabel_228:
   \   000018   3F           ADDC    A,R7
   \   000019   F583         MOV     DPH,A
   \   00001B   E0           MOVX    A,@DPTR
   \   00001C   F9           MOV     R1,A
   \   00001D   22           RET

   \                                 In  segment BANKED_CODE, align 1, keep-with-next
   \                     ?Subroutine45:
   \   000000   EA           MOV     A,R2
   \   000001   FE           MOV     R6,A
   \   000002   EB           MOV     A,R3
   \   000003   FF           MOV     R7,A
   \   000004   12....       LCALL   ?Subroutine116 & 0xFFFF
   \                     ??CrossCallReturnLabel_212:
   \   000007   FC           MOV     R4,A
   \   000008   E4           CLR     A
   \   000009   39           ADDC    A,R1
   \   00000A   FD           MOV     R5,A
   \   00000B   90....       MOV     DPTR,#ZDAppNwkAddr
   \   00000E   E0           MOVX    A,@DPTR
   \   00000F   6C           XRL     A,R4
   \   000010   22           RET

   \                                 In  segment BANKED_CODE, align 1, keep-with-next
   \                     ?Subroutine126:
   \   000000   240F         ADD     A,#0xf
   \   000002   F582         MOV     DPL,A
   \   000004   E4           CLR     A
   \   000005   22           RET

   \                                 In  segment BANKED_CODE, align 1, keep-with-next
   \                     ?Subroutine116:
   \   000000   EE           MOV     A,R6
   \   000001   2413         ADD     A,#0x13
   \   000003   F582         MOV     DPL,A
   \   000005   E4           CLR     A
   \   000006   3F           ADDC    A,R7
   \   000007   12....       LCALL   ?Subroutine134 & 0xFFFF
   \                     ??CrossCallReturnLabel_245:
   \   00000A   FA           MOV     R2,A
   \   00000B   A3           INC     DPTR
   \   00000C   E0           MOVX    A,@DPTR
   \   00000D   F8           MOV     R0,A
   \   00000E   E4           CLR     A
   \   00000F   C8           XCH     A,R0
   \   000010   F9           MOV     R1,A
   \   000011   EA           MOV     A,R2
   \   000012   28           ADD     A,R0
   \   000013   22           RET

   \                                 In  segment BANKED_CODE, align 1, keep-with-next
   \                     ?Subroutine134:
   \   000000   F583         MOV     DPH,A
   \   000002   E0           MOVX    A,@DPTR
   \   000003   F8           MOV     R0,A
   \   000004   A3           INC     DPTR
   \   000005   E0           MOVX    A,@DPTR
   \   000006   F9           MOV     R1,A
   \   000007   8882         MOV     DPL,R0
   \   000009   8983         MOV     DPH,R1
   \   00000B   E0           MOVX    A,@DPTR
   \   00000C   22           RET
    659          
    660          /*********************************************************************
    661           * @fn          ZDO_ProcessPowerDescReq
    662           *
    663           * @brief       This function processes and responds to the
    664           *              Node_Power_req message.
    665           *
    666           * @param       inMsg  - incoming request
    667           *
    668           * @return      none
    669           */

   \                                 In  segment BANKED_CODE, align 1, keep-with-next
    670          void ZDO_ProcessPowerDescReq( zdoIncomingMsg_t *inMsg )
   \                     ZDO_ProcessPowerDescReq:
    671          {
   \   000000                REQUIRE ?V0
   \   000000                REQUIRE ?V1
   \   000000   74F6         MOV     A,#-0xa
   \   000002   12....       LCALL   ?BANKED_ENTER_XDATA
   \   000005                ; Saved register size: 10
   \   000005                ; Auto size: 0
   \   000005   12....       LCALL   ?Subroutine45 & 0xFFFF
    672            uint16 aoi = BUILD_UINT16( inMsg->asdu[0], inMsg->asdu[1] );
    673            NodePowerDescriptorFormat_t *desc = NULL;
    674          
    675            if ( aoi == ZDAppNwkAddr.addr.shortAddr )
   \                     ??CrossCallReturnLabel_87:
   \   000008   7003         JNZ     ??ZDO_ProcessPowerDescReq_0
   \   00000A   A3           INC     DPTR
   \   00000B   E0           MOVX    A,@DPTR
   \   00000C   6D           XRL     A,R5
   \                     ??ZDO_ProcessPowerDescReq_0:
   \   00000D   7017         JNZ     ??ZDO_ProcessPowerDescReq_1
    676            {
    677              desc = &ZDO_Config_Power_Descriptor;
    678            }
    679          
    680            if ( desc != NULL )
    681            {
    682              ZDP_PowerDescMsg( inMsg, aoi, desc );
   \   00000F                ; Setup parameters for call to function ZDP_PowerDescMsg
   \   00000F   75....       MOV     ?V0,#ZDO_Config_Power_Descriptor & 0xff
   \   000012   75....       MOV     ?V1,#(ZDO_Config_Power_Descriptor >> 8) & 0xff
   \   000015   78..         MOV     R0,#?V0
   \   000017   12....       LCALL   ?PUSH_XSTACK_I_TWO
   \   00001A   EE           MOV     A,R6
   \   00001B   FA           MOV     R2,A
   \   00001C   12....       LCALL   ??ZDP_PowerDescMsg?relay; Banked call to: ZDP_PowerDescMsg
   \   00001F   7402         MOV     A,#0x2
   \   000021   12....       LCALL   ?DEALLOC_XSTACK8
   \   000024   801F         SJMP    ??ZDO_ProcessPowerDescReq_2
    683            }
    684            else
    685            {
    686              ZDP_GenericRsp( inMsg->TransSeq, &(inMsg->srcAddr),
    687                        ZDP_INVALID_REQTYPE, aoi, Power_Desc_rsp, inMsg->SecurityUse );
   \                     ??ZDO_ProcessPowerDescReq_1:
   \   000026                ; Setup parameters for call to function ZDP_GenericRsp
   \   000026   75..03       MOV     ?V0,#0x3
   \   000029   75..80       MOV     ?V1,#-0x80
   \   00002C   78..         MOV     R0,#?V0
   \   00002E   12....       LCALL   ?PUSH_XSTACK_I_TWO
   \   000031   8C..         MOV     ?V0,R4
   \   000033   8D..         MOV     ?V1,R5
   \   000035   78..         MOV     R0,#?V0
   \   000037   12....       LCALL   ?PUSH_XSTACK_I_TWO
   \   00003A   12....       LCALL   ?Subroutine46 & 0xFFFF
    688            }
   \                     ??CrossCallReturnLabel_89:
   \   00003D   12....       LCALL   ??ZDP_GenericRsp?relay; Banked call to: ZDP_GenericRsp
   \   000040   7404         MOV     A,#0x4
   \   000042   12....       LCALL   ?DEALLOC_XSTACK8
    689          }
   \                     ??ZDO_ProcessPowerDescReq_2:
   \   000045   80..         SJMP    ??Subroutine141_0
    690          
    691          /*********************************************************************
    692           * @fn          ZDO_ProcessSimpleDescReq
    693           *
    694           * @brief       This function processes and responds to the
    695           *              Simple_Desc_req message.
    696           *
    697           * @param       inMsg - incoming message (request)
    698           *
    699           * @return      none
    700           */

   \                                 In  segment BANKED_CODE, align 1, keep-with-next
   \                     ?Subroutine1:
   \   000000   7402         MOV     A,#0x2
   \   000002                REQUIRE ??Subroutine140_0
   \   000002                ; // Fall through to label ??Subroutine140_0

   \                                 In  segment BANKED_CODE, align 1, keep-with-next
    701          void ZDO_ProcessSimpleDescReq( zdoIncomingMsg_t *inMsg )
   \                     ZDO_ProcessSimpleDescReq:
    702          {
   \   000000                REQUIRE ?V0
   \   000000                REQUIRE ?V1
   \   000000   74F6         MOV     A,#-0xa
   \   000002   12....       LCALL   ?BANKED_ENTER_XDATA
   \   000005                ; Saved register size: 10
   \   000005                ; Auto size: 2
   \   000005   74FE         MOV     A,#-0x2
   \   000007   12....       LCALL   ?ALLOC_XSTACK8
   \   00000A   EA           MOV     A,R2
   \   00000B   FE           MOV     R6,A
   \   00000C   EB           MOV     A,R3
   \   00000D   FF           MOV     R7,A
    703            SimpleDescriptionFormat_t *sDesc = NULL;
   \   00000E   85..82       MOV     DPL,?XSP + 0
   \   000011   85..83       MOV     DPH,?XSP + 1
   \   000014   E4           CLR     A
   \   000015   F0           MOVX    @DPTR,A
   \   000016   A3           INC     DPTR
   \   000017   F0           MOVX    @DPTR,A
    704            uint16 aoi = BUILD_UINT16( inMsg->asdu[0], inMsg->asdu[1] );
   \   000018   12....       LCALL   ??Subroutine153_0 & 0xFFFF
   \                     ??CrossCallReturnLabel_329:
   \   00001B   12....       LCALL   ?Subroutine55 & 0xFFFF
   \                     ??CrossCallReturnLabel_99:
   \   00001E   FB           MOV     R3,A
   \   00001F   EC           MOV     A,R4
   \   000020   FA           MOV     R2,A
    705            byte endPoint = inMsg->asdu[2];
   \   000021   8882         MOV     DPL,R0
   \   000023   8983         MOV     DPH,R1
   \   000025   A3           INC     DPTR
   \   000026   A3           INC     DPTR
   \   000027   E0           MOVX    A,@DPTR
   \   000028   F9           MOV     R1,A
    706            byte free = false;
   \   000029   75..00       MOV     ?V1,#0x0
    707            byte stat = ZDP_SUCCESS;
   \   00002C   75..00       MOV     ?V0,#0x0
    708          
    709            if ( (endPoint == ZDO_EP) || (endPoint > MAX_ENDPOINTS) )
   \   00002F   6005         JZ      ??ZDO_ProcessSimpleDescReq_0
   \   000031   74FF         MOV     A,#-0x1
   \   000033   69           XRL     A,R1
   \   000034   7005         JNZ     ??ZDO_ProcessSimpleDescReq_1
    710            {
    711              stat = ZDP_INVALID_EP;
   \                     ??ZDO_ProcessSimpleDescReq_0:
   \   000036   75..82       MOV     ?V0,#-0x7e
   \   000039   8023         SJMP    ??ZDO_ProcessSimpleDescReq_2
    712            }
    713            else if ( aoi == ZDAppNwkAddr.addr.shortAddr )
   \                     ??ZDO_ProcessSimpleDescReq_1:
   \   00003B   90....       MOV     DPTR,#ZDAppNwkAddr
   \   00003E   E0           MOVX    A,@DPTR
   \   00003F   6A           XRL     A,R2
   \   000040   7003         JNZ     ??ZDO_ProcessSimpleDescReq_3
   \   000042   A3           INC     DPTR
   \   000043   E0           MOVX    A,@DPTR
   \   000044   6B           XRL     A,R3
   \                     ??ZDO_ProcessSimpleDescReq_3:
   \   000045   7014         JNZ     ??ZDO_ProcessSimpleDescReq_4
    714            {
    715              free = afFindSimpleDesc( &sDesc, endPoint );
   \   000047                ; Setup parameters for call to function afFindSimpleDesc
   \   000047   AA..         MOV     R2,?XSP + 0
   \   000049   AB..         MOV     R3,?XSP + 1
   \   00004B   12....       LCALL   ??afFindSimpleDesc?relay; Banked call to: afFindSimpleDesc
   \   00004E   E9           MOV     A,R1
   \   00004F   F5..         MOV     ?V1,A
    716              if ( sDesc == NULL )
   \   000051   12....       LCALL   ?Subroutine44 & 0xFFFF
   \                     ??CrossCallReturnLabel_296:
   \   000054   7008         JNZ     ??ZDO_ProcessSimpleDescReq_2
    717              {
    718                stat = ZDP_NOT_ACTIVE;
   \   000056   75..83       MOV     ?V0,#-0x7d
   \   000059   8003         SJMP    ??ZDO_ProcessSimpleDescReq_2
    719              }
    720            }
    721            else
    722            {
    723              if ( ZSTACK_ROUTER_BUILD )
    724              {
    725                stat = ZDP_DEVICE_NOT_FOUND;
    726              }
    727              else if ( ZSTACK_END_DEVICE_BUILD )
    728              {
    729                stat = ZDP_INVALID_REQTYPE;
   \                     ??ZDO_ProcessSimpleDescReq_4:
   \   00005B   75..80       MOV     ?V0,#-0x80
    730              }
    731            }
    732          
    733            ZDP_SimpleDescMsg( inMsg, stat, sDesc );
   \                     ??ZDO_ProcessSimpleDescReq_2:
   \   00005E                ; Setup parameters for call to function ZDP_SimpleDescMsg
   \   00005E   85..82       MOV     DPL,?XSP + 0
   \   000061   85..83       MOV     DPH,?XSP + 1
   \   000064   12....       LCALL   ?Subroutine76 & 0xFFFF
   \                     ??CrossCallReturnLabel_128:
   \   000067   A9..         MOV     R1,?V0
   \   000069   EE           MOV     A,R6
   \   00006A   FA           MOV     R2,A
   \   00006B   EF           MOV     A,R7
   \   00006C   FB           MOV     R3,A
   \   00006D   12....       LCALL   ??ZDP_SimpleDescMsg?relay; Banked call to: ZDP_SimpleDescMsg
    734          
    735            if ( free && sDesc )
   \   000070   E5..         MOV     A,?V1
   \   000072   600B         JZ      ??ZDO_ProcessSimpleDescReq_5
   \   000074   12....       LCALL   ?Subroutine44 & 0xFFFF
   \                     ??CrossCallReturnLabel_297:
   \   000077   6006         JZ      ??ZDO_ProcessSimpleDescReq_5
    736            {
    737              osal_mem_free( sDesc );
   \   000079                ; Setup parameters for call to function osal_mem_free
   \   000079   12....       LCALL   ?Subroutine73 & 0xFFFF
    738            }
   \                     ??CrossCallReturnLabel_308:
   \   00007C   12....       LCALL   ??osal_mem_free?relay; Banked call to: osal_mem_free
    739          }
   \                     ??ZDO_ProcessSimpleDescReq_5:
   \   00007F   02....       LJMP    ?Subroutine1 & 0xFFFF

   \                                 In  segment BANKED_CODE, align 1, keep-with-next
   \                     ?Subroutine44:
   \   000000   85..82       MOV     DPL,?XSP + 0
   \   000003   85..83       MOV     DPH,?XSP + 1
   \   000006                REQUIRE ??Subroutine148_0
   \   000006                ; // Fall through to label ??Subroutine148_0

   \                                 In  segment BANKED_CODE, align 1, keep-with-next
   \                     ??Subroutine148_0:
   \   000000   12....       LCALL   ?Subroutine121 & 0xFFFF
   \                     ??CrossCallReturnLabel_355:
   \   000003   E8           MOV     A,R0
   \   000004   49           ORL     A,R1
   \   000005   22           RET

   \                                 In  segment BANKED_CODE, align 1, keep-with-next
   \                     ?Subroutine73:
   \   000000   85..82       MOV     DPL,?XSP + 0
   \   000003   85..83       MOV     DPH,?XSP + 1
   \   000006                REQUIRE ??Subroutine149_0
   \   000006                ; // Fall through to label ??Subroutine149_0

   \                                 In  segment BANKED_CODE, align 1, keep-with-next
   \                     ??Subroutine149_0:
   \   000000   12....       LCALL   ?Subroutine136 & 0xFFFF
   \                     ??CrossCallReturnLabel_432:
   \   000003   FB           MOV     R3,A
   \   000004   22           RET

   \                                 In  segment BANKED_CODE, align 1, keep-with-next
   \                     ??Subroutine150_0:
   \   000000   2413         ADD     A,#0x13
   \   000002   F582         MOV     DPL,A
   \   000004   E4           CLR     A
   \   000005   22           RET

   \                                 In  segment BANKED_CODE, align 1, keep-with-next
   \                     ??Subroutine153_0:
   \   000000   EE           MOV     A,R6
   \   000001   12....       LCALL   ??Subroutine150_0 & 0xFFFF
   \                     ??CrossCallReturnLabel_335:
   \   000004   3F           ADDC    A,R7
   \   000005   22           RET

   \                                 In  segment BANKED_CODE, align 1, keep-with-next
   \                     ?Subroutine55:
   \   000000   12....       LCALL   ?Subroutine119 & 0xFFFF
   \                     ??CrossCallReturnLabel_216:
   \   000003   FC           MOV     R4,A
   \   000004   A3           INC     DPTR
   \   000005   E0           MOVX    A,@DPTR
   \   000006   22           RET

   \                                 In  segment BANKED_CODE, align 1, keep-with-next
   \                     ?Subroutine76:
   \   000000   E0           MOVX    A,@DPTR
   \   000001   FC           MOV     R4,A
   \   000002   A3           INC     DPTR
   \   000003   E0           MOVX    A,@DPTR
   \   000004   FD           MOV     R5,A
   \   000005   22           RET

   \                                 In  segment BANKED_CODE, align 1, keep-with-next
   \                     ?Subroutine119:
   \   000000   12....       LCALL   ?Subroutine134 & 0xFFFF
   \                     ??CrossCallReturnLabel_244:
   \   000003   22           RET

   \                                 In  segment BANKED_CODE, align 1, keep-with-next
   \                     ?Subroutine136:
   \   000000   E0           MOVX    A,@DPTR
   \   000001   FA           MOV     R2,A
   \   000002   A3           INC     DPTR
   \   000003   E0           MOVX    A,@DPTR
   \   000004   22           RET
    740          
    741          /*********************************************************************
    742           * @fn          ZDO_ProcessActiveEPReq
    743           *
    744           * @brief       This function processes and responds to the
    745           *              Active_EP_req message.
    746           *
    747           * @param       inMsg  - incoming message (request)
    748           *
    749           * @return      none
    750           */

   \                                 In  segment BANKED_CODE, align 1, keep-with-next
    751          void ZDO_ProcessActiveEPReq( zdoIncomingMsg_t *inMsg )
   \                     ZDO_ProcessActiveEPReq:
    752          {
   \   000000                REQUIRE ?V0
   \   000000                REQUIRE ?V1
   \   000000                REQUIRE ?V2
   \   000000                REQUIRE ?V3
   \   000000                REQUIRE ?V4
   \   000000                REQUIRE ?V5
   \   000000   74F2         MOV     A,#-0xe
   \   000002   12....       LCALL   ?BANKED_ENTER_XDATA
   \   000005                ; Saved register size: 14
   \   000005                ; Auto size: 0
   \   000005   EA           MOV     A,R2
   \   000006   FE           MOV     R6,A
   \   000007   EB           MOV     A,R3
   \   000008   FF           MOV     R7,A
    753            byte cnt = 0;
   \   000009   75..00       MOV     ?V0,#0x0
    754            uint16 aoi;
    755            byte stat = ZDP_SUCCESS;
   \   00000C   75..00       MOV     ?V1,#0x0
    756          
    757            aoi = BUILD_UINT16( inMsg->asdu[0], inMsg->asdu[1] );
   \   00000F   12....       LCALL   ?Subroutine47 & 0xFFFF
   \                     ??CrossCallReturnLabel_90:
   \   000012   F5..         MOV     ?V2,A
   \   000014   E4           CLR     A
   \   000015   39           ADDC    A,R1
   \   000016   F5..         MOV     ?V3,A
    758          
    759            if ( aoi == NLME_GetShortAddr() )
   \   000018                ; Setup parameters for call to function NLME_GetShortAddr
   \   000018   12....       LCALL   ??NLME_GetShortAddr?relay; Banked call to: NLME_GetShortAddr
   \   00001B   EA           MOV     A,R2
   \   00001C   65..         XRL     A,?V2
   \   00001E   7003         JNZ     ??ZDO_ProcessActiveEPReq_0
   \   000020   EB           MOV     A,R3
   \   000021   65..         XRL     A,?V3
   \                     ??ZDO_ProcessActiveEPReq_0:
   \   000023   7012         JNZ     ??ZDO_ProcessActiveEPReq_1
    760            {
    761              cnt = afNumEndPoints() - 1;  // -1 for ZDO endpoint descriptor
   \   000025                ; Setup parameters for call to function afNumEndPoints
   \   000025   12....       LCALL   ??afNumEndPoints?relay; Banked call to: afNumEndPoints
   \   000028   E9           MOV     A,R1
   \   000029   14           DEC     A
   \   00002A   F5..         MOV     ?V0,A
    762              afEndPoints( (uint8 *)ZDOBuildBuf, true );
   \   00002C                ; Setup parameters for call to function afEndPoints
   \   00002C   7901         MOV     R1,#0x1
   \   00002E   7A..         MOV     R2,#ZDOBuildBuf & 0xff
   \   000030   7B..         MOV     R3,#(ZDOBuildBuf >> 8) & 0xff
   \   000032   12....       LCALL   ??afEndPoints?relay  ; Banked call to: afEndPoints
   \   000035   8003         SJMP    ??ZDO_ProcessActiveEPReq_2
    763            }
    764            else
    765            {
    766              stat = ZDP_INVALID_REQTYPE;
   \                     ??ZDO_ProcessActiveEPReq_1:
   \   000037   75..80       MOV     ?V1,#-0x80
    767            }
    768          
    769            ZDP_ActiveEPRsp( inMsg->TransSeq, &(inMsg->srcAddr), stat,
    770                            aoi, cnt, (uint8 *)ZDOBuildBuf, inMsg->SecurityUse );
   \                     ??ZDO_ProcessActiveEPReq_2:
   \   00003A                ; Setup parameters for call to function ZDP_EPRsp
   \   00003A   12....       LCALL   ?Subroutine91 & 0xFFFF
   \                     ??CrossCallReturnLabel_339:
   \   00003D   F5..         MOV     ?V4,A
   \   00003F   78..         MOV     R0,#?V4
   \   000041   12....       LCALL   ?PUSH_XSTACK_I_ONE
   \   000044   75....       MOV     ?V4,#ZDOBuildBuf & 0xff
   \   000047   75....       MOV     ?V5,#(ZDOBuildBuf >> 8) & 0xff
   \   00004A   78..         MOV     R0,#?V4
   \   00004C   12....       LCALL   ?PUSH_XSTACK_I_TWO
   \   00004F   78..         MOV     R0,#?V0
   \   000051   12....       LCALL   ?PUSH_XSTACK_I_ONE
   \   000054   78..         MOV     R0,#?V2
   \   000056   12....       LCALL   ?PUSH_XSTACK_I_TWO
   \   000059   E5..         MOV     A,?V1
   \   00005B   F5..         MOV     ?V0,A
   \   00005D   78..         MOV     R0,#?V0
   \   00005F   12....       LCALL   ?PUSH_XSTACK_I_ONE
   \   000062   12....       LCALL   ?Subroutine125 & 0xFFFF
   \                     ??CrossCallReturnLabel_226:
   \   000065   12....       LCALL   ??Subroutine154_0 & 0xFFFF
   \                     ??CrossCallReturnLabel_336:
   \   000068   F9           MOV     R1,A
   \   000069   7A05         MOV     R2,#0x5
   \   00006B   7B80         MOV     R3,#-0x80
   \   00006D   12....       LCALL   ??ZDP_EPRsp?relay    ; Banked call to: ZDP_EPRsp
   \   000070   7407         MOV     A,#0x7
   \   000072   12....       LCALL   ?DEALLOC_XSTACK8
    771          }
   \   000075   02....       LJMP    ?Subroutine4 & 0xFFFF

   \                                 In  segment BANKED_CODE, align 1, keep-with-next
   \                     ?Subroutine91:
   \   000000   EE           MOV     A,R6
   \   000001   240E         ADD     A,#0xe
   \   000003                REQUIRE ??Subroutine154_0
   \   000003                ; // Fall through to label ??Subroutine154_0

   \                                 In  segment BANKED_CODE, align 1, keep-with-next
   \                     ??Subroutine154_0:
   \   000000   F582         MOV     DPL,A
   \   000002   E4           CLR     A
   \   000003   3F           ADDC    A,R7
   \   000004   F583         MOV     DPH,A
   \   000006   E0           MOVX    A,@DPTR
   \   000007   22           RET

   \                                 In  segment BANKED_CODE, align 1, keep-with-next
   \                     ?Subroutine125:
   \   000000   EE           MOV     A,R6
   \   000001   2402         ADD     A,#0x2
   \   000003   FC           MOV     R4,A
   \   000004   E4           CLR     A
   \   000005   3F           ADDC    A,R7
   \   000006   FD           MOV     R5,A
   \   000007   EE           MOV     A,R6
   \   000008   240F         ADD     A,#0xf
   \   00000A   22           RET

   \                                 In  segment BANKED_CODE, align 1, keep-with-next
   \                     ?Subroutine47:
   \   000000   12....       LCALL   ?Subroutine116 & 0xFFFF
   \                     ??CrossCallReturnLabel_213:
   \   000003   22           RET

   \                                 In  segment BANKED_CODE, align 1, keep-with-next
   \                     ?Subroutine4:
   \   000000   7F06         MOV     R7,#0x6
   \   000002   02....       LJMP    ?BANKED_LEAVE_XDATA
    772          
    773          /*********************************************************************
    774           * @fn          ZDO_ConvertOTAClusters
    775           *
    776           * @brief       This function will convert the over-the-air cluster list
    777           *              format to an internal format.
    778           *
    779           * @param       inMsg  - incoming message (request)
    780           *
    781           * @return      pointer to incremented inBuf
    782           */

   \                                 In  segment BANKED_CODE, align 1, keep-with-next
    783          uint8 *ZDO_ConvertOTAClusters( uint8 cnt, uint8 *inBuf, uint16 *outList )
   \                     ZDO_ConvertOTAClusters:
    784          {
   \   000000                REQUIRE ?V0
   \   000000                REQUIRE ?V1
   \   000000   74F6         MOV     A,#-0xa
   \   000002   12....       LCALL   ?BANKED_ENTER_XDATA
   \   000005                ; Saved register size: 10
   \   000005                ; Auto size: 0
   \   000005   89..         MOV     ?V1,R1
    785            uint8 x;
    786          
    787            for ( x = 0; x < cnt; x++ )
   \   000007   75..00       MOV     ?V0,#0x0
   \   00000A   8021         SJMP    ??ZDO_ConvertOTAClusters_0
    788            {
    789              // convert ota format to internal
    790              outList[x] = BUILD_UINT16( inBuf[0], inBuf[1] );
   \                     ??ZDO_ConvertOTAClusters_1:
   \   00000C   8A82         MOV     DPL,R2
   \   00000E   8B83         MOV     DPH,R3
   \   000010   E0           MOVX    A,@DPTR
   \   000011   FE           MOV     R6,A
   \   000012   12....       LCALL   ?Subroutine64 & 0xFFFF
   \                     ??CrossCallReturnLabel_416:
   \   000015   EE           MOV     A,R6
   \   000016   28           ADD     A,R0
   \   000017   E4           CLR     A
   \   000018   39           ADDC    A,R1
   \   000019   FF           MOV     R7,A
   \   00001A   A8..         MOV     R0,?V0
   \   00001C   12....       LCALL   ?Subroutine81 & 0xFFFF
   \                     ??CrossCallReturnLabel_139:
   \   00001F   EE           MOV     A,R6
   \   000020   F0           MOVX    @DPTR,A
   \   000021   A3           INC     DPTR
   \   000022   EF           MOV     A,R7
   \   000023   F0           MOVX    @DPTR,A
    791              inBuf += sizeof( uint16 );
   \   000024   EA           MOV     A,R2
   \   000025   2402         ADD     A,#0x2
   \   000027   FA           MOV     R2,A
   \   000028   5001         JNC     ??ZDO_ConvertOTAClusters_2
   \   00002A   0B           INC     R3
    792            }
   \                     ??ZDO_ConvertOTAClusters_2:
   \   00002B   05..         INC     ?V0
   \                     ??ZDO_ConvertOTAClusters_0:
   \   00002D   E5..         MOV     A,?V0
   \   00002F   C3           CLR     C
   \   000030   95..         SUBB    A,?V1
   \   000032   40D8         JC      ??ZDO_ConvertOTAClusters_1
    793            return ( inBuf );
   \   000034   02....       LJMP    ??Subroutine141_0 & 0xFFFF
    794          }

   \                                 In  segment BANKED_CODE, align 1, keep-with-next
   \                     ?Subroutine64:
   \   000000   A3           INC     DPTR
   \   000001                REQUIRE ??Subroutine168_0
   \   000001                ; // Fall through to label ??Subroutine168_0

   \                                 In  segment BANKED_CODE, align 1, keep-with-next
   \                     ??Subroutine168_0:
   \   000000   E0           MOVX    A,@DPTR
   \   000001   F8           MOV     R0,A
   \   000002   E4           CLR     A
   \   000003   C8           XCH     A,R0
   \   000004   F9           MOV     R1,A
   \   000005   22           RET
    795          
    796          /*********************************************************************
    797           * @fn          ZDO_ProcessMatchDescReq
    798           *
    799           * @brief       This function processes and responds to the
    800           *              Match_Desc_req message.
    801           *
    802           * @param       inMsg  - incoming message (request)
    803           *
    804           * @return      none
    805           */

   \                                 In  segment BANKED_CODE, align 1, keep-with-next
    806          void ZDO_ProcessMatchDescReq( zdoIncomingMsg_t *inMsg )
   \                     ZDO_ProcessMatchDescReq:
    807          {
   \   000000                REQUIRE ?V0
   \   000000                REQUIRE ?V1
   \   000000                REQUIRE ?V2
   \   000000                REQUIRE ?V3
   \   000000                REQUIRE ?V4
   \   000000                REQUIRE ?V5
   \   000000                REQUIRE ?V6
   \   000000                REQUIRE ?V7
   \   000000                REQUIRE ?V8
   \   000000                REQUIRE ?V9
   \   000000                REQUIRE ?V10
   \   000000                REQUIRE ?V11
   \   000000                REQUIRE ?V12
   \   000000                REQUIRE ?V13
   \   000000                REQUIRE ?V14
   \   000000                REQUIRE ?V15
   \   000000   74E8         MOV     A,#-0x18
   \   000002   12....       LCALL   ?BANKED_ENTER_XDATA
   \   000005                ; Saved register size: 24
   \   000005                ; Auto size: 5
   \   000005   74FB         MOV     A,#-0x5
   \   000007   12....       LCALL   ?ALLOC_XSTACK8
   \   00000A   8A..         MOV     ?V12,R2
   \   00000C   8B..         MOV     ?V13,R3
    808            uint8 epCnt = 0;
   \   00000E   85..82       MOV     DPL,?XSP + 0
   \   000011   85..83       MOV     DPH,?XSP + 1
   \   000014   E4           CLR     A
   \   000015   F0           MOVX    @DPTR,A
    809            uint8 numInClusters;
    810            uint16 *inClusters = NULL;
   \   000016   7403         MOV     A,#0x3
   \   000018   12....       LCALL   ?XSTACK_DISP0_8
   \   00001B   E4           CLR     A
   \   00001C   F0           MOVX    @DPTR,A
   \   00001D   A3           INC     DPTR
   \   00001E   F0           MOVX    @DPTR,A
    811            uint8 numOutClusters;
    812            uint16 *outClusters = NULL;
   \   00001F   04           INC     A
   \   000020   12....       LCALL   ?XSTACK_DISP0_8
   \   000023   E4           CLR     A
   \   000024   F0           MOVX    @DPTR,A
   \   000025   A3           INC     DPTR
   \   000026   F0           MOVX    @DPTR,A
    813            epList_t *epDesc;
    814            SimpleDescriptionFormat_t *sDesc = NULL;
    815            uint8 allocated;
    816            uint8 *msg;
    817            uint16 aoi;
    818            uint16 profileID;
    819          
    820            // Parse the incoming message
    821            msg = inMsg->asdu;
   \   000027   12....       LCALL   ?Subroutine90 & 0xFFFF
   \                     ??CrossCallReturnLabel_155:
   \   00002A   35..         ADDC    A,?V13
   \   00002C   12....       LCALL   ?Subroutine59 & 0xFFFF
    822            aoi = BUILD_UINT16( msg[0], msg[1] );
   \                     ??CrossCallReturnLabel_104:
   \   00002F   12....       LCALL   ??Subroutine171_0 & 0xFFFF
   \                     ??CrossCallReturnLabel_426:
   \   000032   FE           MOV     R6,A
   \   000033   E4           CLR     A
   \   000034   39           ADDC    A,R1
   \   000035   FF           MOV     R7,A
    823            profileID = BUILD_UINT16( msg[2], msg[3] );
   \   000036   85..82       MOV     DPL,?V2
   \   000039   85..83       MOV     DPH,?V3
   \   00003C   A3           INC     DPTR
   \   00003D   A3           INC     DPTR
   \   00003E   12....       LCALL   ?Subroutine74 & 0xFFFF
   \                     ??CrossCallReturnLabel_124:
   \   000041   A3           INC     DPTR
   \   000042   A3           INC     DPTR
   \   000043   E0           MOVX    A,@DPTR
   \   000044   F9           MOV     R1,A
   \   000045   EA           MOV     A,R2
   \   000046   F5..         MOV     ?V0,A
   \   000048   E4           CLR     A
   \   000049   39           ADDC    A,R1
   \   00004A   F5..         MOV     ?V1,A
    824            msg += 4;
   \   00004C   E5..         MOV     A,?V2
   \   00004E   2404         ADD     A,#0x4
   \   000050   F5..         MOV     ?V2,A
   \   000052   5002         JNC     ??ZDO_ProcessMatchDescReq_0
   \   000054   05..         INC     ?V3
   \                     ??ZDO_ProcessMatchDescReq_0:
   \   000056                ; Setup parameters for call to function NLME_IsAddressBroadcast
   \   000056   EE           MOV     A,R6
   \   000057   FA           MOV     R2,A
   \   000058   EF           MOV     A,R7
   \   000059   FB           MOV     R3,A
    825          
    826            if ( ADDR_BCAST_NOT_ME == NLME_IsAddressBroadcast(aoi) )
   \   00005A   12....       LCALL   ??NLME_IsAddressBroadcast?relay; Banked call to: NLME_IsAddressBroadcast
   \   00005D   E9           MOV     A,R1
   \   00005E   6401         XRL     A,#0x1
   \   000060   6016         JZ      ??ZDO_ProcessMatchDescReq_1
    827            {
    828              ZDP_MatchDescRsp( inMsg->TransSeq, &(inMsg->srcAddr), ZDP_INVALID_REQTYPE,
    829                                    ZDAppNwkAddr.addr.shortAddr, 0, NULL, inMsg->SecurityUse );
    830              return;
    831            }
    832            else if ( (ADDR_NOT_BCAST == NLME_IsAddressBroadcast(aoi)) && (aoi != ZDAppNwkAddr.addr.shortAddr) )
   \   000062                ; Setup parameters for call to function NLME_IsAddressBroadcast
   \   000062   EE           MOV     A,R6
   \   000063   FA           MOV     R2,A
   \   000064   EF           MOV     A,R7
   \   000065   FB           MOV     R3,A
   \   000066   12....       LCALL   ??NLME_IsAddressBroadcast?relay; Banked call to: NLME_IsAddressBroadcast
   \   000069   E9           MOV     A,R1
   \   00006A   703D         JNZ     ??ZDO_ProcessMatchDescReq_2
   \   00006C   90....       MOV     DPTR,#ZDAppNwkAddr
   \   00006F   E0           MOVX    A,@DPTR
   \   000070   6E           XRL     A,R6
   \   000071   7003         JNZ     ??ZDO_ProcessMatchDescReq_3
   \   000073   A3           INC     DPTR
   \   000074   E0           MOVX    A,@DPTR
   \   000075   6F           XRL     A,R7
   \                     ??ZDO_ProcessMatchDescReq_3:
   \   000076   6031         JZ      ??ZDO_ProcessMatchDescReq_2
    833            {
    834              ZDP_MatchDescRsp( inMsg->TransSeq, &(inMsg->srcAddr), ZDP_INVALID_REQTYPE,
    835                                       ZDAppNwkAddr.addr.shortAddr, 0, NULL, inMsg->SecurityUse );
   \                     ??ZDO_ProcessMatchDescReq_1:
   \   000078                ; Setup parameters for call to function ZDP_EPRsp
   \   000078   12....       LCALL   ?Subroutine54 & 0xFFFF
   \                     ??CrossCallReturnLabel_282:
   \   00007B   12....       LCALL   ?PUSH_XSTACK_I_ONE
   \   00007E   E4           CLR     A
   \   00007F   F5..         MOV     ?V0,A
   \   000081   F5..         MOV     ?V1,A
   \   000083   78..         MOV     R0,#?V0
   \   000085   12....       LCALL   ?PUSH_XSTACK_I_TWO
   \   000088   78..         MOV     R0,#?V0
   \   00008A   12....       LCALL   ?PUSH_XSTACK_I_ONE
   \   00008D   90....       MOV     DPTR,#ZDAppNwkAddr
   \   000090   12....       LCALL   ?PUSH_XSTACK8_X_TWO
   \   000093   75..80       MOV     ?V0,#-0x80
   \   000096   78..         MOV     R0,#?V0
   \   000098   12....       LCALL   ?PUSH_XSTACK_I_ONE
   \   00009B   12....       LCALL   ?Subroutine93 & 0xFFFF
   \                     ??CrossCallReturnLabel_163:
   \   00009E   12....       LCALL   ??ZDP_EPRsp?relay    ; Banked call to: ZDP_EPRsp
   \   0000A1   7407         MOV     A,#0x7
   \   0000A3   12....       LCALL   ?DEALLOC_XSTACK8
    836              return;
   \   0000A6   02....       LJMP    ??ZDO_ProcessMatchDescReq_4 & 0xFFFF
    837            }
    838          
    839            if ((numInClusters = *msg++) &&
    840                (inClusters = (uint16*)osal_mem_alloc( numInClusters * sizeof( uint16 ) )))
   \                     ??ZDO_ProcessMatchDescReq_2:
   \   0000A9   12....       LCALL   ?Subroutine71 & 0xFFFF
   \                     ??CrossCallReturnLabel_120:
   \   0000AC   88..         MOV     ?V8,R0
   \   0000AE   602B         JZ      ??ZDO_ProcessMatchDescReq_5
   \   0000B0                ; Setup parameters for call to function osal_mem_alloc
   \   0000B0   12....       LCALL   ?Subroutine100 & 0xFFFF
   \                     ??CrossCallReturnLabel_183:
   \   0000B3   12....       LCALL   ??osal_mem_alloc?relay; Banked call to: osal_mem_alloc
   \   0000B6   7403         MOV     A,#0x3
   \   0000B8   12....       LCALL   ?XSTACK_DISP0_8
   \   0000BB   12....       LCALL   ?Subroutine39 & 0xFFFF
   \                     ??CrossCallReturnLabel_64:
   \   0000BE   7403         MOV     A,#0x3
   \   0000C0   12....       LCALL   ?XSTACK_DISP0_8
   \   0000C3   12....       LCALL   ??Subroutine148_0 & 0xFFFF
   \                     ??CrossCallReturnLabel_288:
   \   0000C6   6013         JZ      ??ZDO_ProcessMatchDescReq_5
    841            {
    842              msg = ZDO_ConvertOTAClusters( numInClusters, msg, inClusters );
   \   0000C8                ; Setup parameters for call to function ZDO_ConvertOTAClusters
   \   0000C8   7403         MOV     A,#0x3
   \   0000CA   12....       LCALL   ?XSTACK_DISP0_8
   \   0000CD   12....       LCALL   ?Subroutine75 & 0xFFFF
    843            }
   \                     ??CrossCallReturnLabel_126:
   \   0000D0   A9..         MOV     R1,?V8
   \   0000D2   12....       LCALL   ??ZDO_ConvertOTAClusters?relay; Banked call to: ZDO_ConvertOTAClusters
   \   0000D5   8A..         MOV     ?V2,R2
   \   0000D7   8B..         MOV     ?V3,R3
   \   0000D9   8003         SJMP    ??ZDO_ProcessMatchDescReq_6
    844            else
    845            {
    846              numInClusters = 0;
   \                     ??ZDO_ProcessMatchDescReq_5:
   \   0000DB   75..00       MOV     ?V8,#0x0
    847            }
    848          
    849            if ((numOutClusters = *msg++) &&
    850                (outClusters = (uint16 *)osal_mem_alloc( numOutClusters * sizeof( uint16 ) )))
   \                     ??ZDO_ProcessMatchDescReq_6:
   \   0000DE   12....       LCALL   ?Subroutine71 & 0xFFFF
   \                     ??CrossCallReturnLabel_121:
   \   0000E1   88..         MOV     ?V7,R0
   \   0000E3   6027         JZ      ??ZDO_ProcessMatchDescReq_7
   \   0000E5                ; Setup parameters for call to function osal_mem_alloc
   \   0000E5   12....       LCALL   ?Subroutine100 & 0xFFFF
   \                     ??CrossCallReturnLabel_184:
   \   0000E8   12....       LCALL   ??osal_mem_alloc?relay; Banked call to: osal_mem_alloc
   \   0000EB   7401         MOV     A,#0x1
   \   0000ED   12....       LCALL   ?XSTACK_DISP0_8
   \   0000F0   12....       LCALL   ?Subroutine39 & 0xFFFF
   \                     ??CrossCallReturnLabel_65:
   \   0000F3   7401         MOV     A,#0x1
   \   0000F5   12....       LCALL   ?XSTACK_DISP0_8
   \   0000F8   12....       LCALL   ??Subroutine148_0 & 0xFFFF
   \                     ??CrossCallReturnLabel_289:
   \   0000FB   600F         JZ      ??ZDO_ProcessMatchDescReq_7
    851            {
    852              msg = ZDO_ConvertOTAClusters( numOutClusters, msg, outClusters );
   \   0000FD                ; Setup parameters for call to function ZDO_ConvertOTAClusters
   \   0000FD   7401         MOV     A,#0x1
   \   0000FF   12....       LCALL   ?XSTACK_DISP0_8
   \   000102   12....       LCALL   ?Subroutine75 & 0xFFFF
    853            }
   \                     ??CrossCallReturnLabel_127:
   \   000105   A9..         MOV     R1,?V7
   \   000107   12....       LCALL   ??ZDO_ConvertOTAClusters?relay; Banked call to: ZDO_ConvertOTAClusters
   \   00010A   8003         SJMP    ??ZDO_ProcessMatchDescReq_8
    854            else
    855            {
    856              numOutClusters = 0;
   \                     ??ZDO_ProcessMatchDescReq_7:
   \   00010C   75..00       MOV     ?V7,#0x0
    857            }
    858          
    859            // First count the number of endpoints that match.
    860            epDesc = epList;
   \                     ??ZDO_ProcessMatchDescReq_8:
   \   00010F   90....       MOV     DPTR,#epList
   \   000112   8050         SJMP    ??ZDO_ProcessMatchDescReq_9
    861            while ( epDesc )
    862            {
    863              // Don't search endpoint 0 and check if response is allowed
    864              if ( epDesc->epDesc->endPoint != ZDO_EP && (epDesc->flags&eEP_AllowMatch) )
    865              {
    866                if ( epDesc->pfnDescCB )
    867                {
    868                  sDesc = (SimpleDescriptionFormat_t *)epDesc->pfnDescCB( AF_DESCRIPTOR_SIMPLE, epDesc->epDesc->endPoint );
    869                  allocated = TRUE;
    870                }
    871                else
    872                {
    873                  sDesc = epDesc->epDesc->simpleDesc;
    874                  allocated = FALSE;
    875                }
    876          
    877                // Allow specific ProfileId or Wildcard ProfileID
    878                if ( sDesc && ( ( sDesc->AppProfId == profileID ) || ( profileID == ZDO_WILDCARD_PROFILE_ID ) ) )
    879                {
    880                  uint8 *uint8Buf = (uint8 *)ZDOBuildBuf;
    881          
    882                  // Are there matching input clusters?
    883                  if ((ZDO_AnyClusterMatches( numInClusters, inClusters,
    884                             sDesc->AppNumInClusters, sDesc->pAppInClusterList )) ||
    885                      // Are there matching output clusters?
    886                      (ZDO_AnyClusterMatches( numOutClusters, outClusters,
    887                             sDesc->AppNumOutClusters, sDesc->pAppOutClusterList )))
    888                  {
    889                    // Notify the endpoint of the match.
    890                    uint8 bufLen = sizeof( ZDO_MatchDescRspSent_t ) + (numOutClusters + numInClusters) * sizeof(uint16);
    891                    ZDO_MatchDescRspSent_t *pRspSent = (ZDO_MatchDescRspSent_t *) osal_msg_allocate( bufLen );
    892          
    893                    if (pRspSent)
    894                    {
    895                      pRspSent->hdr.event = ZDO_MATCH_DESC_RSP_SENT;
    896                      pRspSent->nwkAddr = inMsg->srcAddr.addr.shortAddr;
    897                      pRspSent->numInClusters = numInClusters;
    898                      pRspSent->numOutClusters = numOutClusters;
    899          
    900                      if (numInClusters)
    901                      {
    902                        pRspSent->pInClusters = (uint16*) (pRspSent + 1);
    903                        osal_memcpy(pRspSent->pInClusters, inClusters, numInClusters * sizeof(uint16));
    904                      }
    905                      else
    906                      {
    907                        pRspSent->pInClusters = NULL;
    908                      }
    909          
    910                      if (numOutClusters)
    911                      {
    912                        pRspSent->pOutClusters = (uint16*)(pRspSent + 1) + numInClusters;
    913                        osal_memcpy(pRspSent->pOutClusters, outClusters, numOutClusters * sizeof(uint16));
    914                      }
    915                      else
    916                      {
    917                        pRspSent->pOutClusters = NULL;
   \                     ??ZDO_ProcessMatchDescReq_10:
   \   000114   E4           CLR     A
   \   000115   F0           MOVX    @DPTR,A
   \   000116   A3           INC     DPTR
   \   000117   F0           MOVX    @DPTR,A
    918                      }
    919          
    920                      osal_msg_send( *epDesc->epDesc->task_id, (uint8 *)pRspSent );
   \                     ??ZDO_ProcessMatchDescReq_11:
   \   000118                ; Setup parameters for call to function osal_msg_send
   \   000118   AA..         MOV     R2,?V2
   \   00011A   AB..         MOV     R3,?V3
   \   00011C   85..82       MOV     DPL,?V14
   \   00011F   85..83       MOV     DPH,?V15
   \   000122   A3           INC     DPTR
   \   000123   A3           INC     DPTR
   \   000124   12....       LCALL   ?Subroutine124 & 0xFFFF
   \                     ??CrossCallReturnLabel_319:
   \   000127   A3           INC     DPTR
   \   000128   12....       LCALL   ??Subroutine151_0 & 0xFFFF
   \                     ??CrossCallReturnLabel_314:
   \   00012B   F9           MOV     R1,A
   \   00012C   12....       LCALL   ??osal_msg_send?relay; Banked call to: osal_msg_send
    921                    }
    922          
    923                    uint8Buf[epCnt++] = sDesc->EndPoint;
   \                     ??ZDO_ProcessMatchDescReq_12:
   \   00012F   85..82       MOV     DPL,?V10
   \   000132   85..83       MOV     DPH,?V11
   \   000135   E0           MOVX    A,@DPTR
   \   000136   C0E0         PUSH    A
   \   000138   85..82       MOV     DPL,?XSP + 0
   \   00013B   85..83       MOV     DPH,?XSP + 1
   \   00013E   E0           MOVX    A,@DPTR
   \   00013F   F8           MOV     R0,A
   \   000140   74..         MOV     A,#ZDOBuildBuf & 0xff
   \   000142   28           ADD     A,R0
   \   000143   F582         MOV     DPL,A
   \   000145   E4           CLR     A
   \   000146   34..         ADDC    A,#(ZDOBuildBuf >> 8) & 0xff
   \   000148   F583         MOV     DPH,A
   \   00014A   D0E0         POP     A
   \   00014C   12....       LCALL   ?Subroutine115 & 0xFFFF
   \                     ??CrossCallReturnLabel_211:
   \   00014F   04           INC     A
   \   000150   F0           MOVX    @DPTR,A
    924                  }
    925                }
    926          
    927                if ( allocated )
   \                     ??ZDO_ProcessMatchDescReq_13:
   \   000151   E5..         MOV     A,?V9
   \   000153   A2E0         MOV     C,0xE0 /* A   */.0
   \   000155   5007         JNC     ??ZDO_ProcessMatchDescReq_14
    928                {
    929                  osal_mem_free( sDesc );
   \   000157                ; Setup parameters for call to function osal_mem_free
   \   000157   AA..         MOV     R2,?V10
   \   000159   AB..         MOV     R3,?V11
   \   00015B   12....       LCALL   ??osal_mem_free?relay; Banked call to: osal_mem_free
    930                }
    931              }
    932              epDesc = epDesc->nextDesc;
   \                     ??ZDO_ProcessMatchDescReq_14:
   \   00015E   85..82       MOV     DPL,?V14
   \   000161   85..83       MOV     DPH,?V15
   \                     ??ZDO_ProcessMatchDescReq_9:
   \   000164   E0           MOVX    A,@DPTR
   \   000165   F5..         MOV     ?V14,A
   \   000167   A3           INC     DPTR
   \   000168   E0           MOVX    A,@DPTR
   \   000169   F5..         MOV     ?V15,A
   \   00016B   E5..         MOV     A,?V14
   \   00016D   45..         ORL     A,?V15
   \   00016F   7003         JNZ     $+5
   \   000171   02....       LJMP    ??ZDO_ProcessMatchDescReq_15 & 0xFFFF
   \   000174   85..82       MOV     DPL,?V14
   \   000177   85..83       MOV     DPH,?V15
   \   00017A   A3           INC     DPTR
   \   00017B   A3           INC     DPTR
   \   00017C   12....       LCALL   ??Subroutine156_0 & 0xFFFF
   \                     ??CrossCallReturnLabel_343:
   \   00017F   E8           MOV     A,R0
   \   000180   FA           MOV     R2,A
   \   000181   E9           MOV     A,R1
   \   000182   FB           MOV     R3,A
   \   000183   8A82         MOV     DPL,R2
   \   000185   8B83         MOV     DPH,R3
   \   000187   E0           MOVX    A,@DPTR
   \   000188   FC           MOV     R4,A
   \   000189   60D3         JZ      ??ZDO_ProcessMatchDescReq_14
   \   00018B   85..82       MOV     DPL,?V14
   \   00018E   85..83       MOV     DPH,?V15
   \   000191   A3           INC     DPTR
   \   000192   A3           INC     DPTR
   \   000193   A3           INC     DPTR
   \   000194   A3           INC     DPTR
   \   000195   A3           INC     DPTR
   \   000196   A3           INC     DPTR
   \   000197   A3           INC     DPTR
   \   000198   A3           INC     DPTR
   \   000199   E0           MOVX    A,@DPTR
   \   00019A   A2E0         MOV     C,0xE0 /* A   */.0
   \   00019C   50C0         JNC     ??ZDO_ProcessMatchDescReq_14
   \   00019E   85..82       MOV     DPL,?V14
   \   0001A1   85..83       MOV     DPH,?V15
   \   0001A4   A3           INC     DPTR
   \   0001A5   A3           INC     DPTR
   \   0001A6   12....       LCALL   ?Subroutine57 & 0xFFFF
   \                     ??CrossCallReturnLabel_255:
   \   0001A9   E582         MOV     A,DPL
   \   0001AB   4583         ORL     A,DPH
   \   0001AD   6010         JZ      ??ZDO_ProcessMatchDescReq_16
   \   0001AF                ; Setup parameters for indirect call
   \   0001AF   EC           MOV     A,R4
   \   0001B0   FA           MOV     R2,A
   \   0001B1   7901         MOV     R1,#0x1
   \   0001B3   12....       LCALL   ?CALL_IND
   \   0001B6   8A..         MOV     ?V10,R2
   \   0001B8   8B..         MOV     ?V11,R3
   \   0001BA   75..01       MOV     ?V9,#0x1
   \   0001BD   8011         SJMP    ??ZDO_ProcessMatchDescReq_17
   \                     ??ZDO_ProcessMatchDescReq_16:
   \   0001BF   8A82         MOV     DPL,R2
   \   0001C1   8B83         MOV     DPH,R3
   \   0001C3   A3           INC     DPTR
   \   0001C4   A3           INC     DPTR
   \   0001C5   A3           INC     DPTR
   \   0001C6   E0           MOVX    A,@DPTR
   \   0001C7   F5..         MOV     ?V10,A
   \   0001C9   A3           INC     DPTR
   \   0001CA   E0           MOVX    A,@DPTR
   \   0001CB   F5..         MOV     ?V11,A
   \   0001CD   75..00       MOV     ?V9,#0x0
   \                     ??ZDO_ProcessMatchDescReq_17:
   \   0001D0   E5..         MOV     A,?V10
   \   0001D2   45..         ORL     A,?V11
   \   0001D4   7003         JNZ     $+5
   \   0001D6   02....       LJMP    ??ZDO_ProcessMatchDescReq_13 & 0xFFFF
   \   0001D9   85..82       MOV     DPL,?V10
   \   0001DC   85..83       MOV     DPH,?V11
   \   0001DF   A3           INC     DPTR
   \   0001E0   E0           MOVX    A,@DPTR
   \   0001E1   65..         XRL     A,?V0
   \   0001E3   7004         JNZ     ??ZDO_ProcessMatchDescReq_18
   \   0001E5   A3           INC     DPTR
   \   0001E6   E0           MOVX    A,@DPTR
   \   0001E7   65..         XRL     A,?V1
   \                     ??ZDO_ProcessMatchDescReq_18:
   \   0001E9   600F         JZ      ??ZDO_ProcessMatchDescReq_19
   \   0001EB   74FF         MOV     A,#-0x1
   \   0001ED   65..         XRL     A,?V0
   \   0001EF   7004         JNZ     ??ZDO_ProcessMatchDescReq_20
   \   0001F1   74FF         MOV     A,#-0x1
   \   0001F3   65..         XRL     A,?V1
   \                     ??ZDO_ProcessMatchDescReq_20:
   \   0001F5   6003         JZ      $+5
   \   0001F7   02....       LJMP    ??ZDO_ProcessMatchDescReq_13 & 0xFFFF
   \                     ??ZDO_ProcessMatchDescReq_19:
   \   0001FA                ; Setup parameters for call to function ZDO_AnyClusterMatches
   \   0001FA   85..82       MOV     DPL,?V10
   \   0001FD   85..83       MOV     DPH,?V11
   \   000200   A3           INC     DPTR
   \   000201   A3           INC     DPTR
   \   000202   A3           INC     DPTR
   \   000203   A3           INC     DPTR
   \   000204   A3           INC     DPTR
   \   000205   A3           INC     DPTR
   \   000206   A3           INC     DPTR
   \   000207   12....       LCALL   ?PUSH_XSTACK8_X_TWO
   \   00020A   85..82       MOV     DPL,?V10
   \   00020D   85..83       MOV     DPH,?V11
   \   000210   A3           INC     DPTR
   \   000211   A3           INC     DPTR
   \   000212   A3           INC     DPTR
   \   000213   A3           INC     DPTR
   \   000214   A3           INC     DPTR
   \   000215   A3           INC     DPTR
   \   000216   E0           MOVX    A,@DPTR
   \   000217   FC           MOV     R4,A
   \   000218   7405         MOV     A,#0x5
   \   00021A   12....       LCALL   ?XSTACK_DISP0_8
   \   00021D   12....       LCALL   ??Subroutine149_0 & 0xFFFF
   \                     ??CrossCallReturnLabel_298:
   \   000220   A9..         MOV     R1,?V8
   \   000222   12....       LCALL   ??ZDO_AnyClusterMatches?relay; Banked call to: ZDO_AnyClusterMatches
   \   000225   7402         MOV     A,#0x2
   \   000227   12....       LCALL   ?DEALLOC_XSTACK8
   \   00022A   E9           MOV     A,R1
   \   00022B   703C         JNZ     ??ZDO_ProcessMatchDescReq_21
   \   00022D                ; Setup parameters for call to function ZDO_AnyClusterMatches
   \   00022D   85..82       MOV     DPL,?V10
   \   000230   85..83       MOV     DPH,?V11
   \   000233   A3           INC     DPTR
   \   000234   A3           INC     DPTR
   \   000235   A3           INC     DPTR
   \   000236   A3           INC     DPTR
   \   000237   A3           INC     DPTR
   \   000238   A3           INC     DPTR
   \   000239   A3           INC     DPTR
   \   00023A   A3           INC     DPTR
   \   00023B   A3           INC     DPTR
   \   00023C   A3           INC     DPTR
   \   00023D   12....       LCALL   ?PUSH_XSTACK8_X_TWO
   \   000240   85..82       MOV     DPL,?V10
   \   000243   85..83       MOV     DPH,?V11
   \   000246   A3           INC     DPTR
   \   000247   A3           INC     DPTR
   \   000248   A3           INC     DPTR
   \   000249   A3           INC     DPTR
   \   00024A   A3           INC     DPTR
   \   00024B   A3           INC     DPTR
   \   00024C   A3           INC     DPTR
   \   00024D   A3           INC     DPTR
   \   00024E   A3           INC     DPTR
   \   00024F   E0           MOVX    A,@DPTR
   \   000250   FC           MOV     R4,A
   \   000251   7403         MOV     A,#0x3
   \   000253   12....       LCALL   ?XSTACK_DISP0_8
   \   000256   12....       LCALL   ??Subroutine149_0 & 0xFFFF
   \                     ??CrossCallReturnLabel_299:
   \   000259   A9..         MOV     R1,?V7
   \   00025B   12....       LCALL   ??ZDO_AnyClusterMatches?relay; Banked call to: ZDO_AnyClusterMatches
   \   00025E   7402         MOV     A,#0x2
   \   000260   12....       LCALL   ?DEALLOC_XSTACK8
   \   000263   E9           MOV     A,R1
   \   000264   7003         JNZ     $+5
   \   000266   02....       LJMP    ??ZDO_ProcessMatchDescReq_13 & 0xFFFF
   \                     ??ZDO_ProcessMatchDescReq_21:
   \   000269                ; Setup parameters for call to function osal_msg_allocate
   \   000269   E5..         MOV     A,?V7
   \   00026B   25..         ADD     A,?V8
   \   00026D   C3           CLR     C
   \   00026E   33           RLC     A
   \   00026F   240A         ADD     A,#0xa
   \   000271   FA           MOV     R2,A
   \   000272   7B00         MOV     R3,#0x0
   \   000274   12....       LCALL   ??osal_msg_allocate?relay; Banked call to: osal_msg_allocate
   \   000277   8A..         MOV     ?V2,R2
   \   000279   8B..         MOV     ?V3,R3
   \   00027B   EA           MOV     A,R2
   \   00027C   45..         ORL     A,?V3
   \   00027E   7003         JNZ     $+5
   \   000280   02....       LJMP    ??ZDO_ProcessMatchDescReq_12 & 0xFFFF
   \   000283   8A82         MOV     DPL,R2
   \   000285   8B83         MOV     DPH,R3
   \   000287   74D2         MOV     A,#-0x2e
   \   000289   F0           MOVX    @DPTR,A
   \   00028A   85..82       MOV     DPL,?V12
   \   00028D   85..83       MOV     DPH,?V13
   \   000290   A3           INC     DPTR
   \   000291   A3           INC     DPTR
   \   000292   12....       LCALL   ??Subroutine156_0 & 0xFFFF
   \                     ??CrossCallReturnLabel_344:
   \   000295   8A82         MOV     DPL,R2
   \   000297   8B83         MOV     DPH,R3
   \   000299   A3           INC     DPTR
   \   00029A   A3           INC     DPTR
   \   00029B   12....       LCALL   ??Subroutine143_0 & 0xFFFF
   \                     ??CrossCallReturnLabel_268:
   \   00029E   8A82         MOV     DPL,R2
   \   0002A0   8B83         MOV     DPH,R3
   \   0002A2   A3           INC     DPTR
   \   0002A3   A3           INC     DPTR
   \   0002A4   A3           INC     DPTR
   \   0002A5   A3           INC     DPTR
   \   0002A6   E5..         MOV     A,?V8
   \   0002A8   12....       LCALL   ?Subroutine17 & 0xFFFF
   \                     ??CrossCallReturnLabel_20:
   \   0002AB   E5..         MOV     A,?V7
   \   0002AD   F0           MOVX    @DPTR,A
   \   0002AE   EA           MOV     A,R2
   \   0002AF   2405         ADD     A,#0x5
   \   0002B1   FA           MOV     R2,A
   \   0002B2   E4           CLR     A
   \   0002B3   35..         ADDC    A,?V3
   \   0002B5   FB           MOV     R3,A
   \   0002B6   E5..         MOV     A,?V8
   \   0002B8   6034         JZ      ??ZDO_ProcessMatchDescReq_22
   \   0002BA   E5..         MOV     A,?V2
   \   0002BC   240A         ADD     A,#0xa
   \   0002BE   F8           MOV     R0,A
   \   0002BF   E4           CLR     A
   \   0002C0   35..         ADDC    A,?V3
   \   0002C2   F9           MOV     R1,A
   \   0002C3   8A82         MOV     DPL,R2
   \   0002C5   8B83         MOV     DPH,R3
   \   0002C7   12....       LCALL   ??Subroutine143_0 & 0xFFFF
   \                     ??CrossCallReturnLabel_269:
   \   0002CA                ; Setup parameters for call to function osal_memcpy
   \   0002CA   7403         MOV     A,#0x3
   \   0002CC   12....       LCALL   ?XSTACK_DISP0_8
   \   0002CF   12....       LCALL   ?Subroutine58 & 0xFFFF
   \                     ??CrossCallReturnLabel_102:
   \   0002D2   12....       LCALL   ?PUSH_XSTACK_I_THREE
   \   0002D5   AC..         MOV     R4,?V8
   \   0002D7   EC           MOV     A,R4
   \   0002D8   2C           ADD     A,R4
   \   0002D9   FC           MOV     R4,A
   \   0002DA   E4           CLR     A
   \   0002DB   33           RLC     A
   \   0002DC   FD           MOV     R5,A
   \   0002DD   8A82         MOV     DPL,R2
   \   0002DF   8B83         MOV     DPH,R3
   \   0002E1   12....       LCALL   ??Subroutine149_0 & 0xFFFF
   \                     ??CrossCallReturnLabel_300:
   \   0002E4   12....       LCALL   ??osal_memcpy?relay  ; Banked call to: osal_memcpy
   \   0002E7   7403         MOV     A,#0x3
   \   0002E9   12....       LCALL   ?DEALLOC_XSTACK8
   \   0002EC   8008         SJMP    ??ZDO_ProcessMatchDescReq_23
   \                     ??ZDO_ProcessMatchDescReq_22:
   \   0002EE   8A82         MOV     DPL,R2
   \   0002F0   8B83         MOV     DPH,R3
   \   0002F2   E4           CLR     A
   \   0002F3   F0           MOVX    @DPTR,A
   \   0002F4   A3           INC     DPTR
   \   0002F5   F0           MOVX    @DPTR,A
   \                     ??ZDO_ProcessMatchDescReq_23:
   \   0002F6   E5..         MOV     A,?V2
   \   0002F8   2408         ADD     A,#0x8
   \   0002FA   12....       LCALL   ?Subroutine101 & 0xFFFF
   \                     ??CrossCallReturnLabel_258:
   \   0002FD   E5..         MOV     A,?V7
   \   0002FF   7003         JNZ     $+5
   \   000301   02....       LJMP    ??ZDO_ProcessMatchDescReq_10 & 0xFFFF
   \   000304   A8..         MOV     R0,?V8
   \   000306   E8           MOV     A,R0
   \   000307   28           ADD     A,R0
   \   000308   F8           MOV     R0,A
   \   000309   E4           CLR     A
   \   00030A   33           RLC     A
   \   00030B   F9           MOV     R1,A
   \   00030C   E5..         MOV     A,?V2
   \   00030E   28           ADD     A,R0
   \   00030F   F8           MOV     R0,A
   \   000310   E5..         MOV     A,?V3
   \   000312   39           ADDC    A,R1
   \   000313   F9           MOV     R1,A
   \   000314   E8           MOV     A,R0
   \   000315   240A         ADD     A,#0xa
   \   000317   FA           MOV     R2,A
   \   000318   E4           CLR     A
   \   000319   39           ADDC    A,R1
   \   00031A   FB           MOV     R3,A
   \   00031B   12....       LCALL   ?Subroutine39 & 0xFFFF
   \                     ??CrossCallReturnLabel_66:
   \   00031E                ; Setup parameters for call to function osal_memcpy
   \   00031E   7401         MOV     A,#0x1
   \   000320   12....       LCALL   ?XSTACK_DISP0_8
   \   000323   12....       LCALL   ?Subroutine58 & 0xFFFF
    933            }
   \                     ??CrossCallReturnLabel_103:
   \   000326   12....       LCALL   ?PUSH_XSTACK_I_THREE
   \   000329   AC..         MOV     R4,?V7
   \   00032B   EC           MOV     A,R4
   \   00032C   2C           ADD     A,R4
   \   00032D   FC           MOV     R4,A
   \   00032E   E4           CLR     A
   \   00032F   33           RLC     A
   \   000330   FD           MOV     R5,A
   \   000331   12....       LCALL   ??osal_memcpy?relay  ; Banked call to: osal_memcpy
   \   000334   7403         MOV     A,#0x3
   \   000336   12....       LCALL   ?DEALLOC_XSTACK8
   \   000339   02....       LJMP    ??ZDO_ProcessMatchDescReq_11 & 0xFFFF
    934          
    935            if ( epCnt )
   \                     ??ZDO_ProcessMatchDescReq_15:
   \   00033C   85..82       MOV     DPL,?XSP + 0
   \   00033F   85..83       MOV     DPH,?XSP + 1
   \   000342   E0           MOVX    A,@DPTR
   \   000343   6027         JZ      ??ZDO_ProcessMatchDescReq_24
    936            {
    937              // Send the message if at least one match found.
    938              if ( ZSuccess == ZDP_MatchDescRsp( inMsg->TransSeq, &(inMsg->srcAddr), ZDP_SUCCESS,
    939                        ZDAppNwkAddr.addr.shortAddr, epCnt, (uint8 *)ZDOBuildBuf, inMsg->SecurityUse ) )
   \   000345                ; Setup parameters for call to function ZDP_EPRsp
   \   000345   12....       LCALL   ?Subroutine54 & 0xFFFF
    940              {
    941          #if defined( LCD_SUPPORTED )
    942                HalLcdWriteScreen( "Match Desc Req", "Rsp Sent" );
    943          #endif
    944              }
    945            }
   \                     ??CrossCallReturnLabel_283:
   \   000348   12....       LCALL   ?PUSH_XSTACK_I_ONE
   \   00034B   75....       MOV     ?V0,#ZDOBuildBuf & 0xff
   \   00034E   75....       MOV     ?V1,#(ZDOBuildBuf >> 8) & 0xff
   \   000351   78..         MOV     R0,#?V0
   \   000353   12....       LCALL   ?PUSH_XSTACK_I_TWO
   \   000356   7403         MOV     A,#0x3
   \   000358   12....       LCALL   ?XSTACK_DISP0_8
   \   00035B   12....       LCALL   ??Subroutine145_0 & 0xFFFF
   \                     ??CrossCallReturnLabel_278:
   \   00035E   12....       LCALL   ?PUSH_XSTACK_I_ONE
   \   000361   90....       MOV     DPTR,#ZDAppNwkAddr
   \   000364   12....       LCALL   ?PUSH_XSTACK8_X_TWO
   \   000367   75..00       MOV     ?V0,#0x0
   \   00036A   8029         SJMP    ??ZDO_ProcessMatchDescReq_25
    946            else
    947            {
    948              // No match found
    949              if (ADDR_NOT_BCAST == NLME_IsAddressBroadcast(aoi))
   \                     ??ZDO_ProcessMatchDescReq_24:
   \   00036C                ; Setup parameters for call to function NLME_IsAddressBroadcast
   \   00036C   EE           MOV     A,R6
   \   00036D   FA           MOV     R2,A
   \   00036E   EF           MOV     A,R7
   \   00036F   FB           MOV     R3,A
   \   000370   12....       LCALL   ??NLME_IsAddressBroadcast?relay; Banked call to: NLME_IsAddressBroadcast
   \   000373   E9           MOV     A,R1
   \   000374   702F         JNZ     ??ZDO_ProcessMatchDescReq_26
    950              {
    951                // send response message with match length = 0
    952                ZDP_MatchDescRsp( inMsg->TransSeq, &(inMsg->srcAddr), ZDP_SUCCESS,
    953                                  ZDAppNwkAddr.addr.shortAddr, 0, (uint8 *)ZDOBuildBuf, inMsg->SecurityUse );
   \   000376                ; Setup parameters for call to function ZDP_EPRsp
   \   000376   12....       LCALL   ?Subroutine54 & 0xFFFF
    954          #if defined( LCD_SUPPORTED )
    955                HalLcdWriteScreen( "Match Desc Req", "Rsp Non Matched" );
    956          #endif
    957              }
    958              else
    959              {
    960                // no response mesage for broadcast message
    961          #if defined( LCD_SUPPORTED )
    962                HalLcdWriteScreen( "Match Desc Req", "Non Matched" );
    963          #endif
    964              }
    965            }
   \                     ??CrossCallReturnLabel_284:
   \   000379   12....       LCALL   ?PUSH_XSTACK_I_ONE
   \   00037C   75....       MOV     ?V0,#ZDOBuildBuf & 0xff
   \   00037F   75....       MOV     ?V1,#(ZDOBuildBuf >> 8) & 0xff
   \   000382   78..         MOV     R0,#?V0
   \   000384   12....       LCALL   ?PUSH_XSTACK_I_TWO
   \   000387   75..00       MOV     ?V0,#0x0
   \   00038A   78..         MOV     R0,#?V0
   \   00038C   12....       LCALL   ?PUSH_XSTACK_I_ONE
   \   00038F   90....       MOV     DPTR,#ZDAppNwkAddr
   \   000392   12....       LCALL   ?PUSH_XSTACK8_X_TWO
   \                     ??ZDO_ProcessMatchDescReq_25:
   \   000395   78..         MOV     R0,#?V0
   \   000397   12....       LCALL   ?PUSH_XSTACK_I_ONE
   \   00039A   12....       LCALL   ?Subroutine93 & 0xFFFF
   \                     ??CrossCallReturnLabel_164:
   \   00039D   12....       LCALL   ??ZDP_EPRsp?relay    ; Banked call to: ZDP_EPRsp
   \   0003A0   7407         MOV     A,#0x7
   \   0003A2   12....       LCALL   ?DEALLOC_XSTACK8
    966          
    967            if ( inClusters != NULL )
   \                     ??ZDO_ProcessMatchDescReq_26:
   \   0003A5   7403         MOV     A,#0x3
   \   0003A7   12....       LCALL   ?XSTACK_DISP0_8
   \   0003AA   12....       LCALL   ??Subroutine148_0 & 0xFFFF
   \                     ??CrossCallReturnLabel_290:
   \   0003AD   600B         JZ      ??ZDO_ProcessMatchDescReq_27
    968            {
    969              osal_mem_free( inClusters );
   \   0003AF                ; Setup parameters for call to function osal_mem_free
   \   0003AF   7403         MOV     A,#0x3
   \   0003B1   12....       LCALL   ?XSTACK_DISP0_8
   \   0003B4   12....       LCALL   ??Subroutine149_0 & 0xFFFF
    970            }
   \                     ??CrossCallReturnLabel_301:
   \   0003B7   12....       LCALL   ??osal_mem_free?relay; Banked call to: osal_mem_free
    971          
    972            if ( outClusters != NULL )
   \                     ??ZDO_ProcessMatchDescReq_27:
   \   0003BA   7401         MOV     A,#0x1
   \   0003BC   12....       LCALL   ?XSTACK_DISP0_8
   \   0003BF   12....       LCALL   ??Subroutine148_0 & 0xFFFF
   \                     ??CrossCallReturnLabel_291:
   \   0003C2   600B         JZ      ??ZDO_ProcessMatchDescReq_4
    973            {
    974              osal_mem_free( outClusters );
   \   0003C4                ; Setup parameters for call to function osal_mem_free
   \   0003C4   7401         MOV     A,#0x1
   \   0003C6   12....       LCALL   ?XSTACK_DISP0_8
   \   0003C9   12....       LCALL   ??Subroutine149_0 & 0xFFFF
    975            }
   \                     ??CrossCallReturnLabel_302:
   \   0003CC   12....       LCALL   ??osal_mem_free?relay; Banked call to: osal_mem_free
    976          }
   \                     ??ZDO_ProcessMatchDescReq_4:
   \   0003CF   7405         MOV     A,#0x5
   \   0003D1   02....       LJMP    ?Subroutine5 & 0xFFFF

   \                                 In  segment BANKED_CODE, align 1, keep-with-next
   \                     ?Subroutine101:
   \   000000   F582         MOV     DPL,A
   \   000002   E4           CLR     A
   \   000003                REQUIRE ??Subroutine142_0
   \   000003                ; // Fall through to label ??Subroutine142_0

   \                                 In  segment BANKED_CODE, align 1, keep-with-next
   \                     ??Subroutine142_0:
   \   000000   35..         ADDC    A,?V3
   \   000002   F583         MOV     DPH,A
   \   000004   22           RET

   \                                 In  segment BANKED_CODE, align 1, keep-with-next
   \                     ?Subroutine93:
   \   000000   E5..         MOV     A,?V12
   \   000002   2402         ADD     A,#0x2
   \   000004   FC           MOV     R4,A
   \   000005   E4           CLR     A
   \   000006   35..         ADDC    A,?V13
   \   000008   FD           MOV     R5,A
   \   000009   E5..         MOV     A,?V12
   \   00000B   12....       LCALL   ?Subroutine126 & 0xFFFF
   \                     ??CrossCallReturnLabel_229:
   \   00000E   35..         ADDC    A,?V13
   \   000010   F583         MOV     DPH,A
   \   000012   E0           MOVX    A,@DPTR
   \   000013   F9           MOV     R1,A
   \   000014   7A06         MOV     R2,#0x6
   \   000016   7B80         MOV     R3,#-0x80
   \   000018   22           RET

   \                                 In  segment BANKED_CODE, align 1, keep-with-next
   \                     ?Subroutine75:
   \   000000   E0           MOVX    A,@DPTR
   \   000001   FC           MOV     R4,A
   \   000002   A3           INC     DPTR
   \   000003   E0           MOVX    A,@DPTR
   \   000004   FD           MOV     R5,A
   \   000005   AA..         MOV     R2,?V2
   \   000007   AB..         MOV     R3,?V3
   \   000009   22           RET

   \                                 In  segment BANKED_CODE, align 1, keep-with-next
   \                     ?Subroutine71:
   \   000000   85..82       MOV     DPL,?V2
   \   000003   85..83       MOV     DPH,?V3
   \   000006   E0           MOVX    A,@DPTR
   \   000007   F8           MOV     R0,A
   \   000008   A3           INC     DPTR
   \   000009   8582..       MOV     ?V2,DPL
   \   00000C   8583..       MOV     ?V3,DPH
   \   00000F   22           RET

   \                                 In  segment BANKED_CODE, align 1, keep-with-next
   \                     ?Subroutine58:
   \   000000   E0           MOVX    A,@DPTR
   \   000001   F5..         MOV     ?V4,A
   \   000003   A3           INC     DPTR
   \   000004   E0           MOVX    A,@DPTR
   \   000005   F5..         MOV     ?V5,A
   \   000007   75..00       MOV     ?V6,#0x0
   \   00000A   78..         MOV     R0,#?V4
   \   00000C   22           RET

   \                                 In  segment BANKED_CODE, align 1, keep-with-next
   \                     ??Subroutine143_0:
   \   000000   E8           MOV     A,R0
   \   000001                REQUIRE ??Subroutine144_0
   \   000001                ; // Fall through to label ??Subroutine144_0

   \                                 In  segment BANKED_CODE, align 1, keep-with-next
   \                     ??Subroutine144_0:
   \   000000   F0           MOVX    @DPTR,A
   \   000001   A3           INC     DPTR
   \   000002   E9           MOV     A,R1
   \   000003   F0           MOVX    @DPTR,A
   \   000004   22           RET

   \                                 In  segment BANKED_CODE, align 1, keep-with-next
   \                     ?Subroutine54:
   \   000000   E5..         MOV     A,?V12
   \   000002   240E         ADD     A,#0xe
   \   000004   F582         MOV     DPL,A
   \   000006   E4           CLR     A
   \   000007   35..         ADDC    A,?V13
   \   000009   F583         MOV     DPH,A
   \   00000B                REQUIRE ??Subroutine145_0
   \   00000B                ; // Fall through to label ??Subroutine145_0

   \                                 In  segment BANKED_CODE, align 1, keep-with-next
   \                     ??Subroutine145_0:
   \   000000   E0           MOVX    A,@DPTR
   \   000001   F5..         MOV     ?V0,A
   \   000003   78..         MOV     R0,#?V0
   \   000005   22           RET

   \                                 In  segment BANKED_CODE, align 1, keep-with-next
   \                     ?Subroutine5:
   \   000000   12....       LCALL   ?DEALLOC_XSTACK8
   \   000003                REQUIRE ??Subroutine147_0
   \   000003                ; // Fall through to label ??Subroutine147_0

   \                                 In  segment BANKED_CODE, align 1, keep-with-next
   \                     ??Subroutine147_0:
   \   000000   7F10         MOV     R7,#0x10
   \   000002   02....       LJMP    ?BANKED_LEAVE_XDATA

   \                                 In  segment BANKED_CODE, align 1, keep-with-next
   \                     ?Subroutine90:
   \   000000   12....       LCALL   ?Subroutine129 & 0xFFFF
   \                     ??CrossCallReturnLabel_334:
   \   000003   22           RET

   \                                 In  segment BANKED_CODE, align 1, keep-with-next
   \                     ?Subroutine129:
   \   000000   EA           MOV     A,R2
   \   000001                REQUIRE ??Subroutine150_0
   \   000001                ; // Fall through to label ??Subroutine150_0

   \                                 In  segment BANKED_CODE, align 1, keep-with-next
   \                     ?Subroutine115:
   \   000000   F0           MOVX    @DPTR,A
   \   000001   85..82       MOV     DPL,?XSP + 0
   \   000004   85..83       MOV     DPH,?XSP + 1
   \   000007   E0           MOVX    A,@DPTR
   \   000008   22           RET

   \                                 In  segment BANKED_CODE, align 1, keep-with-next
   \                     ?Subroutine59:
   \   000000   F583         MOV     DPH,A
   \   000002   E0           MOVX    A,@DPTR
   \   000003   F5..         MOV     ?V2,A
   \   000005   A3           INC     DPTR
   \   000006   E0           MOVX    A,@DPTR
   \   000007   F5..         MOV     ?V3,A
   \   000009   85..82       MOV     DPL,?V2
   \   00000C   F583         MOV     DPH,A
   \   00000E   22           RET

   \                                 In  segment BANKED_CODE, align 1, keep-with-next
   \                     ?Subroutine110:
   \   000000   F0           MOVX    @DPTR,A
   \   000001   8A82         MOV     DPL,R2
   \   000003   8B83         MOV     DPH,R3
   \   000005   A3           INC     DPTR
   \   000006   A3           INC     DPTR
   \   000007   A3           INC     DPTR
   \   000008   22           RET

   \                                 In  segment BANKED_CODE, align 1, keep-with-next
   \                     ?Subroutine74:
   \   000000   E0           MOVX    A,@DPTR
   \   000001   FA           MOV     R2,A
   \   000002   85..82       MOV     DPL,?V2
   \   000005   85..83       MOV     DPH,?V3
   \   000008   A3           INC     DPTR
   \   000009   22           RET

   \                                 In  segment BANKED_CODE, align 1, keep-with-next
   \                     ?Subroutine100:
   \   000000   25E0         ADD     A,0xE0 /* A   */
   \   000002   FA           MOV     R2,A
   \   000003   E4           CLR     A
   \   000004   33           RLC     A
   \   000005   FB           MOV     R3,A
   \   000006   22           RET

   \                                 In  segment BANKED_CODE, align 1, keep-with-next
   \                     ??Subroutine171_0:
   \   000000   12....       LCALL   ?Subroutine136 & 0xFFFF
   \                     ??CrossCallReturnLabel_434:
   \   000003   F8           MOV     R0,A
   \   000004   E4           CLR     A
   \   000005   C8           XCH     A,R0
   \   000006   F9           MOV     R1,A
   \   000007   EA           MOV     A,R2
   \   000008   28           ADD     A,R0
   \   000009   22           RET

   \                                 In  segment BANKED_CODE, align 1, keep-with-next
   \                     ?Subroutine17:
   \   000000   12....       LCALL   ?Subroutine110 & 0xFFFF
   \                     ??CrossCallReturnLabel_203:
   \   000003   A3           INC     DPTR
   \   000004   A3           INC     DPTR
   \   000005   A3           INC     DPTR
   \   000006   A3           INC     DPTR
   \   000007   22           RET
    977          
    978          #if defined ( REFLECTOR )
    979          /*********************************************************************
    980           * @fn      ZDO_ProcessBindUnbindReq()
    981           *
    982           * @brief   Called to process a Bind or Unbind Request message.
    983           *
    984           * @param   inMsg  - incoming message (request)
    985           * @param   pReq - place to put parsed information
    986           *
    987           * @return  none
    988           */

   \                                 In  segment BANKED_CODE, align 1, keep-with-next
    989          void ZDO_ProcessBindUnbindReq( zdoIncomingMsg_t *inMsg, ZDO_BindUnbindReq_t *pReq )
   \                     ZDO_ProcessBindUnbindReq:
    990          {
   \   000000                REQUIRE ?V0
   \   000000                REQUIRE ?V1
   \   000000                REQUIRE ?V2
   \   000000                REQUIRE ?V3
   \   000000                REQUIRE ?V4
   \   000000                REQUIRE ?V5
   \   000000                REQUIRE ?V6
   \   000000                REQUIRE ?V7
   \   000000                REQUIRE ?V8
   \   000000                REQUIRE ?V9
   \   000000                REQUIRE ?V10
   \   000000                REQUIRE ?V11
   \   000000                REQUIRE ?V12
   \   000000                REQUIRE ?V13
   \   000000                REQUIRE ?V14
   \   000000                REQUIRE ?V15
   \   000000   74E8         MOV     A,#-0x18
   \   000002   12....       LCALL   ?BANKED_ENTER_XDATA
   \   000005                ; Saved register size: 24
   \   000005                ; Auto size: 12
   \   000005   74F4         MOV     A,#-0xc
   \   000007   12....       LCALL   ?ALLOC_XSTACK8
   \   00000A   EA           MOV     A,R2
   \   00000B   FE           MOV     R6,A
   \   00000C   EB           MOV     A,R3
   \   00000D   FF           MOV     R7,A
   \   00000E   8C..         MOV     ?V0,R4
   \   000010   8D..         MOV     ?V1,R5
    991            zAddrType_t SourceAddr;       // Binding Source addres
    992            byte bindStat;
    993          
    994            SourceAddr.addrMode = Addr64Bit;
   \   000012   740B         MOV     A,#0xb
   \   000014   12....       LCALL   ?XSTACK_DISP0_8
   \   000017   7403         MOV     A,#0x3
   \   000019   F0           MOVX    @DPTR,A
    995            osal_cpyExtAddr( SourceAddr.addr.extAddr, pReq->srcAddress );
   \   00001A                ; Setup parameters for call to function sAddrExtCpy
   \   00001A   12....       LCALL   ?XSTACK_DISP101_8
   \   00001D   12....       LCALL   ??sAddrExtCpy?relay  ; Banked call to: sAddrExtCpy
    996          
    997            // If the local device is not the primary binding cache
    998            // check the src address of the bind request.
    999            // If it is not the local device's extended address
   1000            // discard the request.
   1001            if ( !osal_ExtAddrEqual( SourceAddr.addr.extAddr, NLME_GetExtAddr()) ||
   1002                  (pReq->dstAddress.addrMode != Addr64Bit &&
   1003                   pReq->dstAddress.addrMode != AddrGroup) )
   \   000020                ; Setup parameters for call to function NLME_GetExtAddr
   \   000020   12....       LCALL   ??NLME_GetExtAddr?relay; Banked call to: NLME_GetExtAddr
   \   000023   8A..         MOV     ?V2,R2
   \   000025   8B..         MOV     ?V3,R3
   \   000027   AC..         MOV     R4,?V2
   \   000029   AD..         MOV     R5,?V3
   \   00002B   EE           MOV     A,R6
   \   00002C   240F         ADD     A,#0xf
   \   00002E   F5..         MOV     ?V14,A
   \   000030   E4           CLR     A
   \   000031   3F           ADDC    A,R7
   \   000032   F5..         MOV     ?V15,A
   \   000034   EE           MOV     A,R6
   \   000035   240E         ADD     A,#0xe
   \   000037   F5..         MOV     ?V12,A
   \   000039   E4           CLR     A
   \   00003A   3F           ADDC    A,R7
   \   00003B   F5..         MOV     ?V13,A
   \   00003D   EE           MOV     A,R6
   \   00003E   2402         ADD     A,#0x2
   \   000040   F5..         MOV     ?V10,A
   \   000042   E4           CLR     A
   \   000043   3F           ADDC    A,R7
   \   000044   F5..         MOV     ?V11,A
   \   000046   EE           MOV     A,R6
   \   000047   240C         ADD     A,#0xc
   \   000049   F5..         MOV     ?V8,A
   \   00004B   E4           CLR     A
   \   00004C   3F           ADDC    A,R7
   \   00004D   F5..         MOV     ?V9,A
   \   00004F                ; Setup parameters for call to function sAddrExtCmp
   \   00004F   7403         MOV     A,#0x3
   \   000051   12....       LCALL   ?XSTACK_DISP101_8
   \   000054   12....       LCALL   ??sAddrExtCmp?relay  ; Banked call to: sAddrExtCmp
   \   000057   E9           MOV     A,R1
   \   000058   6019         JZ      ??ZDO_ProcessBindUnbindReq_0
   \   00005A   E5..         MOV     A,?V0
   \   00005C   2413         ADD     A,#0x13
   \   00005E   FA           MOV     R2,A
   \   00005F   E4           CLR     A
   \   000060   35..         ADDC    A,?V1
   \   000062   FB           MOV     R3,A
   \   000063   8A82         MOV     DPL,R2
   \   000065   8B83         MOV     DPH,R3
   \   000067   E0           MOVX    A,@DPTR
   \   000068   F8           MOV     R0,A
   \   000069   7403         MOV     A,#0x3
   \   00006B   68           XRL     A,R0
   \   00006C   6010         JZ      ??ZDO_ProcessBindUnbindReq_1
   \   00006E   7401         MOV     A,#0x1
   \   000070   68           XRL     A,R0
   \   000071   600B         JZ      ??ZDO_ProcessBindUnbindReq_1
   1004            {
   1005              bindStat = ZDP_NOT_SUPPORTED;
   \                     ??ZDO_ProcessBindUnbindReq_0:
   \   000073   85..82       MOV     DPL,?XSP + 0
   \   000076   85..83       MOV     DPH,?XSP + 1
   \   000079   7484         MOV     A,#-0x7c
   \   00007B   02....       LJMP    ??ZDO_ProcessBindUnbindReq_2 & 0xFFFF
   1006            }
   1007            else
   1008            {
   1009              // Check source & destination endpoints
   1010              if ( (pReq->srcEndpoint == 0 || pReq->srcEndpoint > MAX_ENDPOINTS)
   1011                  || (( pReq->dstAddress.addrMode == Addr64Bit ) &&
   1012                      (pReq->dstEndpoint == 0 || pReq->dstEndpoint > MAX_ENDPOINTS)) )
   \                     ??ZDO_ProcessBindUnbindReq_1:
   \   00007E   E5..         MOV     A,?V0
   \   000080   2408         ADD     A,#0x8
   \   000082   F5..         MOV     ?V6,A
   \   000084   E4           CLR     A
   \   000085   35..         ADDC    A,?V1
   \   000087   F5..         MOV     ?V7,A
   \   000089   85..82       MOV     DPL,?V6
   \   00008C   F583         MOV     DPH,A
   \   00008E   E0           MOVX    A,@DPTR
   \   00008F   F9           MOV     R1,A
   \   000090   6024         JZ      ??ZDO_ProcessBindUnbindReq_3
   \   000092   74FF         MOV     A,#-0x1
   \   000094   69           XRL     A,R1
   \   000095   601F         JZ      ??ZDO_ProcessBindUnbindReq_3
   \   000097   E5..         MOV     A,?V0
   \   000099   2414         ADD     A,#0x14
   \   00009B   F5..         MOV     ?V2,A
   \   00009D   E4           CLR     A
   \   00009E   35..         ADDC    A,?V1
   \   0000A0   F5..         MOV     ?V3,A
   \   0000A2   7403         MOV     A,#0x3
   \   0000A4   68           XRL     A,R0
   \   0000A5   701A         JNZ     ??ZDO_ProcessBindUnbindReq_4
   \   0000A7   85..82       MOV     DPL,?V2
   \   0000AA   85..83       MOV     DPH,?V3
   \   0000AD   E0           MOVX    A,@DPTR
   \   0000AE   F8           MOV     R0,A
   \   0000AF   6005         JZ      ??ZDO_ProcessBindUnbindReq_3
   \   0000B1   74FF         MOV     A,#-0x1
   \   0000B3   68           XRL     A,R0
   \   0000B4   700B         JNZ     ??ZDO_ProcessBindUnbindReq_4
   1013              {
   1014                bindStat = ZDP_INVALID_EP;
   \                     ??ZDO_ProcessBindUnbindReq_3:
   \   0000B6   85..82       MOV     DPL,?XSP + 0
   \   0000B9   85..83       MOV     DPH,?XSP + 1
   \   0000BC   7482         MOV     A,#-0x7e
   \   0000BE   02....       LJMP    ??ZDO_ProcessBindUnbindReq_2 & 0xFFFF
   1015              }
   1016              else
   1017              {
   1018                if ( inMsg->clusterID == Bind_req )
   \                     ??ZDO_ProcessBindUnbindReq_4:
   \   0000C1   E5..         MOV     A,?V0
   \   0000C3   2409         ADD     A,#0x9
   \   0000C5   F5..         MOV     ?V4,A
   \   0000C7   E4           CLR     A
   \   0000C8   35..         ADDC    A,?V1
   \   0000CA   F5..         MOV     ?V5,A
   \   0000CC   E5..         MOV     A,?V0
   \   0000CE   240B         ADD     A,#0xb
   \   0000D0   FE           MOV     R6,A
   \   0000D1   E4           CLR     A
   \   0000D2   35..         ADDC    A,?V1
   \   0000D4   FF           MOV     R7,A
   \   0000D5   85..82       MOV     DPL,?V8
   \   0000D8   85..83       MOV     DPH,?V9
   \   0000DB   E0           MOVX    A,@DPTR
   \   0000DC   6421         XRL     A,#0x21
   \   0000DE   7002         JNZ     ??ZDO_ProcessBindUnbindReq_5
   \   0000E0   A3           INC     DPTR
   \   0000E1   E0           MOVX    A,@DPTR
   \                     ??ZDO_ProcessBindUnbindReq_5:
   \   0000E2   6003         JZ      $+5
   \   0000E4   02....       LJMP    ??ZDO_ProcessBindUnbindReq_6 & 0xFFFF
   1019                {
   1020                  // Assume the table is full
   1021                  bindStat = ZDP_TABLE_FULL;
   \   0000E7   85..82       MOV     DPL,?XSP + 0
   \   0000EA   85..83       MOV     DPH,?XSP + 1
   \   0000ED   748C         MOV     A,#-0x74
   \   0000EF   12....       LCALL   ?Subroutine42 & 0xFFFF
   1022          
   1023          #if defined( APP_TP ) || defined( APP_TP2 )
   1024                  // For ZigBee Conformance Testing
   1025                  if ( bindNumOfEntries() < gNWK_MAX_BINDING_ENTRIES )
   1026          #endif
   1027                  {
   1028          #if !defined ( ZDP_BIND_SKIP_VALIDATION )
   1029                    uint16 nwkAddr;
   1030          
   1031                    // Verifies that a valid NWK address exists for the device
   1032                    // before creating a Binding entry. If NWK address does not
   1033                    // exist the request is sent out and the BindReq is saved, to
   1034                    // create the Bind Entry once the NwkAddrRsp is received
   1035                    if ( ( pReq->dstAddress.addrMode == Addr64Bit ) &&
   1036                         ( APSME_LookupNwkAddr( pReq->dstAddress.addr.extAddr, &nwkAddr ) == FALSE ) )
   \                     ??CrossCallReturnLabel_80:
   \   0000F2   E0           MOVX    A,@DPTR
   \   0000F3   6403         XRL     A,#0x3
   \   0000F5   6003         JZ      $+5
   \   0000F7   02....       LJMP    ??ZDO_ProcessBindUnbindReq_7 & 0xFFFF
   \   0000FA                ; Setup parameters for call to function APSME_LookupNwkAddr
   \   0000FA   7401         MOV     A,#0x1
   \   0000FC   12....       LCALL   ?XSTACK_DISP102_8
   \   0000FF   EE           MOV     A,R6
   \   000100   FA           MOV     R2,A
   \   000101   EF           MOV     A,R7
   \   000102   FB           MOV     R3,A
   \   000103   12....       LCALL   ??APSME_LookupNwkAddr?relay; Banked call to: APSME_LookupNwkAddr
   \   000106   E9           MOV     A,R1
   \   000107   6003         JZ      $+5
   \   000109   02....       LJMP    ??ZDO_ProcessBindUnbindReq_7 & 0xFFFF
   1037                    {
   1038                      // find an empty bind slot in the pending Bind Req list
   1039                      ZDO_PendingBindReq_t *pPendingBind;
   1040          
   1041                      if ( ( pPendingBind = ZDApp_GetEmptyPendingBindReq() ) != NULL )
   \   00010C                ; Setup parameters for call to function ZDApp_GetEmptyPendingBindReq
   \   00010C   12....       LCALL   ??ZDApp_GetEmptyPendingBindReq?relay; Banked call to: ZDApp_GetEmptyPendingBindReq
   \   00010F   8A..         MOV     ?V2,R2
   \   000111   8B..         MOV     ?V3,R3
   \   000113   EA           MOV     A,R2
   \   000114   45..         ORL     A,?V3
   \   000116   7003         JNZ     $+5
   \   000118   02....       LJMP    ??ZDO_ProcessBindUnbindReq_8 & 0xFFFF
   1042                      {
   1043                        // copy the received request into the empty slot and all required info
   1044                        osal_memcpy( &(pPendingBind->bindReq), pReq, sizeof( ZDO_BindUnbindReq_t ) );
   \   00011B                ; Setup parameters for call to function osal_memcpy
   \   00011B   85....       MOV     ?V4,?V0
   \   00011E   85....       MOV     ?V5,?V1
   \   000121   75..00       MOV     ?V6,#0x0
   \   000124   78..         MOV     R0,#?V4
   \   000126   12....       LCALL   ?PUSH_XSTACK_I_THREE
   \   000129   7C15         MOV     R4,#0x15
   \   00012B   7D00         MOV     R5,#0x0
   \   00012D   12....       LCALL   ??osal_memcpy?relay  ; Banked call to: osal_memcpy
   \   000130   7403         MOV     A,#0x3
   \   000132   12....       LCALL   ?DEALLOC_XSTACK8
   1045          
   1046                        pPendingBind->srcAddr = inMsg->srcAddr;
   \   000135   85..82       MOV     DPL,?V10
   \   000138   85..83       MOV     DPH,?V11
   \   00013B   E5..         MOV     A,?V2
   \   00013D   2415         ADD     A,#0x15
   \   00013F   FC           MOV     R4,A
   \   000140   E4           CLR     A
   \   000141   35..         ADDC    A,?V3
   \   000143   FD           MOV     R5,A
   \   000144   7409         MOV     A,#0x9
   \   000146   12....       LCALL   ?MOVE_LONG8_XDATA_XDATA
   1047                        pPendingBind->securityUse = inMsg->SecurityUse;
   \   000149   85..82       MOV     DPL,?V12
   \   00014C   85..83       MOV     DPH,?V13
   \   00014F   E0           MOVX    A,@DPTR
   \   000150   C0E0         PUSH    A
   \   000152   E5..         MOV     A,?V2
   \   000154   241E         ADD     A,#0x1e
   \   000156   12....       LCALL   ?Subroutine101 & 0xFFFF
   \                     ??CrossCallReturnLabel_259:
   \   000159   D0E0         POP     A
   \   00015B   F0           MOVX    @DPTR,A
   1048                        pPendingBind->transSeq = inMsg->TransSeq;
   \   00015C   85..82       MOV     DPL,?V14
   \   00015F   85..83       MOV     DPH,?V15
   \   000162   E0           MOVX    A,@DPTR
   \   000163   C0E0         PUSH    A
   \   000165   E5..         MOV     A,?V2
   \   000167   241F         ADD     A,#0x1f
   \   000169   12....       LCALL   ?Subroutine101 & 0xFFFF
   \                     ??CrossCallReturnLabel_260:
   \   00016C   D0E0         POP     A
   \   00016E   F0           MOVX    @DPTR,A
   1049                        pPendingBind->age = MAX_TIME_ADDR_REQ;
   \   00016F   E5..         MOV     A,?V2
   \   000171   2420         ADD     A,#0x20
   \   000173   12....       LCALL   ?Subroutine101 & 0xFFFF
   \                     ??CrossCallReturnLabel_261:
   \   000176   7405         MOV     A,#0x5
   \   000178   F0           MOVX    @DPTR,A
   1050          
   1051                        // create an entry in Address Manager
   1052                        ( void )bindAddrIndexGet( &(pReq->dstAddress) );
   \   000179                ; Setup parameters for call to function bindAddrIndexGet
   \   000179   EE           MOV     A,R6
   \   00017A   FA           MOV     R2,A
   \   00017B   EF           MOV     A,R7
   \   00017C   FB           MOV     R3,A
   \   00017D   12....       LCALL   ??bindAddrIndexGet?relay; Banked call to: bindAddrIndexGet
   1053          
   1054                        ZDP_NwkAddrReq( pReq->dstAddress.addr.extAddr, ZDP_ADDR_REQTYPE_SINGLE, 0, 0 );
   \   000180                ; Setup parameters for call to function ZDP_NwkAddrReq
   \   000180   7D00         MOV     R5,#0x0
   \   000182   7C00         MOV     R4,#0x0
   \   000184   7900         MOV     R1,#0x0
   \   000186   EE           MOV     A,R6
   \   000187   FA           MOV     R2,A
   \   000188   EF           MOV     A,R7
   \   000189   FB           MOV     R3,A
   \   00018A   12....       LCALL   ??ZDP_NwkAddrReq?relay; Banked call to: ZDP_NwkAddrReq
   1055          
   1056                        osal_start_timerEx( ZDAppTaskID, ZDO_PENDING_BIND_REQ_EVT,
   1057                                            AGE_OUT_PEND_BIND_REQ_DELAY );
   \   00018D                ; Setup parameters for call to function osal_start_timerEx
   \   00018D   90....       MOV     DPTR,#__Constant_3e8
   \   000190   12....       LCALL   ?PUSH_XSTACK8_X_FOUR
   \   000193   7A00         MOV     R2,#0x0
   \   000195   7B10         MOV     R3,#0x10
   \   000197   90....       MOV     DPTR,#ZDAppTaskID
   \   00019A   E0           MOVX    A,@DPTR
   \   00019B   F9           MOV     R1,A
   \   00019C   12....       LCALL   ??osal_start_timerEx?relay; Banked call to: osal_start_timerEx
   \   00019F   7404         MOV     A,#0x4
   \   0001A1   12....       LCALL   ?DEALLOC_XSTACK8
   1058                        return;
   \   0001A4   02....       LJMP    ??ZDO_ProcessBindUnbindReq_9 & 0xFFFF
   1059                      }
   1060                    }
   1061                    // Add Bind entry
   1062                    else if ( APSME_BindRequest( pReq->srcEndpoint, pReq->clusterID,
   1063                                                 &(pReq->dstAddress), pReq->dstEndpoint ) == ZSuccess )
   \                     ??ZDO_ProcessBindUnbindReq_7:
   \   0001A7                ; Setup parameters for call to function APSME_BindRequest
   \   0001A7   85..82       MOV     DPL,?V2
   \   0001AA   85..83       MOV     DPH,?V3
   \   0001AD   12....       LCALL   ??Subroutine145_0 & 0xFFFF
   1064                    {
   1065                      // valid entry
   1066                      bindStat = ZDP_SUCCESS;
   1067          
   1068                      // Notify to save info into NV
   1069                      ZDApp_NVUpdate();
   1070                    }
   1071          #else // ZDP_BIND_SKIP_VALIDATION  is defined
   1072                    // Create binding entry first independently of existance of  valid NWK addres
   1073                    // if NWK address does not exist a request is sent out
   1074                    if ( APSME_BindRequest( pReq->srcEndpoint, pReq->clusterID,
   1075                                   &(pReq->dstAddress), pReq->dstEndpoint ) == ZSuccess )
   1076                    {
   1077                      uint16 nwkAddr;
   1078          
   1079                      // valid entry
   1080                      bindStat = ZDP_SUCCESS;
   1081          
   1082                      // Notify to save info into NV
   1083                      ZDApp_NVUpdate();
   1084          
   1085                      // Check for the destination address
   1086                      if ( pReq->dstAddress.addrMode == Addr64Bit )
   1087                      {
   1088                        if ( APSME_LookupNwkAddr( pReq->dstAddress.addr.extAddr, &nwkAddr ) == FALSE )
   1089                        {
   1090                          ZDP_NwkAddrReq( pReq->dstAddress.addr.extAddr, ZDP_ADDR_REQTYPE_SINGLE, 0, 0 );
   1091                        }
   1092                      }
   1093                    }
   1094          #endif
   1095                  }
   1096                }
   \                     ??CrossCallReturnLabel_279:
   \   0001B0   12....       LCALL   ?PUSH_XSTACK_I_ONE
   \   0001B3   EE           MOV     A,R6
   \   0001B4   FC           MOV     R4,A
   \   0001B5   EF           MOV     A,R7
   \   0001B6   FD           MOV     R5,A
   \   0001B7   85..82       MOV     DPL,?V4
   \   0001BA   85..83       MOV     DPH,?V5
   \   0001BD   12....       LCALL   ??Subroutine149_0 & 0xFFFF
   \                     ??CrossCallReturnLabel_303:
   \   0001C0   85..82       MOV     DPL,?V6
   \   0001C3   85..83       MOV     DPH,?V7
   \   0001C6   E0           MOVX    A,@DPTR
   \   0001C7   F9           MOV     R1,A
   \   0001C8   12....       LCALL   ??APSME_BindRequest?relay; Banked call to: APSME_BindRequest
   \   0001CB   7401         MOV     A,#0x1
   \   0001CD   12....       LCALL   ?DEALLOC_XSTACK8
   \   0001D0   E9           MOV     A,R1
   \   0001D1   703C         JNZ     ??ZDO_ProcessBindUnbindReq_8
   \   0001D3   8024         SJMP    ??ZDO_ProcessBindUnbindReq_10
   1097                else // Unbind_req
   1098                {
   1099                  if ( APSME_UnBindRequest( pReq->srcEndpoint, pReq->clusterID,
   1100                                 &(pReq->dstAddress), pReq->dstEndpoint ) == ZSuccess )
   \                     ??ZDO_ProcessBindUnbindReq_6:
   \   0001D5                ; Setup parameters for call to function APSME_UnBindRequest
   \   0001D5   85..82       MOV     DPL,?V2
   \   0001D8   85..83       MOV     DPH,?V3
   \   0001DB   12....       LCALL   ??Subroutine145_0 & 0xFFFF
   \                     ??CrossCallReturnLabel_280:
   \   0001DE   12....       LCALL   ?PUSH_XSTACK_I_ONE
   \   0001E1   EE           MOV     A,R6
   \   0001E2   FC           MOV     R4,A
   \   0001E3   EF           MOV     A,R7
   \   0001E4   FD           MOV     R5,A
   \   0001E5   85..82       MOV     DPL,?V4
   \   0001E8   85..83       MOV     DPH,?V5
   \   0001EB   12....       LCALL   ??Subroutine149_0 & 0xFFFF
   \                     ??CrossCallReturnLabel_304:
   \   0001EE   12....       LCALL   ??APSME_UnBindRequest?relay; Banked call to: APSME_UnBindRequest
   \   0001F1   7401         MOV     A,#0x1
   \   0001F3   12....       LCALL   ?DEALLOC_XSTACK8
   \   0001F6   E9           MOV     A,R1
   \   0001F7   700D         JNZ     ??ZDO_ProcessBindUnbindReq_11
   1101                  {
   1102                    bindStat = ZDP_SUCCESS;
   \                     ??ZDO_ProcessBindUnbindReq_10:
   \   0001F9   85..82       MOV     DPL,?XSP + 0
   \   0001FC   85..83       MOV     DPH,?XSP + 1
   \   0001FF   E4           CLR     A
   \   000200   F0           MOVX    @DPTR,A
   1103          
   1104                    // Notify to save info into NV
   1105                    ZDApp_NVUpdate();
   \   000201                ; Setup parameters for call to function ZDApp_NVUpdate
   \   000201   12....       LCALL   ??ZDApp_NVUpdate?relay; Banked call to: ZDApp_NVUpdate
   \   000204   8009         SJMP    ??ZDO_ProcessBindUnbindReq_8
   1106                  }
   1107                  else
   1108                    bindStat = ZDP_NO_ENTRY;
   \                     ??ZDO_ProcessBindUnbindReq_11:
   \   000206   85..82       MOV     DPL,?XSP + 0
   \   000209   85..83       MOV     DPH,?XSP + 1
   \   00020C   7488         MOV     A,#-0x78
   \                     ??ZDO_ProcessBindUnbindReq_2:
   \   00020E   F0           MOVX    @DPTR,A
   1109                }
   1110              }
   1111            }
   1112          
   1113            // Send back a response message
   1114            ZDP_SendData( &(inMsg->TransSeq), &(inMsg->srcAddr),
   1115                         (inMsg->clusterID | ZDO_RESPONSE_BIT), 1, &bindStat,
   1116                         inMsg->SecurityUse );
   \                     ??ZDO_ProcessBindUnbindReq_8:
   \   00020F                ; Setup parameters for call to function ZDP_SendData
   \   00020F   85..82       MOV     DPL,?V12
   \   000212   85..83       MOV     DPH,?V13
   \   000215   12....       LCALL   ??Subroutine145_0 & 0xFFFF
   \                     ??CrossCallReturnLabel_281:
   \   000218   12....       LCALL   ?PUSH_XSTACK_I_ONE
   \   00021B   7401         MOV     A,#0x1
   \   00021D   12....       LCALL   ?XSTACK_DISP100_8
   \   000220   88..         MOV     ?V0,R0
   \   000222   89..         MOV     ?V1,R1
   \   000224   78..         MOV     R0,#?V0
   \   000226   12....       LCALL   ?PUSH_XSTACK_I_TWO
   \   000229   85..82       MOV     DPL,?V8
   \   00022C   85..83       MOV     DPH,?V9
   \   00022F   E0           MOVX    A,@DPTR
   \   000230   F5..         MOV     ?V0,A
   \   000232   A3           INC     DPTR
   \   000233   E0           MOVX    A,@DPTR
   \   000234   4480         ORL     A,#0x80
   \   000236   F5..         MOV     ?V1,A
   \   000238   78..         MOV     R0,#?V0
   \   00023A   12....       LCALL   ?PUSH_XSTACK_I_TWO
   \   00023D   7901         MOV     R1,#0x1
   \   00023F   AC..         MOV     R4,?V10
   \   000241   AD..         MOV     R5,?V11
   \   000243   AA..         MOV     R2,?V14
   \   000245   AB..         MOV     R3,?V15
   \   000247   12....       LCALL   ??ZDP_SendData?relay ; Banked call to: ZDP_SendData
   \   00024A   7405         MOV     A,#0x5
   \   00024C   12....       LCALL   ?DEALLOC_XSTACK8
   1117          }
   \                     ??ZDO_ProcessBindUnbindReq_9:
   \   00024F   740C         MOV     A,#0xc
   \   000251   02....       LJMP    ?Subroutine5 & 0xFFFF

   \                                 In  segment BANKED_CODE, align 1, keep-with-next
   \                     ?Subroutine42:
   \   000000   12....       LCALL   ?Subroutine113 & 0xFFFF
   \                     ??CrossCallReturnLabel_206:
   \   000003   22           RET

   \                                 In  segment BANKED_CODE, align 1, keep-with-next
   \                     ?Subroutine113:
   \   000000   F0           MOVX    @DPTR,A
   \   000001   8A82         MOV     DPL,R2
   \   000003   8B83         MOV     DPH,R3
   \   000005   22           RET
   1118          #endif // REFLECTOR
   1119          
   1120          /*********************************************************************
   1121           * @fn      ZDO_UpdateAddrManager
   1122           *
   1123           * @brief   Update the Address Manager.
   1124           *
   1125           * @param   nwkAddr - network address
   1126           * @param   extAddr - extended address
   1127           *
   1128           * @return  none
   1129           */

   \                                 In  segment BANKED_CODE, align 1, keep-with-next
   1130          void ZDO_UpdateAddrManager( uint16 nwkAddr, uint8 *extAddr )
   \                     ZDO_UpdateAddrManager:
   1131          {
   \   000000   C082         PUSH    DPL
   \   000002   C083         PUSH    DPH
   \   000004                ; Saved register size: 2
   \   000004                ; Auto size: 13
   \   000004   74F3         MOV     A,#-0xd
   \   000006   12....       LCALL   ?ALLOC_XSTACK8
   1132            AddrMgrEntry_t addrEntry;
   1133          
   1134            // Update the address manager
   1135            addrEntry.user = ADDRMGR_USER_DEFAULT;
   \   000009   85..82       MOV     DPL,?XSP + 0
   \   00000C   85..83       MOV     DPH,?XSP + 1
   \   00000F   E4           CLR     A
   \   000010   F0           MOVX    @DPTR,A
   1136            addrEntry.nwkAddr = nwkAddr;
   \   000011   04           INC     A
   \   000012   12....       LCALL   ?XSTACK_DISP0_8
   \   000015   12....       LCALL   ?Subroutine39 & 0xFFFF
   1137            AddrMgrExtAddrSet( addrEntry.extAddr, extAddr );
   \                     ??CrossCallReturnLabel_67:
   \   000018                ; Setup parameters for call to function AddrMgrExtAddrSet
   \   000018   7403         MOV     A,#0x3
   \   00001A   12....       LCALL   ?XSTACK_DISP0_8
   \   00001D   AA82         MOV     R2,DPL
   \   00001F   AB83         MOV     R3,DPH
   \   000021   12....       LCALL   ??AddrMgrExtAddrSet?relay; Banked call to: AddrMgrExtAddrSet
   1138            AddrMgrEntryUpdate( &addrEntry );
   \   000024                ; Setup parameters for call to function AddrMgrEntryUpdate
   \   000024   AA..         MOV     R2,?XSP + 0
   \   000026   AB..         MOV     R3,?XSP + 1
   \   000028   12....       LCALL   ??AddrMgrEntryUpdate?relay; Banked call to: AddrMgrEntryUpdate
   1139          }
   \   00002B   740D         MOV     A,#0xd
   \   00002D   12....       LCALL   ?DEALLOC_XSTACK8
   \   000030   02....       LJMP    ?Subroutine0 & 0xFFFF
   1140          
   1141          /*********************************************************************
   1142           * @fn      ZDO_ProcessServerDiscReq
   1143           *
   1144           * @brief   Process the Server_Discovery_req message.
   1145           *
   1146           * @param   inMsg  - incoming message (request)
   1147           *
   1148           * @return  none
   1149           */

   \                                 In  segment BANKED_CODE, align 1, keep-with-next
   1150          void ZDO_ProcessServerDiscReq( zdoIncomingMsg_t *inMsg )
   \                     ZDO_ProcessServerDiscReq:
   1151          {
   \   000000                REQUIRE ?V0
   \   000000                REQUIRE ?V1
   \   000000   74F6         MOV     A,#-0xa
   \   000002   12....       LCALL   ?BANKED_ENTER_XDATA
   \   000005                ; Saved register size: 10
   \   000005                ; Auto size: 0
   \   000005   EA           MOV     A,R2
   \   000006   FE           MOV     R6,A
   \   000007   EB           MOV     A,R3
   \   000008   FF           MOV     R7,A
   1152            uint16 serverMask = BUILD_UINT16( inMsg->asdu[0], inMsg->asdu[1] );
   1153            uint16 matchMask = serverMask & ZDO_Config_Node_Descriptor.ServerMask;
   \   000009   12....       LCALL   ?Subroutine88 & 0xFFFF
   \                     ??CrossCallReturnLabel_153:
   \   00000C   12....       LCALL   ??Subroutine138_0 & 0xFFFF
   \                     ??CrossCallReturnLabel_253:
   \   00000F   12....       LCALL   ??Subroutine160_0 & 0xFFFF
   \                     ??CrossCallReturnLabel_376:
   \   000012   F8           MOV     R0,A
   \   000013   90....       MOV     DPTR,#ZDO_Config_Node_Descriptor + 8
   \   000016   E0           MOVX    A,@DPTR
   \   000017   58           ANL     A,R0
   \   000018   F5..         MOV     ?V0,A
   \   00001A   A3           INC     DPTR
   \   00001B   E0           MOVX    A,@DPTR
   \   00001C   59           ANL     A,R1
   \   00001D   F5..         MOV     ?V1,A
   1154          
   1155            if ( matchMask )
   \   00001F   E5..         MOV     A,?V0
   \   000021   45..         ORL     A,?V1
   \   000023   6026         JZ      ??ZDO_ProcessServerDiscReq_0
   1156            {
   1157              ZDP_ServerDiscRsp( inMsg->TransSeq, &(inMsg->srcAddr), ZSUCCESS,
   1158                          ZDAppNwkAddr.addr.shortAddr, matchMask, inMsg->SecurityUse );
   \   000025                ; Setup parameters for call to function ZDP_ServerDiscRsp
   \   000025   78..         MOV     R0,#?V0
   \   000027   12....       LCALL   ?PUSH_XSTACK_I_TWO
   \   00002A   90....       MOV     DPTR,#ZDAppNwkAddr
   \   00002D   12....       LCALL   ?PUSH_XSTACK8_X_TWO
   \   000030   12....       LCALL   ?Subroutine91 & 0xFFFF
   1159            }
   \                     ??CrossCallReturnLabel_340:
   \   000033   FD           MOV     R5,A
   \   000034   7C00         MOV     R4,#0x0
   \   000036   EE           MOV     A,R6
   \   000037   12....       LCALL   ??Subroutine152_0 & 0xFFFF
   \                     ??CrossCallReturnLabel_321:
   \   00003A   3F           ADDC    A,R7
   \   00003B   FB           MOV     R3,A
   \   00003C   EE           MOV     A,R6
   \   00003D   240F         ADD     A,#0xf
   \   00003F   12....       LCALL   ??Subroutine154_0 & 0xFFFF
   \                     ??CrossCallReturnLabel_337:
   \   000042   F9           MOV     R1,A
   \   000043   12....       LCALL   ??ZDP_ServerDiscRsp?relay; Banked call to: ZDP_ServerDiscRsp
   \   000046   7404         MOV     A,#0x4
   \   000048   12....       LCALL   ?DEALLOC_XSTACK8
   1160          }
   \                     ??ZDO_ProcessServerDiscReq_0:
   \   00004B   02....       LJMP    ??Subroutine141_0 & 0xFFFF

   \                                 In  segment BANKED_CODE, align 1, keep-with-next
   \                     ??Subroutine152_0:
   \   000000   2402         ADD     A,#0x2
   \   000002   FA           MOV     R2,A
   \   000003   E4           CLR     A
   \   000004   22           RET

   \                                 In  segment BANKED_CODE, align 1, keep-with-next
   \                     ??Subroutine160_0:
   \   000000   12....       LCALL   ?Subroutine118 & 0xFFFF
   \                     ??CrossCallReturnLabel_383:
   \   000003   22           RET

   \                                 In  segment BANKED_CODE, align 1, keep-with-next
   \                     ?Subroutine88:
   \   000000   EE           MOV     A,R6
   \   000001   12....       LCALL   ??Subroutine150_0 & 0xFFFF
   \                     ??CrossCallReturnLabel_331:
   \   000004   3F           ADDC    A,R7
   \   000005   F583         MOV     DPH,A
   \   000007   22           RET

   \                                 In  segment BANKED_CODE, align 1, keep-with-next
   \                     ?Subroutine118:
   \   000000   12....       LCALL   ?Subroutine136 & 0xFFFF
   \                     ??CrossCallReturnLabel_433:
   \   000003   F9           MOV     R1,A
   \   000004   EA           MOV     A,R2
   \   000005   22           RET
   1161          
   1162          /*********************************************************************
   1163           * Call Back Functions from APS  - API
   1164           */
   1165          
   1166          /*********************************************************************
   1167           * @fn          ZDO_EndDeviceTimeoutCB
   1168           *
   1169           * @brief       This function handles the binding timer for the End
   1170           *              Device Bind command.
   1171           *
   1172           * @param       none
   1173           *
   1174           * @return      none
   1175           */

   \                                 In  segment BANKED_CODE, align 1, keep-with-next
   1176          void ZDO_EndDeviceTimeoutCB( void )
   \                     ZDO_EndDeviceTimeoutCB:
   1177          {
   \   000000                REQUIRE ?V0
   \   000000                REQUIRE ?V1
   \   000000   74F6         MOV     A,#-0xa
   \   000002   12....       LCALL   ?BANKED_ENTER_XDATA
   \   000005                ; Saved register size: 10
   \   000005                ; Auto size: 2
   \   000005   74FE         MOV     A,#-0x2
   \   000007   12....       LCALL   ?ALLOC_XSTACK8
   1178          #if defined ( REFLECTOR )
   1179            byte stat;
   1180            if ( ZDO_EDBind )
   \   00000A   90....       MOV     DPTR,#ZDO_EDBind
   \   00000D   12....       LCALL   ??Subroutine148_0 & 0xFFFF
   \                     ??CrossCallReturnLabel_292:
   \   000010   7003         JNZ     $+5
   \   000012   02....       LJMP    ??ZDO_EndDeviceTimeoutCB_0 & 0xFFFF
   1181            {
   1182              stat = ZDO_EDBind->status;
   1183          
   1184              // Send the response message to the first sent
   1185              ZDO_SendEDBindRsp( ZDO_EDBind->SrcTransSeq, &(ZDO_EDBind->SrcAddr),
   1186                                  stat, ZDO_EDBind->SecurityUse );
   \   000015   E0           MOVX    A,@DPTR
   \   000016   C8           XCH     A,R0
   \   000017   2415         ADD     A,#0x15
   \   000019   F582         MOV     DPL,A
   \   00001B   E4           CLR     A
   \   00001C   38           ADDC    A,R0
   \   00001D   F583         MOV     DPH,A
   \   00001F   E0           MOVX    A,@DPTR
   \   000020   F8           MOV     R0,A
   \   000021   90....       MOV     DPTR,#ZDO_EDBind
   \   000024   E0           MOVX    A,@DPTR
   \   000025   F9           MOV     R1,A
   \   000026   A3           INC     DPTR
   \   000027   E0           MOVX    A,@DPTR
   \   000028   C9           XCH     A,R1
   \   000029   2416         ADD     A,#0x16
   \   00002B   F582         MOV     DPL,A
   \   00002D   E4           CLR     A
   \   00002E   39           ADDC    A,R1
   \   00002F   F583         MOV     DPH,A
   \   000031   E0           MOVX    A,@DPTR
   \   000032   C0E0         PUSH    A
   \   000034   7401         MOV     A,#0x1
   \   000036   12....       LCALL   ?XSTACK_DISP0_8
   \   000039   D0E0         POP     A
   \   00003B   F0           MOVX    @DPTR,A
   \   00003C   90....       MOV     DPTR,#ZDO_EDBind
   \   00003F   E0           MOVX    A,@DPTR
   \   000040   2401         ADD     A,#0x1
   \   000042   FC           MOV     R4,A
   \   000043   A3           INC     DPTR
   \   000044   E0           MOVX    A,@DPTR
   \   000045   3400         ADDC    A,#0x0
   \   000047   FD           MOV     R5,A
   \   000048   90....       MOV     DPTR,#ZDO_EDBind
   \   00004B   E0           MOVX    A,@DPTR
   \   00004C   F9           MOV     R1,A
   \   00004D   A3           INC     DPTR
   \   00004E   E0           MOVX    A,@DPTR
   \   00004F   F583         MOV     DPH,A
   \   000051   8982         MOV     DPL,R1
   \   000053   E0           MOVX    A,@DPTR
   \   000054   85..82       MOV     DPL,?XSP + 0
   \   000057   85..83       MOV     DPH,?XSP + 1
   \   00005A   F0           MOVX    @DPTR,A
   \   00005B                ; Setup parameters for call to function ZDP_SendData
   \   00005B   E8           MOV     A,R0
   \   00005C   F5..         MOV     ?V0,A
   \   00005E   78..         MOV     R0,#?V0
   \   000060   12....       LCALL   ?PUSH_XSTACK_I_ONE
   \   000063   7402         MOV     A,#0x2
   \   000065   12....       LCALL   ?XSTACK_DISP100_8
   \   000068   88..         MOV     ?V0,R0
   \   00006A   89..         MOV     ?V1,R1
   \   00006C   78..         MOV     R0,#?V0
   \   00006E   12....       LCALL   ?PUSH_XSTACK_I_TWO
   \   000071   75..20       MOV     ?V0,#0x20
   \   000074   75..80       MOV     ?V1,#-0x80
   \   000077   78..         MOV     R0,#?V0
   \   000079   12....       LCALL   ?PUSH_XSTACK_I_TWO
   \   00007C   7901         MOV     R1,#0x1
   \   00007E   7405         MOV     A,#0x5
   \   000080   12....       LCALL   ?XSTACK_DISP101_8
   \   000083   12....       LCALL   ??ZDP_SendData?relay ; Banked call to: ZDP_SendData
   \   000086   7405         MOV     A,#0x5
   \   000088   12....       LCALL   ?DEALLOC_XSTACK8
   1187          
   1188              ZDO_RemoveEndDeviceBind();
   \   00008B   90....       MOV     DPTR,#ZDO_EDBind
   \   00008E   12....       LCALL   ??Subroutine148_0 & 0xFFFF
   1189            }
   \                     ??CrossCallReturnLabel_293:
   \   000091   602E         JZ      ??ZDO_EndDeviceTimeoutCB_0
   \   000093   E0           MOVX    A,@DPTR
   \   000094   C8           XCH     A,R0
   \   000095   2410         ADD     A,#0x10
   \   000097   12....       LCALL   ?Subroutine66 & 0xFFFF
   \                     ??CrossCallReturnLabel_286:
   \   00009A   6003         JZ      ??ZDO_EndDeviceTimeoutCB_1
   \   00009C                ; Setup parameters for call to function osal_mem_free
   \   00009C   12....       LCALL   ??osal_mem_free?relay; Banked call to: osal_mem_free
   \                     ??ZDO_EndDeviceTimeoutCB_1:
   \   00009F   90....       MOV     DPTR,#ZDO_EDBind
   \   0000A2   E0           MOVX    A,@DPTR
   \   0000A3   F8           MOV     R0,A
   \   0000A4   A3           INC     DPTR
   \   0000A5   E0           MOVX    A,@DPTR
   \   0000A6   C8           XCH     A,R0
   \   0000A7   2413         ADD     A,#0x13
   \   0000A9   12....       LCALL   ?Subroutine66 & 0xFFFF
   \                     ??CrossCallReturnLabel_287:
   \   0000AC   6003         JZ      ??ZDO_EndDeviceTimeoutCB_2
   \   0000AE                ; Setup parameters for call to function osal_mem_free
   \   0000AE   12....       LCALL   ??osal_mem_free?relay; Banked call to: osal_mem_free
   \                     ??ZDO_EndDeviceTimeoutCB_2:
   \   0000B1                ; Setup parameters for call to function osal_mem_free
   \   0000B1   90....       MOV     DPTR,#ZDO_EDBind
   \   0000B4   12....       LCALL   ??Subroutine149_0 & 0xFFFF
   \                     ??CrossCallReturnLabel_305:
   \   0000B7   12....       LCALL   ??osal_mem_free?relay; Banked call to: osal_mem_free
   \   0000BA   90....       MOV     DPTR,#ZDO_EDBind
   \   0000BD   E4           CLR     A
   \   0000BE   F0           MOVX    @DPTR,A
   \   0000BF   A3           INC     DPTR
   \   0000C0   F0           MOVX    @DPTR,A
   1190          #endif  // REFLECTOR
   1191          }
   \                     ??ZDO_EndDeviceTimeoutCB_0:
   \   0000C1   02....       LJMP    ?Subroutine1 & 0xFFFF

   \                                 In  segment BANKED_CODE, align 1, keep-with-next
   \                     ?Subroutine66:
   \   000000   F582         MOV     DPL,A
   \   000002   E4           CLR     A
   \   000003   38           ADDC    A,R0
   \   000004   F583         MOV     DPH,A
   \   000006                REQUIRE ??Subroutine146_0
   \   000006                ; // Fall through to label ??Subroutine146_0

   \                                 In  segment BANKED_CODE, align 1, keep-with-next
   \                     ??Subroutine146_0:
   \   000000   12....       LCALL   ?Subroutine136 & 0xFFFF
   \                     ??CrossCallReturnLabel_431:
   \   000003   FB           MOV     R3,A
   \   000004   EA           MOV     A,R2
   \   000005   4B           ORL     A,R3
   \   000006   22           RET
   1192          
   1193          /*********************************************************************
   1194           * Optional Management Messages
   1195           */
   1196          
   1197          /*********************************************************************
   1198           * @fn          ZDO_ProcessMgmtLqiReq
   1199           *
   1200           * @brief       This function handles parsing the incoming Management
   1201           *              LQI request and generate the response.
   1202           *
   1203           *   Note:      This function will limit the number of items returned
   1204           *              to ZDO_MAX_LQI_ITEMS items.
   1205           *
   1206           * @param       inMsg - incoming message (request)
   1207           *
   1208           * @return      none
   1209           */

   \                                 In  segment BANKED_CODE, align 1, keep-with-next
   1210          void ZDO_ProcessMgmtLqiReq( zdoIncomingMsg_t *inMsg )
   \                     ZDO_ProcessMgmtLqiReq:
   1211          {
   \   000000                REQUIRE ?V0
   \   000000                REQUIRE ?V1
   \   000000                REQUIRE ?V2
   \   000000                REQUIRE ?V3
   \   000000                REQUIRE ?V4
   \   000000                REQUIRE ?V5
   \   000000                REQUIRE ?V6
   \   000000                REQUIRE ?V7
   \   000000                REQUIRE ?V8
   \   000000                REQUIRE ?V9
   \   000000                REQUIRE ?V10
   \   000000                REQUIRE ?V11
   \   000000                REQUIRE ?V12
   \   000000                REQUIRE ?V13
   \   000000                REQUIRE ?V14
   \   000000                REQUIRE ?V15
   \   000000   74E8         MOV     A,#-0x18
   \   000002   12....       LCALL   ?BANKED_ENTER_XDATA
   \   000005                ; Saved register size: 24
   \   000005                ; Auto size: 37
   \   000005   74DB         MOV     A,#-0x25
   \   000007   12....       LCALL   ?ALLOC_XSTACK8
   \   00000A   8A..         MOV     ?V14,R2
   \   00000C   8B..         MOV     ?V15,R3
   1212            byte x;
   1213            byte index;
   1214            byte numItems;
   1215            byte maxItems;
   1216            ZDP_MgmtLqiItem_t* table = NULL;
   \   00000E   75..00       MOV     ?V12,#0x0
   \   000011   75..00       MOV     ?V13,#0x0
   1217            ZDP_MgmtLqiItem_t* item;
   1218            neighborEntry_t    entry;
   1219            byte aItems;
   1220            associated_devices_t *aDevice;
   1221            AddrMgrEntry_t  nwkEntry;
   1222            uint8 StartIndex = inMsg->asdu[0];
   \   000014   12....       LCALL   ?Subroutine90 & 0xFFFF
   \                     ??CrossCallReturnLabel_156:
   \   000017   35..         ADDC    A,?V15
   \   000019   12....       LCALL   ?Subroutine49 & 0xFFFF
   \                     ??CrossCallReturnLabel_315:
   \   00001C   F5..         MOV     ?V4,A
   1223          
   1224            // Get the number of neighbor items
   1225            NLME_GetRequest( nwkNumNeighborTableEntries, 0, &maxItems );
   \   00001E                ; Setup parameters for call to function NLME_GetRequest
   \   00001E   AC..         MOV     R4,?XSP + 0
   \   000020   AD..         MOV     R5,?XSP + 1
   \   000022   7A00         MOV     R2,#0x0
   \   000024   7B00         MOV     R3,#0x0
   \   000026   799C         MOV     R1,#-0x64
   \   000028   12....       LCALL   ??NLME_GetRequest?relay; Banked call to: NLME_GetRequest
   1226          
   1227            // Get the number of associated items
   1228            aItems = (uint8)AssocCount( PARENT, CHILD_FFD_RX_IDLE );
   \   00002B                ; Setup parameters for call to function AssocCount
   \   00002B   7A04         MOV     R2,#0x4
   \   00002D   7900         MOV     R1,#0x0
   \   00002F   12....       LCALL   ??AssocCount?relay   ; Banked call to: AssocCount
   \   000032   EA           MOV     A,R2
   \   000033   F5..         MOV     ?V2,A
   1229          
   1230            // Total number of items
   1231            maxItems += aItems;
   \   000035   85..82       MOV     DPL,?XSP + 0
   \   000038   85..83       MOV     DPH,?XSP + 1
   \   00003B   E0           MOVX    A,@DPTR
   \   00003C   2A           ADD     A,R2
   \   00003D   F0           MOVX    @DPTR,A
   1232          
   1233            // Start with the supplied index
   1234            if ( maxItems > StartIndex )
   \   00003E   F8           MOV     R0,A
   \   00003F   E5..         MOV     A,?V4
   \   000041   C3           CLR     C
   \   000042   98           SUBB    A,R0
   \   000043   4003         JC      $+5
   \   000045   02....       LJMP    ??ZDO_ProcessMgmtLqiReq_0 & 0xFFFF
   1235            {
   1236              numItems = maxItems - StartIndex;
   \   000048   E0           MOVX    A,@DPTR
   \   000049   C3           CLR     C
   \   00004A   95..         SUBB    A,?V4
   \   00004C   F5..         MOV     ?V1,A
   1237          
   1238              // limit the size of the list
   1239              if ( numItems > ZDO_MAX_LQI_ITEMS )
   \   00004E   C3           CLR     C
   \   00004F   9404         SUBB    A,#0x4
   \   000051   4003         JC      ??ZDO_ProcessMgmtLqiReq_1
   1240                numItems = ZDO_MAX_LQI_ITEMS;
   \   000053   75..03       MOV     ?V1,#0x3
   1241          
   1242              // Allocate the memory to build the table
   1243              table = (ZDP_MgmtLqiItem_t*)osal_mem_alloc( (short)
   1244                        ( numItems * sizeof( ZDP_MgmtLqiItem_t ) ) );
   \                     ??ZDO_ProcessMgmtLqiReq_1:
   \   000056                ; Setup parameters for call to function osal_mem_alloc
   \   000056   E5..         MOV     A,?V1
   \   000058   75F01A       MOV     B,#0x1a
   \   00005B   A4           MUL     AB
   \   00005C   FA           MOV     R2,A
   \   00005D   ABF0         MOV     R3,B
   \   00005F   12....       LCALL   ??osal_mem_alloc?relay; Banked call to: osal_mem_alloc
   \   000062   8A..         MOV     ?V12,R2
   \   000064   8B..         MOV     ?V13,R3
   1245          
   1246              if ( table != NULL )
   \   000066   EA           MOV     A,R2
   \   000067   45..         ORL     A,?V13
   \   000069   7003         JNZ     $+5
   \   00006B   02....       LJMP    ??ZDO_ProcessMgmtLqiReq_2 & 0xFFFF
   1247              {
   1248                x = 0;
   \   00006E   75..00       MOV     ?V3,#0x0
   1249                item = table;
   \   000071   AE..         MOV     R6,?V12
   \   000073   AF..         MOV     R7,?V13
   1250                index = StartIndex;
   \   000075   85....       MOV     ?V0,?V4
   \   000078   02....       LJMP    ??ZDO_ProcessMgmtLqiReq_3 & 0xFFFF
   1251          
   1252                // Loop through associated items and build list
   1253                for ( ; x < numItems; x++ )
   1254                {
   1255                  if ( index < aItems )
   1256                  {
   1257                    // get next associated device
   1258                    aDevice = AssocFindDevice( index++ );
   1259          
   1260                    // set basic fields
   1261                    item->panID   = _NIB.nwkPanId;
   1262                    osal_cpyExtAddr( item->extPanID, _NIB.extendedPANID );
   1263                    item->nwkAddr = aDevice->shortAddr;
   1264                    item->permit  = ZDP_MGMT_BOOL_UNKNOWN;
   1265                    item->depth   = 0xFF;
   1266                    item->lqi     = aDevice->linkInfo.rxLqi;
   1267          
   1268                    // set extented address
   1269                    nwkEntry.user    = ADDRMGR_USER_DEFAULT;
   1270                    nwkEntry.nwkAddr = aDevice->shortAddr;
   1271          
   1272                    if ( AddrMgrEntryLookupNwk( &nwkEntry ) == TRUE )
   1273                    {
   1274                      osal_cpyExtAddr( item->extAddr, nwkEntry.extAddr );
   1275                    }
   1276                    else
   1277                    {
   1278                      osal_memset( item->extAddr, 0xFF, Z_EXTADDR_LEN );
   \                     ??ZDO_ProcessMgmtLqiReq_4:
   \   00007B                ; Setup parameters for call to function osal_memset
   \   00007B   7C08         MOV     R4,#0x8
   \   00007D   7D00         MOV     R5,#0x0
   \   00007F   79FF         MOV     R1,#-0x1
   \   000081   AA..         MOV     R2,?V10
   \   000083   AB..         MOV     R3,?V11
   \   000085   12....       LCALL   ??osal_memset?relay  ; Banked call to: osal_memset
   1279                    }
   1280          
   1281                    // use association info to set other fields
   1282                    if ( aDevice->nodeRelation == PARENT )
   \                     ??ZDO_ProcessMgmtLqiReq_5:
   \   000088   E5..         MOV     A,?V6
   \   00008A   2404         ADD     A,#0x4
   \   00008C   F8           MOV     R0,A
   \   00008D   E4           CLR     A
   \   00008E   35..         ADDC    A,?V7
   \   000090   F9           MOV     R1,A
   \   000091   EE           MOV     A,R6
   \   000092   2416         ADD     A,#0x16
   \   000094   FA           MOV     R2,A
   \   000095   E4           CLR     A
   \   000096   3F           ADDC    A,R7
   \   000097   FB           MOV     R3,A
   \   000098   EE           MOV     A,R6
   \   000099   2415         ADD     A,#0x15
   \   00009B   FC           MOV     R4,A
   \   00009C   E4           CLR     A
   \   00009D   3F           ADDC    A,R7
   \   00009E   FD           MOV     R5,A
   \   00009F   EE           MOV     A,R6
   \   0000A0   2414         ADD     A,#0x14
   \   0000A2   F5..         MOV     ?V10,A
   \   0000A4   E4           CLR     A
   \   0000A5   3F           ADDC    A,R7
   \   0000A6   F5..         MOV     ?V11,A
   \   0000A8   8882         MOV     DPL,R0
   \   0000AA   8983         MOV     DPH,R1
   \   0000AC   E0           MOVX    A,@DPTR
   \   0000AD   7030         JNZ     ??ZDO_ProcessMgmtLqiReq_6
   1283                    {
   1284                      if (  aDevice->shortAddr == 0 )
   \   0000AF   85..82       MOV     DPL,?V6
   \   0000B2   85..83       MOV     DPH,?V7
   \   0000B5   12....       LCALL   ??Subroutine148_0 & 0xFFFF
   \                     ??CrossCallReturnLabel_294:
   \   0000B8   85..82       MOV     DPL,?V10
   \   0000BB   85..83       MOV     DPH,?V11
   \   0000BE   7004         JNZ     ??ZDO_ProcessMgmtLqiReq_7
   1285                      {
   1286                        item->devType = ZDP_MGMT_DT_COORD;
   \   0000C0   E4           CLR     A
   \   0000C1   F0           MOVX    @DPTR,A
   1287                        item->depth = 0;
   \   0000C2   8008         SJMP    ??ZDO_ProcessMgmtLqiReq_8
   1288                      }
   1289                      else
   1290                      {
   1291                        item->devType = ZDP_MGMT_DT_ROUTER;
   \                     ??ZDO_ProcessMgmtLqiReq_7:
   \   0000C4   7401         MOV     A,#0x1
   \   0000C6   F0           MOVX    @DPTR,A
   1292                        item->depth = _NIB.nodeDepth - 1;
   \   0000C7   90....       MOV     DPTR,#_NIB + 52
   \   0000CA   E0           MOVX    A,@DPTR
   \   0000CB   14           DEC     A
   \                     ??ZDO_ProcessMgmtLqiReq_8:
   \   0000CC   85..82       MOV     DPL,?V8
   \   0000CF   85..83       MOV     DPH,?V9
   \   0000D2   F0           MOVX    @DPTR,A
   1293                      }
   1294          
   1295                      item->rxOnIdle = ZDP_MGMT_BOOL_UNKNOWN;
   \   0000D3   8C82         MOV     DPL,R4
   \   0000D5   8D83         MOV     DPH,R5
   \   0000D7   7402         MOV     A,#0x2
   \   0000D9   12....       LCALL   ?Subroutine42 & 0xFFFF
   1296                      item->relation = ZDP_MGMT_REL_PARENT;
   1297                    }
   \                     ??CrossCallReturnLabel_81:
   \   0000DC   E4           CLR     A
   \   0000DD   8033         SJMP    ??ZDO_ProcessMgmtLqiReq_9
   1298                    else
   1299                    {
   1300                      // If not parent, then it's a child
   1301                      item->depth = _NIB.nodeDepth + 1;
   \                     ??ZDO_ProcessMgmtLqiReq_6:
   \   0000DF   90....       MOV     DPTR,#_NIB + 52
   \   0000E2   E0           MOVX    A,@DPTR
   \   0000E3   04           INC     A
   \   0000E4   85..82       MOV     DPL,?V8
   \   0000E7   85..83       MOV     DPH,?V9
   \   0000EA   12....       LCALL   ?Subroutine14 & 0xFFFF
   1302          
   1303                      if ( aDevice->nodeRelation < CHILD_FFD )
   \                     ??CrossCallReturnLabel_9:
   \   0000ED   C3           CLR     C
   \   0000EE   9403         SUBB    A,#0x3
   \   0000F0   85..82       MOV     DPL,?V10
   \   0000F3   85..83       MOV     DPH,?V11
   \   0000F6   4003         JC      $+5
   \   0000F8   02....       LJMP    ??ZDO_ProcessMgmtLqiReq_10 & 0xFFFF
   1304                      {
   1305                        item->devType = ZDP_MGMT_DT_ENDDEV;
   \   0000FB   7402         MOV     A,#0x2
   \   0000FD   12....       LCALL   ?Subroutine14 & 0xFFFF
   1306          
   1307                        if ( aDevice->nodeRelation == CHILD_RFD )
   1308                        {
   1309                          item->rxOnIdle = FALSE;
   1310                        }
   1311                        else
   1312                        {
   1313                          item->rxOnIdle = TRUE;
   1314                        }
   1315                      }
   \                     ??CrossCallReturnLabel_10:
   \   000100   6401         XRL     A,#0x1
   \   000102   7003         JNZ     $+5
   \   000104   02....       LJMP    ??ZDO_ProcessMgmtLqiReq_11 & 0xFFFF
   1316                      else
   1317                      {
   1318                        item->devType = ZDP_MGMT_DT_ROUTER;
   1319          
   1320                        if ( aDevice->nodeRelation == CHILD_FFD )
   1321                        {
   1322                          item->rxOnIdle = FALSE;
   1323                        }
   1324                        else
   1325                        {
   1326                          item->rxOnIdle = TRUE;
   \                     ??ZDO_ProcessMgmtLqiReq_12:
   \   000107   8C82         MOV     DPL,R4
   \   000109   8D83         MOV     DPH,R5
   \   00010B   7401         MOV     A,#0x1
   1327                        }
   \                     ??ZDO_ProcessMgmtLqiReq_13:
   \   00010D   12....       LCALL   ?Subroutine42 & 0xFFFF
   1328                      }
   1329          
   1330                      item->relation = ZDP_MGMT_REL_CHILD;
   \                     ??CrossCallReturnLabel_82:
   \   000110   7401         MOV     A,#0x1
   \                     ??ZDO_ProcessMgmtLqiReq_9:
   \   000112   F0           MOVX    @DPTR,A
   1331                    }
   1332          
   1333                    item++;
   \   000113   EE           MOV     A,R6
   \   000114   241A         ADD     A,#0x1a
   \   000116   FE           MOV     R6,A
   \   000117   5001         JNC     ??ZDO_ProcessMgmtLqiReq_14
   \   000119   0F           INC     R7
   \                     ??ZDO_ProcessMgmtLqiReq_14:
   \   00011A   05..         INC     ?V3
   \                     ??ZDO_ProcessMgmtLqiReq_3:
   \   00011C   E5..         MOV     A,?V3
   \   00011E   C3           CLR     C
   \   00011F   95..         SUBB    A,?V1
   \   000121   4003         JC      $+5
   \   000123   02....       LJMP    ??ZDO_ProcessMgmtLqiReq_15 & 0xFFFF
   \   000126   E5..         MOV     A,?V0
   \   000128   C3           CLR     C
   \   000129   95..         SUBB    A,?V2
   \   00012B   4003         JC      $+5
   \   00012D   02....       LJMP    ??ZDO_ProcessMgmtLqiReq_16 & 0xFFFF
   \   000130                ; Setup parameters for call to function AssocFindDevice
   \   000130   AA..         MOV     R2,?V0
   \   000132   7B00         MOV     R3,#0x0
   \   000134   12....       LCALL   ??AssocFindDevice?relay; Banked call to: AssocFindDevice
   \   000137   8A..         MOV     ?V6,R2
   \   000139   8B..         MOV     ?V7,R3
   \   00013B   05..         INC     ?V0
   \   00013D   90....       MOV     DPTR,#_NIB + 33
   \   000140   12....       LCALL   ?Subroutine26 & 0xFFFF
   \                     ??CrossCallReturnLabel_39:
   \   000143   12....       LCALL   ??sAddrExtCpy?relay  ; Banked call to: sAddrExtCpy
   \   000146   12....       LCALL   ?Subroutine78 & 0xFFFF
   \                     ??CrossCallReturnLabel_351:
   \   000149   EE           MOV     A,R6
   \   00014A   2412         ADD     A,#0x12
   \   00014C   F582         MOV     DPL,A
   \   00014E   E4           CLR     A
   \   00014F   3F           ADDC    A,R7
   \   000150   F583         MOV     DPH,A
   \   000152   E8           MOV     A,R0
   \   000153   F0           MOVX    @DPTR,A
   \   000154   A3           INC     DPTR
   \   000155   E9           MOV     A,R1
   \   000156   12....       LCALL   ?Subroutine23 & 0xFFFF
   \                     ??CrossCallReturnLabel_32:
   \   000159   12....       LCALL   ?Subroutine92 & 0xFFFF
   \                     ??CrossCallReturnLabel_161:
   \   00015C   74FF         MOV     A,#-0x1
   \   00015E   F0           MOVX    @DPTR,A
   \   00015F   85..82       MOV     DPL,?V6
   \   000162   85..83       MOV     DPH,?V7
   \   000165   A3           INC     DPTR
   \   000166   A3           INC     DPTR
   \   000167   A3           INC     DPTR
   \   000168   A3           INC     DPTR
   \   000169   A3           INC     DPTR
   \   00016A   A3           INC     DPTR
   \   00016B   A3           INC     DPTR
   \   00016C   A3           INC     DPTR
   \   00016D   A3           INC     DPTR
   \   00016E   A3           INC     DPTR
   \   00016F   E0           MOVX    A,@DPTR
   \   000170   C0E0         PUSH    A
   \   000172   12....       LCALL   ?Subroutine104 & 0xFFFF
   \                     ??CrossCallReturnLabel_188:
   \   000175   D0E0         POP     A
   \   000177   F0           MOVX    @DPTR,A
   \   000178   7401         MOV     A,#0x1
   \   00017A   12....       LCALL   ?XSTACK_DISP0_8
   \   00017D   E4           CLR     A
   \   00017E   F0           MOVX    @DPTR,A
   \   00017F   12....       LCALL   ?Subroutine78 & 0xFFFF
   \                     ??CrossCallReturnLabel_352:
   \   000182   7402         MOV     A,#0x2
   \   000184   12....       LCALL   ?XSTACK_DISP0_8
   \   000187   12....       LCALL   ??Subroutine143_0 & 0xFFFF
   \                     ??CrossCallReturnLabel_270:
   \   00018A   EE           MOV     A,R6
   \   00018B   240A         ADD     A,#0xa
   \   00018D   F5..         MOV     ?V10,A
   \   00018F   E4           CLR     A
   \   000190   3F           ADDC    A,R7
   \   000191   F5..         MOV     ?V11,A
   \   000193                ; Setup parameters for call to function AddrMgrEntryLookupNwk
   \   000193   7401         MOV     A,#0x1
   \   000195   12....       LCALL   ?XSTACK_DISP101_8
   \   000198   12....       LCALL   ??AddrMgrEntryLookupNwk?relay; Banked call to: AddrMgrEntryLookupNwk
   \   00019B   E9           MOV     A,R1
   \   00019C   6401         XRL     A,#0x1
   \   00019E   6003         JZ      $+5
   \   0001A0   02....       LJMP    ??ZDO_ProcessMgmtLqiReq_4 & 0xFFFF
   \   0001A3                ; Setup parameters for call to function sAddrExtCpy
   \   0001A3   7404         MOV     A,#0x4
   \   0001A5   12....       LCALL   ?XSTACK_DISP0_8
   \   0001A8   AC82         MOV     R4,DPL
   \   0001AA   AD83         MOV     R5,DPH
   \   0001AC   AA..         MOV     R2,?V10
   \   0001AE   AB..         MOV     R3,?V11
   \   0001B0   12....       LCALL   ??sAddrExtCpy?relay  ; Banked call to: sAddrExtCpy
   \   0001B3   02....       LJMP    ??ZDO_ProcessMgmtLqiReq_5 & 0xFFFF
   \                     ??ZDO_ProcessMgmtLqiReq_10:
   \   0001B6   7401         MOV     A,#0x1
   \   0001B8   12....       LCALL   ?Subroutine14 & 0xFFFF
   \                     ??CrossCallReturnLabel_11:
   \   0001BB   6403         XRL     A,#0x3
   \   0001BD   6003         JZ      $+5
   \   0001BF   02....       LJMP    ??ZDO_ProcessMgmtLqiReq_12 & 0xFFFF
   \                     ??ZDO_ProcessMgmtLqiReq_11:
   \   0001C2   8C82         MOV     DPL,R4
   \   0001C4   8D83         MOV     DPH,R5
   \   0001C6   E4           CLR     A
   \   0001C7   02....       LJMP    ??ZDO_ProcessMgmtLqiReq_13 & 0xFFFF
   1334                  }
   1335                  else
   1336                  {
   1337                    if ( StartIndex <= aItems )
   \                     ??ZDO_ProcessMgmtLqiReq_16:
   \   0001CA   E5..         MOV     A,?V2
   \   0001CC   C3           CLR     C
   \   0001CD   95..         SUBB    A,?V4
   \   0001CF   4005         JC      ??ZDO_ProcessMgmtLqiReq_17
   1338                      // Start with 1st neighbor
   1339                      index = 0;
   \   0001D1   75..00       MOV     ?V0,#0x0
   \   0001D4   801F         SJMP    ??ZDO_ProcessMgmtLqiReq_18
   1340                    else
   1341                      // Start with >1st neighbor
   1342                      index = StartIndex - aItems;
   \                     ??ZDO_ProcessMgmtLqiReq_17:
   \   0001D6   E5..         MOV     A,?V4
   \   0001D8   C3           CLR     C
   \   0001D9   95..         SUBB    A,?V2
   \   0001DB   F5..         MOV     ?V0,A
   \   0001DD   8016         SJMP    ??ZDO_ProcessMgmtLqiReq_18
   1343                    break;
   1344                  }
   1345                }
   1346          
   1347                // Loop through neighbor items and finish list
   1348                for ( ; x < numItems; x++ )
   1349                {
   1350                  // Add next neighbor table item
   1351                  NLME_GetRequest( nwkNeighborTable, index++, &entry );
   1352          
   1353                  // set ZDP_MgmtLqiItem_t fields
   1354                  item->panID    = entry.panId;
   1355                  osal_cpyExtAddr( item->extPanID, _NIB.extendedPANID );
   1356                  osal_cpyExtAddr( item->extAddr, entry.neighborExtAddr);
   1357                  item->nwkAddr  = entry.neighborAddress;
   1358                  item->rxOnIdle = ZDP_MGMT_BOOL_UNKNOWN;
   1359                  item->relation = ZDP_MGMT_REL_UNKNOWN;
   1360                  item->permit   = ZDP_MGMT_BOOL_UNKNOWN;
   1361                  item->depth    = 0xFF;
   1362                  item->lqi      = entry.linkInfo.rxLqi;
   1363          
   1364                  if ( item->nwkAddr == 0 )
   1365                  {
   1366                    item->devType = ZDP_MGMT_DT_COORD;
   1367                  }
   1368                  else
   1369                  {
   1370                    item->devType = ZDP_MGMT_DT_ROUTER;
   \                     ??ZDO_ProcessMgmtLqiReq_19:
   \   0001DF   7401         MOV     A,#0x1
   \                     ??ZDO_ProcessMgmtLqiReq_20:
   \   0001E1   F0           MOVX    @DPTR,A
   1371                  }
   1372          
   1373                  item++;
   \   0001E2   EE           MOV     A,R6
   \   0001E3   241A         ADD     A,#0x1a
   \   0001E5   FE           MOV     R6,A
   \   0001E6   5001         JNC     ??ZDO_ProcessMgmtLqiReq_21
   \   0001E8   0F           INC     R7
   \                     ??ZDO_ProcessMgmtLqiReq_21:
   \   0001E9   05..         INC     ?V3
   \                     ??ZDO_ProcessMgmtLqiReq_15:
   \   0001EB   E5..         MOV     A,?V3
   \   0001ED   C3           CLR     C
   \   0001EE   95..         SUBB    A,?V1
   \   0001F0   4003         JC      $+5
   \   0001F2   02....       LJMP    ??ZDO_ProcessMgmtLqiReq_2 & 0xFFFF
   \                     ??ZDO_ProcessMgmtLqiReq_18:
   \   0001F5                ; Setup parameters for call to function NLME_GetRequest
   \   0001F5   740E         MOV     A,#0xe
   \   0001F7   12....       LCALL   ?XSTACK_DISP102_8
   \   0001FA   AA..         MOV     R2,?V0
   \   0001FC   7B00         MOV     R3,#0x0
   \   0001FE   7987         MOV     R1,#-0x79
   \   000200   12....       LCALL   ??NLME_GetRequest?relay; Banked call to: NLME_GetRequest
   \   000203   05..         INC     ?V0
   \   000205   7418         MOV     A,#0x18
   \   000207   12....       LCALL   ?XSTACK_DISP0_8
   \   00020A   12....       LCALL   ?Subroutine26 & 0xFFFF
   \                     ??CrossCallReturnLabel_40:
   \   00020D   12....       LCALL   ??sAddrExtCpy?relay  ; Banked call to: sAddrExtCpy
   \   000210                ; Setup parameters for call to function sAddrExtCpy
   \   000210   7410         MOV     A,#0x10
   \   000212   12....       LCALL   ?XSTACK_DISP0_8
   \   000215   AC82         MOV     R4,DPL
   \   000217   AD83         MOV     R5,DPH
   \   000219   EE           MOV     A,R6
   \   00021A   240A         ADD     A,#0xa
   \   00021C   FA           MOV     R2,A
   \   00021D   E4           CLR     A
   \   00021E   3F           ADDC    A,R7
   \   00021F   FB           MOV     R3,A
   \   000220   12....       LCALL   ??sAddrExtCpy?relay  ; Banked call to: sAddrExtCpy
   \   000223   EE           MOV     A,R6
   \   000224   2412         ADD     A,#0x12
   \   000226   F8           MOV     R0,A
   \   000227   E4           CLR     A
   \   000228   3F           ADDC    A,R7
   \   000229   F9           MOV     R1,A
   \   00022A   740E         MOV     A,#0xe
   \   00022C   12....       LCALL   ?XSTACK_DISP0_8
   \   00022F   12....       LCALL   ??Subroutine149_0 & 0xFFFF
   \                     ??CrossCallReturnLabel_306:
   \   000232   8882         MOV     DPL,R0
   \   000234   8983         MOV     DPH,R1
   \   000236   12....       LCALL   ?Subroutine39 & 0xFFFF
   \                     ??CrossCallReturnLabel_68:
   \   000239   EE           MOV     A,R6
   \   00023A   2415         ADD     A,#0x15
   \   00023C   F582         MOV     DPL,A
   \   00023E   E4           CLR     A
   \   00023F   3F           ADDC    A,R7
   \   000240   F583         MOV     DPH,A
   \   000242   7402         MOV     A,#0x2
   \   000244   F0           MOVX    @DPTR,A
   \   000245   EE           MOV     A,R6
   \   000246   2416         ADD     A,#0x16
   \   000248   F582         MOV     DPL,A
   \   00024A   E4           CLR     A
   \   00024B   3F           ADDC    A,R7
   \   00024C   F583         MOV     DPH,A
   \   00024E   7403         MOV     A,#0x3
   \   000250   12....       LCALL   ?Subroutine23 & 0xFFFF
   \                     ??CrossCallReturnLabel_33:
   \   000253   F582         MOV     DPL,A
   \   000255   E4           CLR     A
   \   000256   3F           ADDC    A,R7
   \   000257   F583         MOV     DPH,A
   \   000259   74FF         MOV     A,#-0x1
   \   00025B   F0           MOVX    @DPTR,A
   \   00025C   741D         MOV     A,#0x1d
   \   00025E   12....       LCALL   ?XSTACK_DISP0_8
   \   000261   E0           MOVX    A,@DPTR
   \   000262   C0E0         PUSH    A
   \   000264   12....       LCALL   ?Subroutine104 & 0xFFFF
   \                     ??CrossCallReturnLabel_189:
   \   000267   D0E0         POP     A
   \   000269   F0           MOVX    @DPTR,A
   \   00026A   EE           MOV     A,R6
   \   00026B   2414         ADD     A,#0x14
   \   00026D   FA           MOV     R2,A
   \   00026E   E4           CLR     A
   \   00026F   3F           ADDC    A,R7
   \   000270   FB           MOV     R3,A
   \   000271   8882         MOV     DPL,R0
   \   000273   8983         MOV     DPH,R1
   \   000275   12....       LCALL   ??Subroutine148_0 & 0xFFFF
   \                     ??CrossCallReturnLabel_295:
   \   000278   8A82         MOV     DPL,R2
   \   00027A   8B83         MOV     DPH,R3
   \   00027C   6003         JZ      $+5
   \   00027E   02....       LJMP    ??ZDO_ProcessMgmtLqiReq_19 & 0xFFFF
   \   000281   E4           CLR     A
   \   000282   02....       LJMP    ??ZDO_ProcessMgmtLqiReq_20 & 0xFFFF
   1374                }
   1375              }
   1376            }
   1377            else
   1378            {
   1379              numItems = 0;
   \                     ??ZDO_ProcessMgmtLqiReq_0:
   \   000285   75..00       MOV     ?V1,#0x0
   1380            }
   1381          
   1382            // Send response
   1383            ZDP_MgmtLqiRsp( inMsg->TransSeq, &(inMsg->srcAddr), ZSuccess, maxItems,
   1384                            StartIndex, numItems, table, false );
   \                     ??ZDO_ProcessMgmtLqiReq_2:
   \   000288                ; Setup parameters for call to function ZDP_MgmtLqiRsp
   \   000288   75..00       MOV     ?V2,#0x0
   \   00028B   78..         MOV     R0,#?V2
   \   00028D   12....       LCALL   ?PUSH_XSTACK_I_ONE
   \   000290   78..         MOV     R0,#?V12
   \   000292   12....       LCALL   ?PUSH_XSTACK_I_TWO
   \   000295   78..         MOV     R0,#?V1
   \   000297   12....       LCALL   ?PUSH_XSTACK_I_ONE
   \   00029A   E5..         MOV     A,?V4
   \   00029C   F5..         MOV     ?V1,A
   \   00029E   78..         MOV     R0,#?V1
   \   0002A0   12....       LCALL   ?PUSH_XSTACK_I_ONE
   \   0002A3   7405         MOV     A,#0x5
   \   0002A5   12....       LCALL   ?XSTACK_DISP0_8
   \   0002A8   E0           MOVX    A,@DPTR
   \   0002A9   FD           MOV     R5,A
   \   0002AA   7C00         MOV     R4,#0x0
   \   0002AC   E5..         MOV     A,?V14
   \   0002AE   12....       LCALL   ??Subroutine152_0 & 0xFFFF
   \                     ??CrossCallReturnLabel_322:
   \   0002B1   35..         ADDC    A,?V15
   \   0002B3   FB           MOV     R3,A
   \   0002B4   E5..         MOV     A,?V14
   \   0002B6   12....       LCALL   ?Subroutine96 & 0xFFFF
   \                     ??CrossCallReturnLabel_172:
   \   0002B9   35..         ADDC    A,?V15
   \   0002BB   F583         MOV     DPH,A
   \   0002BD   E0           MOVX    A,@DPTR
   \   0002BE   F9           MOV     R1,A
   \   0002BF   12....       LCALL   ??ZDP_MgmtLqiRsp?relay; Banked call to: ZDP_MgmtLqiRsp
   \   0002C2   7405         MOV     A,#0x5
   \   0002C4   12....       LCALL   ?DEALLOC_XSTACK8
   1385          
   1386            if ( table )
   \   0002C7   E5..         MOV     A,?V12
   \   0002C9   45..         ORL     A,?V13
   \   0002CB   6007         JZ      ??ZDO_ProcessMgmtLqiReq_22
   1387            {
   1388              osal_mem_free( table );
   \   0002CD                ; Setup parameters for call to function osal_mem_free
   \   0002CD   AA..         MOV     R2,?V12
   \   0002CF   AB..         MOV     R3,?V13
   \   0002D1   12....       LCALL   ??osal_mem_free?relay; Banked call to: osal_mem_free
   1389            }
   1390          }
   \                     ??ZDO_ProcessMgmtLqiReq_22:
   \   0002D4   7425         MOV     A,#0x25
   \   0002D6                REQUIRE ?Subroutine5
   \   0002D6                ; // Fall through to label ?Subroutine5

   \                                 In  segment BANKED_CODE, align 1, keep-with-next
   \                     ?Subroutine104:
   \   000000   EE           MOV     A,R6
   \   000001   2419         ADD     A,#0x19
   \   000003   F582         MOV     DPL,A
   \   000005   E4           CLR     A
   \   000006   3F           ADDC    A,R7
   \   000007   F583         MOV     DPH,A
   \   000009   22           RET

   \                                 In  segment BANKED_CODE, align 1, keep-with-next
   \                     ?Subroutine26:
   \   000000   12....       LCALL   ?Subroutine121 & 0xFFFF
   \                     ??CrossCallReturnLabel_353:
   \   000003   8E82         MOV     DPL,R6
   \   000005   8F83         MOV     DPH,R7
   \   000007   E8           MOV     A,R0
   \   000008   F0           MOVX    @DPTR,A
   \   000009   A3           INC     DPTR
   \   00000A   E9           MOV     A,R1
   \   00000B   F0           MOVX    @DPTR,A
   \   00000C                ; Setup parameters for call to function sAddrExtCpy
   \   00000C                ; Setup parameters for call to function sAddrExtCpy
   \   00000C   7C..         MOV     R4,#(_NIB + 53) & 0xff
   \   00000E   7D..         MOV     R5,#((_NIB + 53) >> 8) & 0xff
   \   000010   EE           MOV     A,R6
   \   000011   2402         ADD     A,#0x2
   \   000013   FA           MOV     R2,A
   \   000014   E4           CLR     A
   \   000015   3F           ADDC    A,R7
   \   000016   FB           MOV     R3,A
   \   000017   22           RET

   \                                 In  segment BANKED_CODE, align 1, keep-with-next
   \                     ?Subroutine23:
   \   000000   F0           MOVX    @DPTR,A
   \   000001   EE           MOV     A,R6
   \   000002   2417         ADD     A,#0x17
   \   000004   F582         MOV     DPL,A
   \   000006   E4           CLR     A
   \   000007   3F           ADDC    A,R7
   \   000008   F583         MOV     DPH,A
   \   00000A   7402         MOV     A,#0x2
   \   00000C   F0           MOVX    @DPTR,A
   \   00000D   EE           MOV     A,R6
   \   00000E   2418         ADD     A,#0x18
   \   000010   22           RET

   \                                 In  segment BANKED_CODE, align 1, keep-with-next
   \                     ?Subroutine49:
   \   000000   F583         MOV     DPH,A
   \   000002                REQUIRE ??Subroutine151_0
   \   000002                ; // Fall through to label ??Subroutine151_0

   \                                 In  segment BANKED_CODE, align 1, keep-with-next
   \                     ?Subroutine96:
   \   000000   12....       LCALL   ?Subroutine126 & 0xFFFF
   \                     ??CrossCallReturnLabel_231:
   \   000003   22           RET

   \                                 In  segment BANKED_CODE, align 1, keep-with-next
   \                     ?Subroutine78:
   \   000000   85..82       MOV     DPL,?V6
   \   000003   85..83       MOV     DPH,?V7
   \   000006                REQUIRE ??Subroutine156_0
   \   000006                ; // Fall through to label ??Subroutine156_0

   \                                 In  segment BANKED_CODE, align 1, keep-with-next
   \                     ?Subroutine92:
   \   000000   F5..         MOV     ?V8,A
   \   000002   E4           CLR     A
   \   000003   3F           ADDC    A,R7
   \   000004   F5..         MOV     ?V9,A
   \   000006   85..82       MOV     DPL,?V8
   \   000009   F583         MOV     DPH,A
   \   00000B   22           RET

   \                                 In  segment BANKED_CODE, align 1, keep-with-next
   \                     ?Subroutine14:
   \   000000   F0           MOVX    @DPTR,A
   \   000001   8882         MOV     DPL,R0
   \   000003   8983         MOV     DPH,R1
   \   000005   E0           MOVX    A,@DPTR
   \   000006   22           RET
   1391          
   1392          /*********************************************************************
   1393           * @fn          ZDO_ProcessMgmtNwkDiscReq
   1394           *
   1395           * @brief       This function handles parsing the incoming Management
   1396           *              Network Discover request and starts the request.
   1397           *
   1398           * @param       inMsg - incoming message (request)
   1399           *
   1400           * @return      none
   1401           */

   \                                 In  segment BANKED_CODE, align 1, keep-with-next
   1402          void ZDO_ProcessMgmtNwkDiscReq( zdoIncomingMsg_t *inMsg )
   \                     ZDO_ProcessMgmtNwkDiscReq:
   1403          {
   \   000000                REQUIRE ?V0
   \   000000                REQUIRE ?V1
   \   000000   74F6         MOV     A,#-0xa
   \   000002   12....       LCALL   ?BANKED_ENTER_XDATA
   \   000005                ; Saved register size: 10
   \   000005                ; Auto size: 7
   \   000005   74F9         MOV     A,#-0x7
   \   000007   12....       LCALL   ?ALLOC_XSTACK8
   \   00000A   8A..         MOV     ?V0,R2
   \   00000C   8B..         MOV     ?V1,R3
   1404            NLME_ScanFields_t scan;
   1405            uint8             index;
   1406            uint8             *msg;
   1407          
   1408            msg = inMsg->asdu;
   \   00000E   12....       LCALL   ?Subroutine90 & 0xFFFF
   \                     ??CrossCallReturnLabel_157:
   \   000011   35..         ADDC    A,?V1
   \   000013   12....       LCALL   ?Subroutine65 & 0xFFFF
   1409            scan.channels = osal_build_uint32( msg, 4 );
   \                     ??CrossCallReturnLabel_110:
   \   000016   12....       LCALL   ??osal_build_uint32?relay; Banked call to: osal_build_uint32
   \   000019   EA           MOV     A,R2
   \   00001A   F8           MOV     R0,A
   \   00001B   EB           MOV     A,R3
   \   00001C   F9           MOV     R1,A
   \   00001D   EC           MOV     A,R4
   \   00001E   FA           MOV     R2,A
   \   00001F   ED           MOV     A,R5
   \   000020   FB           MOV     R3,A
   \   000021   85..82       MOV     DPL,?XSP + 0
   \   000024   85..83       MOV     DPH,?XSP + 1
   \   000027   12....       LCALL   ?XSTORE_R0123
   1410            msg += 4;
   \   00002A   EE           MOV     A,R6
   \   00002B   2404         ADD     A,#0x4
   \   00002D   FE           MOV     R6,A
   \   00002E   5001         JNC     ??ZDO_ProcessMgmtNwkDiscReq_0
   \   000030   0F           INC     R7
   1411            scan.duration = *msg++;
   \                     ??ZDO_ProcessMgmtNwkDiscReq_0:
   \   000031   8E82         MOV     DPL,R6
   \   000033   8F83         MOV     DPH,R7
   \   000035   E0           MOVX    A,@DPTR
   \   000036   C0E0         PUSH    A
   \   000038   7404         MOV     A,#0x4
   \   00003A   12....       LCALL   ?XSTACK_DISP0_8
   \   00003D   D0E0         POP     A
   \   00003F   12....       LCALL   ?Subroutine35 & 0xFFFF
   1412            index         = *msg;
   \                     ??CrossCallReturnLabel_55:
   \   000042   E0           MOVX    A,@DPTR
   \   000043   F8           MOV     R0,A
   1413            scan.scanType = ZMAC_ACTIVE_SCAN;
   \   000044   7405         MOV     A,#0x5
   \   000046   12....       LCALL   ?XSTACK_DISP0_8
   \   000049   7401         MOV     A,#0x1
   \   00004B   F0           MOVX    @DPTR,A
   1414            scan.scanApp  = NLME_DISC_SCAN;
   \   00004C   7406         MOV     A,#0x6
   \   00004E   12....       LCALL   ?XSTACK_DISP0_8
   \   000051   7401         MOV     A,#0x1
   \   000053   F0           MOVX    @DPTR,A
   1415          
   1416            // Save off the information to be used for the response
   1417            zdappMgmtNwkDiscReqInProgress          = true;
   \   000054   90....       MOV     DPTR,#zdappMgmtNwkDiscReqInProgress
   \   000057   F0           MOVX    @DPTR,A
   1418            zdappMgmtNwkDiscRspAddr.addrMode       = Addr16Bit;
   \   000058   90....       MOV     DPTR,#zdappMgmtNwkDiscRspAddr + 8
   \   00005B   04           INC     A
   \   00005C   F0           MOVX    @DPTR,A
   1419            zdappMgmtNwkDiscRspAddr.addr.shortAddr = inMsg->srcAddr.addr.shortAddr;
   \   00005D   85..82       MOV     DPL,?V0
   \   000060   85..83       MOV     DPH,?V1
   \   000063   A3           INC     DPTR
   \   000064   A3           INC     DPTR
   \   000065   12....       LCALL   ??Subroutine149_0 & 0xFFFF
   \                     ??CrossCallReturnLabel_307:
   \   000068   90....       MOV     DPTR,#zdappMgmtNwkDiscRspAddr
   \   00006B   12....       LCALL   ?Subroutine39 & 0xFFFF
   1420            zdappMgmtNwkDiscStartIndex             = index;
   \                     ??CrossCallReturnLabel_69:
   \   00006E   E8           MOV     A,R0
   \   00006F   90....       MOV     DPTR,#zdappMgmtNwkDiscStartIndex
   \   000072   F0           MOVX    @DPTR,A
   1421            zdappMgmtNwkDiscRspTransSeq            = inMsg->TransSeq;
   \   000073   12....       LCALL   ?Subroutine95 & 0xFFFF
   \                     ??CrossCallReturnLabel_170:
   \   000076   E0           MOVX    A,@DPTR
   \   000077   90....       MOV     DPTR,#zdappMgmtNwkDiscRspTransSeq
   \   00007A   F0           MOVX    @DPTR,A
   1422          
   1423            if ( NLME_NwkDiscReq2( &scan ) != ZSuccess )
   \   00007B                ; Setup parameters for call to function NLME_NwkDiscReq2
   \   00007B   AA..         MOV     R2,?XSP + 0
   \   00007D   AB..         MOV     R3,?XSP + 1
   \   00007F   12....       LCALL   ??NLME_NwkDiscReq2?relay; Banked call to: NLME_NwkDiscReq2
   \   000082   E9           MOV     A,R1
   \   000083   6003         JZ      ??ZDO_ProcessMgmtNwkDiscReq_1
   1424            {
   1425              NLME_NwkDiscTerm();
   \   000085                ; Setup parameters for call to function NLME_NwkDiscTerm
   \   000085   12....       LCALL   ??NLME_NwkDiscTerm?relay; Banked call to: NLME_NwkDiscTerm
   1426          
   1427              // zdappMgmtNwkDiscReqInProgress will be reset in the confirm callback
   1428            }
   1429          }
   \                     ??ZDO_ProcessMgmtNwkDiscReq_1:
   \   000088   7407         MOV     A,#0x7
   \   00008A   02....       LJMP    ??Subroutine140_0 & 0xFFFF

   \                                 In  segment BANKED_CODE, align 1, keep-with-next
   \                     ?Subroutine35:
   \   000000   12....       LCALL   ?Subroutine131 & 0xFFFF
   \                     ??CrossCallReturnLabel_237:
   \   000003   22           RET

   \                                 In  segment BANKED_CODE, align 1, keep-with-next
   \                     ?Subroutine131:
   \   000000   F0           MOVX    @DPTR,A
   \   000001   8E82         MOV     DPL,R6
   \   000003   8F83         MOV     DPH,R7
   \   000005   A3           INC     DPTR
   \   000006   22           RET

   \                                 In  segment BANKED_CODE, align 1, keep-with-next
   \                     ?Subroutine95:
   \   000000   E5..         MOV     A,?V0
   \   000002   12....       LCALL   ?Subroutine126 & 0xFFFF
   \                     ??CrossCallReturnLabel_230:
   \   000005   35..         ADDC    A,?V1
   \   000007   F583         MOV     DPH,A
   \   000009   22           RET

   \                                 In  segment BANKED_CODE, align 1, keep-with-next
   \                     ?Subroutine65:
   \   000000   F583         MOV     DPH,A
   \   000002   12....       LCALL   ?Subroutine122 & 0xFFFF
   \                     ??CrossCallReturnLabel_220:
   \   000005                ; Setup parameters for call to function osal_build_uint32
   \   000005                ; Setup parameters for call to function osal_build_uint32
   \   000005   7904         MOV     R1,#0x4
   \   000007   EE           MOV     A,R6
   \   000008   FA           MOV     R2,A
   \   000009   EF           MOV     A,R7
   \   00000A   FB           MOV     R3,A
   \   00000B   22           RET
   1430          
   1431          #if defined ( ZDO_MGMT_NWKDISC_RESPONSE )
   1432          /*********************************************************************
   1433           * @fn          ZDO_FinishProcessingMgmtNwkDiscReq
   1434           *
   1435           * @brief       This function finishes the processing of the Management
   1436           *              Network Discover Request and generates the response.
   1437           *
   1438           *   Note:      This function will limit the number of items returned
   1439           *              to ZDO_MAX_NWKDISC_ITEMS items.
   1440           *
   1441           * @param       ResultCountSrcAddr - source of the request
   1442           * @param       msg - pointer to incoming message
   1443           * @param       SecurityUse -
   1444           *
   1445           * @return      none
   1446           */
   1447          void ZDO_FinishProcessingMgmtNwkDiscReq( void )
   1448          {
   1449            byte count, i, ResultCount = 0;
   1450            networkDesc_t *newDesc = NULL, *pList, *NetworkList;
   1451          
   1452            NetworkList = nwk_getNwkDescList();
   1453          
   1454            // Count the number of nwk descriptors in the list
   1455            pList = nwk_getNwkDescList();
   1456            while (pList)
   1457            {
   1458              ResultCount++;
   1459              pList = pList->nextDesc;
   1460            }
   1461          
   1462            if ( ZSTACK_ROUTER_BUILD )
   1463            {
   1464              // Look for my PanID.
   1465              pList = nwk_getNwkDescList();
   1466              while ( pList )
   1467              {
   1468                if ( pList->panId == _NIB.nwkPanId )
   1469                {
   1470                  break;
   1471                }
   1472          
   1473          
   1474                if ( !pList->nextDesc )
   1475                {
   1476                  break;
   1477                }
   1478                pList = pList->nextDesc;
   1479              }
   1480          
   1481          
   1482              // If my Pan not present (query to a star network ZC or an isolated ZR?),
   1483              // prepend it.
   1484              if ( !pList || (pList->panId != _NIB.nwkPanId) )
   1485              {
   1486                newDesc = (networkDesc_t *)osal_mem_alloc( sizeof( networkDesc_t ) );
   1487                if ( newDesc )
   1488                {
   1489                  byte pJoin;
   1490          
   1491                  newDesc->panId = _NIB.nwkPanId;
   1492                  newDesc->logicalChannel = _NIB.nwkLogicalChannel;
   1493                  newDesc->version = NLME_GetProtocolVersion();
   1494                  newDesc->stackProfile = zgStackProfile;
   1495          
   1496                  //Extended PanID
   1497                  osal_cpyExtAddr( newDesc->extendedPANID, _NIB.extendedPANID);
   1498          
   1499                  ZMacGetReq( ZMacAssociationPermit, &pJoin );
   1500                  newDesc->chosenRouter = ((pJoin) ? ZDAppNwkAddr.addr.shortAddr :
   1501                                                     INVALID_NODE_ADDR);
   1502          
   1503                  newDesc->nextDesc = NetworkList;
   1504                  NetworkList = newDesc;
   1505                  ResultCount++;
   1506                }
   1507              }
   1508            }
   1509          
   1510            // Calc the count and apply a max count.
   1511            if ( zdappMgmtNwkDiscStartIndex > ResultCount )
   1512            {
   1513              count = 0;
   1514            }
   1515            else
   1516            {
   1517              count = ResultCount - zdappMgmtNwkDiscStartIndex;
   1518              if ( count > ZDO_MAX_NWKDISC_ITEMS )
   1519              {
   1520                count = ZDO_MAX_NWKDISC_ITEMS;
   1521              }
   1522          
   1523              // Move the list pointer up to the start index.
   1524              for ( i = 0; i < zdappMgmtNwkDiscStartIndex; i++ )
   1525              {
   1526                NetworkList = NetworkList->nextDesc;
   1527              }
   1528            }
   1529          
   1530            ZDP_MgmtNwkDiscRsp( zdappMgmtNwkDiscRspTransSeq,
   1531                               &zdappMgmtNwkDiscRspAddr, ZSuccess, ResultCount,
   1532                                zdappMgmtNwkDiscStartIndex,
   1533                                count,
   1534                                NetworkList,
   1535                                false );
   1536          
   1537            if ( ZSTACK_ROUTER_BUILD )
   1538            {
   1539              if ( newDesc != NULL )
   1540              {
   1541                osal_mem_free( newDesc );
   1542              }
   1543            }
   1544          
   1545            NLME_NwkDiscTerm();
   1546          }
   1547          #endif
   1548          
   1549          /*********************************************************************
   1550           * @fn          ZDO_ProcessMgmtRtgReq
   1551           *
   1552           * @brief       This function finishes the processing of the Management
   1553           *              Routing Request and generates the response.
   1554           *
   1555           *   Note:      This function will limit the number of items returned
   1556           *              to ZDO_MAX_RTG_ITEMS items.
   1557           *
   1558           * @param       inMsg - incoming message (request)
   1559           *
   1560           * @return      none
   1561           */

   \                                 In  segment BANKED_CODE, align 1, keep-with-next
   1562          void ZDO_ProcessMgmtRtgReq( zdoIncomingMsg_t *inMsg )
   \                     ZDO_ProcessMgmtRtgReq:
   1563          {
   \   000000                REQUIRE ?V0
   \   000000                REQUIRE ?V1
   \   000000                REQUIRE ?V2
   \   000000                REQUIRE ?V3
   \   000000                REQUIRE ?V4
   \   000000                REQUIRE ?V6
   \   000000                REQUIRE ?V7
   \   000000   74F0         MOV     A,#-0x10
   \   000002   12....       LCALL   ?BANKED_ENTER_XDATA
   \   000005                ; Saved register size: 16
   \   000005                ; Auto size: 1
   \   000005   74FF         MOV     A,#-0x1
   \   000007   12....       LCALL   ?ALLOC_XSTACK8
   \   00000A   8A..         MOV     ?V2,R2
   \   00000C   8B..         MOV     ?V3,R3
   1564            byte x;
   1565            byte maxNumItems;
   1566            byte numItems = 0;
   \   00000E   7E00         MOV     R6,#0x0
   1567            uint8 *pBuf = NULL;
   \   000010   8E..         MOV     ?V6,R6
   \   000012   8E..         MOV     ?V7,R6
   1568            rtgItem_t *pList;
   1569            uint8 StartIndex = inMsg->asdu[0];
   \   000014   12....       LCALL   ?Subroutine90 & 0xFFFF
   \                     ??CrossCallReturnLabel_158:
   \   000017   35..         ADDC    A,?V3
   \   000019   12....       LCALL   ?Subroutine49 & 0xFFFF
   \                     ??CrossCallReturnLabel_316:
   \   00001C   FF           MOV     R7,A
   1570          
   1571            // Get the number of table items
   1572            NLME_GetRequest( nwkNumRoutingTableEntries, 0, &maxNumItems );
   \   00001D                ; Setup parameters for call to function NLME_GetRequest
   \   00001D   AC..         MOV     R4,?XSP + 0
   \   00001F   AD..         MOV     R5,?XSP + 1
   \   000021   7A00         MOV     R2,#0x0
   \   000023   7B00         MOV     R3,#0x0
   \   000025   799D         MOV     R1,#-0x63
   \   000027   12....       LCALL   ??NLME_GetRequest?relay; Banked call to: NLME_GetRequest
   1573          
   1574            if ( maxNumItems > StartIndex )
   \   00002A   85..82       MOV     DPL,?XSP + 0
   \   00002D   85..83       MOV     DPH,?XSP + 1
   \   000030   E0           MOVX    A,@DPTR
   \   000031   F8           MOV     R0,A
   \   000032   EF           MOV     A,R7
   \   000033   C3           CLR     C
   \   000034   98           SUBB    A,R0
   \   000035   506E         JNC     ??ZDO_ProcessMgmtRtgReq_0
   1575            {
   1576              numItems = maxNumItems - StartIndex;    // Start at the passed in index
   \   000037   E0           MOVX    A,@DPTR
   \   000038   C3           CLR     C
   \   000039   9F           SUBB    A,R7
   \   00003A   FE           MOV     R6,A
   1577          
   1578              // limit the size of the list
   1579              if ( numItems > ZDO_MAX_RTG_ITEMS )
   \   00003B   C3           CLR     C
   \   00003C   940B         SUBB    A,#0xb
   \   00003E   4002         JC      ??ZDO_ProcessMgmtRtgReq_1
   1580              {
   1581                numItems = ZDO_MAX_RTG_ITEMS;
   \   000040   7E0A         MOV     R6,#0xa
   1582              }
   1583          
   1584              // Allocate the memory to build the table
   1585              pBuf = osal_mem_alloc( (short)(sizeof( rtgItem_t ) * numItems) );
   \                     ??ZDO_ProcessMgmtRtgReq_1:
   \   000042                ; Setup parameters for call to function osal_mem_alloc
   \   000042   EE           MOV     A,R6
   \   000043   75F007       MOV     B,#0x7
   \   000046   A4           MUL     AB
   \   000047   FA           MOV     R2,A
   \   000048   ABF0         MOV     R3,B
   \   00004A   12....       LCALL   ??osal_mem_alloc?relay; Banked call to: osal_mem_alloc
   \   00004D   8A..         MOV     ?V0,R2
   \   00004F   8B..         MOV     ?V1,R3
   \   000051   8A..         MOV     ?V6,R2
   \   000053   8B..         MOV     ?V7,R3
   1586          
   1587              if ( pBuf != NULL )
   \   000055   EA           MOV     A,R2
   \   000056   45..         ORL     A,?V7
   \   000058   6049         JZ      ??ZDO_ProcessMgmtRtgReq_2
   1588              {
   1589                // Convert buffer to list
   1590                pList = (rtgItem_t *)pBuf;
   1591          
   1592                // Loop through items and build list
   1593                for ( x = 0; x < numItems; x++ )
   \   00005A   75..00       MOV     ?V4,#0x0
   \   00005D   800F         SJMP    ??ZDO_ProcessMgmtRtgReq_3
   1594                {
   1595                  NLME_GetRequest( nwkRoutingTable, (uint16)(x + StartIndex), (void*)pList );
   1596          
   1597                  // Remap the status to the RoutingTableList Record Format defined in the ZigBee spec
   1598                  switch( pList->status )
   1599                  {
   1600                    case RT_ACTIVE:
   1601                      pList->status = ZDO_MGMT_RTG_ENTRY_ACTIVE;
   1602                      break;
   1603          
   1604                    case RT_DISC:
   1605                      pList->status = ZDO_MGMT_RTG_ENTRY_DISCOVERY_UNDERWAY;
   1606                      break;
   1607          
   1608                    case RT_LINK_FAIL:
   1609                      pList->status = ZDO_MGMT_RTG_ENTRY_DISCOVERY_FAILED;
   1610                      break;
   1611          
   1612                    case RT_INIT:
   1613                    case RT_REPAIR:
   1614                    default:
   1615                      pList->status = ZDO_MGMT_RTG_ENTRY_INACTIVE;
   \                     ??ZDO_ProcessMgmtRtgReq_4:
   \   00005F   7403         MOV     A,#0x3
   \                     ??ZDO_ProcessMgmtRtgReq_5:
   \   000061   F0           MOVX    @DPTR,A
   1616                      break;
   1617                  }
   1618          
   1619                  // Increment pointer to next record
   1620                  pList++;
   \   000062   E5..         MOV     A,?V0
   \   000064   2407         ADD     A,#0x7
   \   000066   F5..         MOV     ?V0,A
   \   000068   5002         JNC     ??ZDO_ProcessMgmtRtgReq_6
   \   00006A   05..         INC     ?V1
   \                     ??ZDO_ProcessMgmtRtgReq_6:
   \   00006C   05..         INC     ?V4
   \                     ??ZDO_ProcessMgmtRtgReq_3:
   \   00006E   E5..         MOV     A,?V4
   \   000070   C3           CLR     C
   \   000071   9E           SUBB    A,R6
   \   000072   5031         JNC     ??ZDO_ProcessMgmtRtgReq_0
   \   000074                ; Setup parameters for call to function NLME_GetRequest
   \   000074   AC..         MOV     R4,?V0
   \   000076   AD..         MOV     R5,?V1
   \   000078   E5..         MOV     A,?V4
   \   00007A   2F           ADD     A,R7
   \   00007B   FA           MOV     R2,A
   \   00007C   E4           CLR     A
   \   00007D   3400         ADDC    A,#0x0
   \   00007F   FB           MOV     R3,A
   \   000080   798B         MOV     R1,#-0x75
   \   000082   12....       LCALL   ??NLME_GetRequest?relay; Banked call to: NLME_GetRequest
   \   000085   E5..         MOV     A,?V0
   \   000087   2405         ADD     A,#0x5
   \   000089   12....       LCALL   ??Subroutine158_0 & 0xFFFF
   \                     ??CrossCallReturnLabel_363:
   \   00008C   E0           MOVX    A,@DPTR
   \   00008D   14           DEC     A
   \   00008E   6008         JZ      ??ZDO_ProcessMgmtRtgReq_7
   \   000090   14           DEC     A
   \   000091   6008         JZ      ??ZDO_ProcessMgmtRtgReq_8
   \   000093   14           DEC     A
   \   000094   6009         JZ      ??ZDO_ProcessMgmtRtgReq_9
   \   000096   80C7         SJMP    ??ZDO_ProcessMgmtRtgReq_4
   \                     ??ZDO_ProcessMgmtRtgReq_7:
   \   000098   E4           CLR     A
   \   000099   80C6         SJMP    ??ZDO_ProcessMgmtRtgReq_5
   \                     ??ZDO_ProcessMgmtRtgReq_8:
   \   00009B   7401         MOV     A,#0x1
   \   00009D   80C2         SJMP    ??ZDO_ProcessMgmtRtgReq_5
   \                     ??ZDO_ProcessMgmtRtgReq_9:
   \   00009F   7402         MOV     A,#0x2
   \   0000A1   80BE         SJMP    ??ZDO_ProcessMgmtRtgReq_5
   1621                }
   1622              }
   1623              else
   1624              {
   1625                numItems = 0;
   \                     ??ZDO_ProcessMgmtRtgReq_2:
   \   0000A3   7E00         MOV     R6,#0x0
   1626              }
   1627            }
   1628          
   1629            // Send response
   1630            ZDP_MgmtRtgRsp( inMsg->TransSeq, &(inMsg->srcAddr), ZSuccess, maxNumItems, StartIndex, numItems,
   1631                                  (rtgItem_t *)pBuf, false );
   \                     ??ZDO_ProcessMgmtRtgReq_0:
   \   0000A5                ; Setup parameters for call to function ZDP_MgmtRtgRsp
   \   0000A5   75..00       MOV     ?V0,#0x0
   \   0000A8   78..         MOV     R0,#?V0
   \   0000AA   12....       LCALL   ?PUSH_XSTACK_I_ONE
   \   0000AD   78..         MOV     R0,#?V6
   \   0000AF   12....       LCALL   ?PUSH_XSTACK_I_TWO
   \   0000B2   EE           MOV     A,R6
   \   0000B3   F5..         MOV     ?V0,A
   \   0000B5   78..         MOV     R0,#?V0
   \   0000B7   12....       LCALL   ?PUSH_XSTACK_I_ONE
   \   0000BA   EF           MOV     A,R7
   \   0000BB   F5..         MOV     ?V0,A
   \   0000BD   78..         MOV     R0,#?V0
   \   0000BF   12....       LCALL   ?PUSH_XSTACK_I_ONE
   \   0000C2   7405         MOV     A,#0x5
   \   0000C4   12....       LCALL   ?XSTACK_DISP0_8
   \   0000C7   E0           MOVX    A,@DPTR
   \   0000C8   FD           MOV     R5,A
   \   0000C9   7C00         MOV     R4,#0x0
   \   0000CB   E5..         MOV     A,?V2
   \   0000CD   12....       LCALL   ??Subroutine152_0 & 0xFFFF
   \                     ??CrossCallReturnLabel_323:
   \   0000D0   35..         ADDC    A,?V3
   \   0000D2   FB           MOV     R3,A
   \   0000D3   E5..         MOV     A,?V2
   \   0000D5   12....       LCALL   ?Subroutine96 & 0xFFFF
   \                     ??CrossCallReturnLabel_173:
   \   0000D8   12....       LCALL   ??Subroutine142_0 & 0xFFFF
   \                     ??CrossCallReturnLabel_256:
   \   0000DB   E0           MOVX    A,@DPTR
   \   0000DC   F9           MOV     R1,A
   \   0000DD   12....       LCALL   ??ZDP_MgmtRtgRsp?relay; Banked call to: ZDP_MgmtRtgRsp
   \   0000E0   7405         MOV     A,#0x5
   \   0000E2   12....       LCALL   ?DEALLOC_XSTACK8
   1632          
   1633            if ( pBuf != NULL )
   \   0000E5   E5..         MOV     A,?V6
   \   0000E7   45..         ORL     A,?V7
   \   0000E9   6007         JZ      ??ZDO_ProcessMgmtRtgReq_10
   1634            {
   1635              osal_mem_free( pBuf );
   \   0000EB                ; Setup parameters for call to function osal_mem_free
   \   0000EB   AA..         MOV     R2,?V6
   \   0000ED   AB..         MOV     R3,?V7
   \   0000EF   12....       LCALL   ??osal_mem_free?relay; Banked call to: osal_mem_free
   1636            }
   1637          }
   \                     ??ZDO_ProcessMgmtRtgReq_10:
   \   0000F2   7401         MOV     A,#0x1
   \   0000F4                REQUIRE ?Subroutine9
   \   0000F4                ; // Fall through to label ?Subroutine9

   \                                 In  segment BANKED_CODE, align 1, keep-with-next
   \                     ?Subroutine9:
   \   000000   12....       LCALL   ?DEALLOC_XSTACK8
   \   000003   02....       LJMP    ??Subroutine155_0 & 0xFFFF

   \                                 In  segment BANKED_CODE, align 1, keep-with-next
   \                     ??Subroutine155_0:
   \   000000   7F08         MOV     R7,#0x8
   \   000002   02....       LJMP    ?BANKED_LEAVE_XDATA

   \                                 In  segment BANKED_CODE, align 1, keep-with-next
   \                     ??Subroutine158_0:
   \   000000   F582         MOV     DPL,A
   \   000002   E4           CLR     A
   \   000003                REQUIRE ??Subroutine159_0
   \   000003                ; // Fall through to label ??Subroutine159_0

   \                                 In  segment BANKED_CODE, align 1, keep-with-next
   \                     ??Subroutine159_0:
   \   000000   35..         ADDC    A,?V1
   \   000002   F583         MOV     DPH,A
   \   000004   22           RET
   1638          
   1639          /*********************************************************************
   1640           * @fn          ZDO_ProcessMgmtBindReq
   1641           *
   1642           * @brief       This function finishes the processing of the Management
   1643           *              Bind Request and generates the response.
   1644           *
   1645           *   Note:      This function will limit the number of items returned
   1646           *              to ZDO_MAX_BIND_ITEMS items.
   1647           *
   1648           * @param       inMsg - incoming message (request)
   1649           *
   1650           * @return      none
   1651           */

   \                                 In  segment BANKED_CODE, align 1, keep-with-next
   1652          void ZDO_ProcessMgmtBindReq( zdoIncomingMsg_t *inMsg )
   \                     ZDO_ProcessMgmtBindReq:
   1653          {
   \   000000                REQUIRE ?V0
   \   000000                REQUIRE ?V1
   \   000000                REQUIRE ?V2
   \   000000                REQUIRE ?V3
   \   000000                REQUIRE ?V4
   \   000000                REQUIRE ?V5
   \   000000                REQUIRE ?V6
   \   000000                REQUIRE ?V8
   \   000000                REQUIRE ?V9
   \   000000   74EE         MOV     A,#-0x12
   \   000002   12....       LCALL   ?BANKED_ENTER_XDATA
   \   000005                ; Saved register size: 18
   \   000005                ; Auto size: 2
   \   000005   74FE         MOV     A,#-0x2
   \   000007   12....       LCALL   ?ALLOC_XSTACK8
   \   00000A   8A..         MOV     ?V4,R2
   \   00000C   8B..         MOV     ?V5,R3
   1654          #if defined ( REFLECTOR )
   1655            byte x;
   1656            uint16 maxNumItems;
   1657            uint16 numItems;
   1658            uint8 *pBuf = NULL;
   \   00000E   75..00       MOV     ?V8,#0x0
   \   000011   75..00       MOV     ?V9,#0x0
   1659            apsBindingItem_t *pList;
   1660            uint8 StartIndex = inMsg->asdu[0];
   \   000014   12....       LCALL   ?Subroutine90 & 0xFFFF
   \                     ??CrossCallReturnLabel_159:
   \   000017   35..         ADDC    A,?V5
   \   000019   12....       LCALL   ?Subroutine49 & 0xFFFF
   \                     ??CrossCallReturnLabel_317:
   \   00001C   F5..         MOV     ?V2,A
   1661            uint8 status;
   1662          
   1663            // Get the number of table items
   1664            APSME_GetRequest( apsNumBindingTableEntries, 0, (byte*)(&maxNumItems) );
   \   00001E                ; Setup parameters for call to function APSME_GetRequest
   \   00001E   AC..         MOV     R4,?XSP + 0
   \   000020   AD..         MOV     R5,?XSP + 1
   \   000022   7A00         MOV     R2,#0x0
   \   000024   7B00         MOV     R3,#0x0
   \   000026   79A3         MOV     R1,#-0x5d
   \   000028   12....       LCALL   ??APSME_GetRequest?relay; Banked call to: APSME_GetRequest
   1665          
   1666            if ( maxNumItems > StartIndex )
   \   00002B   A8..         MOV     R0,?V2
   \   00002D   12....       LCALL   ?Subroutine73 & 0xFFFF
   \                     ??CrossCallReturnLabel_309:
   \   000030   C3           CLR     C
   \   000031   E8           MOV     A,R0
   \   000032   9A           SUBB    A,R2
   \   000033   E4           CLR     A
   \   000034   9B           SUBB    A,R3
   \   000035   5074         JNC     ??ZDO_ProcessMgmtBindReq_0
   1667            {
   1668              numItems = maxNumItems - StartIndex;    // Start at the passed in index
   \   000037   85..82       MOV     DPL,?XSP + 0
   \   00003A   85..83       MOV     DPH,?XSP + 1
   \   00003D   E0           MOVX    A,@DPTR
   \   00003E   C3           CLR     C
   \   00003F   98           SUBB    A,R0
   \   000040   FE           MOV     R6,A
   \   000041   A3           INC     DPTR
   \   000042   E0           MOVX    A,@DPTR
   \   000043   9400         SUBB    A,#0x0
   \   000045   FF           MOV     R7,A
   1669            }
   1670            else
   1671            {
   1672              numItems = 0;
   1673            }
   1674          
   1675            // limit the size of the list
   1676            if ( numItems > ZDO_MAX_BIND_ITEMS )
   \   000046   C3           CLR     C
   \   000047   EE           MOV     A,R6
   \   000048   9404         SUBB    A,#0x4
   \   00004A   EF           MOV     A,R7
   \   00004B   9400         SUBB    A,#0x0
   \   00004D   4006         JC      ??ZDO_ProcessMgmtBindReq_1
   1677            {
   1678              numItems = ZDO_MAX_BIND_ITEMS;
   \   00004F   7E03         MOV     R6,#0x3
   \   000051   7F00         MOV     R7,#0x0
   \   000053   8004         SJMP    ??ZDO_ProcessMgmtBindReq_2
   1679            }
   1680          
   1681            // Allocate the memory to build the table
   1682            if ( numItems && (pBuf = osal_mem_alloc( sizeof( apsBindingItem_t ) * numItems )) )
   \                     ??ZDO_ProcessMgmtBindReq_1:
   \   000055   EE           MOV     A,R6
   \   000056   4F           ORL     A,R7
   \   000057   6052         JZ      ??ZDO_ProcessMgmtBindReq_0
   \                     ??ZDO_ProcessMgmtBindReq_2:
   \   000059                ; Setup parameters for call to function osal_mem_alloc
   \   000059   EE           MOV     A,R6
   \   00005A   FA           MOV     R2,A
   \   00005B   EF           MOV     A,R7
   \   00005C   FB           MOV     R3,A
   \   00005D   EA           MOV     A,R2
   \   00005E   75F015       MOV     B,#0x15
   \   000061   A4           MUL     AB
   \   000062   FA           MOV     R2,A
   \   000063   A8F0         MOV     R0,B
   \   000065   75F015       MOV     B,#0x15
   \   000068   EB           MOV     A,R3
   \   000069   A4           MUL     AB
   \   00006A   28           ADD     A,R0
   \   00006B   FB           MOV     R3,A
   \   00006C   12....       LCALL   ??osal_mem_alloc?relay; Banked call to: osal_mem_alloc
   \   00006F   8A..         MOV     ?V0,R2
   \   000071   8B..         MOV     ?V1,R3
   \   000073   8A..         MOV     ?V8,R2
   \   000075   8B..         MOV     ?V9,R3
   \   000077   EA           MOV     A,R2
   \   000078   45..         ORL     A,?V9
   \   00007A   602F         JZ      ??ZDO_ProcessMgmtBindReq_0
   1683            {
   1684              status = ZSuccess;
   \   00007C   75..00       MOV     ?V3,#0x0
   1685          
   1686              // Convert buffer to list
   1687              pList = (apsBindingItem_t *)pBuf;
   1688          
   1689              // Loop through items and build list
   1690              for ( x = 0; x < numItems; x++ )
   \   00007F   75..00       MOV     ?V6,#0x0
   \                     ??ZDO_ProcessMgmtBindReq_3:
   \   000082   C3           CLR     C
   \   000083   E5..         MOV     A,?V6
   \   000085   9E           SUBB    A,R6
   \   000086   E4           CLR     A
   \   000087   9F           SUBB    A,R7
   \   000088   5026         JNC     ??ZDO_ProcessMgmtBindReq_4
   1691              {
   1692                APSME_GetRequest( apsBindingTable, (x + StartIndex), (void*)pList );
   \   00008A                ; Setup parameters for call to function APSME_GetRequest
   \   00008A   AC..         MOV     R4,?V0
   \   00008C   AD..         MOV     R5,?V1
   \   00008E   A8..         MOV     R0,?V2
   \   000090   E5..         MOV     A,?V6
   \   000092   28           ADD     A,R0
   \   000093   FA           MOV     R2,A
   \   000094   E4           CLR     A
   \   000095   3400         ADDC    A,#0x0
   \   000097   FB           MOV     R3,A
   \   000098   79A2         MOV     R1,#-0x5e
   \   00009A   12....       LCALL   ??APSME_GetRequest?relay; Banked call to: APSME_GetRequest
   1693                pList++;
   \   00009D   E5..         MOV     A,?V0
   \   00009F   2415         ADD     A,#0x15
   \   0000A1   F5..         MOV     ?V0,A
   \   0000A3   5002         JNC     ??ZDO_ProcessMgmtBindReq_5
   \   0000A5   05..         INC     ?V1
   1694              }
   \                     ??ZDO_ProcessMgmtBindReq_5:
   \   0000A7   05..         INC     ?V6
   \   0000A9   80D7         SJMP    ??ZDO_ProcessMgmtBindReq_3
   1695          
   1696            }
   1697            else
   1698            {
   1699              status = ZDP_NOT_PERMITTED;
   \                     ??ZDO_ProcessMgmtBindReq_0:
   \   0000AB   75..8B       MOV     ?V3,#-0x75
   1700              numItems = 0;
   \   0000AE   7E00         MOV     R6,#0x0
   1701            }
   1702          
   1703            // Send response
   1704            ZDP_MgmtBindRsp( inMsg->TransSeq, &(inMsg->srcAddr), status, (byte)maxNumItems, StartIndex,
   1705                             (byte)numItems, (apsBindingItem_t *)pBuf, false );
   \                     ??ZDO_ProcessMgmtBindReq_4:
   \   0000B0                ; Setup parameters for call to function ZDP_MgmtBindRsp
   \   0000B0   75..00       MOV     ?V0,#0x0
   \   0000B3   78..         MOV     R0,#?V0
   \   0000B5   12....       LCALL   ?PUSH_XSTACK_I_ONE
   \   0000B8   78..         MOV     R0,#?V8
   \   0000BA   12....       LCALL   ?PUSH_XSTACK_I_TWO
   \   0000BD   EE           MOV     A,R6
   \   0000BE   F5..         MOV     ?V0,A
   \   0000C0   78..         MOV     R0,#?V0
   \   0000C2   12....       LCALL   ?PUSH_XSTACK_I_ONE
   \   0000C5   E5..         MOV     A,?V2
   \   0000C7   F5..         MOV     ?V0,A
   \   0000C9   78..         MOV     R0,#?V0
   \   0000CB   12....       LCALL   ?PUSH_XSTACK_I_ONE
   \   0000CE   7405         MOV     A,#0x5
   \   0000D0   12....       LCALL   ?XSTACK_DISP0_8
   \   0000D3   E0           MOVX    A,@DPTR
   \   0000D4   FD           MOV     R5,A
   \   0000D5   AC..         MOV     R4,?V3
   \   0000D7   E5..         MOV     A,?V4
   \   0000D9   12....       LCALL   ??Subroutine152_0 & 0xFFFF
   \                     ??CrossCallReturnLabel_324:
   \   0000DC   35..         ADDC    A,?V5
   \   0000DE   FB           MOV     R3,A
   \   0000DF   E5..         MOV     A,?V4
   \   0000E1   12....       LCALL   ?Subroutine96 & 0xFFFF
   \                     ??CrossCallReturnLabel_174:
   \   0000E4   35..         ADDC    A,?V5
   \   0000E6   F583         MOV     DPH,A
   \   0000E8   E0           MOVX    A,@DPTR
   \   0000E9   F9           MOV     R1,A
   \   0000EA   12....       LCALL   ??ZDP_MgmtBindRsp?relay; Banked call to: ZDP_MgmtBindRsp
   \   0000ED   7405         MOV     A,#0x5
   \   0000EF   12....       LCALL   ?DEALLOC_XSTACK8
   1706          
   1707            if ( pBuf )
   \   0000F2   E5..         MOV     A,?V8
   \   0000F4   45..         ORL     A,?V9
   \   0000F6   6007         JZ      ??ZDO_ProcessMgmtBindReq_6
   1708            {
   1709              osal_mem_free( pBuf );
   \   0000F8                ; Setup parameters for call to function osal_mem_free
   \   0000F8   AA..         MOV     R2,?V8
   \   0000FA   AB..         MOV     R3,?V9
   \   0000FC   12....       LCALL   ??osal_mem_free?relay; Banked call to: osal_mem_free
   1710            }
   1711          #else
   1712            (void)inMsg;
   1713          #endif
   1714          }
   \                     ??ZDO_ProcessMgmtBindReq_6:
   \   0000FF   7402         MOV     A,#0x2
   \   000101   12....       LCALL   ?DEALLOC_XSTACK8
   \   000104                REQUIRE ?Subroutine7
   \   000104                ; // Fall through to label ?Subroutine7

   \                                 In  segment BANKED_CODE, align 1, keep-with-next
   \                     ?Subroutine7:
   \   000000   7F0A         MOV     R7,#0xa
   \   000002   02....       LJMP    ?BANKED_LEAVE_XDATA
   1715          
   1716          /*********************************************************************
   1717           * @fn          ZDO_ProcessMgmtDirectJoinReq
   1718           *
   1719           * @brief       This function finishes the processing of the Management
   1720           *              Direct Join Request and generates the response.
   1721           *
   1722           * @param       inMsg - incoming message (request)
   1723           *
   1724           * @return      none
   1725           */

   \                                 In  segment BANKED_CODE, align 1, keep-with-next
   1726          void ZDO_ProcessMgmtDirectJoinReq( zdoIncomingMsg_t *inMsg )
   \                     ZDO_ProcessMgmtDirectJoinReq:
   1727          {
   \   000000                REQUIRE ?V0
   \   000000                REQUIRE ?V1
   \   000000   74F6         MOV     A,#-0xa
   \   000002   12....       LCALL   ?BANKED_ENTER_XDATA
   \   000005                ; Saved register size: 10
   \   000005                ; Auto size: 1
   \   000005   74FF         MOV     A,#-0x1
   \   000007   12....       LCALL   ?ALLOC_XSTACK8
   \   00000A   12....       LCALL   ?Subroutine89 & 0xFFFF
   1728            uint8 *deviceAddr;
   1729            uint8 capInfo;
   1730            uint8 stat;
   1731          
   1732            // Parse the message
   1733            deviceAddr = inMsg->asdu;
   1734            capInfo = inMsg->asdu[Z_EXTADDR_LEN];
   1735          
   1736            stat = (byte) NLME_DirectJoinRequest( deviceAddr, capInfo );
   \                     ??CrossCallReturnLabel_327:
   \   00000D   12....       LCALL   ?Subroutine72 & 0xFFFF
   \                     ??CrossCallReturnLabel_123:
   \   000010   A3           INC     DPTR
   \   000011   A3           INC     DPTR
   \   000012   A3           INC     DPTR
   \   000013   A3           INC     DPTR
   \   000014   A3           INC     DPTR
   \   000015   A3           INC     DPTR
   \   000016   A3           INC     DPTR
   \   000017   A3           INC     DPTR
   \   000018   E0           MOVX    A,@DPTR
   \   000019   F9           MOV     R1,A
   \   00001A   12....       LCALL   ??NLME_DirectJoinRequest?relay; Banked call to: NLME_DirectJoinRequest
   \   00001D   E9           MOV     A,R1
   \   00001E   85..82       MOV     DPL,?XSP + 0
   \   000021   85..83       MOV     DPH,?XSP + 1
   \   000024   F0           MOVX    @DPTR,A
   1737          
   1738            ZDP_MgmtDirectJoinRsp( inMsg->TransSeq, &(inMsg->srcAddr), stat, false );
   \   000025                ; Setup parameters for call to function ZDP_SendData
   \   000025   75..00       MOV     ?V0,#0x0
   \   000028   78..         MOV     R0,#?V0
   \   00002A   12....       LCALL   ?PUSH_XSTACK_I_ONE
   \   00002D   7401         MOV     A,#0x1
   \   00002F   12....       LCALL   ?XSTACK_DISP100_8
   \   000032   88..         MOV     ?V0,R0
   \   000034   89..         MOV     ?V1,R1
   \   000036   78..         MOV     R0,#?V0
   \   000038   12....       LCALL   ?PUSH_XSTACK_I_TWO
   \   00003B   75..35       MOV     ?V0,#0x35
   \   00003E   75..80       MOV     ?V1,#-0x80
   \   000041   78..         MOV     R0,#?V0
   \   000043   12....       LCALL   ?PUSH_XSTACK_I_TWO
   \   000046   12....       LCALL   ?Subroutine87 & 0xFFFF
   \                     ??CrossCallReturnLabel_151:
   \   000049   12....       LCALL   ??ZDP_SendData?relay ; Banked call to: ZDP_SendData
   \   00004C   7405         MOV     A,#0x5
   \   00004E   12....       LCALL   ?DEALLOC_XSTACK8
   1739          }
   \   000051                REQUIRE ?Subroutine8
   \   000051                ; // Fall through to label ?Subroutine8

   \                                 In  segment BANKED_CODE, align 1, keep-with-next
   \                     ?Subroutine8:
   \   000000   7401         MOV     A,#0x1
   \   000002   02....       LJMP    ??Subroutine140_0 & 0xFFFF

   \                                 In  segment BANKED_CODE, align 1, keep-with-next
   \                     ?Subroutine89:
   \   000000   EA           MOV     A,R2
   \   000001   FE           MOV     R6,A
   \   000002   EB           MOV     A,R3
   \   000003   FF           MOV     R7,A
   \   000004                ; Setup parameters for call to function NLME_PermitJoiningRequest
   \   000004                REQUIRE ??Subroutine153_0
   \   000004                ; // Fall through to label ??Subroutine153_0

   \                                 In  segment BANKED_CODE, align 1, keep-with-next
   \                     ?Subroutine87:
   \   000000   7901         MOV     R1,#0x1
   \   000002   12....       LCALL   ?Subroutine125 & 0xFFFF
   \                     ??CrossCallReturnLabel_227:
   \   000005   FA           MOV     R2,A
   \   000006   E4           CLR     A
   \   000007   3F           ADDC    A,R7
   \   000008   FB           MOV     R3,A
   \   000009   22           RET

   \                                 In  segment BANKED_CODE, align 1, keep-with-next
   \                     ?Subroutine72:
   \   000000   F583         MOV     DPH,A
   \   000002   12....       LCALL   ?Subroutine136 & 0xFFFF
   \                     ??CrossCallReturnLabel_430:
   \   000005   FB           MOV     R3,A
   \   000006                ; Setup parameters for call to function NLME_DirectJoinRequest
   \   000006   8A82         MOV     DPL,R2
   \   000008   8B83         MOV     DPH,R3
   \   00000A   22           RET
   1740          
   1741          /*********************************************************************
   1742           * @fn          ZDO_ProcessMgmtLeaveReq
   1743           *
   1744           * @brief       This function processes a Management Leave Request
   1745           *              and generates the response.
   1746           *
   1747           * @param       inMsg - incoming message (request)
   1748           *
   1749           * @return      none
   1750           */

   \                                 In  segment BANKED_CODE, align 1, keep-with-next
   1751          void ZDO_ProcessMgmtLeaveReq( zdoIncomingMsg_t *inMsg )
   \                     ZDO_ProcessMgmtLeaveReq:
   1752          {
   \   000000                REQUIRE ?V0
   \   000000                REQUIRE ?V1
   \   000000                REQUIRE ?V2
   \   000000                REQUIRE ?V3
   \   000000   74F4         MOV     A,#-0xc
   \   000002   12....       LCALL   ?BANKED_ENTER_XDATA
   \   000005                ; Saved register size: 12
   \   000005                ; Auto size: 6
   \   000005   74FA         MOV     A,#-0x6
   \   000007   12....       LCALL   ?ALLOC_XSTACK8
   \   00000A   8A..         MOV     ?V0,R2
   \   00000C   8B..         MOV     ?V1,R3
   1753            NLME_LeaveReq_t req;
   1754            ZStatus_t       status;
   1755            uint8           option;
   1756            uint8 *msg = inMsg->asdu;
   \   00000E   EA           MOV     A,R2
   \   00000F   12....       LCALL   ?Subroutine83 & 0xFFFF
   \                     ??CrossCallReturnLabel_140:
   \   000012   12....       LCALL   ?Subroutine122 & 0xFFFF
   1757          
   1758            if ( ( AddrMgrExtAddrValid( msg ) == FALSE                 ) ||
   1759                 ( osal_ExtAddrEqual( msg, NLME_GetExtAddr() ) == TRUE )    )
   \                     ??CrossCallReturnLabel_219:
   \   000015                ; Setup parameters for call to function AddrMgrExtAddrValid
   \   000015   EE           MOV     A,R6
   \   000016   FA           MOV     R2,A
   \   000017   EF           MOV     A,R7
   \   000018   FB           MOV     R3,A
   \   000019   12....       LCALL   ??AddrMgrExtAddrValid?relay; Banked call to: AddrMgrExtAddrValid
   \   00001C   E9           MOV     A,R1
   \   00001D   6017         JZ      ??ZDO_ProcessMgmtLeaveReq_0
   \   00001F                ; Setup parameters for call to function NLME_GetExtAddr
   \   00001F   12....       LCALL   ??NLME_GetExtAddr?relay; Banked call to: NLME_GetExtAddr
   \   000022   8A..         MOV     ?V2,R2
   \   000024   8B..         MOV     ?V3,R3
   \   000026   AC..         MOV     R4,?V2
   \   000028   AD..         MOV     R5,?V3
   \   00002A                ; Setup parameters for call to function sAddrExtCmp
   \   00002A   EE           MOV     A,R6
   \   00002B   FA           MOV     R2,A
   \   00002C   EF           MOV     A,R7
   \   00002D   FB           MOV     R3,A
   \   00002E   12....       LCALL   ??sAddrExtCmp?relay  ; Banked call to: sAddrExtCmp
   \   000031   E9           MOV     A,R1
   \   000032   6401         XRL     A,#0x1
   \   000034   700A         JNZ     ??ZDO_ProcessMgmtLeaveReq_1
   1760            {
   1761              // Remove this device
   1762              req.extAddr = NULL;
   \                     ??ZDO_ProcessMgmtLeaveReq_0:
   \   000036   7401         MOV     A,#0x1
   \   000038   12....       LCALL   ?XSTACK_DISP0_8
   \   00003B   E4           CLR     A
   \   00003C   F0           MOVX    @DPTR,A
   \   00003D   A3           INC     DPTR
   \   00003E   8009         SJMP    ??ZDO_ProcessMgmtLeaveReq_2
   1763            }
   1764            else
   1765            {
   1766              // Remove child device
   1767              req.extAddr = msg;
   \                     ??ZDO_ProcessMgmtLeaveReq_1:
   \   000040   7401         MOV     A,#0x1
   \   000042   12....       LCALL   ?XSTACK_DISP0_8
   \   000045   EE           MOV     A,R6
   \   000046   F0           MOVX    @DPTR,A
   \   000047   A3           INC     DPTR
   \   000048   EF           MOV     A,R7
   1768            }
   \                     ??ZDO_ProcessMgmtLeaveReq_2:
   \   000049   12....       LCALL   ?Subroutine35 & 0xFFFF
   1769          
   1770            option = msg[Z_EXTADDR_LEN];
   \                     ??CrossCallReturnLabel_53:
   \   00004C   A3           INC     DPTR
   \   00004D   A3           INC     DPTR
   \   00004E   A3           INC     DPTR
   \   00004F   A3           INC     DPTR
   \   000050   A3           INC     DPTR
   \   000051   A3           INC     DPTR
   \   000052   A3           INC     DPTR
   \   000053   E0           MOVX    A,@DPTR
   \   000054   F8           MOV     R0,A
   1771            if ( option & ZDP_MGMT_LEAVE_REQ_RC )
   \   000055   A2E6         MOV     C,0xE0 /* A   */.6
   \   000057   5008         JNC     ??ZDO_ProcessMgmtLeaveReq_3
   1772            {
   1773              req.removeChildren = TRUE;
   \   000059   7403         MOV     A,#0x3
   \   00005B   12....       LCALL   ?XSTACK_DISP0_8
   \   00005E   7401         MOV     A,#0x1
   \   000060   F0           MOVX    @DPTR,A
   1774            }
   1775          
   1776            if ( option & ZDP_MGMT_LEAVE_REQ_REJOIN )
   \                     ??ZDO_ProcessMgmtLeaveReq_3:
   \   000061   E8           MOV     A,R0
   \   000062   A2E7         MOV     C,0xE0 /* A   */.7
   \   000064   5008         JNC     ??ZDO_ProcessMgmtLeaveReq_4
   1777            {
   1778               req.rejoin = TRUE;
   \   000066   7404         MOV     A,#0x4
   \   000068   12....       LCALL   ?XSTACK_DISP0_8
   \   00006B   7401         MOV     A,#0x1
   \   00006D   F0           MOVX    @DPTR,A
   1779            }
   1780          
   1781            req.silent = FALSE;
   \                     ??ZDO_ProcessMgmtLeaveReq_4:
   \   00006E   7405         MOV     A,#0x5
   \   000070   12....       LCALL   ?XSTACK_DISP0_8
   \   000073   E4           CLR     A
   \   000074   F0           MOVX    @DPTR,A
   1782          
   1783            status = NLME_LeaveReq( &req );
   \   000075                ; Setup parameters for call to function NLME_LeaveReq
   \   000075   04           INC     A
   \   000076   12....       LCALL   ?XSTACK_DISP101_8
   \   000079   12....       LCALL   ??NLME_LeaveReq?relay; Banked call to: NLME_LeaveReq
   \   00007C   E9           MOV     A,R1
   \   00007D   85..82       MOV     DPL,?XSP + 0
   \   000080   85..83       MOV     DPH,?XSP + 1
   \   000083   F0           MOVX    @DPTR,A
   1784          
   1785            if ( ZG_BUILD_ENDDEVICE_TYPE )
   1786            {
   1787              // Stop polling and get ready to reset
   1788              NLME_SetPollRate( 0 );
   \   000084                ; Setup parameters for call to function NLME_SetPollRate
   \   000084   90....       MOV     DPTR,#__Constant_0
   \   000087   12....       LCALL   ?XLOAD_R2345
   \   00008A   12....       LCALL   ??NLME_SetPollRate?relay; Banked call to: NLME_SetPollRate
   1789              NLME_SetResponseRate(0);
   \   00008D                ; Setup parameters for call to function NLME_SetResponseRate
   \   00008D   7A00         MOV     R2,#0x0
   \   00008F   7B00         MOV     R3,#0x0
   \   000091   12....       LCALL   ??NLME_SetResponseRate?relay; Banked call to: NLME_SetResponseRate
   1790              NLME_SetQueuedPollRate(0);
   \   000094                ; Setup parameters for call to function NLME_SetQueuedPollRate
   \   000094   7A00         MOV     R2,#0x0
   \   000096   7B00         MOV     R3,#0x0
   \   000098   12....       LCALL   ??NLME_SetQueuedPollRate?relay; Banked call to: NLME_SetQueuedPollRate
   1791            }
   1792          
   1793            ZDP_MgmtLeaveRsp( inMsg->TransSeq, &(inMsg->srcAddr), status, FALSE );
   \   00009B                ; Setup parameters for call to function ZDP_SendData
   \   00009B   75..00       MOV     ?V2,#0x0
   \   00009E   78..         MOV     R0,#?V2
   \   0000A0   12....       LCALL   ?PUSH_XSTACK_I_ONE
   \   0000A3   7401         MOV     A,#0x1
   \   0000A5   12....       LCALL   ?XSTACK_DISP100_8
   \   0000A8   88..         MOV     ?V2,R0
   \   0000AA   89..         MOV     ?V3,R1
   \   0000AC   78..         MOV     R0,#?V2
   \   0000AE   12....       LCALL   ?PUSH_XSTACK_I_TWO
   \   0000B1   75..34       MOV     ?V2,#0x34
   \   0000B4   75..80       MOV     ?V3,#-0x80
   \   0000B7   78..         MOV     R0,#?V2
   \   0000B9   12....       LCALL   ?PUSH_XSTACK_I_TWO
   \   0000BC   7901         MOV     R1,#0x1
   \   0000BE   E5..         MOV     A,?V0
   \   0000C0   2402         ADD     A,#0x2
   \   0000C2   FC           MOV     R4,A
   \   0000C3   E4           CLR     A
   \   0000C4   35..         ADDC    A,?V1
   \   0000C6   FD           MOV     R5,A
   \   0000C7   E5..         MOV     A,?V0
   \   0000C9   240F         ADD     A,#0xf
   \   0000CB   FA           MOV     R2,A
   \   0000CC   E4           CLR     A
   \   0000CD   35..         ADDC    A,?V1
   \   0000CF   FB           MOV     R3,A
   \   0000D0   12....       LCALL   ??ZDP_SendData?relay ; Banked call to: ZDP_SendData
   \   0000D3   7405         MOV     A,#0x5
   \   0000D5   12....       LCALL   ?DEALLOC_XSTACK8
   1794          }
   \   0000D8   7406         MOV     A,#0x6
   \   0000DA   12....       LCALL   ?DEALLOC_XSTACK8
   \   0000DD   02....       LJMP    ?Subroutine3 & 0xFFFF

   \                                 In  segment BANKED_CODE, align 1, keep-with-next
   \                     ?Subroutine83:
   \   000000   12....       LCALL   ??Subroutine150_0 & 0xFFFF
   \                     ??CrossCallReturnLabel_330:
   \   000003   35..         ADDC    A,?V1
   \   000005   F583         MOV     DPH,A
   \   000007   22           RET
   1795          
   1796          
   1797          /*********************************************************************
   1798           * @fn          ZDO_ProcessMgmtPermitJoinReq
   1799           *
   1800           * @brief       This function processes a Management Permit Join Request
   1801           *              and generates the response.
   1802           *
   1803           * @param       inMsg - incoming message (request)
   1804           *
   1805           * @return      none
   1806           */

   \                                 In  segment BANKED_CODE, align 1, keep-with-next
   1807          void ZDO_ProcessMgmtPermitJoinReq( zdoIncomingMsg_t *inMsg )
   \                     ZDO_ProcessMgmtPermitJoinReq:
   1808          {
   \   000000                REQUIRE ?V0
   \   000000                REQUIRE ?V1
   \   000000   74F6         MOV     A,#-0xa
   \   000002   12....       LCALL   ?BANKED_ENTER_XDATA
   \   000005                ; Saved register size: 10
   \   000005                ; Auto size: 1
   \   000005   74FF         MOV     A,#-0x1
   \   000007   12....       LCALL   ?ALLOC_XSTACK8
   \   00000A   12....       LCALL   ?Subroutine89 & 0xFFFF
   1809            uint8 stat;
   1810            uint8 duration;
   1811            uint8 tcsig;
   1812          
   1813            duration = inMsg->asdu[ZDP_MGMT_PERMIT_JOIN_REQ_DURATION];
   1814            tcsig    = inMsg->asdu[ZDP_MGMT_PERMIT_JOIN_REQ_TC_SIG];
   1815          
   1816            // Set the network layer permit join duration
   1817            stat = (byte) NLME_PermitJoiningRequest( duration );
   \                     ??CrossCallReturnLabel_328:
   \   00000D   12....       LCALL   ?Subroutine49 & 0xFFFF
   \                     ??CrossCallReturnLabel_318:
   \   000010   F9           MOV     R1,A
   \   000011   12....       LCALL   ??NLME_PermitJoiningRequest?relay; Banked call to: NLME_PermitJoiningRequest
   \   000014   E9           MOV     A,R1
   \   000015   85..82       MOV     DPL,?XSP + 0
   \   000018   85..83       MOV     DPH,?XSP + 1
   \   00001B   F0           MOVX    @DPTR,A
   1818          
   1819            // Handle the Trust Center Significance
   1820            if ( ZG_SECURE_ENABLED && ZG_BUILD_COORDINATOR_TYPE && ZG_DEVICE_COORDINATOR_TYPE )
   1821            {
   1822              if ( tcsig == TRUE )
   1823              {
   1824                ZDSecMgrPermitJoining( duration );
   1825              }
   1826            }
   1827          
   1828            // Send a response if unicast
   1829            if ( !inMsg->wasBroadcast )
   \   00001C   EE           MOV     A,R6
   \   00001D   240B         ADD     A,#0xb
   \   00001F   12....       LCALL   ??Subroutine154_0 & 0xFFFF
   \                     ??CrossCallReturnLabel_338:
   \   000022   702C         JNZ     ??ZDO_ProcessMgmtPermitJoinReq_0
   1830            {
   1831              ZDP_MgmtPermitJoinRsp( inMsg->TransSeq, &(inMsg->srcAddr), stat, false );
   \   000024                ; Setup parameters for call to function ZDP_SendData
   \   000024   75..00       MOV     ?V0,#0x0
   \   000027   78..         MOV     R0,#?V0
   \   000029   12....       LCALL   ?PUSH_XSTACK_I_ONE
   \   00002C   7401         MOV     A,#0x1
   \   00002E   12....       LCALL   ?XSTACK_DISP100_8
   \   000031   88..         MOV     ?V0,R0
   \   000033   89..         MOV     ?V1,R1
   \   000035   78..         MOV     R0,#?V0
   \   000037   12....       LCALL   ?PUSH_XSTACK_I_TWO
   \   00003A   75..36       MOV     ?V0,#0x36
   \   00003D   75..80       MOV     ?V1,#-0x80
   \   000040   78..         MOV     R0,#?V0
   \   000042   12....       LCALL   ?PUSH_XSTACK_I_TWO
   \   000045   12....       LCALL   ?Subroutine87 & 0xFFFF
   1832            }
   \                     ??CrossCallReturnLabel_152:
   \   000048   12....       LCALL   ??ZDP_SendData?relay ; Banked call to: ZDP_SendData
   \   00004B   7405         MOV     A,#0x5
   \   00004D   12....       LCALL   ?DEALLOC_XSTACK8
   1833          }
   \                     ??ZDO_ProcessMgmtPermitJoinReq_0:
   \   000050   02....       LJMP    ?Subroutine8 & 0xFFFF
   1834          
   1835          /*
   1836           * This function stub allows the next higher layer to be notified of
   1837           * a permit joining timeout.
   1838           */
   1839          /*********************************************************************
   1840           * @fn          ZDO_ProcessMgmtPermitJoinTimeout
   1841           *
   1842           * @brief       This function stub allows the next higher layer to be
   1843           *              notified of a permit joining timeout. Currently, this
   1844           *              directly bypasses the APS layer.
   1845           *
   1846           * @param       none
   1847           *
   1848           * @return      none
   1849           */

   \                                 In  segment BANKED_CODE, align 1, keep-with-next
   1850          void ZDO_ProcessMgmtPermitJoinTimeout( void )
   \                     NLME_PermitJoiningTimeout:
   1851          {
   \   000000                ; Saved register size: 0
   \   000000                ; Auto size: 0
   1852            #if defined( ZDO_MGMT_PERMIT_JOIN_RESPONSE )
   1853            // Currently, only the ZDSecMgr needs to be notified
   1854            if ( ZG_SECURE_ENABLED && ZG_BUILD_COORDINATOR_TYPE && ZG_DEVICE_COORDINATOR_TYPE )
   1855            {
   1856              ZDSecMgrPermitJoiningTimeout();
   1857            }
   1858            #endif
   1859          }
   \   000000   02....       LJMP    ?BRET
   1860          
   1861          /*********************************************************************
   1862           * @fn          ZDO_ProcessUserDescReq
   1863           *
   1864           * @brief       This function finishes the processing of the User
   1865           *              Descriptor Request and generates the response.
   1866           *
   1867           * @param       inMsg - incoming message (request)
   1868           *
   1869           * @return      none
   1870           */

   \                                 In  segment BANKED_CODE, align 1, keep-with-next
   1871          void ZDO_ProcessUserDescReq( zdoIncomingMsg_t *inMsg )
   \                     ZDO_ProcessUserDescReq:
   1872          {
   \   000000                REQUIRE ?V0
   \   000000                REQUIRE ?V1
   \   000000                REQUIRE ?V2
   \   000000                REQUIRE ?V3
   \   000000                REQUIRE ?V4
   \   000000                REQUIRE ?V5
   \   000000                REQUIRE ?V6
   \   000000                REQUIRE ?V7
   \   000000   74F0         MOV     A,#-0x10
   \   000002   12....       LCALL   ?BANKED_ENTER_XDATA
   \   000005                ; Saved register size: 16
   \   000005                ; Auto size: 17
   \   000005   74EF         MOV     A,#-0x11
   \   000007   12....       LCALL   ?ALLOC_XSTACK8
   \   00000A   EA           MOV     A,R2
   \   00000B   FE           MOV     R6,A
   \   00000C   EB           MOV     A,R3
   \   00000D   FF           MOV     R7,A
   1873            uint16 aoi = BUILD_UINT16( inMsg->asdu[0], inMsg->asdu[1] );
   \   00000E   12....       LCALL   ?Subroutine47 & 0xFFFF
   \                     ??CrossCallReturnLabel_91:
   \   000011   F5..         MOV     ?V4,A
   \   000013   E4           CLR     A
   \   000014   39           ADDC    A,R1
   \   000015   F5..         MOV     ?V5,A
   1874            UserDescriptorFormat_t userDesc;
   1875          
   1876            if ( (aoi == ZDAppNwkAddr.addr.shortAddr) && (ZSUCCESS == osal_nv_read(
   1877                       ZCD_NV_USERDESC, 0, sizeof(UserDescriptorFormat_t), &userDesc )) )
   \   000017   EE           MOV     A,R6
   \   000018   240F         ADD     A,#0xf
   \   00001A   F5..         MOV     ?V2,A
   \   00001C   E4           CLR     A
   \   00001D   3F           ADDC    A,R7
   \   00001E   F5..         MOV     ?V3,A
   \   000020   EE           MOV     A,R6
   \   000021   2402         ADD     A,#0x2
   \   000023   F5..         MOV     ?V0,A
   \   000025   E4           CLR     A
   \   000026   3F           ADDC    A,R7
   \   000027   F5..         MOV     ?V1,A
   \   000029   90....       MOV     DPTR,#ZDAppNwkAddr
   \   00002C   E0           MOVX    A,@DPTR
   \   00002D   65..         XRL     A,?V4
   \   00002F   7004         JNZ     ??ZDO_ProcessUserDescReq_0
   \   000031   A3           INC     DPTR
   \   000032   E0           MOVX    A,@DPTR
   \   000033   65..         XRL     A,?V5
   \                     ??ZDO_ProcessUserDescReq_0:
   \   000035   705B         JNZ     ??ZDO_ProcessUserDescReq_1
   \   000037                ; Setup parameters for call to function osal_nv_read
   \   000037   A8..         MOV     R0,?XSP + 0
   \   000039   A9..         MOV     R1,?XSP + 1
   \   00003B   88..         MOV     ?V6,R0
   \   00003D   89..         MOV     ?V7,R1
   \   00003F   78..         MOV     R0,#?V6
   \   000041   12....       LCALL   ?PUSH_XSTACK_I_TWO
   \   000044   75..11       MOV     ?V6,#0x11
   \   000047   75..00       MOV     ?V7,#0x0
   \   00004A   78..         MOV     R0,#?V6
   \   00004C   12....       LCALL   ?PUSH_XSTACK_I_TWO
   \   00004F   7C00         MOV     R4,#0x0
   \   000051   7D00         MOV     R5,#0x0
   \   000053   7A81         MOV     R2,#-0x7f
   \   000055   7B00         MOV     R3,#0x0
   \   000057   12....       LCALL   ??osal_nv_read?relay ; Banked call to: osal_nv_read
   \   00005A   7404         MOV     A,#0x4
   \   00005C   12....       LCALL   ?DEALLOC_XSTACK8
   \   00005F   E9           MOV     A,R1
   \   000060   7030         JNZ     ??ZDO_ProcessUserDescReq_1
   1878            {
   1879              ZDP_UserDescRsp( inMsg->TransSeq, &(inMsg->srcAddr), aoi, &userDesc, false );
   \   000062                ; Setup parameters for call to function ZDP_UserDescRsp
   \   000062   75..00       MOV     ?V6,#0x0
   \   000065   78..         MOV     R0,#?V6
   \   000067   12....       LCALL   ?PUSH_XSTACK_I_ONE
   \   00006A   7401         MOV     A,#0x1
   \   00006C   12....       LCALL   ?XSTACK_DISP100_8
   \   00006F   88..         MOV     ?V6,R0
   \   000071   89..         MOV     ?V7,R1
   \   000073   78..         MOV     R0,#?V6
   \   000075   12....       LCALL   ?PUSH_XSTACK_I_TWO
   \   000078   AC..         MOV     R4,?V4
   \   00007A   AD..         MOV     R5,?V5
   \   00007C   AA..         MOV     R2,?V0
   \   00007E   AB..         MOV     R3,?V1
   \   000080   85..82       MOV     DPL,?V2
   \   000083   85..83       MOV     DPH,?V3
   \   000086   E0           MOVX    A,@DPTR
   \   000087   F9           MOV     R1,A
   \   000088   12....       LCALL   ??ZDP_UserDescRsp?relay; Banked call to: ZDP_UserDescRsp
   \   00008B   7403         MOV     A,#0x3
   \   00008D   12....       LCALL   ?DEALLOC_XSTACK8
   \   000090   802A         SJMP    ??ZDO_ProcessUserDescReq_2
   1880            }
   1881            else
   1882            {
   1883              ZDP_GenericRsp(inMsg->TransSeq, &(inMsg->srcAddr),
   1884                     ZDP_NOT_SUPPORTED, aoi, User_Desc_rsp, inMsg->SecurityUse );
   \                     ??ZDO_ProcessUserDescReq_1:
   \   000092                ; Setup parameters for call to function ZDP_GenericRsp
   \   000092   75..11       MOV     ?V6,#0x11
   \   000095   75..80       MOV     ?V7,#-0x80
   \   000098   78..         MOV     R0,#?V6
   \   00009A   12....       LCALL   ?PUSH_XSTACK_I_TWO
   \   00009D   78..         MOV     R0,#?V4
   \   00009F   12....       LCALL   ?PUSH_XSTACK_I_TWO
   \   0000A2   12....       LCALL   ?Subroutine91 & 0xFFFF
   1885            }
   \                     ??CrossCallReturnLabel_341:
   \   0000A5   FD           MOV     R5,A
   \   0000A6   7C84         MOV     R4,#-0x7c
   \   0000A8   AA..         MOV     R2,?V0
   \   0000AA   AB..         MOV     R3,?V1
   \   0000AC   85..82       MOV     DPL,?V2
   \   0000AF   85..83       MOV     DPH,?V3
   \   0000B2   E0           MOVX    A,@DPTR
   \   0000B3   F9           MOV     R1,A
   \   0000B4   12....       LCALL   ??ZDP_GenericRsp?relay; Banked call to: ZDP_GenericRsp
   \   0000B7   7404         MOV     A,#0x4
   \   0000B9   12....       LCALL   ?DEALLOC_XSTACK8
   1886          }
   \                     ??ZDO_ProcessUserDescReq_2:
   \   0000BC   7411         MOV     A,#0x11
   \   0000BE   02....       LJMP    ?Subroutine9 & 0xFFFF
   1887          
   1888          /*********************************************************************
   1889           * @fn          ZDO_ProcessUserDescSet
   1890           *
   1891           * @brief       This function finishes the processing of the User
   1892           *              Descriptor Set and generates the response.
   1893           *
   1894           * @param       inMsg - incoming message (request)
   1895           *
   1896           * @return      none
   1897           */

   \                                 In  segment BANKED_CODE, align 1, keep-with-next
   1898          void ZDO_ProcessUserDescSet( zdoIncomingMsg_t *inMsg )
   \                     ZDO_ProcessUserDescSet:
   1899          {
   \   000000                REQUIRE ?V0
   \   000000                REQUIRE ?V1
   \   000000                REQUIRE ?V2
   \   000000                REQUIRE ?V3
   \   000000                REQUIRE ?V4
   \   000000                REQUIRE ?V5
   \   000000                REQUIRE ?V6
   \   000000   74F1         MOV     A,#-0xf
   \   000002   12....       LCALL   ?BANKED_ENTER_XDATA
   \   000005                ; Saved register size: 15
   \   000005                ; Auto size: 21
   \   000005   74EB         MOV     A,#-0x15
   \   000007   12....       LCALL   ?ALLOC_XSTACK8
   \   00000A   8A..         MOV     ?V2,R2
   \   00000C   8B..         MOV     ?V3,R3
   1900            uint8 *msg;
   1901            uint16 aoi;
   1902            UserDescriptorFormat_t userDesc;
   1903            uint8 outMsg[3];
   1904            uint8 status;
   1905          
   1906            msg = inMsg->asdu;
   \   00000E   12....       LCALL   ?Subroutine90 & 0xFFFF
   \                     ??CrossCallReturnLabel_160:
   \   000011   35..         ADDC    A,?V3
   \   000013   12....       LCALL   ?Subroutine55 & 0xFFFF
   1907            aoi = BUILD_UINT16( msg[0], msg[1] );
   \                     ??CrossCallReturnLabel_98:
   \   000016   FA           MOV     R2,A
   \   000017   E4           CLR     A
   \   000018   CA           XCH     A,R2
   \   000019   FB           MOV     R3,A
   \   00001A   EC           MOV     A,R4
   \   00001B   2A           ADD     A,R2
   \   00001C   FE           MOV     R6,A
   \   00001D   E4           CLR     A
   \   00001E   3B           ADDC    A,R3
   \   00001F   FF           MOV     R7,A
   1908          
   1909            if ( aoi == ZDAppNwkAddr.addr.shortAddr )
   \   000020   90....       MOV     DPTR,#ZDAppNwkAddr
   \   000023   E0           MOVX    A,@DPTR
   \   000024   6E           XRL     A,R6
   \   000025   7003         JNZ     ??ZDO_ProcessUserDescSet_0
   \   000027   A3           INC     DPTR
   \   000028   E0           MOVX    A,@DPTR
   \   000029   6F           XRL     A,R7
   \                     ??ZDO_ProcessUserDescSet_0:
   \   00002A   6003         JZ      $+5
   \   00002C   02....       LJMP    ??ZDO_ProcessUserDescSet_1 & 0xFFFF
   1910            {
   1911              userDesc.len = (msg[2] < AF_MAX_USER_DESCRIPTOR_LEN) ? msg[2] : AF_MAX_USER_DESCRIPTOR_LEN;
   \   00002F   8882         MOV     DPL,R0
   \   000031   8983         MOV     DPH,R1
   \   000033   A3           INC     DPTR
   \   000034   A3           INC     DPTR
   \   000035   E0           MOVX    A,@DPTR
   \   000036   FA           MOV     R2,A
   \   000037   9410         SUBB    A,#0x10
   \   000039   5004         JNC     ??ZDO_ProcessUserDescSet_2
   \   00003B   8A..         MOV     ?V0,R2
   \   00003D   8003         SJMP    ??ZDO_ProcessUserDescSet_3
   \                     ??ZDO_ProcessUserDescSet_2:
   \   00003F   75..10       MOV     ?V0,#0x10
   \                     ??ZDO_ProcessUserDescSet_3:
   \   000042   7404         MOV     A,#0x4
   \   000044   12....       LCALL   ?XSTACK_DISP0_8
   \   000047   E5..         MOV     A,?V0
   \   000049   12....       LCALL   ?Subroutine36 & 0xFFFF
   1912              msg ++;  // increment one for the length field
   1913          
   1914              osal_memcpy( userDesc.desc, &msg[2], userDesc.len );
   \                     ??CrossCallReturnLabel_56:
   \   00004C   A3           INC     DPTR
   \   00004D   A3           INC     DPTR
   \   00004E   A982         MOV     R1,DPL
   \   000050   AA83         MOV     R2,DPH
   \   000052   89..         MOV     ?V4,R1
   \   000054   8A..         MOV     ?V5,R2
   \   000056   75..00       MOV     ?V6,#0x0
   \   000059   78..         MOV     R0,#?V4
   \   00005B   12....       LCALL   ?PUSH_XSTACK_I_THREE
   \   00005E   7407         MOV     A,#0x7
   \   000060   12....       LCALL   ?XSTACK_DISP0_8
   \   000063   E0           MOVX    A,@DPTR
   \   000064   FC           MOV     R4,A
   \   000065   7D00         MOV     R5,#0x0
   \   000067   7408         MOV     A,#0x8
   \   000069   12....       LCALL   ?XSTACK_DISP0_8
   \   00006C   AA82         MOV     R2,DPL
   \   00006E   AB83         MOV     R3,DPH
   \   000070   12....       LCALL   ??osal_memcpy?relay  ; Banked call to: osal_memcpy
   \   000073   7403         MOV     A,#0x3
   \   000075   12....       LCALL   ?DEALLOC_XSTACK8
   1915              osal_nv_write( ZCD_NV_USERDESC, 0, sizeof(UserDescriptorFormat_t), &userDesc );
   \   000078                ; Setup parameters for call to function osal_nv_write
   \   000078   7404         MOV     A,#0x4
   \   00007A   12....       LCALL   ?XSTACK_DISP100_8
   \   00007D   88..         MOV     ?V4,R0
   \   00007F   89..         MOV     ?V5,R1
   \   000081   78..         MOV     R0,#?V4
   \   000083   12....       LCALL   ?PUSH_XSTACK_I_TWO
   \   000086   75..11       MOV     ?V4,#0x11
   \   000089   75..00       MOV     ?V5,#0x0
   \   00008C   78..         MOV     R0,#?V4
   \   00008E   12....       LCALL   ?PUSH_XSTACK_I_TWO
   \   000091   7C00         MOV     R4,#0x0
   \   000093   7D00         MOV     R5,#0x0
   \   000095   7A81         MOV     R2,#-0x7f
   \   000097   7B00         MOV     R3,#0x0
   \   000099   12....       LCALL   ??osal_nv_write?relay; Banked call to: osal_nv_write
   \   00009C   7404         MOV     A,#0x4
   \   00009E   12....       LCALL   ?DEALLOC_XSTACK8
   1916              if ( userDesc.len != 0 )
   \   0000A1   7404         MOV     A,#0x4
   \   0000A3   12....       LCALL   ?XSTACK_DISP0_8
   \   0000A6   E0           MOVX    A,@DPTR
   \   0000A7   90....       MOV     DPTR,#ZDO_Config_Node_Descriptor
   \   0000AA   6005         JZ      ??ZDO_ProcessUserDescSet_4
   1917              {
   1918                ZDO_Config_Node_Descriptor.UserDescAvail = TRUE;
   \   0000AC   E0           MOVX    A,@DPTR
   \   0000AD   D2E4         SETB    0xE0 /* A   */.4
   \   0000AF   8003         SJMP    ??ZDO_ProcessUserDescSet_5
   1919              }
   1920              else
   1921              {
   1922                ZDO_Config_Node_Descriptor.UserDescAvail = FALSE;
   \                     ??ZDO_ProcessUserDescSet_4:
   \   0000B1   E0           MOVX    A,@DPTR
   \   0000B2   C2E4         CLR     0xE0 /* A   */.4
   \                     ??ZDO_ProcessUserDescSet_5:
   \   0000B4   F0           MOVX    @DPTR,A
   1923              }
   1924          
   1925              status = ZDP_SUCCESS;
   \   0000B5   85..82       MOV     DPL,?XSP + 0
   \   0000B8   85..83       MOV     DPH,?XSP + 1
   \   0000BB   E4           CLR     A
   \   0000BC   8008         SJMP    ??ZDO_ProcessUserDescSet_6
   1926            }
   1927            else
   1928            {
   1929              status =  ZDP_NOT_SUPPORTED;
   \                     ??ZDO_ProcessUserDescSet_1:
   \   0000BE   85..82       MOV     DPL,?XSP + 0
   \   0000C1   85..83       MOV     DPH,?XSP + 1
   \   0000C4   7484         MOV     A,#-0x7c
   \                     ??ZDO_ProcessUserDescSet_6:
   \   0000C6   F0           MOVX    @DPTR,A
   1930            }
   1931          
   1932            outMsg[0] = status;
   \   0000C7   E0           MOVX    A,@DPTR
   \   0000C8   C0E0         PUSH    A
   \   0000CA   7401         MOV     A,#0x1
   \   0000CC   12....       LCALL   ?XSTACK_DISP0_8
   \   0000CF   D0E0         POP     A
   \   0000D1   F0           MOVX    @DPTR,A
   1933            outMsg[1] = LO_UINT16( aoi );
   \   0000D2   7402         MOV     A,#0x2
   \   0000D4   12....       LCALL   ?XSTACK_DISP0_8
   \   0000D7   EE           MOV     A,R6
   \   0000D8   F0           MOVX    @DPTR,A
   1934            outMsg[2] = LO_UINT16( aoi );
   \   0000D9   7403         MOV     A,#0x3
   \   0000DB   12....       LCALL   ?XSTACK_DISP0_8
   \   0000DE   EE           MOV     A,R6
   \   0000DF   F0           MOVX    @DPTR,A
   1935          
   1936            ZDP_SendData( &(inMsg->TransSeq), &(inMsg->srcAddr), User_Desc_conf, 3, outMsg,
   1937                         inMsg->SecurityUse );
   \   0000E0                ; Setup parameters for call to function ZDP_SendData
   \   0000E0   E5..         MOV     A,?V2
   \   0000E2   12....       LCALL   ?Subroutine94 & 0xFFFF
   \                     ??CrossCallReturnLabel_165:
   \   0000E5   12....       LCALL   ??Subroutine142_0 & 0xFFFF
   \                     ??CrossCallReturnLabel_257:
   \   0000E8   E0           MOVX    A,@DPTR
   \   0000E9   F5..         MOV     ?V1,A
   \   0000EB   78..         MOV     R0,#?V1
   \   0000ED   12....       LCALL   ?PUSH_XSTACK_I_ONE
   \   0000F0   7402         MOV     A,#0x2
   \   0000F2   12....       LCALL   ?XSTACK_DISP100_8
   \   0000F5   88..         MOV     ?V4,R0
   \   0000F7   89..         MOV     ?V5,R1
   \   0000F9   78..         MOV     R0,#?V4
   \   0000FB   12....       LCALL   ?PUSH_XSTACK_I_TWO
   \   0000FE   75..14       MOV     ?V4,#0x14
   \   000101   75..80       MOV     ?V5,#-0x80
   \   000104   78..         MOV     R0,#?V4
   \   000106   12....       LCALL   ?PUSH_XSTACK_I_TWO
   \   000109   7903         MOV     R1,#0x3
   \   00010B   E5..         MOV     A,?V2
   \   00010D   2402         ADD     A,#0x2
   \   00010F   FC           MOV     R4,A
   \   000110   E4           CLR     A
   \   000111   35..         ADDC    A,?V3
   \   000113   FD           MOV     R5,A
   \   000114   E5..         MOV     A,?V2
   \   000116   240F         ADD     A,#0xf
   \   000118   FA           MOV     R2,A
   \   000119   E4           CLR     A
   \   00011A   35..         ADDC    A,?V3
   \   00011C   FB           MOV     R3,A
   \   00011D   12....       LCALL   ??ZDP_SendData?relay ; Banked call to: ZDP_SendData
   \   000120   7405         MOV     A,#0x5
   \   000122   12....       LCALL   ?DEALLOC_XSTACK8
   1938          }
   \   000125   7415         MOV     A,#0x15
   \   000127   12....       LCALL   ?DEALLOC_XSTACK8
   \   00012A   7F07         MOV     R7,#0x7
   \   00012C   02....       LJMP    ?BANKED_LEAVE_XDATA

   \                                 In  segment BANKED_CODE, align 1, keep-with-next
   \                     ?Subroutine94:
   \   000000   240E         ADD     A,#0xe
   \   000002   F582         MOV     DPL,A
   \   000004   E4           CLR     A
   \   000005   22           RET

   \                                 In  segment BANKED_CODE, align 1, keep-with-next
   \                     ?Subroutine36:
   \   000000   12....       LCALL   ?Subroutine114 & 0xFFFF
   \                     ??CrossCallReturnLabel_393:
   \   000003   22           RET

   \                                 In  segment BANKED_CODE, align 1, keep-with-next
   \                     ?Subroutine114:
   \   000000   F0           MOVX    @DPTR,A
   \   000001                ; Setup parameters for call to function osal_memcpy
   \   000001   8882         MOV     DPL,R0
   \   000003   8983         MOV     DPH,R1
   \   000005   A3           INC     DPTR
   \   000006   22           RET
   1939          
   1940          /*********************************************************************
   1941           * @fn          ZDO_ProcessDeviceAnnce
   1942           *
   1943           * @brief       This function processes a device annouce message.
   1944           *
   1945           * @param       inMsg - incoming message
   1946           *
   1947           * @return      none
   1948           */

   \                                 In  segment BANKED_CODE, align 1, keep-with-next
   1949          void ZDO_ProcessDeviceAnnce( zdoIncomingMsg_t *inMsg )
   \                     ZDO_ProcessDeviceAnnce:
   1950          {
   \   000000                REQUIRE ?V0
   \   000000                REQUIRE ?V1
   \   000000   74F6         MOV     A,#-0xa
   \   000002   12....       LCALL   ?BANKED_ENTER_XDATA
   \   000005                ; Saved register size: 10
   \   000005                ; Auto size: 32
   \   000005   74E0         MOV     A,#-0x20
   \   000007   12....       LCALL   ?ALLOC_XSTACK8
   1951            ZDO_DeviceAnnce_t Annce;
   1952            AddrMgrEntry_t addrEntry;
   1953            uint8 parentExt[Z_EXTADDR_LEN];
   1954          
   1955            if ( (_NIB.nwkState != NWK_ROUTER) && (_NIB.nwkState != NWK_ENDDEVICE) )
   \   00000A   90....       MOV     DPTR,#_NIB + 35
   \   00000D   E0           MOVX    A,@DPTR
   \   00000E   F8           MOV     R0,A
   \   00000F   7408         MOV     A,#0x8
   \   000011   68           XRL     A,R0
   \   000012   6008         JZ      ??ZDO_ProcessDeviceAnnce_0
   \   000014   7404         MOV     A,#0x4
   \   000016   68           XRL     A,R0
   \   000017   6003         JZ      $+5
   \   000019   02....       LJMP    ??ZDO_ProcessDeviceAnnce_1 & 0xFFFF
   1956            {
   1957              // we arent stable, ignore the message
   1958              return;
   1959            }
   1960            
   1961            // Parse incoming message
   1962            ZDO_ParseDeviceAnnce( inMsg, &Annce );
   \                     ??ZDO_ProcessDeviceAnnce_0:
   \   00001C                ; Setup parameters for call to function ZDO_ParseDeviceAnnce
   \   00001C   AC..         MOV     R4,?XSP + 0
   \   00001E   AD..         MOV     R5,?XSP + 1
   \   000020   12....       LCALL   ??ZDO_ParseDeviceAnnce?relay; Banked call to: ZDO_ParseDeviceAnnce
   1963          
   1964            if ( ZSTACK_END_DEVICE_BUILD )
   1965            {
   1966              // Make sure the message didn't come from myself - end device only
   1967              if ( osal_ExtAddrEqual( NLME_GetExtAddr(), Annce.extAddr ) && Annce.nwkAddr == NLME_GetShortAddr() )
   \   000023                ; Setup parameters for call to function NLME_GetExtAddr
   \   000023   12....       LCALL   ??NLME_GetExtAddr?relay; Banked call to: NLME_GetExtAddr
   \   000026                ; Setup parameters for call to function sAddrExtCmp
   \   000026   7402         MOV     A,#0x2
   \   000028   12....       LCALL   ?XSTACK_DISP0_8
   \   00002B   AC82         MOV     R4,DPL
   \   00002D   AD83         MOV     R5,DPH
   \   00002F   12....       LCALL   ??sAddrExtCmp?relay  ; Banked call to: sAddrExtCmp
   \   000032   E9           MOV     A,R1
   \   000033   601D         JZ      ??ZDO_ProcessDeviceAnnce_2
   \   000035                ; Setup parameters for call to function NLME_GetShortAddr
   \   000035   12....       LCALL   ??NLME_GetShortAddr?relay; Banked call to: NLME_GetShortAddr
   \   000038   8A..         MOV     ?V0,R2
   \   00003A   8B..         MOV     ?V1,R3
   \   00003C   A8..         MOV     R0,?V0
   \   00003E   A9..         MOV     R1,?V1
   \   000040   85..82       MOV     DPL,?XSP + 0
   \   000043   85..83       MOV     DPH,?XSP + 1
   \   000046   E0           MOVX    A,@DPTR
   \   000047   68           XRL     A,R0
   \   000048   7003         JNZ     ??ZDO_ProcessDeviceAnnce_3
   \   00004A   A3           INC     DPTR
   \   00004B   E0           MOVX    A,@DPTR
   \   00004C   69           XRL     A,R1
   \                     ??ZDO_ProcessDeviceAnnce_3:
   \   00004D   7003         JNZ     $+5
   \   00004F   02....       LJMP    ??ZDO_ProcessDeviceAnnce_1 & 0xFFFF
   1968              {
   1969                return;
   1970              }
   1971            }
   1972          
   1973          #if defined ( ZIGBEEPRO )
   1974            // Clean up the neighbor table
   1975            nwkNeighborRemoveAllStranded();
   \                     ??ZDO_ProcessDeviceAnnce_2:
   \   000052                ; Setup parameters for call to function nwkNeighborRemoveAllStranded
   \   000052   12....       LCALL   ??nwkNeighborRemoveAllStranded?relay; Banked call to: nwkNeighborRemoveAllStranded
   1976          
   1977            // If address conflict is detected, no need to update the address manager
   1978            if ( NLME_CheckNewAddrSet( Annce.nwkAddr, Annce.extAddr )== ZFailure )
   \   000055                ; Setup parameters for call to function NLME_CheckNewAddrSet
   \   000055   7402         MOV     A,#0x2
   \   000057   12....       LCALL   ?XSTACK_DISP0_8
   \   00005A   AC82         MOV     R4,DPL
   \   00005C   AD83         MOV     R5,DPH
   \   00005E   12....       LCALL   ?Subroutine73 & 0xFFFF
   \                     ??CrossCallReturnLabel_310:
   \   000061   12....       LCALL   ??NLME_CheckNewAddrSet?relay; Banked call to: NLME_CheckNewAddrSet
   \   000064   E9           MOV     A,R1
   \   000065   6401         XRL     A,#0x1
   \   000067   7003         JNZ     $+5
   \   000069   02....       LJMP    ??ZDO_ProcessDeviceAnnce_1 & 0xFFFF
   1979            {
   1980              return;
   1981            }
   1982          
   1983            // Check for parent's address
   1984            NLME_GetCoordExtAddr( parentExt );
   \   00006C                ; Setup parameters for call to function NLME_GetCoordExtAddr
   \   00006C   7418         MOV     A,#0x18
   \   00006E   12....       LCALL   ?XSTACK_DISP101_8
   \   000071   12....       LCALL   ??NLME_GetCoordExtAddr?relay; Banked call to: NLME_GetCoordExtAddr
   1985            if ( osal_ExtAddrEqual( parentExt, Annce.extAddr ) )
   \   000074                ; Setup parameters for call to function sAddrExtCmp
   \   000074   7402         MOV     A,#0x2
   \   000076   12....       LCALL   ?XSTACK_DISP0_8
   \   000079   AC82         MOV     R4,DPL
   \   00007B   AD83         MOV     R5,DPH
   \   00007D   7418         MOV     A,#0x18
   \   00007F   12....       LCALL   ?XSTACK_DISP101_8
   \   000082   12....       LCALL   ??sAddrExtCmp?relay  ; Banked call to: sAddrExtCmp
   \   000085   E9           MOV     A,R1
   \   000086   6032         JZ      ??ZDO_ProcessDeviceAnnce_4
   1986            {
   1987              if ( Annce.nwkAddr != NLME_GetCoordShortAddr() )
   \   000088                ; Setup parameters for call to function NLME_GetCoordShortAddr
   \   000088   12....       LCALL   ??NLME_GetCoordShortAddr?relay; Banked call to: NLME_GetCoordShortAddr
   \   00008B   8A..         MOV     ?V0,R2
   \   00008D   8B..         MOV     ?V1,R3
   \   00008F   A8..         MOV     R0,?V0
   \   000091   A9..         MOV     R1,?V1
   \   000093   85..82       MOV     DPL,?XSP + 0
   \   000096   85..83       MOV     DPH,?XSP + 1
   \   000099   E0           MOVX    A,@DPTR
   \   00009A   68           XRL     A,R0
   \   00009B   7003         JNZ     ??ZDO_ProcessDeviceAnnce_5
   \   00009D   A3           INC     DPTR
   \   00009E   E0           MOVX    A,@DPTR
   \   00009F   69           XRL     A,R1
   \                     ??ZDO_ProcessDeviceAnnce_5:
   \   0000A0   6018         JZ      ??ZDO_ProcessDeviceAnnce_4
   1988              {
   1989                // Set the Parent's MAC's new short address
   1990                _NIB.nwkCoordAddress = Annce.nwkAddr;
   \   0000A2   85..82       MOV     DPL,?XSP + 0
   \   0000A5   85..83       MOV     DPH,?XSP + 1
   \   0000A8   12....       LCALL   ??Subroutine156_0 & 0xFFFF
   \                     ??CrossCallReturnLabel_345:
   \   0000AB   90....       MOV     DPTR,#_NIB + 23
   \   0000AE   12....       LCALL   ??Subroutine143_0 & 0xFFFF
   1991                ZMacSetReq( ZMacCoordShortAddress, (byte*)&(_NIB.nwkCoordAddress) );
   \                     ??CrossCallReturnLabel_271:
   \   0000B1                ; Setup parameters for call to function ZMacSetReq
   \   0000B1   7A..         MOV     R2,#(_NIB + 23) & 0xff
   \   0000B3   7B..         MOV     R3,#((_NIB + 23) >> 8) & 0xff
   \   0000B5   794B         MOV     R1,#0x4b
   \   0000B7   12....       LCALL   ??ZMacSetReq?relay   ; Banked call to: ZMacSetReq
   1992              }
   1993            }
   1994          
   1995            if ( ZSTACK_ROUTER_BUILD )
   1996            {
   1997              // If the device annce comes from a end device child that has moved
   1998              // to another parent, remove it from associated device list
   1999          
   2000              // If the dev annce is coming from other device's children,
   2001              // (The dev annce from its own children shall be unicast to itself,
   2002              // So check the mac destination address)
   2003              // Remove it from the associated device list. If it is not
   2004              // a child, no action will be taken in AssocRemove() anyway.
   2005              if ( inMsg->macDestAddr != NLME_GetShortAddr() )
   2006              {
   2007                associated_devices_t *dev_ptr;
   2008          
   2009                // If it's an end device child
   2010                dev_ptr = AssocGetWithExt( Annce.extAddr );
   2011                if ( dev_ptr )
   2012                {
   2013                  if ( dev_ptr->nodeRelation == CHILD_RFD ||
   2014                       dev_ptr->nodeRelation == CHILD_RFD_RX_IDLE )
   2015                  {
   2016                    AssocRemove( Annce.extAddr );
   2017                  }
   2018                }
   2019          
   2020                // Remove the address from the SrcMatch table,
   2021                // just in case the device was aged out by Child Management Table process
   2022                if ( ( pNwkNotMyChildListDelete != NULL ) &&
   2023                     ( zgChildAgingEnable == TRUE ) )
   2024                {
   2025                  pNwkNotMyChildListDelete( Annce.nwkAddr );
   2026                }
   2027              }
   2028            }
   2029          
   2030            // Assume that the device has moved, remove existing routing entries
   2031            RTG_RemoveRtgEntry( Annce.nwkAddr, 0 );
   \                     ??ZDO_ProcessDeviceAnnce_4:
   \   0000BA                ; Setup parameters for call to function RTG_RemoveRtgEntry
   \   0000BA   7900         MOV     R1,#0x0
   \   0000BC   12....       LCALL   ?Subroutine73 & 0xFFFF
   \                     ??CrossCallReturnLabel_311:
   \   0000BF   12....       LCALL   ??RTG_RemoveRtgEntry?relay; Banked call to: RTG_RemoveRtgEntry
   2032          
   2033            // Remove entry from neighborTable
   2034            nwkNeighborRemove( Annce.nwkAddr, _NIB.nwkPanId );
   \   0000C2                ; Setup parameters for call to function nwkNeighborRemove
   \   0000C2   90....       MOV     DPTR,#_NIB + 33
   \   0000C5   12....       LCALL   ?Subroutine76 & 0xFFFF
   \                     ??CrossCallReturnLabel_129:
   \   0000C8   12....       LCALL   ?Subroutine73 & 0xFFFF
   \                     ??CrossCallReturnLabel_312:
   \   0000CB   12....       LCALL   ??nwkNeighborRemove?relay; Banked call to: nwkNeighborRemove
   2035          
   2036          #endif // ZIGBEEPRO
   2037          
   2038            // Fill in the extended address in address manager if we don't have it already.
   2039            addrEntry.user = ADDRMGR_USER_DEFAULT;
   \   0000CE   740B         MOV     A,#0xb
   \   0000D0   12....       LCALL   ?XSTACK_DISP0_8
   \   0000D3   E4           CLR     A
   \   0000D4   12....       LCALL   ?Subroutine30 & 0xFFFF
   2040            addrEntry.nwkAddr = Annce.nwkAddr;
   \                     ??CrossCallReturnLabel_45:
   \   0000D7   F9           MOV     R1,A
   \   0000D8   740C         MOV     A,#0xc
   \   0000DA   12....       LCALL   ?XSTACK_DISP0_8
   \   0000DD   12....       LCALL   ??Subroutine143_0 & 0xFFFF
   2041            if ( AddrMgrEntryLookupNwk( &addrEntry ) )
   \                     ??CrossCallReturnLabel_272:
   \   0000E0                ; Setup parameters for call to function AddrMgrEntryLookupNwk
   \   0000E0   740B         MOV     A,#0xb
   \   0000E2   12....       LCALL   ?XSTACK_DISP101_8
   \   0000E5   12....       LCALL   ??AddrMgrEntryLookupNwk?relay; Banked call to: AddrMgrEntryLookupNwk
   \   0000E8   E9           MOV     A,R1
   \   0000E9   603F         JZ      ??ZDO_ProcessDeviceAnnce_6
   2042            {
   2043              osal_memset( parentExt, 0, Z_EXTADDR_LEN );
   \   0000EB                ; Setup parameters for call to function osal_memset
   \   0000EB   7C08         MOV     R4,#0x8
   \   0000ED   7D00         MOV     R5,#0x0
   \   0000EF   7900         MOV     R1,#0x0
   \   0000F1   7418         MOV     A,#0x18
   \   0000F3   12....       LCALL   ?XSTACK_DISP101_8
   \   0000F6   12....       LCALL   ??osal_memset?relay  ; Banked call to: osal_memset
   2044              if ( osal_ExtAddrEqual( parentExt, addrEntry.extAddr ) )
   \   0000F9                ; Setup parameters for call to function sAddrExtCmp
   \   0000F9   740E         MOV     A,#0xe
   \   0000FB   12....       LCALL   ?XSTACK_DISP0_8
   \   0000FE   AC82         MOV     R4,DPL
   \   000100   AD83         MOV     R5,DPH
   \   000102   7418         MOV     A,#0x18
   \   000104   12....       LCALL   ?XSTACK_DISP101_8
   \   000107   12....       LCALL   ??sAddrExtCmp?relay  ; Banked call to: sAddrExtCmp
   \   00010A   E9           MOV     A,R1
   \   00010B   601D         JZ      ??ZDO_ProcessDeviceAnnce_6
   2045              {
   2046                AddrMgrExtAddrSet( addrEntry.extAddr, Annce.extAddr );
   \   00010D                ; Setup parameters for call to function AddrMgrExtAddrSet
   \   00010D   7402         MOV     A,#0x2
   \   00010F   12....       LCALL   ?XSTACK_DISP0_8
   \   000112   AC82         MOV     R4,DPL
   \   000114   AD83         MOV     R5,DPH
   \   000116   740E         MOV     A,#0xe
   \   000118   12....       LCALL   ?XSTACK_DISP0_8
   \   00011B   AA82         MOV     R2,DPL
   \   00011D   AB83         MOV     R3,DPH
   \   00011F   12....       LCALL   ??AddrMgrExtAddrSet?relay; Banked call to: AddrMgrExtAddrSet
   2047                AddrMgrEntryUpdate( &addrEntry );
   \   000122                ; Setup parameters for call to function AddrMgrEntryUpdate
   \   000122   740B         MOV     A,#0xb
   \   000124   12....       LCALL   ?XSTACK_DISP101_8
   \   000127   12....       LCALL   ??AddrMgrEntryUpdate?relay; Banked call to: AddrMgrEntryUpdate
   2048              }
   2049            }
   2050          
   2051            // Update the short address in address manager if it's been changed
   2052            AddrMgrExtAddrSet( addrEntry.extAddr, Annce.extAddr );
   \                     ??ZDO_ProcessDeviceAnnce_6:
   \   00012A                ; Setup parameters for call to function AddrMgrExtAddrSet
   \   00012A   7402         MOV     A,#0x2
   \   00012C   12....       LCALL   ?XSTACK_DISP0_8
   \   00012F   AC82         MOV     R4,DPL
   \   000131   AD83         MOV     R5,DPH
   \   000133   740E         MOV     A,#0xe
   \   000135   12....       LCALL   ?XSTACK_DISP0_8
   \   000138   AA82         MOV     R2,DPL
   \   00013A   AB83         MOV     R3,DPH
   \   00013C   12....       LCALL   ??AddrMgrExtAddrSet?relay; Banked call to: AddrMgrExtAddrSet
   2053            if ( AddrMgrEntryLookupExt( &addrEntry ) )
   \   00013F                ; Setup parameters for call to function AddrMgrEntryLookupExt
   \   00013F   740B         MOV     A,#0xb
   \   000141   12....       LCALL   ?XSTACK_DISP101_8
   \   000144   12....       LCALL   ??AddrMgrEntryLookupExt?relay; Banked call to: AddrMgrEntryLookupExt
   \   000147   E9           MOV     A,R1
   \   000148   6030         JZ      ??ZDO_ProcessDeviceAnnce_1
   2054            {
   2055              if ( addrEntry.nwkAddr != Annce.nwkAddr )
   \   00014A   740C         MOV     A,#0xc
   \   00014C   12....       LCALL   ?XSTACK_DISP0_8
   \   00014F   12....       LCALL   ??Subroutine156_0 & 0xFFFF
   \                     ??CrossCallReturnLabel_346:
   \   000152   85..82       MOV     DPL,?XSP + 0
   \   000155   85..83       MOV     DPH,?XSP + 1
   \   000158   E0           MOVX    A,@DPTR
   \   000159   68           XRL     A,R0
   \   00015A   7003         JNZ     ??ZDO_ProcessDeviceAnnce_7
   \   00015C   A3           INC     DPTR
   \   00015D   E0           MOVX    A,@DPTR
   \   00015E   69           XRL     A,R1
   \                     ??ZDO_ProcessDeviceAnnce_7:
   \   00015F   6019         JZ      ??ZDO_ProcessDeviceAnnce_1
   2056              {
   2057                addrEntry.nwkAddr = Annce.nwkAddr;
   \   000161   85..82       MOV     DPL,?XSP + 0
   \   000164   85..83       MOV     DPH,?XSP + 1
   \   000167   12....       LCALL   ??Subroutine156_0 & 0xFFFF
   \                     ??CrossCallReturnLabel_347:
   \   00016A   740C         MOV     A,#0xc
   \   00016C   12....       LCALL   ?XSTACK_DISP0_8
   \   00016F   12....       LCALL   ??Subroutine143_0 & 0xFFFF
   2058                AddrMgrEntryUpdate( &addrEntry );
   \                     ??CrossCallReturnLabel_273:
   \   000172                ; Setup parameters for call to function AddrMgrEntryUpdate
   \   000172   740B         MOV     A,#0xb
   \   000174   12....       LCALL   ?XSTACK_DISP101_8
   \   000177   12....       LCALL   ??AddrMgrEntryUpdate?relay; Banked call to: AddrMgrEntryUpdate
   2059              }
   2060            }
   2061          }
   \                     ??ZDO_ProcessDeviceAnnce_1:
   \   00017A   7420         MOV     A,#0x20
   \   00017C   02....       LJMP    ??Subroutine140_0 & 0xFFFF

   \                                 In  segment BANKED_CODE, align 1, keep-with-next
   \                     ?Subroutine30:
   \   000000   12....       LCALL   ?Subroutine115 & 0xFFFF
   \                     ??CrossCallReturnLabel_210:
   \   000003   F8           MOV     R0,A
   \   000004   A3           INC     DPTR
   \   000005   E0           MOVX    A,@DPTR
   \   000006   22           RET
   2062          
   2063          /*********************************************************************
   2064           * @fn          ZDO_ProcessParentAnnce
   2065           *
   2066           * @brief       This function processes a Parent annouce message.
   2067           *
   2068           * @param       inMsg - incoming message
   2069           *
   2070           * @return      none
   2071           */

   \                                 In  segment BANKED_CODE, align 1, keep-with-next
   2072          void ZDO_ProcessParentAnnce( zdoIncomingMsg_t *inMsg )
   \                     ZDO_ProcessParentAnnce:
   2073          {
   \   000000                REQUIRE ?V0
   \   000000                REQUIRE ?V1
   \   000000                REQUIRE ?V2
   \   000000                REQUIRE ?V3
   \   000000                REQUIRE ?V4
   \   000000                REQUIRE ?V5
   \   000000                REQUIRE ?V6
   \   000000                REQUIRE ?V7
   \   000000                REQUIRE ?V8
   \   000000                REQUIRE ?V9
   \   000000                REQUIRE ?V10
   \   000000                REQUIRE ?V11
   \   000000                REQUIRE ?V12
   \   000000                REQUIRE ?V13
   \   000000                REQUIRE ?V14
   \   000000                REQUIRE ?V15
   \   000000   74E8         MOV     A,#-0x18
   \   000002   12....       LCALL   ?BANKED_ENTER_XDATA
   \   000005                ; Saved register size: 24
   \   000005                ; Auto size: 11
   \   000005   74F5         MOV     A,#-0xb
   \   000007   12....       LCALL   ?ALLOC_XSTACK8
   \   00000A   85..82       MOV     DPL,?XSP + 0
   \   00000D   85..83       MOV     DPH,?XSP + 1
   \   000010   12....       LCALL   ?Subroutine39 & 0xFFFF
   2074            ZDO_ParentAnnce_t *parentAnnce;
   2075            uint8 x;
   2076            uint8 childCount = 0;
   \                     ??CrossCallReturnLabel_70:
   \   000013   7F00         MOV     R7,#0x0
   2077            uint32 localAge;
   2078          
   2079            ZDO_ChildInfoList_t *listHead = NULL;
   \   000015   8F..         MOV     ?V0,R7
   \   000017   8F..         MOV     ?V1,R7
   2080            ZDO_ChildInfoList_t *listTail;
   2081            ZDO_ChildInfoList_t *newNode;
   2082          
   2083            // Parse incoming message, memory is allocated by the parse function,
   2084            // it should be free after processing the message
   2085            parentAnnce = ZDO_ParseParentAnnce( inMsg );
   \   000019                ; Setup parameters for call to function ZDO_ParseParentAnnce
   \   000019   85..82       MOV     DPL,?XSP + 0
   \   00001C   85..83       MOV     DPH,?XSP + 1
   \   00001F   E0           MOVX    A,@DPTR
   \   000020   FA           MOV     R2,A
   \   000021   12....       LCALL   ??ZDO_ParseParentAnnce?relay; Banked call to: ZDO_ParseParentAnnce
   \   000024   8A..         MOV     ?V14,R2
   \   000026   8B..         MOV     ?V15,R3
   2086          
   2087            if ( parentAnnce != NULL )
   \   000028   EA           MOV     A,R2
   \   000029   45..         ORL     A,?V15
   \   00002B   7003         JNZ     $+5
   \   00002D   02....       LJMP    ??ZDO_ProcessParentAnnce_0 & 0xFFFF
   2088            {
   2089              for ( x = 0; x < parentAnnce->numOfChildren; x++ )
   \   000030   7E00         MOV     R6,#0x0
   \   000032   8008         SJMP    ??ZDO_ProcessParentAnnce_1
   2090              {
   2091                associated_devices_t *dev_ptr;
   2092                localAge = 0xFFFFFFFF;
   2093          
   2094                // If it's an End Device child
   2095                dev_ptr = AssocGetWithExt( parentAnnce->childInfo[x].extAddr );
   2096          
   2097                if ( dev_ptr )
   2098                {
   2099                  if ( dev_ptr->nodeRelation == CHILD_RFD ||
   2100                       dev_ptr->nodeRelation == CHILD_RFD_RX_IDLE )
   2101                  {
   2102                    if ( dev_ptr->keepaliveRcv == TRUE )
   2103                    {
   2104                      localAge = dev_ptr->endDev.deviceTimeout - dev_ptr->timeoutCounter;
   2105                    }
   2106          
   2107                    if ( localAge < parentAnnce->childInfo[x].age )
   2108                    {
   2109                      // Add one element to the list
   2110                      newNode = (ZDO_ChildInfoList_t *)osal_mem_alloc( sizeof(ZDO_ChildInfoList_t) );
   2111          
   2112                      osal_cpyExtAddr( newNode->child.extAddr, parentAnnce->childInfo[x].extAddr );
   2113          
   2114                      newNode->child.age = localAge;
   2115          
   2116                      newNode->next = NULL;
   2117          
   2118                      if ( listHead == NULL )
   2119                      {
   2120                        // Initialize the head of the list
   2121                        listHead = listTail = newNode;
   2122                      }
   2123                      else
   2124                      {
   2125                        // Add new element to the end
   2126                        listTail->next = newNode;
   2127          
   2128                        listTail = listTail->next;
   2129                      }
   2130          
   2131                      childCount++;
   2132                    }
   2133                    else
   2134                    {
   2135                      AssocRemove( parentAnnce->childInfo[x].extAddr );
   \                     ??ZDO_ProcessParentAnnce_2:
   \   000034                ; Setup parameters for call to function AssocRemove
   \   000034   AA..         MOV     R2,?V12
   \   000036   AB..         MOV     R3,?V13
   \   000038   12....       LCALL   ??AssocRemove?relay  ; Banked call to: AssocRemove
   2136                    }
   \                     ??ZDO_ProcessParentAnnce_3:
   \   00003B   0E           INC     R6
   \                     ??ZDO_ProcessParentAnnce_1:
   \   00003C   85..82       MOV     DPL,?V14
   \   00003F   85..83       MOV     DPH,?V15
   \   000042   E0           MOVX    A,@DPTR
   \   000043   F8           MOV     R0,A
   \   000044   EE           MOV     A,R6
   \   000045   C3           CLR     C
   \   000046   98           SUBB    A,R0
   \   000047   4003         JC      $+5
   \   000049   02....       LJMP    ??ZDO_ProcessParentAnnce_4 & 0xFFFF
   \   00004C   75..FF       MOV     ?V4,#-0x1
   \   00004F   75..FF       MOV     ?V5,#-0x1
   \   000052   75..FF       MOV     ?V6,#-0x1
   \   000055   75..FF       MOV     ?V7,#-0x1
   \   000058   EE           MOV     A,R6
   \   000059   75F00C       MOV     B,#0xc
   \   00005C   A4           MUL     AB
   \   00005D   F8           MOV     R0,A
   \   00005E   A9F0         MOV     R1,B
   \   000060   E5..         MOV     A,?V14
   \   000062   28           ADD     A,R0
   \   000063   F5..         MOV     ?V10,A
   \   000065   E5..         MOV     A,?V15
   \   000067   39           ADDC    A,R1
   \   000068   F5..         MOV     ?V11,A
   \   00006A   85..82       MOV     DPL,?V10
   \   00006D   F583         MOV     DPH,A
   \   00006F   A3           INC     DPTR
   \   000070   8582..       MOV     ?V12,DPL
   \   000073   8583..       MOV     ?V13,DPH
   \   000076                ; Setup parameters for call to function AssocGetWithExt
   \   000076   AA..         MOV     R2,?V12
   \   000078   AB..         MOV     R3,?V13
   \   00007A   12....       LCALL   ??AssocGetWithExt?relay; Banked call to: AssocGetWithExt
   \   00007D   EA           MOV     A,R2
   \   00007E   4B           ORL     A,R3
   \   00007F   60BA         JZ      ??ZDO_ProcessParentAnnce_3
   \   000081   8A82         MOV     DPL,R2
   \   000083   8B83         MOV     DPH,R3
   \   000085   A3           INC     DPTR
   \   000086   A3           INC     DPTR
   \   000087   A3           INC     DPTR
   \   000088   A3           INC     DPTR
   \   000089   E0           MOVX    A,@DPTR
   \   00008A   F8           MOV     R0,A
   \   00008B   7401         MOV     A,#0x1
   \   00008D   68           XRL     A,R0
   \   00008E   6005         JZ      ??ZDO_ProcessParentAnnce_5
   \   000090   7402         MOV     A,#0x2
   \   000092   68           XRL     A,R0
   \   000093   70A6         JNZ     ??ZDO_ProcessParentAnnce_3
   \                     ??ZDO_ProcessParentAnnce_5:
   \   000095   12....       LCALL   ?Subroutine105 & 0xFFFF
   \                     ??CrossCallReturnLabel_190:
   \   000098   7010         JNZ     ??ZDO_ProcessParentAnnce_6
   \   00009A   12....       LCALL   ?Subroutine85 & 0xFFFF
   \                     ??CrossCallReturnLabel_144:
   \   00009D   78..         MOV     R0,#?V4
   \   00009F   12....       LCALL   ?L_MOV_X
   \   0000A2   12....       LCALL   ?Subroutine103 & 0xFFFF
   \                     ??CrossCallReturnLabel_186:
   \   0000A5   78..         MOV     R0,#?V4
   \   0000A7   12....       LCALL   ?L_SUB_X
   \                     ??ZDO_ProcessParentAnnce_6:
   \   0000AA   85..82       MOV     DPL,?V10
   \   0000AD   85..83       MOV     DPH,?V11
   \   0000B0   A3           INC     DPTR
   \   0000B1   A3           INC     DPTR
   \   0000B2   A3           INC     DPTR
   \   0000B3   A3           INC     DPTR
   \   0000B4   A3           INC     DPTR
   \   0000B5   A3           INC     DPTR
   \   0000B6   A3           INC     DPTR
   \   0000B7   A3           INC     DPTR
   \   0000B8   A3           INC     DPTR
   \   0000B9   78..         MOV     R0,#?V4
   \   0000BB   12....       LCALL   ?UL_GE_X
   \   0000BE   5003         JNC     $+5
   \   0000C0   02....       LJMP    ??ZDO_ProcessParentAnnce_2 & 0xFFFF
   \   0000C3                ; Setup parameters for call to function osal_mem_alloc
   \   0000C3   7A0E         MOV     R2,#0xe
   \   0000C5   7B00         MOV     R3,#0x0
   \   0000C7   12....       LCALL   ??osal_mem_alloc?relay; Banked call to: osal_mem_alloc
   \   0000CA   8A..         MOV     ?V2,R2
   \   0000CC   8B..         MOV     ?V3,R3
   \   0000CE                ; Setup parameters for call to function sAddrExtCpy
   \   0000CE   AC..         MOV     R4,?V12
   \   0000D0   AD..         MOV     R5,?V13
   \   0000D2   12....       LCALL   ??sAddrExtCpy?relay  ; Banked call to: sAddrExtCpy
   \   0000D5   85..82       MOV     DPL,?V2
   \   0000D8   85..83       MOV     DPH,?V3
   \   0000DB   A3           INC     DPTR
   \   0000DC   A3           INC     DPTR
   \   0000DD   A3           INC     DPTR
   \   0000DE   A3           INC     DPTR
   \   0000DF   A3           INC     DPTR
   \   0000E0   A3           INC     DPTR
   \   0000E1   A3           INC     DPTR
   \   0000E2   A3           INC     DPTR
   \   0000E3   78..         MOV     R0,#?V4
   \   0000E5   12....       LCALL   ?L_MOV_TO_X
   \   0000E8   E5..         MOV     A,?V2
   \   0000EA   240C         ADD     A,#0xc
   \   0000EC   12....       LCALL   ?Subroutine101 & 0xFFFF
   \                     ??CrossCallReturnLabel_262:
   \   0000EF   E4           CLR     A
   \   0000F0   F0           MOVX    @DPTR,A
   \   0000F1   A3           INC     DPTR
   \   0000F2   F0           MOVX    @DPTR,A
   \   0000F3   E5..         MOV     A,?V0
   \   0000F5   45..         ORL     A,?V1
   \   0000F7   700E         JNZ     ??ZDO_ProcessParentAnnce_7
   \   0000F9   85....       MOV     ?V8,?V2
   \   0000FC   85....       MOV     ?V9,?V3
   \   0000FF   85....       MOV     ?V0,?V8
   \   000102   85....       MOV     ?V1,?V9
   \   000105   801C         SJMP    ??ZDO_ProcessParentAnnce_8
   \                     ??ZDO_ProcessParentAnnce_7:
   \   000107   E5..         MOV     A,?V8
   \   000109   240C         ADD     A,#0xc
   \   00010B   F8           MOV     R0,A
   \   00010C   E4           CLR     A
   \   00010D   35..         ADDC    A,?V9
   \   00010F   F9           MOV     R1,A
   \   000110   8882         MOV     DPL,R0
   \   000112   8983         MOV     DPH,R1
   \   000114   E5..         MOV     A,?V2
   \   000116   F0           MOVX    @DPTR,A
   \   000117   A3           INC     DPTR
   \   000118   E5..         MOV     A,?V3
   \   00011A   12....       LCALL   ?Subroutine14 & 0xFFFF
   \                     ??CrossCallReturnLabel_12:
   \   00011D   F5..         MOV     ?V8,A
   \   00011F   A3           INC     DPTR
   \   000120   E0           MOVX    A,@DPTR
   \   000121   F5..         MOV     ?V9,A
   \                     ??ZDO_ProcessParentAnnce_8:
   \   000123   0F           INC     R7
   \   000124   02....       LJMP    ??ZDO_ProcessParentAnnce_3 & 0xFFFF
   2137                  }
   2138                }
   2139              }
   2140          
   2141              // If the device has children that match some in the received list,
   2142              // it should send a unicast Parent_Annce_rsp message.
   2143              if ( childCount > 0 )
   \                     ??ZDO_ProcessParentAnnce_4:
   \   000127   EF           MOV     A,R7
   \   000128   7003         JNZ     $+5
   \   00012A   02....       LJMP    ??ZDO_ProcessParentAnnce_9 & 0xFFFF
   2144              {
   2145                ZDO_ChildInfo_t *childInfo;
   2146                zAddrType_t dstAddr;
   2147          
   2148                dstAddr.addrMode = (afAddrMode_t)Addr16Bit;
   \   00012D   740A         MOV     A,#0xa
   \   00012F   12....       LCALL   ?XSTACK_DISP0_8
   \   000132   7402         MOV     A,#0x2
   \   000134   12....       LCALL   ?Subroutine30 & 0xFFFF
   2149                dstAddr.addr.shortAddr = inMsg->srcAddr.addr.shortAddr;
   \                     ??CrossCallReturnLabel_46:
   \   000137   F583         MOV     DPH,A
   \   000139   8882         MOV     DPL,R0
   \   00013B   A3           INC     DPTR
   \   00013C   A3           INC     DPTR
   \   00013D   12....       LCALL   ??Subroutine156_0 & 0xFFFF
   \                     ??CrossCallReturnLabel_348:
   \   000140   7402         MOV     A,#0x2
   \   000142   12....       LCALL   ?XSTACK_DISP0_8
   \   000145   12....       LCALL   ??Subroutine143_0 & 0xFFFF
   2150          
   2151                x = 0;
   \                     ??CrossCallReturnLabel_274:
   \   000148   7E00         MOV     R6,#0x0
   2152          
   2153                childInfo = (ZDO_ChildInfo_t *)osal_mem_alloc( childCount * sizeof(ZDO_ChildInfo_t) );
   \   00014A                ; Setup parameters for call to function osal_mem_alloc
   \   00014A   EF           MOV     A,R7
   \   00014B   75F00C       MOV     B,#0xc
   \   00014E   A4           MUL     AB
   \   00014F   FA           MOV     R2,A
   \   000150   ABF0         MOV     R3,B
   \   000152   12....       LCALL   ??osal_mem_alloc?relay; Banked call to: osal_mem_alloc
   \   000155   8A..         MOV     ?V4,R2
   \   000157   8B..         MOV     ?V5,R3
   2154          
   2155                if ( childInfo != NULL )
   \   000159   EA           MOV     A,R2
   \   00015A   45..         ORL     A,?V5
   \   00015C   7003         JNZ     $+5
   \   00015E   02....       LJMP    ??ZDO_ProcessParentAnnce_9 & 0xFFFF
   \   000161   805E         SJMP    ??ZDO_ProcessParentAnnce_10
   2156                {
   2157                  // Copy the content of the link list into this buffer
   2158                  while ( listHead != NULL )
   2159                  {
   2160                    listTail = listHead;
   \                     ??ZDO_ProcessParentAnnce_11:
   \   000163   85....       MOV     ?V8,?V0
   \   000166   85....       MOV     ?V9,?V1
   2161          
   2162                    osal_cpyExtAddr( childInfo[x].extAddr,  listHead->child.extAddr );
   \   000169   EE           MOV     A,R6
   \   00016A   75F00C       MOV     B,#0xc
   \   00016D   A4           MUL     AB
   \   00016E   F8           MOV     R0,A
   \   00016F   A9F0         MOV     R1,B
   \   000171   E5..         MOV     A,?V4
   \   000173   28           ADD     A,R0
   \   000174   F5..         MOV     ?V2,A
   \   000176   E5..         MOV     A,?V5
   \   000178   39           ADDC    A,R1
   \   000179   F5..         MOV     ?V3,A
   \   00017B                ; Setup parameters for call to function sAddrExtCpy
   \   00017B   AC..         MOV     R4,?V0
   \   00017D   AD..         MOV     R5,?V1
   \   00017F   AA..         MOV     R2,?V2
   \   000181   FB           MOV     R3,A
   \   000182   12....       LCALL   ??sAddrExtCpy?relay  ; Banked call to: sAddrExtCpy
   2163                    childInfo[x].age = listHead->child.age;
   \   000185   85..82       MOV     DPL,?V0
   \   000188   85..83       MOV     DPH,?V1
   \   00018B   A3           INC     DPTR
   \   00018C   A3           INC     DPTR
   \   00018D   A3           INC     DPTR
   \   00018E   A3           INC     DPTR
   \   00018F   A3           INC     DPTR
   \   000190   A3           INC     DPTR
   \   000191   A3           INC     DPTR
   \   000192   A3           INC     DPTR
   \   000193   12....       LCALL   ?XLOAD_R0123
   \   000196   85..82       MOV     DPL,?V2
   \   000199   85..83       MOV     DPH,?V3
   \   00019C   A3           INC     DPTR
   \   00019D   A3           INC     DPTR
   \   00019E   A3           INC     DPTR
   \   00019F   A3           INC     DPTR
   \   0001A0   A3           INC     DPTR
   \   0001A1   A3           INC     DPTR
   \   0001A2   A3           INC     DPTR
   \   0001A3   A3           INC     DPTR
   \   0001A4   12....       LCALL   ?XSTORE_R0123
   2164          
   2165                    x++;
   \   0001A7   0E           INC     R6
   2166          
   2167                    listHead = listTail->next;
   \   0001A8   E5..         MOV     A,?V8
   \   0001AA   240C         ADD     A,#0xc
   \   0001AC   F582         MOV     DPL,A
   \   0001AE   E4           CLR     A
   \   0001AF   35..         ADDC    A,?V9
   \   0001B1   F583         MOV     DPH,A
   \   0001B3   E0           MOVX    A,@DPTR
   \   0001B4   F5..         MOV     ?V0,A
   \   0001B6   A3           INC     DPTR
   \   0001B7   E0           MOVX    A,@DPTR
   \   0001B8   F5..         MOV     ?V1,A
   2168          
   2169                    // Free this element of the link list
   2170                    osal_mem_free( listTail );
   \   0001BA                ; Setup parameters for call to function osal_mem_free
   \   0001BA   AA..         MOV     R2,?V8
   \   0001BC   AB..         MOV     R3,?V9
   \   0001BE   12....       LCALL   ??osal_mem_free?relay; Banked call to: osal_mem_free
   2171                  }
   \                     ??ZDO_ProcessParentAnnce_10:
   \   0001C1   E5..         MOV     A,?V0
   \   0001C3   45..         ORL     A,?V1
   \   0001C5   709C         JNZ     ??ZDO_ProcessParentAnnce_11
   2172          
   2173                  ZDP_ParentAnnceRsp( (inMsg->TransSeq), dstAddr, childCount,
   2174                                      ((uint8 *)childInfo), 0 );
   \   0001C7                ; Setup parameters for call to function ZDP_ParentAnnce
   \   0001C7   75..00       MOV     ?V0,#0x0
   \   0001CA   78..         MOV     R0,#?V0
   \   0001CC   12....       LCALL   ?PUSH_XSTACK_I_ONE
   \   0001CF   75..1F       MOV     ?V0,#0x1f
   \   0001D2   75..80       MOV     ?V1,#-0x80
   \   0001D5   78..         MOV     R0,#?V0
   \   0001D7   12....       LCALL   ?PUSH_XSTACK_I_TWO
   \   0001DA   78..         MOV     R0,#?V4
   \   0001DC   12....       LCALL   ?PUSH_XSTACK_I_TWO
   \   0001DF   EF           MOV     A,R7
   \   0001E0   F9           MOV     R1,A
   \   0001E1   7407         MOV     A,#0x7
   \   0001E3   12....       LCALL   ?XSTACK_DISP102_8
   \   0001E6   7405         MOV     A,#0x5
   \   0001E8   12....       LCALL   ?XSTACK_DISP0_8
   \   0001EB   E0           MOVX    A,@DPTR
   \   0001EC   240F         ADD     A,#0xf
   \   0001EE   FA           MOV     R2,A
   \   0001EF   A3           INC     DPTR
   \   0001F0   E0           MOVX    A,@DPTR
   \   0001F1   3400         ADDC    A,#0x0
   \   0001F3   FB           MOV     R3,A
   \   0001F4   12....       LCALL   ??ZDP_ParentAnnce?relay; Banked call to: ZDP_ParentAnnce
   \   0001F7   7405         MOV     A,#0x5
   \   0001F9   12....       LCALL   ?DEALLOC_XSTACK8
   2175                }
   2176              }
   2177          
   2178              // Free memory allocated by parsing function
   2179              osal_mem_free( parentAnnce );
   \                     ??ZDO_ProcessParentAnnce_9:
   \   0001FC                ; Setup parameters for call to function osal_mem_free
   \   0001FC   AA..         MOV     R2,?V14
   \   0001FE   AB..         MOV     R3,?V15
   \   000200   12....       LCALL   ??osal_mem_free?relay; Banked call to: osal_mem_free
   2180            }
   2181          }
   \                     ??ZDO_ProcessParentAnnce_0:
   \   000203   740B         MOV     A,#0xb
   \   000205   02....       LJMP    ?Subroutine5 & 0xFFFF

   \                                 In  segment BANKED_CODE, align 1, keep-with-next
   \                     ?Subroutine105:
   \   000000   EA           MOV     A,R2
   \   000001   241B         ADD     A,#0x1b
   \   000003   F582         MOV     DPL,A
   \   000005   E4           CLR     A
   \   000006   3B           ADDC    A,R3
   \   000007   F583         MOV     DPH,A
   \   000009   E0           MOVX    A,@DPTR
   \   00000A   6401         XRL     A,#0x1
   \   00000C   22           RET

   \                                 In  segment BANKED_CODE, align 1, keep-with-next
   \                     ?Subroutine103:
   \   000000   EA           MOV     A,R2
   \   000001   2417         ADD     A,#0x17
   \   000003   F582         MOV     DPL,A
   \   000005   E4           CLR     A
   \   000006   3B           ADDC    A,R3
   \   000007   F583         MOV     DPH,A
   \   000009   22           RET

   \                                 In  segment BANKED_CODE, align 1, keep-with-next
   \                     ?Subroutine85:
   \   000000   12....       LCALL   ?Subroutine128 & 0xFFFF
   \                     ??CrossCallReturnLabel_236:
   \   000003   22           RET

   \                                 In  segment BANKED_CODE, align 1, keep-with-next
   \                     ?Subroutine128:
   \   000000   12....       LCALL   ?Subroutine137 & 0xFFFF
   \                     ??CrossCallReturnLabel_251:
   \   000003   22           RET

   \                                 In  segment BANKED_CODE, align 1, keep-with-next
   \                     ?Subroutine137:
   \   000000   EA           MOV     A,R2
   \   000001   2413         ADD     A,#0x13
   \   000003   F582         MOV     DPL,A
   \   000005   E4           CLR     A
   \   000006   3B           ADDC    A,R3
   \   000007   F583         MOV     DPH,A
   \   000009   22           RET
   2182          
   2183          /*********************************************************************
   2184           * @fn          ZDO_ProcessParentAnnceRsp
   2185           *
   2186           * @brief       This function processes a Parent annouce response message.
   2187           *
   2188           * @param       inMsg - incoming message
   2189           *
   2190           * @return      none
   2191           */

   \                                 In  segment BANKED_CODE, align 1, keep-with-next
   2192          void ZDO_ProcessParentAnnceRsp( zdoIncomingMsg_t *inMsg )
   \                     ZDO_ProcessParentAnnceRsp:
   2193          {
   \   000000                REQUIRE ?V0
   \   000000                REQUIRE ?V1
   \   000000                REQUIRE ?V2
   \   000000                REQUIRE ?V3
   \   000000                REQUIRE ?V4
   \   000000                REQUIRE ?V6
   \   000000                REQUIRE ?V7
   \   000000                REQUIRE ?V8
   \   000000                REQUIRE ?V9
   \   000000                REQUIRE ?V10
   \   000000                REQUIRE ?V11
   \   000000   74EC         MOV     A,#-0x14
   \   000002   12....       LCALL   ?BANKED_ENTER_XDATA
   \   000005                ; Saved register size: 20
   \   000005                ; Auto size: 0
   2194            ZDO_ParentAnnce_t *parentAnnce;
   2195            uint8 x;
   2196            uint32 localAge;
   2197          
   2198            // Parse incoming message, memory is allocated by the parse function,
   2199            // it should be free after processing the message
   2200            parentAnnce = ZDO_ParseParentAnnce( inMsg );
   \   000005                ; Setup parameters for call to function ZDO_ParseParentAnnce
   \   000005   12....       LCALL   ??ZDO_ParseParentAnnce?relay; Banked call to: ZDO_ParseParentAnnce
   \   000008   8A..         MOV     ?V0,R2
   \   00000A   8B..         MOV     ?V1,R3
   \   00000C   AE..         MOV     R6,?V0
   \   00000E   AF..         MOV     R7,?V1
   2201          
   2202            if ( parentAnnce != NULL )
   \   000010   EE           MOV     A,R6
   \   000011   4F           ORL     A,R7
   \   000012   7003         JNZ     $+5
   \   000014   02....       LJMP    ??ZDO_ProcessParentAnnceRsp_0 & 0xFFFF
   2203            {
   2204              for ( x = 0; x < parentAnnce->numOfChildren; x++ )
   \   000017   75..00       MOV     ?V4,#0x0
   \   00001A   807C         SJMP    ??ZDO_ProcessParentAnnceRsp_1
   2205              {
   2206                associated_devices_t *dev_ptr;
   2207                localAge = 0xFFFFFFFF;
   \                     ??ZDO_ProcessParentAnnceRsp_2:
   \   00001C   75..FF       MOV     ?V0,#-0x1
   \   00001F   75..FF       MOV     ?V1,#-0x1
   \   000022   75..FF       MOV     ?V2,#-0x1
   \   000025   75..FF       MOV     ?V3,#-0x1
   2208          
   2209                // If it's an End Device child
   2210                dev_ptr = AssocGetWithExt( parentAnnce->childInfo[x].extAddr );
   \   000028   E5..         MOV     A,?V4
   \   00002A   75F00C       MOV     B,#0xc
   \   00002D   A4           MUL     AB
   \   00002E   F8           MOV     R0,A
   \   00002F   A9F0         MOV     R1,B
   \   000031   EE           MOV     A,R6
   \   000032   28           ADD     A,R0
   \   000033   F5..         MOV     ?V8,A
   \   000035   EF           MOV     A,R7
   \   000036   39           ADDC    A,R1
   \   000037   F5..         MOV     ?V9,A
   \   000039   85..82       MOV     DPL,?V8
   \   00003C   F583         MOV     DPH,A
   \   00003E   A3           INC     DPTR
   \   00003F   8582..       MOV     ?V6,DPL
   \   000042   8583..       MOV     ?V7,DPH
   \   000045                ; Setup parameters for call to function AssocGetWithExt
   \   000045   AA..         MOV     R2,?V6
   \   000047   AB..         MOV     R3,?V7
   \   000049   12....       LCALL   ??AssocGetWithExt?relay; Banked call to: AssocGetWithExt
   2211          
   2212                if ( dev_ptr )
   \   00004C   EA           MOV     A,R2
   \   00004D   4B           ORL     A,R3
   \   00004E   6046         JZ      ??ZDO_ProcessParentAnnceRsp_3
   2213                {
   2214                  if ( dev_ptr->nodeRelation == CHILD_RFD ||
   2215                       dev_ptr->nodeRelation == CHILD_RFD_RX_IDLE )
   \   000050   8A82         MOV     DPL,R2
   \   000052   8B83         MOV     DPH,R3
   \   000054   A3           INC     DPTR
   \   000055   A3           INC     DPTR
   \   000056   A3           INC     DPTR
   \   000057   A3           INC     DPTR
   \   000058   E0           MOVX    A,@DPTR
   \   000059   F8           MOV     R0,A
   \   00005A   7401         MOV     A,#0x1
   \   00005C   68           XRL     A,R0
   \   00005D   6005         JZ      ??ZDO_ProcessParentAnnceRsp_4
   \   00005F   7402         MOV     A,#0x2
   \   000061   68           XRL     A,R0
   \   000062   7032         JNZ     ??ZDO_ProcessParentAnnceRsp_3
   2216                  {
   2217                    if ( dev_ptr->keepaliveRcv == TRUE )
   \                     ??ZDO_ProcessParentAnnceRsp_4:
   \   000064   12....       LCALL   ?Subroutine105 & 0xFFFF
   \                     ??CrossCallReturnLabel_191:
   \   000067   7010         JNZ     ??ZDO_ProcessParentAnnceRsp_5
   2218                    {
   2219                      localAge = dev_ptr->endDev.deviceTimeout - dev_ptr->timeoutCounter;
   \   000069   12....       LCALL   ?Subroutine85 & 0xFFFF
   2220                    }
   \                     ??CrossCallReturnLabel_145:
   \   00006C   78..         MOV     R0,#?V0
   \   00006E   12....       LCALL   ?L_MOV_X
   \   000071   12....       LCALL   ?Subroutine103 & 0xFFFF
   \                     ??CrossCallReturnLabel_187:
   \   000074   78..         MOV     R0,#?V0
   \   000076   12....       LCALL   ?L_SUB_X
   2221          
   2222                    if ( localAge >= parentAnnce->childInfo[x].age )
   \                     ??ZDO_ProcessParentAnnceRsp_5:
   \   000079   85..82       MOV     DPL,?V8
   \   00007C   85..83       MOV     DPH,?V9
   \   00007F   A3           INC     DPTR
   \   000080   A3           INC     DPTR
   \   000081   A3           INC     DPTR
   \   000082   A3           INC     DPTR
   \   000083   A3           INC     DPTR
   \   000084   A3           INC     DPTR
   \   000085   A3           INC     DPTR
   \   000086   A3           INC     DPTR
   \   000087   A3           INC     DPTR
   \   000088   78..         MOV     R0,#?V0
   \   00008A   12....       LCALL   ?UL_GE_X
   \   00008D   5007         JNC     ??ZDO_ProcessParentAnnceRsp_3
   2223                    {
   2224                      AssocRemove( parentAnnce->childInfo[x].extAddr );
   \   00008F                ; Setup parameters for call to function AssocRemove
   \   00008F   AA..         MOV     R2,?V6
   \   000091   AB..         MOV     R3,?V7
   \   000093   12....       LCALL   ??AssocRemove?relay  ; Banked call to: AssocRemove
   2225                    }
   2226                  }
   2227                }
   2228              }
   \                     ??ZDO_ProcessParentAnnceRsp_3:
   \   000096   05..         INC     ?V4
   \                     ??ZDO_ProcessParentAnnceRsp_1:
   \   000098   8E82         MOV     DPL,R6
   \   00009A   8F83         MOV     DPH,R7
   \   00009C   E0           MOVX    A,@DPTR
   \   00009D   F8           MOV     R0,A
   \   00009E   E5..         MOV     A,?V4
   \   0000A0   C3           CLR     C
   \   0000A1   98           SUBB    A,R0
   \   0000A2   5003         JNC     $+5
   \   0000A4   02....       LJMP    ??ZDO_ProcessParentAnnceRsp_2 & 0xFFFF
   2229          
   2230              // Free memory allocated by parsing function
   2231              osal_mem_free( parentAnnce );
   \   0000A7                ; Setup parameters for call to function osal_mem_free
   \   0000A7   EE           MOV     A,R6
   \   0000A8   FA           MOV     R2,A
   \   0000A9   EF           MOV     A,R7
   \   0000AA   FB           MOV     R3,A
   \   0000AB   12....       LCALL   ??osal_mem_free?relay; Banked call to: osal_mem_free
   2232            }
   2233          }
   \                     ??ZDO_ProcessParentAnnceRsp_0:
   \   0000AE   7F0C         MOV     R7,#0xc
   \   0000B0   02....       LJMP    ?BANKED_LEAVE_XDATA
   2234          
   2235          /*********************************************************************
   2236           * @fn          ZDO_BuildSimpleDescBuf
   2237           *
   2238           * @brief       Build a byte sequence representation of a Simple Descriptor.
   2239           *
   2240           * @param       buf  - pointer to a byte array big enough for data.
   2241           * @param       desc - SimpleDescriptionFormat_t *
   2242           *
   2243           * @return      none
   2244           */

   \                                 In  segment BANKED_CODE, align 1, keep-with-next
   2245          void ZDO_BuildSimpleDescBuf( uint8 *buf, SimpleDescriptionFormat_t *desc )
   \                     ZDO_BuildSimpleDescBuf:
   2246          {
   \   000000                REQUIRE ?V0
   \   000000                REQUIRE ?V1
   \   000000                REQUIRE ?V2
   \   000000                REQUIRE ?V3
   \   000000                REQUIRE ?V4
   \   000000                REQUIRE ?V5
   \   000000   74F2         MOV     A,#-0xe
   \   000002   12....       LCALL   ?BANKED_ENTER_XDATA
   \   000005                ; Saved register size: 14
   \   000005                ; Auto size: 0
   2247            byte cnt;
   2248            uint16 *ptr;
   2249          
   2250            *buf++ = desc->EndPoint;
   \   000005   8C82         MOV     DPL,R4
   \   000007   8D83         MOV     DPH,R5
   \   000009   12....       LCALL   ?Subroutine67 & 0xFFFF
   2251            *buf++ = HI_UINT16( desc->AppProfId );
   \                     ??CrossCallReturnLabel_112:
   \   00000C   8C82         MOV     DPL,R4
   \   00000E   8D83         MOV     DPH,R5
   \   000010   A3           INC     DPTR
   \   000011   A882         MOV     R0,DPL
   \   000013   A983         MOV     R1,DPH
   \   000015   12....       LCALL   ?Subroutine20 & 0xFFFF
   2252            *buf++ = LO_UINT16( desc->AppProfId );
   2253            *buf++ = HI_UINT16( desc->AppDeviceId );
   \                     ??CrossCallReturnLabel_27:
   \   000018   EC           MOV     A,R4
   \   000019   2403         ADD     A,#0x3
   \   00001B   F8           MOV     R0,A
   \   00001C   E4           CLR     A
   \   00001D   3D           ADDC    A,R5
   \   00001E   F9           MOV     R1,A
   \   00001F   8882         MOV     DPL,R0
   \   000021   8983         MOV     DPH,R1
   \   000023   12....       LCALL   ?Subroutine20 & 0xFFFF
   2254            *buf++ = LO_UINT16( desc->AppDeviceId );
   2255          
   2256            *buf++ = (byte)(desc->AppDevVer << 4);
   \                     ??CrossCallReturnLabel_28:
   \   000026   8C82         MOV     DPL,R4
   \   000028   8D83         MOV     DPH,R5
   \   00002A   A3           INC     DPTR
   \   00002B   A3           INC     DPTR
   \   00002C   A3           INC     DPTR
   \   00002D   A3           INC     DPTR
   \   00002E   A3           INC     DPTR
   \   00002F   E0           MOVX    A,@DPTR
   \   000030   C4           SWAP    A
   \   000031   54F0         ANL     A,#0xf0
   \   000033   12....       LCALL   ??Subroutine157_0 & 0xFFFF
   2257          
   2258            *buf++ = desc->AppNumInClusters;
   \                     ??CrossCallReturnLabel_357:
   \   000036   EC           MOV     A,R4
   \   000037   2406         ADD     A,#0x6
   \   000039   F8           MOV     R0,A
   \   00003A   E4           CLR     A
   \   00003B   3D           ADDC    A,R5
   \   00003C   F9           MOV     R1,A
   \   00003D   88..         MOV     ?V2,R0
   \   00003F   89..         MOV     ?V3,R1
   \   000041   8882         MOV     DPL,R0
   \   000043   F583         MOV     DPH,A
   \   000045   12....       LCALL   ?Subroutine111 & 0xFFFF
   2259            ptr = desc->pAppInClusterList;
   \                     ??CrossCallReturnLabel_358:
   \   000048   8C82         MOV     DPL,R4
   \   00004A   8D83         MOV     DPH,R5
   \   00004C   12....       LCALL   ?Subroutine79 & 0xFFFF
   2260            for ( cnt = 0; cnt < desc->AppNumInClusters; ptr++, cnt++ )
   \                     ??CrossCallReturnLabel_134:
   \   00004F   8010         SJMP    ??ZDO_BuildSimpleDescBuf_0
   2261            {
   2262              *buf++ = HI_UINT16( *ptr );
   \                     ??ZDO_BuildSimpleDescBuf_1:
   \   000051   8E82         MOV     DPL,R6
   \   000053   8F83         MOV     DPH,R7
   \   000055   A3           INC     DPTR
   \   000056   12....       LCALL   ?Subroutine70 & 0xFFFF
   2263              *buf++ = LO_UINT16( *ptr );
   \                     ??CrossCallReturnLabel_118:
   \   000059   12....       LCALL   ?Subroutine32 & 0xFFFF
   2264            }
   \                     ??CrossCallReturnLabel_49:
   \   00005C   5001         JNC     ??ZDO_BuildSimpleDescBuf_2
   \   00005E   0F           INC     R7
   \                     ??ZDO_BuildSimpleDescBuf_2:
   \   00005F   05..         INC     ?V0
   \                     ??ZDO_BuildSimpleDescBuf_0:
   \   000061   8A82         MOV     DPL,R2
   \   000063   8B83         MOV     DPH,R3
   \   000065   A3           INC     DPTR
   \   000066   A882         MOV     R0,DPL
   \   000068   A983         MOV     R1,DPH
   \   00006A   85..82       MOV     DPL,?V2
   \   00006D   85..83       MOV     DPH,?V3
   \   000070   E0           MOVX    A,@DPTR
   \   000071   F5..         MOV     ?V1,A
   \   000073   E5..         MOV     A,?V0
   \   000075   C3           CLR     C
   \   000076   95..         SUBB    A,?V1
   \   000078   40D7         JC      ??ZDO_BuildSimpleDescBuf_1
   2265          
   2266            *buf++ = desc->AppNumOutClusters;
   \   00007A   EC           MOV     A,R4
   \   00007B   2409         ADD     A,#0x9
   \   00007D   FE           MOV     R6,A
   \   00007E   E4           CLR     A
   \   00007F   3D           ADDC    A,R5
   \   000080   FF           MOV     R7,A
   \   000081   8E..         MOV     ?V2,R6
   \   000083   8F..         MOV     ?V3,R7
   \   000085   8E82         MOV     DPL,R6
   \   000087   F583         MOV     DPH,A
   \   000089   12....       LCALL   ?Subroutine70 & 0xFFFF
   2267            ptr = desc->pAppOutClusterList;
   \                     ??CrossCallReturnLabel_119:
   \   00008C   8C82         MOV     DPL,R4
   \   00008E   8D83         MOV     DPH,R5
   \   000090   A3           INC     DPTR
   \   000091   A3           INC     DPTR
   \   000092   A3           INC     DPTR
   \   000093   12....       LCALL   ?Subroutine79 & 0xFFFF
   2268            for ( cnt = 0; cnt < desc->AppNumOutClusters; ptr++, cnt++ )
   \                     ??CrossCallReturnLabel_135:
   \   000096   8010         SJMP    ??ZDO_BuildSimpleDescBuf_3
   2269            {
   2270              *buf++ = HI_UINT16( *ptr );
   \                     ??ZDO_BuildSimpleDescBuf_4:
   \   000098   8E82         MOV     DPL,R6
   \   00009A   8F83         MOV     DPH,R7
   \   00009C   A3           INC     DPTR
   \   00009D   12....       LCALL   ?Subroutine67 & 0xFFFF
   2271              *buf++ = LO_UINT16( *ptr );
   \                     ??CrossCallReturnLabel_113:
   \   0000A0   12....       LCALL   ?Subroutine32 & 0xFFFF
   2272            }
   \                     ??CrossCallReturnLabel_50:
   \   0000A3   5001         JNC     ??ZDO_BuildSimpleDescBuf_5
   \   0000A5   0F           INC     R7
   \                     ??ZDO_BuildSimpleDescBuf_5:
   \   0000A6   05..         INC     ?V0
   \                     ??ZDO_BuildSimpleDescBuf_3:
   \   0000A8   85..82       MOV     DPL,?V2
   \   0000AB   85..83       MOV     DPH,?V3
   \   0000AE   E0           MOVX    A,@DPTR
   \   0000AF   F8           MOV     R0,A
   \   0000B0   E5..         MOV     A,?V0
   \   0000B2   C3           CLR     C
   \   0000B3   98           SUBB    A,R0
   \   0000B4   40E2         JC      ??ZDO_BuildSimpleDescBuf_4
   2273          }
   \   0000B6   02....       LJMP    ?Subroutine4 & 0xFFFF

   \                                 In  segment BANKED_CODE, align 1, keep-with-next
   \                     ?Subroutine79:
   \   000000   A3           INC     DPTR
   \   000001   A3           INC     DPTR
   \   000002   A3           INC     DPTR
   \   000003   A3           INC     DPTR
   \   000004   A3           INC     DPTR
   \   000005   A3           INC     DPTR
   \   000006   A3           INC     DPTR
   \   000007   12....       LCALL   ?Subroutine122 & 0xFFFF
   \                     ??CrossCallReturnLabel_221:
   \   00000A   75..00       MOV     ?V0,#0x0
   \   00000D   22           RET

   \                                 In  segment BANKED_CODE, align 1, keep-with-next
   \                     ?Subroutine70:
   \   000000   12....       LCALL   ?Subroutine123 & 0xFFFF
   \                     ??CrossCallReturnLabel_225:
   \   000003   F0           MOVX    @DPTR,A
   \   000004   E8           MOV     A,R0
   \   000005   FA           MOV     R2,A
   \   000006   E9           MOV     A,R1
   \   000007   FB           MOV     R3,A
   \   000008   22           RET

   \                                 In  segment BANKED_CODE, align 1, keep-with-next
   \                     ?Subroutine67:
   \   000000   12....       LCALL   ?Subroutine123 & 0xFFFF
   \                     ??CrossCallReturnLabel_224:
   \   000003   F0           MOVX    @DPTR,A
   \   000004   A3           INC     DPTR
   \   000005   AA82         MOV     R2,DPL
   \   000007   AB83         MOV     R3,DPH
   \   000009   22           RET

   \                                 In  segment BANKED_CODE, align 1, keep-with-next
   \                     ?Subroutine32:
   \   000000   8E82         MOV     DPL,R6
   \   000002   8F83         MOV     DPH,R7
   \   000004   12....       LCALL   ?Subroutine111 & 0xFFFF
   \                     ??CrossCallReturnLabel_361:
   \   000007   EE           MOV     A,R6
   \   000008   2402         ADD     A,#0x2
   \   00000A   FE           MOV     R6,A
   \   00000B   22           RET

   \                                 In  segment BANKED_CODE, align 1, keep-with-next
   \                     ?Subroutine20:
   \   000000   A3           INC     DPTR
   \   000001   12....       LCALL   ?Subroutine111 & 0xFFFF
   \                     ??CrossCallReturnLabel_359:
   \   000004   8882         MOV     DPL,R0
   \   000006   8983         MOV     DPH,R1
   \   000008   12....       LCALL   ?Subroutine111 & 0xFFFF
   \                     ??CrossCallReturnLabel_360:
   \   00000B   22           RET

   \                                 In  segment BANKED_CODE, align 1, keep-with-next
   \                     ?Subroutine111:
   \   000000   E0           MOVX    A,@DPTR
   \   000001                REQUIRE ??Subroutine157_0
   \   000001                ; // Fall through to label ??Subroutine157_0

   \                                 In  segment BANKED_CODE, align 1, keep-with-next
   \                     ??Subroutine157_0:
   \   000000   8A82         MOV     DPL,R2
   \   000002   8B83         MOV     DPH,R3
   \   000004   F0           MOVX    @DPTR,A
   \   000005   A3           INC     DPTR
   \   000006   0A           INC     R2
   \   000007   AB83         MOV     R3,DPH
   \   000009   22           RET

   \                                 In  segment BANKED_CODE, align 1, keep-with-next
   \                     ?Subroutine123:
   \   000000   E0           MOVX    A,@DPTR
   \   000001   8A82         MOV     DPL,R2
   \   000003   8B83         MOV     DPH,R3
   \   000005   22           RET
   2274          
   2275          #if ( ZG_BUILD_COORDINATOR_TYPE )
   2276          /*********************************************************************
   2277           * @fn      ZDO_MatchEndDeviceBind()
   2278           *
   2279           * @brief
   2280           *
   2281           *   Called to match end device binding requests
   2282           *
   2283           * @param  bindReq  - binding request information
   2284           * @param  SecurityUse - Security enable/disable
   2285           *
   2286           * @return  none
   2287           */
   2288          void ZDO_MatchEndDeviceBind( ZDEndDeviceBind_t *bindReq )
   2289          {
   2290            zAddrType_t dstAddr;
   2291            uint8 sendRsp = FALSE;
   2292            uint8 status;
   2293          
   2294            // Is this the first request?
   2295            if ( matchED == NULL )
   2296            {
   2297              // Create match info structure
   2298              matchED = (ZDMatchEndDeviceBind_t *)osal_mem_alloc( sizeof ( ZDMatchEndDeviceBind_t ) );
   2299              if ( matchED )
   2300              {
   2301                // Clear the structure
   2302                osal_memset( (uint8 *)matchED, 0, sizeof ( ZDMatchEndDeviceBind_t ) );
   2303          
   2304                // Copy the first request's information
   2305                if ( !ZDO_CopyMatchInfo( &(matchED->ed1), bindReq ) )
   2306                {
   2307                  status = ZDP_NO_ENTRY;
   2308                  sendRsp = TRUE;
   2309                }
   2310              }
   2311              else
   2312              {
   2313                status = ZDP_NO_ENTRY;
   2314                sendRsp = TRUE;
   2315              }
   2316          
   2317              if ( !sendRsp )
   2318              {
   2319                // Set into the correct state
   2320                matchED->state = ZDMATCH_WAIT_REQ;
   2321          
   2322                // Setup the timeout
   2323                APS_SetEndDeviceBindTimeout( AIB_MaxBindingTime, ZDO_EndDeviceBindMatchTimeoutCB );
   2324              }
   2325            }
   2326            else
   2327            {
   2328                matchED->state = ZDMATCH_SENDING_BINDS;
   2329          
   2330                // Copy the 2nd request's information
   2331                if ( !ZDO_CopyMatchInfo( &(matchED->ed2), bindReq ) )
   2332                {
   2333                  status = ZDP_NO_ENTRY;
   2334                  sendRsp = TRUE;
   2335                }
   2336          
   2337                // Make a source match for ed1
   2338                matchED->ed1numMatched = ZDO_CompareClusterLists(
   2339                            matchED->ed1.numOutClusters, matchED->ed1.outClusters,
   2340                            matchED->ed2.numInClusters, matchED->ed2.inClusters, ZDOBuildBuf );
   2341                if ( matchED->ed1numMatched )
   2342                {
   2343                  // Save the match list
   2344                  matchED->ed1Matched = osal_mem_alloc( (short)(matchED->ed1numMatched * sizeof ( uint16 )) );
   2345                  if ( matchED->ed1Matched )
   2346                  {
   2347                    osal_memcpy( matchED->ed1Matched, ZDOBuildBuf, (matchED->ed1numMatched * sizeof ( uint16 )) );
   2348                  }
   2349                  else
   2350                  {
   2351                    // Allocation error, stop
   2352                    status = ZDP_NO_ENTRY;
   2353                    sendRsp = TRUE;
   2354                  }
   2355                }
   2356          
   2357                // Make a source match for ed2
   2358                matchED->ed2numMatched = ZDO_CompareClusterLists(
   2359                            matchED->ed2.numOutClusters, matchED->ed2.outClusters,
   2360                            matchED->ed1.numInClusters, matchED->ed1.inClusters, ZDOBuildBuf );
   2361                if ( matchED->ed2numMatched )
   2362                {
   2363                  // Save the match list
   2364                  matchED->ed2Matched = osal_mem_alloc( (short)(matchED->ed2numMatched * sizeof ( uint16 )) );
   2365                  if ( matchED->ed2Matched )
   2366                  {
   2367                    osal_memcpy( matchED->ed2Matched, ZDOBuildBuf, (matchED->ed2numMatched * sizeof ( uint16 )) );
   2368                  }
   2369                  else
   2370                  {
   2371                    // Allocation error, stop
   2372                    status = ZDP_NO_ENTRY;
   2373                    sendRsp = TRUE;
   2374                  }
   2375                }
   2376          
   2377                if ( (sendRsp == FALSE) && (matchED->ed1numMatched || matchED->ed2numMatched) )
   2378                {
   2379                  // Do the first unbind/bind state
   2380                  ZDMatchSendState( ZDMATCH_REASON_START, ZDP_SUCCESS, 0 );
   2381                }
   2382                else
   2383                {
   2384                  status = ZDP_NO_MATCH;
   2385                  sendRsp = TRUE;
   2386                }
   2387            }
   2388          
   2389            if ( sendRsp )
   2390            {
   2391              // send response to this requester
   2392              dstAddr.addrMode = Addr16Bit;
   2393              dstAddr.addr.shortAddr = bindReq->srcAddr;
   2394              ZDP_EndDeviceBindRsp( bindReq->TransSeq, &dstAddr, status, bindReq->SecurityUse );
   2395          
   2396              if ( matchED->state == ZDMATCH_SENDING_BINDS )
   2397              {
   2398                // send response to first requester
   2399                dstAddr.addrMode = Addr16Bit;
   2400                dstAddr.addr.shortAddr = matchED->ed1.srcAddr;
   2401                ZDP_EndDeviceBindRsp( matchED->ed1.TransSeq, &dstAddr, status, matchED->ed1.SecurityUse );
   2402              }
   2403          
   2404              // Process ended - release memory used
   2405              ZDO_RemoveMatchMemory();
   2406            }
   2407          }
   2408          
   2409          /*********************************************************************
   2410           * @fn      ZDO_RemoveMatchMemory()
   2411           *
   2412           * @brief   Called to clear the memory used for the end device bind.
   2413           *
   2414           * @param  none
   2415           *
   2416           * @return  none
   2417           */
   2418          static void ZDO_RemoveMatchMemory( void )
   2419          {
   2420            if ( matchED != NULL )
   2421            {
   2422              if ( matchED->ed2Matched != NULL )
   2423              {
   2424                osal_mem_free( matchED->ed2Matched );
   2425              }
   2426              if ( matchED->ed1Matched != NULL )
   2427              {
   2428                osal_mem_free( matchED->ed1Matched );
   2429              }
   2430              if ( matchED->ed1.inClusters != NULL )
   2431              {
   2432                osal_mem_free( matchED->ed1.inClusters );
   2433              }
   2434              if ( matchED->ed1.outClusters != NULL )
   2435              {
   2436                osal_mem_free( matchED->ed1.outClusters );
   2437              }
   2438              if ( matchED->ed2.inClusters != NULL )
   2439              {
   2440                osal_mem_free( matchED->ed2.inClusters );
   2441              }
   2442              if ( matchED->ed2.outClusters != NULL )
   2443              {
   2444                osal_mem_free( matchED->ed2.outClusters );
   2445              }
   2446          
   2447              osal_mem_free( matchED );
   2448              matchED = (ZDMatchEndDeviceBind_t *)NULL;
   2449            }
   2450          }
   2451          
   2452          /*********************************************************************
   2453           * @fn      ZDO_CopyMatchInfo()
   2454           *
   2455           * @brief   Called to copy memory used for the end device bind.
   2456           *
   2457           * @param  srcReq - source information
   2458           * @param  dstReq - destination location
   2459           *
   2460           * @return  TRUE if copy was successful.
   2461           */
   2462          static uint8 ZDO_CopyMatchInfo( ZDEndDeviceBind_t *destReq, ZDEndDeviceBind_t *srcReq )
   2463          {
   2464            uint8 allOK = TRUE;
   2465          
   2466            // Copy bind information into the match info structure
   2467            osal_memcpy( (uint8 *)destReq, srcReq, sizeof ( ZDEndDeviceBind_t ) );
   2468          
   2469            // Initialize the destination cluster pointers
   2470            destReq->inClusters = NULL;
   2471            destReq->outClusters = NULL;
   2472          
   2473            // Copy input cluster IDs
   2474            if ( srcReq->numInClusters )
   2475            {
   2476              destReq->inClusters = osal_mem_alloc( (short)(srcReq->numInClusters * sizeof ( uint16 )) );
   2477              if ( destReq->inClusters )
   2478              {
   2479                // Copy the clusters
   2480                osal_memcpy( (uint8*)(destReq->inClusters), (uint8 *)(srcReq->inClusters),
   2481                                (srcReq->numInClusters * sizeof ( uint16 )) );
   2482              }
   2483              else
   2484              {
   2485                allOK = FALSE;
   2486              }
   2487            }
   2488          
   2489            // Copy output cluster IDs
   2490            if ( srcReq->numOutClusters )
   2491            {
   2492              destReq->outClusters = osal_mem_alloc( (short)(srcReq->numOutClusters * sizeof ( uint16 )) );
   2493              if ( destReq->outClusters )
   2494              {
   2495                // Copy the clusters
   2496                osal_memcpy( (uint8 *)(destReq->outClusters), (uint8 *)(srcReq->outClusters),
   2497                                (srcReq->numOutClusters * sizeof ( uint16 )) );
   2498              }
   2499              else
   2500              {
   2501                allOK = FALSE;
   2502              }
   2503            }
   2504          
   2505            if ( allOK == FALSE )
   2506            {
   2507              if ( destReq->inClusters != NULL )
   2508              {
   2509                osal_mem_free( destReq->inClusters );
   2510              }
   2511              if ( destReq->outClusters != NULL )
   2512              {
   2513                osal_mem_free( destReq->outClusters );
   2514              }
   2515            }
   2516          
   2517            return ( allOK );
   2518          }
   2519          
   2520          /*********************************************************************
   2521           * @fn      ZDMatchSendState()
   2522           *
   2523           * @brief   State machine for the End device match message algorithm.
   2524           *
   2525           * @param  reason - state of algoritm
   2526           * @param  status - initial message status
   2527           * @param  TransSeq - next transaction sequence number
   2528           *
   2529           * @return  FALSE if error and we are not currently matching, TRUE
   2530           *          if success.
   2531           */
   2532          uint8 ZDMatchSendState( uint8 reason, uint8 status, uint8 TransSeq )
   2533          {
   2534            uint8 *dstIEEEAddr = NULL;
   2535            uint8 dstEP = 0xFF;
   2536            zAddrType_t dstAddr;
   2537            zAddrType_t destinationAddr;
   2538            uint16 msgType;
   2539            uint16 clusterID = 0xFFFF;
   2540            ZDEndDeviceBind_t *ed = NULL;
   2541            uint8 rspStatus = ZDP_SUCCESS;
   2542          
   2543            if ( matchED == NULL )
   2544            {
   2545              return ( FALSE );
   2546            }
   2547          
   2548            // Check sequence number
   2549            if ( reason == ZDMATCH_REASON_BIND_RSP || reason == ZDMATCH_REASON_UNBIND_RSP )
   2550            {
   2551              if ( TransSeq != matchED->transSeq )
   2552              {
   2553                return( FALSE ); // ignore the message
   2554              }
   2555            }
   2556          
   2557            // turn off timer
   2558            APS_SetEndDeviceBindTimeout( 0, ZDO_EndDeviceBindMatchTimeoutCB );
   2559          
   2560            if ( reason == ZDMATCH_REASON_TIMEOUT )
   2561            {
   2562              rspStatus = ZDP_TIMEOUT;    // The process will stop
   2563            }
   2564          
   2565            if ( reason == ZDMATCH_REASON_START || reason == ZDMATCH_REASON_BIND_RSP )
   2566            {
   2567              matchED->sending = ZDMATCH_SENDING_UNBIND;
   2568          
   2569              if ( reason == ZDMATCH_REASON_BIND_RSP && status != ZDP_SUCCESS )
   2570              {
   2571                rspStatus = status;
   2572              }
   2573            }
   2574            else if ( reason == ZDMATCH_REASON_UNBIND_RSP )
   2575            {
   2576              if ( status == ZDP_SUCCESS )
   2577              {
   2578                matchED->sending = ZDMATCH_SENDING_UNBIND;
   2579              }
   2580              else
   2581              {
   2582                matchED->sending = ZDMATCH_SENDING_BIND;
   2583              }
   2584            }
   2585          
   2586            if ( reason != ZDMATCH_REASON_START && matchED->sending == ZDMATCH_SENDING_UNBIND )
   2587            {
   2588              // Move to the next cluster ID
   2589              if ( matchED->ed1numMatched )
   2590              {
   2591                matchED->ed1numMatched--;
   2592              }
   2593              else if ( matchED->ed2numMatched )
   2594              {
   2595                matchED->ed2numMatched--;
   2596              }
   2597            }
   2598          
   2599            // What message do we send now
   2600            if ( matchED->ed1numMatched )
   2601            {
   2602              ed = &(matchED->ed1);
   2603              clusterID = matchED->ed1Matched[matchED->ed1numMatched-1];
   2604              dstIEEEAddr = matchED->ed2.ieeeAddr;
   2605              dstEP = matchED->ed2.endpoint;
   2606            }
   2607            else if ( matchED->ed2numMatched )
   2608            {
   2609              ed = &(matchED->ed2);
   2610              clusterID = matchED->ed2Matched[matchED->ed2numMatched-1];
   2611              dstIEEEAddr = matchED->ed1.ieeeAddr;
   2612              dstEP = matchED->ed1.endpoint;
   2613            }
   2614          
   2615            dstAddr.addrMode = Addr16Bit;
   2616          
   2617            // Send the next message
   2618            if ( (rspStatus == ZDP_SUCCESS) && ed )
   2619            {
   2620              // Send unbind/bind message to source
   2621              if ( matchED->sending == ZDMATCH_SENDING_UNBIND )
   2622              {
   2623                msgType = Unbind_req;
   2624              }
   2625              else
   2626              {
   2627                msgType = Bind_req;
   2628              }
   2629          
   2630              dstAddr.addr.shortAddr = ed->srcAddr;
   2631          
   2632              // Save off the transaction sequence number
   2633              matchED->transSeq = ZDP_TransID;
   2634          
   2635              destinationAddr.addrMode = Addr64Bit;
   2636              osal_cpyExtAddr( destinationAddr.addr.extAddr, dstIEEEAddr );
   2637          
   2638              ZDP_BindUnbindReq( msgType, &dstAddr, ed->ieeeAddr, ed->endpoint, clusterID,
   2639                  &destinationAddr, dstEP, ed->SecurityUse );
   2640          
   2641              // Set timeout for response
   2642              APS_SetEndDeviceBindTimeout( AIB_MaxBindingTime, ZDO_EndDeviceBindMatchTimeoutCB );
   2643            }
   2644            else
   2645            {
   2646              // Send the response messages to requesting devices
   2647              // send response to first requester
   2648              dstAddr.addr.shortAddr = matchED->ed1.srcAddr;
   2649              ZDP_EndDeviceBindRsp( matchED->ed1.TransSeq, &dstAddr, rspStatus, matchED->ed1.SecurityUse );
   2650          
   2651              // send response to second requester
   2652              if ( matchED->state == ZDMATCH_SENDING_BINDS )
   2653              {
   2654                dstAddr.addr.shortAddr = matchED->ed2.srcAddr;
   2655                ZDP_EndDeviceBindRsp( matchED->ed2.TransSeq, &dstAddr, rspStatus, matchED->ed2.SecurityUse );
   2656              }
   2657          
   2658              // Process ended - release memory used
   2659              ZDO_RemoveMatchMemory();
   2660            }
   2661          
   2662            return ( TRUE );
   2663          }
   2664          
   2665          /*********************************************************************
   2666           * @fn      ZDO_EndDeviceBindMatchTimeoutCB()
   2667           *
   2668           * @brief   End device bind timeout.
   2669           *
   2670           * @param  none
   2671           *
   2672           * @return  none
   2673           */
   2674          static void ZDO_EndDeviceBindMatchTimeoutCB( void )
   2675          {
   2676            ZDMatchSendState( ZDMATCH_REASON_TIMEOUT, ZDP_TIMEOUT, 0 );
   2677          }
   2678          #endif // ZG_BUILD_COORDINATOR_TYPE
   2679          
   2680          /*********************************************************************
   2681           * ZDO MESSAGE PARSING API FUNCTIONS
   2682           */
   2683          
   2684          /*********************************************************************
   2685           * @fn          ZDO_ParseEndDeviceBindReq
   2686           *
   2687           * @brief       This function parses the End_Device_Bind_req message.
   2688           *
   2689           *     NOTE:  The clusters lists in bindReq are allocated in this
   2690           *            function and must be freed by that calling function.
   2691           *
   2692           * @param       inMsg  - incoming message (request)
   2693           * @param       bindReq - pointer to place to parse message to
   2694           *
   2695           * @return      none
   2696           */

   \                                 In  segment BANKED_CODE, align 1, keep-with-next
   2697          void ZDO_ParseEndDeviceBindReq( zdoIncomingMsg_t *inMsg, ZDEndDeviceBind_t *bindReq )
   \                     ZDO_ParseEndDeviceBindReq:
   2698          {
   \   000000                REQUIRE ?V0
   \   000000                REQUIRE ?V1
   \   000000                REQUIRE ?V2
   \   000000                REQUIRE ?V3
   \   000000                REQUIRE ?V4
   \   000000                REQUIRE ?V5
   \   000000                REQUIRE ?V6
   \   000000                REQUIRE ?V8
   \   000000                REQUIRE ?V9
   \   000000   74EE         MOV     A,#-0x12
   \   000002   12....       LCALL   ?BANKED_ENTER_XDATA
   \   000005                ; Saved register size: 18
   \   000005                ; Auto size: 0
   \   000005   EC           MOV     A,R4
   \   000006   FE           MOV     R6,A
   \   000007   ED           MOV     A,R5
   \   000008   FF           MOV     R7,A
   2699            uint8 *msg;
   2700          
   2701            // Parse the message
   2702            bindReq->TransSeq = inMsg->TransSeq;
   \   000009   EA           MOV     A,R2
   \   00000A   12....       LCALL   ?Subroutine96 & 0xFFFF
   \                     ??CrossCallReturnLabel_175:
   \   00000D   12....       LCALL   ?Subroutine106 & 0xFFFF
   \                     ??CrossCallReturnLabel_192:
   \   000010   12....       LCALL   ?Subroutine41 & 0xFFFF
   2703            bindReq->srcAddr = inMsg->srcAddr.addr.shortAddr;
   \                     ??CrossCallReturnLabel_77:
   \   000013   12....       LCALL   ??Subroutine156_0 & 0xFFFF
   \                     ??CrossCallReturnLabel_349:
   \   000016   8E82         MOV     DPL,R6
   \   000018   8F83         MOV     DPH,R7
   \   00001A   A3           INC     DPTR
   \   00001B   A3           INC     DPTR
   \   00001C   12....       LCALL   ??Subroutine143_0 & 0xFFFF
   2704            bindReq->SecurityUse = inMsg->SecurityUse;
   \                     ??CrossCallReturnLabel_275:
   \   00001F   EA           MOV     A,R2
   \   000020   12....       LCALL   ?Subroutine94 & 0xFFFF
   \                     ??CrossCallReturnLabel_166:
   \   000023   12....       LCALL   ?Subroutine106 & 0xFFFF
   \                     ??CrossCallReturnLabel_193:
   \   000026   A3           INC     DPTR
   \   000027   F0           MOVX    @DPTR,A
   2705            msg = inMsg->asdu;
   \   000028   12....       LCALL   ?Subroutine86 & 0xFFFF
   \                     ??CrossCallReturnLabel_148:
   \   00002B   12....       LCALL   ?Subroutine59 & 0xFFFF
   2706          
   2707            bindReq->localCoordinator = BUILD_UINT16( msg[0], msg[1] );
   \                     ??CrossCallReturnLabel_105:
   \   00002E   12....       LCALL   ??Subroutine160_0 & 0xFFFF
   \                     ??CrossCallReturnLabel_377:
   \   000031   8E82         MOV     DPL,R6
   \   000033   8F83         MOV     DPH,R7
   \   000035   12....       LCALL   ?Subroutine15 & 0xFFFF
   2708            msg += 2;
   \                     ??CrossCallReturnLabel_411:
   \   000038   5002         JNC     ??ZDO_ParseEndDeviceBindReq_0
   \   00003A   05..         INC     ?V3
   2709          
   2710            osal_cpyExtAddr( bindReq->ieeeAddr, msg );
   \                     ??ZDO_ParseEndDeviceBindReq_0:
   \   00003C                ; Setup parameters for call to function sAddrExtCpy
   \   00003C   FC           MOV     R4,A
   \   00003D   AD..         MOV     R5,?V3
   \   00003F   EE           MOV     A,R6
   \   000040   2406         ADD     A,#0x6
   \   000042   FA           MOV     R2,A
   \   000043   E4           CLR     A
   \   000044   3F           ADDC    A,R7
   \   000045   FB           MOV     R3,A
   \   000046   12....       LCALL   ??sAddrExtCpy?relay  ; Banked call to: sAddrExtCpy
   2711            msg += Z_EXTADDR_LEN;
   \   000049   E5..         MOV     A,?V2
   \   00004B   2408         ADD     A,#0x8
   \   00004D   F5..         MOV     ?V2,A
   \   00004F   5002         JNC     ??ZDO_ParseEndDeviceBindReq_1
   \   000051   05..         INC     ?V3
   2712          
   2713            bindReq->endpoint = *msg++;
   \                     ??ZDO_ParseEndDeviceBindReq_1:
   \   000053   F582         MOV     DPL,A
   \   000055   85..83       MOV     DPH,?V3
   \   000058   E0           MOVX    A,@DPTR
   \   000059   C0E0         PUSH    A
   \   00005B   EE           MOV     A,R6
   \   00005C   12....       LCALL   ?Subroutine94 & 0xFFFF
   \                     ??CrossCallReturnLabel_167:
   \   00005F   3F           ADDC    A,R7
   \   000060   F583         MOV     DPH,A
   \   000062   D0E0         POP     A
   \   000064   12....       LCALL   ?Subroutine19 & 0xFFFF
   2714            bindReq->profileID = BUILD_UINT16( msg[0], msg[1] );
   \                     ??CrossCallReturnLabel_25:
   \   000067   F8           MOV     R0,A
   \   000068   EE           MOV     A,R6
   \   000069   12....       LCALL   ?Subroutine96 & 0xFFFF
   \                     ??CrossCallReturnLabel_176:
   \   00006C   3F           ADDC    A,R7
   \   00006D   F583         MOV     DPH,A
   \   00006F   E8           MOV     A,R0
   \   000070   12....       LCALL   ??Subroutine167_0 & 0xFFFF
   2715            msg += 2;
   \                     ??CrossCallReturnLabel_413:
   \   000073   5002         JNC     ??ZDO_ParseEndDeviceBindReq_2
   \   000075   05..         INC     ?V3
   2716          
   2717            bindReq->inClusters = NULL;
   \                     ??ZDO_ParseEndDeviceBindReq_2:
   \   000077   EE           MOV     A,R6
   \   000078   2412         ADD     A,#0x12
   \   00007A   F5..         MOV     ?V4,A
   \   00007C   E4           CLR     A
   \   00007D   3F           ADDC    A,R7
   \   00007E   F5..         MOV     ?V5,A
   \   000080   85..82       MOV     DPL,?V4
   \   000083   F583         MOV     DPH,A
   \   000085   E4           CLR     A
   \   000086   F0           MOVX    @DPTR,A
   \   000087   A3           INC     DPTR
   \   000088   F0           MOVX    @DPTR,A
   2718            bindReq->outClusters = NULL;
   \   000089   EE           MOV     A,R6
   \   00008A   2415         ADD     A,#0x15
   \   00008C   12....       LCALL   ?Subroutine92 & 0xFFFF
   \                     ??CrossCallReturnLabel_162:
   \   00008F   E4           CLR     A
   \   000090   F0           MOVX    @DPTR,A
   \   000091   A3           INC     DPTR
   \   000092   12....       LCALL   ?Subroutine31 & 0xFFFF
   2719          
   2720            if ((bindReq->numInClusters = *msg++) &&
   2721                (bindReq->inClusters = (uint16*)osal_mem_alloc( (bindReq->numInClusters * sizeof( uint16 )))))
   \                     ??CrossCallReturnLabel_47:
   \   000095   8582..       MOV     ?V2,DPL
   \   000098   8583..       MOV     ?V3,DPH
   \   00009B   EE           MOV     A,R6
   \   00009C   2411         ADD     A,#0x11
   \   00009E   F5..         MOV     ?V0,A
   \   0000A0   E4           CLR     A
   \   0000A1   3F           ADDC    A,R7
   \   0000A2   F5..         MOV     ?V1,A
   \   0000A4   85..82       MOV     DPL,?V0
   \   0000A7   F583         MOV     DPH,A
   \   0000A9   EA           MOV     A,R2
   \   0000AA   F0           MOVX    @DPTR,A
   \   0000AB   6033         JZ      ??ZDO_ParseEndDeviceBindReq_3
   \   0000AD                ; Setup parameters for call to function osal_mem_alloc
   \   0000AD   2A           ADD     A,R2
   \   0000AE   FA           MOV     R2,A
   \   0000AF   E4           CLR     A
   \   0000B0   33           RLC     A
   \   0000B1   FB           MOV     R3,A
   \   0000B2   12....       LCALL   ??osal_mem_alloc?relay; Banked call to: osal_mem_alloc
   \   0000B5   85..82       MOV     DPL,?V4
   \   0000B8   85..83       MOV     DPH,?V5
   \   0000BB   12....       LCALL   ?Subroutine39 & 0xFFFF
   \                     ??CrossCallReturnLabel_71:
   \   0000BE   85..82       MOV     DPL,?V4
   \   0000C1   85..83       MOV     DPH,?V5
   \   0000C4   12....       LCALL   ?Subroutine76 & 0xFFFF
   \                     ??CrossCallReturnLabel_130:
   \   0000C7   EC           MOV     A,R4
   \   0000C8   4D           ORL     A,R5
   \   0000C9   6015         JZ      ??ZDO_ParseEndDeviceBindReq_3
   2722            {
   2723              msg = ZDO_ConvertOTAClusters( bindReq->numInClusters, msg, bindReq->inClusters );
   \   0000CB                ; Setup parameters for call to function ZDO_ConvertOTAClusters
   \   0000CB   AA..         MOV     R2,?V2
   \   0000CD   AB..         MOV     R3,?V3
   \   0000CF   85..82       MOV     DPL,?V0
   \   0000D2   85..83       MOV     DPH,?V1
   \   0000D5   E0           MOVX    A,@DPTR
   \   0000D6   F9           MOV     R1,A
   \   0000D7   12....       LCALL   ??ZDO_ConvertOTAClusters?relay; Banked call to: ZDO_ConvertOTAClusters
   \   0000DA   8A..         MOV     ?V2,R2
   \   0000DC   8B..         MOV     ?V3,R3
   \   0000DE   8008         SJMP    ??ZDO_ParseEndDeviceBindReq_4
   2724            }
   2725            else
   2726            {
   2727              bindReq->numInClusters = 0;
   \                     ??ZDO_ParseEndDeviceBindReq_3:
   \   0000E0   85..82       MOV     DPL,?V0
   \   0000E3   85..83       MOV     DPH,?V1
   \   0000E6   E4           CLR     A
   \   0000E7   F0           MOVX    @DPTR,A
   2728            }
   2729          
   2730            if ((bindReq->numOutClusters = *msg++) &&
   2731                (bindReq->outClusters = (uint16*)osal_mem_alloc((bindReq->numOutClusters * sizeof(uint16)))))
   \                     ??ZDO_ParseEndDeviceBindReq_4:
   \   0000E8   85..82       MOV     DPL,?V2
   \   0000EB   85..83       MOV     DPH,?V3
   \   0000EE   E0           MOVX    A,@DPTR
   \   0000EF   FA           MOV     R2,A
   \   0000F0   A3           INC     DPTR
   \   0000F1   8582..       MOV     ?V2,DPL
   \   0000F4   8583..       MOV     ?V3,DPH
   \   0000F7   EE           MOV     A,R6
   \   0000F8   2414         ADD     A,#0x14
   \   0000FA   FE           MOV     R6,A
   \   0000FB   5001         JNC     ??ZDO_ParseEndDeviceBindReq_5
   \   0000FD   0F           INC     R7
   \                     ??ZDO_ParseEndDeviceBindReq_5:
   \   0000FE   8E82         MOV     DPL,R6
   \   000100   8F83         MOV     DPH,R7
   \   000102   EA           MOV     A,R2
   \   000103   F0           MOVX    @DPTR,A
   \   000104   602D         JZ      ??ZDO_ParseEndDeviceBindReq_6
   \   000106                ; Setup parameters for call to function osal_mem_alloc
   \   000106   2A           ADD     A,R2
   \   000107   FA           MOV     R2,A
   \   000108   E4           CLR     A
   \   000109   33           RLC     A
   \   00010A   FB           MOV     R3,A
   \   00010B   12....       LCALL   ??osal_mem_alloc?relay; Banked call to: osal_mem_alloc
   \   00010E   85..82       MOV     DPL,?V8
   \   000111   85..83       MOV     DPH,?V9
   \   000114   12....       LCALL   ?Subroutine39 & 0xFFFF
   \                     ??CrossCallReturnLabel_72:
   \   000117   85..82       MOV     DPL,?V8
   \   00011A   85..83       MOV     DPH,?V9
   \   00011D   12....       LCALL   ?Subroutine76 & 0xFFFF
   \                     ??CrossCallReturnLabel_131:
   \   000120   EC           MOV     A,R4
   \   000121   4D           ORL     A,R5
   \   000122   600F         JZ      ??ZDO_ParseEndDeviceBindReq_6
   2732            {
   2733              msg = ZDO_ConvertOTAClusters( bindReq->numOutClusters, msg, bindReq->outClusters );
   \   000124                ; Setup parameters for call to function ZDO_ConvertOTAClusters
   \   000124   AA..         MOV     R2,?V2
   \   000126   AB..         MOV     R3,?V3
   \   000128   8E82         MOV     DPL,R6
   \   00012A   8F83         MOV     DPH,R7
   \   00012C   E0           MOVX    A,@DPTR
   \   00012D   F9           MOV     R1,A
   \   00012E   12....       LCALL   ??ZDO_ConvertOTAClusters?relay; Banked call to: ZDO_ConvertOTAClusters
   \   000131   8006         SJMP    ??ZDO_ParseEndDeviceBindReq_7
   2734            }
   2735            else
   2736            {
   2737              bindReq->numOutClusters = 0;
   \                     ??ZDO_ParseEndDeviceBindReq_6:
   \   000133   8E82         MOV     DPL,R6
   \   000135   8F83         MOV     DPH,R7
   \   000137   E4           CLR     A
   \   000138   F0           MOVX    @DPTR,A
   2738            }
   2739          }
   \                     ??ZDO_ParseEndDeviceBindReq_7:
   \   000139   02....       LJMP    ?Subroutine7 & 0xFFFF

   \                                 In  segment BANKED_CODE, align 1, keep-with-next
   \                     ?Subroutine106:
   \   000000   3B           ADDC    A,R3
   \   000001   F583         MOV     DPH,A
   \   000003   E0           MOVX    A,@DPTR
   \   000004   8E82         MOV     DPL,R6
   \   000006   8F83         MOV     DPH,R7
   \   000008   22           RET

   \                                 In  segment BANKED_CODE, align 1, keep-with-next
   \                     ?Subroutine86:
   \   000000   12....       LCALL   ?Subroutine129 & 0xFFFF
   \                     ??CrossCallReturnLabel_333:
   \   000003   3B           ADDC    A,R3
   \   000004   22           RET

   \                                 In  segment BANKED_CODE, align 1, keep-with-next
   \                     ?Subroutine31:
   \   000000   F0           MOVX    @DPTR,A
   \   000001   85..82       MOV     DPL,?V2
   \   000004   85..83       MOV     DPH,?V3
   \   000007   E0           MOVX    A,@DPTR
   \   000008   FA           MOV     R2,A
   \   000009   A3           INC     DPTR
   \   00000A   22           RET

   \                                 In  segment BANKED_CODE, align 1, keep-with-next
   \                     ?Subroutine41:
   \   000000   12....       LCALL   ?Subroutine113 & 0xFFFF
   \                     ??CrossCallReturnLabel_208:
   \   000003   A3           INC     DPTR
   \   000004   A3           INC     DPTR
   \   000005   22           RET

   \                                 In  segment BANKED_CODE, align 1, keep-with-next
   \                     ?Subroutine109:
   \   000000   12....       LCALL   ?Subroutine132 & 0xFFFF
   \                     ??CrossCallReturnLabel_241:
   \   000003   8582..       MOV     ?V2,DPL
   \   000006   8583..       MOV     ?V3,DPH
   \   000009   22           RET

   \                                 In  segment BANKED_CODE, align 1, keep-with-next
   \                     ?Subroutine19:
   \   000000   12....       LCALL   ?Subroutine109 & 0xFFFF
   \                     ??CrossCallReturnLabel_199:
   \   000003   12....       LCALL   ?Subroutine118 & 0xFFFF
   \                     ??CrossCallReturnLabel_380:
   \   000006   22           RET

   \                                 In  segment BANKED_CODE, align 1, keep-with-next
   \                     ?Subroutine15:
   \   000000   A3           INC     DPTR
   \   000001   A3           INC     DPTR
   \   000002   A3           INC     DPTR
   \   000003   A3           INC     DPTR
   \   000004                REQUIRE ??Subroutine167_0
   \   000004                ; // Fall through to label ??Subroutine167_0

   \                                 In  segment BANKED_CODE, align 1, keep-with-next
   \                     ??Subroutine167_0:
   \   000000   F0           MOVX    @DPTR,A
   \   000001   A3           INC     DPTR
   \   000002   E9           MOV     A,R1
   \   000003   F0           MOVX    @DPTR,A
   \   000004   E5..         MOV     A,?V2
   \   000006   2402         ADD     A,#0x2
   \   000008   F5..         MOV     ?V2,A
   \   00000A   22           RET

   \                                 In  segment BANKED_CODE, align 1, keep-with-next
   \                     ?Subroutine132:
   \   000000   F0           MOVX    @DPTR,A
   \   000001                ; Setup parameters for call to function osal_memcpy
   \   000001   85..82       MOV     DPL,?V2
   \   000004   85..83       MOV     DPH,?V3
   \   000007   A3           INC     DPTR
   \   000008   22           RET
   2740          
   2741          /*********************************************************************
   2742           * @fn          ZDO_ParseBindUnbindReq
   2743           *
   2744           * @brief       This function parses the Bind_req or Unbind_req message.
   2745           *
   2746           * @param       inMsg  - incoming message (request)
   2747           * @param       pReq - place to put parsed information
   2748           *
   2749           * @return      none
   2750           */

   \                                 In  segment BANKED_CODE, align 1, keep-with-next
   2751          void ZDO_ParseBindUnbindReq( zdoIncomingMsg_t *inMsg, ZDO_BindUnbindReq_t *pReq )
   \                     ZDO_ParseBindUnbindReq:
   2752          {
   \   000000                REQUIRE ?V0
   \   000000                REQUIRE ?V1
   \   000000   74F6         MOV     A,#-0xa
   \   000002   12....       LCALL   ?BANKED_ENTER_XDATA
   \   000005                ; Saved register size: 10
   \   000005                ; Auto size: 0
   \   000005   8C..         MOV     ?V0,R4
   \   000007   8D..         MOV     ?V1,R5
   2753            uint8 *msg;
   2754          
   2755            msg = inMsg->asdu;
   \   000009   12....       LCALL   ?Subroutine84 & 0xFFFF
   \                     ??CrossCallReturnLabel_142:
   \   00000C   FE           MOV     R6,A
   \   00000D   A3           INC     DPTR
   \   00000E   E0           MOVX    A,@DPTR
   \   00000F   FF           MOV     R7,A
   2756            osal_cpyExtAddr( pReq->srcAddress, msg );
   \   000010                ; Setup parameters for call to function sAddrExtCpy
   \   000010   EE           MOV     A,R6
   \   000011   FC           MOV     R4,A
   \   000012   EF           MOV     A,R7
   \   000013   FD           MOV     R5,A
   \   000014   AA..         MOV     R2,?V0
   \   000016   AB..         MOV     R3,?V1
   \   000018   12....       LCALL   ??sAddrExtCpy?relay  ; Banked call to: sAddrExtCpy
   2757            msg += Z_EXTADDR_LEN;
   \   00001B   EE           MOV     A,R6
   \   00001C   2408         ADD     A,#0x8
   \   00001E   FE           MOV     R6,A
   \   00001F   5001         JNC     ??ZDO_ParseBindUnbindReq_0
   \   000021   0F           INC     R7
   2758            pReq->srcEndpoint = *msg++;
   \                     ??ZDO_ParseBindUnbindReq_0:
   \   000022   8E82         MOV     DPL,R6
   \   000024   8F83         MOV     DPH,R7
   \   000026   12....       LCALL   ?Subroutine56 & 0xFFFF
   \                     ??CrossCallReturnLabel_100:
   \   000029   A3           INC     DPTR
   \   00002A   A3           INC     DPTR
   \   00002B   12....       LCALL   ?Subroutine24 & 0xFFFF
   2759            pReq->clusterID = BUILD_UINT16( msg[0], msg[1] );
   \                     ??CrossCallReturnLabel_34:
   \   00002E   85..82       MOV     DPL,?V0
   \   000031   85..83       MOV     DPH,?V1
   \   000034   A3           INC     DPTR
   \   000035   A3           INC     DPTR
   \   000036   A3           INC     DPTR
   \   000037   A3           INC     DPTR
   \   000038   A3           INC     DPTR
   \   000039   A3           INC     DPTR
   \   00003A   12....       LCALL   ?Subroutine12 & 0xFFFF
   2760            msg += 2;
   \                     ??CrossCallReturnLabel_384:
   \   00003D   5001         JNC     ??ZDO_ParseBindUnbindReq_1
   \   00003F   0F           INC     R7
   2761            pReq->dstAddress.addrMode = *msg++;
   \                     ??ZDO_ParseBindUnbindReq_1:
   \   000040   8E82         MOV     DPL,R6
   \   000042   8F83         MOV     DPH,R7
   \   000044   E0           MOVX    A,@DPTR
   \   000045   F8           MOV     R0,A
   \   000046   E5..         MOV     A,?V0
   \   000048   12....       LCALL   ?Subroutine83 & 0xFFFF
   \                     ??CrossCallReturnLabel_141:
   \   00004B   E8           MOV     A,R0
   \   00004C   12....       LCALL   ?Subroutine21 & 0xFFFF
   2762            if ( pReq->dstAddress.addrMode == Addr64Bit )
   \                     ??CrossCallReturnLabel_29:
   \   00004F   240B         ADD     A,#0xb
   \   000051   FA           MOV     R2,A
   \   000052   E4           CLR     A
   \   000053   35..         ADDC    A,?V1
   \   000055   FB           MOV     R3,A
   \   000056   7403         MOV     A,#0x3
   \   000058   68           XRL     A,R0
   \   000059   701D         JNZ     ??ZDO_ParseBindUnbindReq_2
   2763            {
   2764              osal_cpyExtAddr( pReq->dstAddress.addr.extAddr, msg );
   \   00005B                ; Setup parameters for call to function sAddrExtCpy
   \   00005B   EE           MOV     A,R6
   \   00005C   FC           MOV     R4,A
   \   00005D   EF           MOV     A,R7
   \   00005E   FD           MOV     R5,A
   \   00005F   12....       LCALL   ??sAddrExtCpy?relay  ; Banked call to: sAddrExtCpy
   2765              msg += Z_EXTADDR_LEN;
   2766              pReq->dstEndpoint = *msg;
   \   000062   8E82         MOV     DPL,R6
   \   000064   8F83         MOV     DPH,R7
   \   000066   A3           INC     DPTR
   \   000067   A3           INC     DPTR
   \   000068   A3           INC     DPTR
   \   000069   A3           INC     DPTR
   \   00006A   A3           INC     DPTR
   \   00006B   A3           INC     DPTR
   \   00006C   A3           INC     DPTR
   \   00006D   A3           INC     DPTR
   \   00006E   E0           MOVX    A,@DPTR
   \   00006F   C0E0         PUSH    A
   \   000071   12....       LCALL   ?Subroutine102 & 0xFFFF
   2767            }
   \                     ??CrossCallReturnLabel_374:
   \   000074   D0E0         POP     A
   \   000076   8006         SJMP    ??ZDO_ParseBindUnbindReq_3
   2768            else
   2769            {
   2770              // copy group address
   2771              pReq->dstAddress.addr.shortAddr = BUILD_UINT16( msg[0], msg[1] );
   \                     ??ZDO_ParseBindUnbindReq_2:
   \   000078   12....       LCALL   ?Subroutine69 & 0xFFFF
   2772            }
   \                     ??CrossCallReturnLabel_116:
   \   00007B   F0           MOVX    @DPTR,A
   \   00007C   A3           INC     DPTR
   \   00007D   E9           MOV     A,R1
   \                     ??ZDO_ParseBindUnbindReq_3:
   \   00007E   F0           MOVX    @DPTR,A
   2773          }
   \   00007F   02....       LJMP    ??Subroutine141_0 & 0xFFFF

   \                                 In  segment BANKED_CODE, align 1, keep-with-next
   \                     ?Subroutine102:
   \   000000   E5..         MOV     A,?V0
   \   000002   2414         ADD     A,#0x14
   \   000004                REQUIRE ??Subroutine158_0
   \   000004                ; // Fall through to label ??Subroutine158_0

   \                                 In  segment BANKED_CODE, align 1, keep-with-next
   \                     ?Subroutine12:
   \   000000   A3           INC     DPTR
   \   000001   A3           INC     DPTR
   \   000002                REQUIRE ??Subroutine161_0
   \   000002                ; // Fall through to label ??Subroutine161_0

   \                                 In  segment BANKED_CODE, align 1, keep-with-next
   \                     ??Subroutine161_0:
   \   000000   A3           INC     DPTR
   \   000001                REQUIRE ??Subroutine162_0
   \   000001                ; // Fall through to label ??Subroutine162_0

   \                                 In  segment BANKED_CODE, align 1, keep-with-next
   \                     ??Subroutine162_0:
   \   000000   F0           MOVX    @DPTR,A
   \   000001   A3           INC     DPTR
   \   000002   E9           MOV     A,R1
   \   000003   F0           MOVX    @DPTR,A
   \   000004   EE           MOV     A,R6
   \   000005   2402         ADD     A,#0x2
   \   000007   FE           MOV     R6,A
   \   000008   22           RET

   \                                 In  segment BANKED_CODE, align 1, keep-with-next
   \                     ?Subroutine21:
   \   000000   12....       LCALL   ?Subroutine108 & 0xFFFF
   \                     ??CrossCallReturnLabel_197:
   \   000003   E5..         MOV     A,?V0
   \   000005   22           RET

   \                                 In  segment BANKED_CODE, align 1, keep-with-next
   \                     ?Subroutine112:
   \   000000   12....       LCALL   ?Subroutine131 & 0xFFFF
   \                     ??CrossCallReturnLabel_239:
   \   000003   AE82         MOV     R6,DPL
   \   000005   AF83         MOV     R7,DPH
   \   000007   22           RET

   \                                 In  segment BANKED_CODE, align 1, keep-with-next
   \                     ?Subroutine69:
   \   000000   E0           MOVX    A,@DPTR
   \   000001   FC           MOV     R4,A
   \   000002   A3           INC     DPTR
   \   000003   E0           MOVX    A,@DPTR
   \   000004   F9           MOV     R1,A
   \   000005   EC           MOV     A,R4
   \   000006   8A82         MOV     DPL,R2
   \   000008   8B83         MOV     DPH,R3
   \   00000A   22           RET

   \                                 In  segment BANKED_CODE, align 1, keep-with-next
   \                     ?Subroutine24:
   \   000000   12....       LCALL   ?Subroutine112 & 0xFFFF
   \                     ??CrossCallReturnLabel_204:
   \   000003   12....       LCALL   ?Subroutine118 & 0xFFFF
   \                     ??CrossCallReturnLabel_381:
   \   000006   22           RET

   \                                 In  segment BANKED_CODE, align 1, keep-with-next
   \                     ?Subroutine84:
   \   000000   12....       LCALL   ?Subroutine127 & 0xFFFF
   \                     ??CrossCallReturnLabel_233:
   \   000003   22           RET

   \                                 In  segment BANKED_CODE, align 1, keep-with-next
   \                     ?Subroutine127:
   \   000000   12....       LCALL   ?Subroutine137 & 0xFFFF
   \                     ??CrossCallReturnLabel_250:
   \   000003   E0           MOVX    A,@DPTR
   \   000004   22           RET

   \                                 In  segment BANKED_CODE, align 1, keep-with-next
   \                     ?Subroutine56:
   \   000000   12....       LCALL   ?Subroutine117 & 0xFFFF
   \                     ??CrossCallReturnLabel_215:
   \   000003   22           RET

   \                                 In  segment BANKED_CODE, align 1, keep-with-next
   \                     ?Subroutine117:
   \   000000   12....       LCALL   ?Subroutine133 & 0xFFFF
   \                     ??CrossCallReturnLabel_243:
   \   000003   A3           INC     DPTR
   \   000004   22           RET

   \                                 In  segment BANKED_CODE, align 1, keep-with-next
   \                     ?Subroutine133:
   \   000000   E0           MOVX    A,@DPTR
   \   000001   85..82       MOV     DPL,?V0
   \   000004   85..83       MOV     DPH,?V1
   \   000007   A3           INC     DPTR
   \   000008   A3           INC     DPTR
   \   000009   A3           INC     DPTR
   \   00000A   A3           INC     DPTR
   \   00000B   A3           INC     DPTR
   \   00000C   22           RET

   \                                 In  segment BANKED_CODE, align 1, keep-with-next
   \                     ?Subroutine108:
   \   000000   12....       LCALL   ?Subroutine131 & 0xFFFF
   \                     ??CrossCallReturnLabel_238:
   \   000003   0E           INC     R6
   \   000004   AF83         MOV     R7,DPH
   \   000006   22           RET
   2774          
   2775          /*********************************************************************
   2776           * @fn      ZDO_ParseAddrRsp
   2777           *
   2778           * @brief   Turns the inMsg (incoming message) into the out parsed
   2779           *          structure.
   2780           *
   2781           * @param   inMsg - incoming message
   2782           *
   2783           * @return  pointer to parsed structures.  This structure was
   2784           *          allocated using osal_mem_alloc, so it must be freed
   2785           *          by the calling function [osal_mem_free()].
   2786           */

   \                                 In  segment BANKED_CODE, align 1, keep-with-next
   2787          ZDO_NwkIEEEAddrResp_t *ZDO_ParseAddrRsp( zdoIncomingMsg_t *inMsg )
   \                     ZDO_ParseAddrRsp:
   2788          {
   \   000000                REQUIRE ?V0
   \   000000                REQUIRE ?V1
   \   000000                REQUIRE ?V2
   \   000000                REQUIRE ?V3
   \   000000                REQUIRE ?V4
   \   000000                REQUIRE ?V5
   \   000000   74F2         MOV     A,#-0xe
   \   000002   12....       LCALL   ?BANKED_ENTER_XDATA
   \   000005                ; Saved register size: 14
   \   000005                ; Auto size: 0
   2789            ZDO_NwkIEEEAddrResp_t *rsp;
   2790            uint8 *msg;
   2791            byte cnt = 0;
   \   000005   75..00       MOV     ?V2,#0x0
   2792          
   2793            // Calculate the number of items in the list
   2794            if ( inMsg->asduLen > (1 + Z_EXTADDR_LEN + 2) )
   \   000008   EA           MOV     A,R2
   \   000009   2413         ADD     A,#0x13
   \   00000B   F8           MOV     R0,A
   \   00000C   E4           CLR     A
   \   00000D   3B           ADDC    A,R3
   \   00000E   F9           MOV     R1,A
   \   00000F   E8           MOV     A,R0
   \   000010   FE           MOV     R6,A
   \   000011   E9           MOV     A,R1
   \   000012   FF           MOV     R7,A
   \   000013   EA           MOV     A,R2
   \   000014   2410         ADD     A,#0x10
   \   000016   F582         MOV     DPL,A
   \   000018   E4           CLR     A
   \   000019   3B           ADDC    A,R3
   \   00001A   F583         MOV     DPH,A
   \   00001C   E0           MOVX    A,@DPTR
   \   00001D   C3           CLR     C
   \   00001E   940C         SUBB    A,#0xc
   \   000020   4014         JC      ??ZDO_ParseAddrRsp_0
   2795            {
   2796              cnt = inMsg->asdu[1 + Z_EXTADDR_LEN + 2];
   \   000022   8E82         MOV     DPL,R6
   \   000024   8F83         MOV     DPH,R7
   \   000026   E0           MOVX    A,@DPTR
   \   000027   F8           MOV     R0,A
   \   000028   A3           INC     DPTR
   \   000029   E0           MOVX    A,@DPTR
   \   00002A   C8           XCH     A,R0
   \   00002B   240B         ADD     A,#0xb
   \   00002D   F582         MOV     DPL,A
   \   00002F   E4           CLR     A
   \   000030   38           ADDC    A,R0
   \   000031   F583         MOV     DPH,A
   \   000033   E0           MOVX    A,@DPTR
   \   000034   F5..         MOV     ?V2,A
   2797            }
   2798            else
   2799            {
   2800              cnt = 0;
   2801            }
   2802          
   2803            // Make buffer
   2804            rsp = (ZDO_NwkIEEEAddrResp_t *)osal_mem_alloc( sizeof(ZDO_NwkIEEEAddrResp_t) + (cnt * sizeof ( uint16 )) );
   \                     ??ZDO_ParseAddrRsp_0:
   \   000036                ; Setup parameters for call to function osal_mem_alloc
   \   000036   A8..         MOV     R0,?V2
   \   000038   E8           MOV     A,R0
   \   000039   28           ADD     A,R0
   \   00003A   F8           MOV     R0,A
   \   00003B   E4           CLR     A
   \   00003C   33           RLC     A
   \   00003D   F9           MOV     R1,A
   \   00003E   E8           MOV     A,R0
   \   00003F   240D         ADD     A,#0xd
   \   000041   FA           MOV     R2,A
   \   000042   E4           CLR     A
   \   000043   39           ADDC    A,R1
   \   000044   FB           MOV     R3,A
   \   000045   12....       LCALL   ??osal_mem_alloc?relay; Banked call to: osal_mem_alloc
   \   000048   8A..         MOV     ?V0,R2
   \   00004A   8B..         MOV     ?V1,R3
   2805          
   2806            if ( rsp )
   \   00004C   EA           MOV     A,R2
   \   00004D   45..         ORL     A,?V1
   \   00004F   7003         JNZ     $+5
   \   000051   02....       LJMP    ??ZDO_ParseAddrRsp_1 & 0xFFFF
   2807            {
   2808              msg = inMsg->asdu;
   \   000054   8E82         MOV     DPL,R6
   \   000056   8F83         MOV     DPH,R7
   \   000058   12....       LCALL   ??Subroutine164_0 & 0xFFFF
   2809          
   2810              rsp->status = *msg++;
   \                     ??CrossCallReturnLabel_398:
   \   00005B   8A82         MOV     DPL,R2
   \   00005D   8B83         MOV     DPH,R3
   \   00005F   12....       LCALL   ?Subroutine25 & 0xFFFF
   2811              if ( rsp->status == ZDO_SUCCESS )
   \                     ??CrossCallReturnLabel_36:
   \   000062   6003         JZ      $+5
   \   000064   02....       LJMP    ??ZDO_ParseAddrRsp_1 & 0xFFFF
   2812              {
   2813                osal_cpyExtAddr( rsp->extAddr, msg );
   \   000067                ; Setup parameters for call to function sAddrExtCpy
   \   000067   EE           MOV     A,R6
   \   000068   FC           MOV     R4,A
   \   000069   EF           MOV     A,R7
   \   00006A   FD           MOV     R5,A
   \   00006B   EA           MOV     A,R2
   \   00006C   2403         ADD     A,#0x3
   \   00006E   FA           MOV     R2,A
   \   00006F   E4           CLR     A
   \   000070   35..         ADDC    A,?V1
   \   000072   FB           MOV     R3,A
   \   000073   12....       LCALL   ??sAddrExtCpy?relay  ; Banked call to: sAddrExtCpy
   2814                msg += Z_EXTADDR_LEN;
   \   000076   EE           MOV     A,R6
   \   000077   2408         ADD     A,#0x8
   \   000079   FE           MOV     R6,A
   \   00007A   5001         JNC     ??ZDO_ParseAddrRsp_2
   \   00007C   0F           INC     R7
   2815                rsp->nwkAddr = BUILD_UINT16( msg[0], msg[1] );
   \                     ??ZDO_ParseAddrRsp_2:
   \   00007D   12....       LCALL   ?Subroutine63 & 0xFFFF
   \                     ??CrossCallReturnLabel_378:
   \   000080   85..82       MOV     DPL,?V0
   \   000083   85..83       MOV     DPH,?V1
   \   000086   12....       LCALL   ??Subroutine161_0 & 0xFFFF
   2816          
   2817                msg += 2;
   \                     ??CrossCallReturnLabel_386:
   \   000089   5001         JNC     ??ZDO_ParseAddrRsp_3
   \   00008B   0F           INC     R7
   2818                rsp->numAssocDevs = 0;
   \                     ??ZDO_ParseAddrRsp_3:
   \   00008C   E5..         MOV     A,?V0
   \   00008E   240B         ADD     A,#0xb
   \   000090   F8           MOV     R0,A
   \   000091   E4           CLR     A
   \   000092   35..         ADDC    A,?V1
   \   000094   F9           MOV     R1,A
   \   000095   E8           MOV     A,R0
   \   000096   FA           MOV     R2,A
   \   000097   E9           MOV     A,R1
   \   000098   FB           MOV     R3,A
   \   000099   8A82         MOV     DPL,R2
   \   00009B   8B83         MOV     DPH,R3
   \   00009D   E4           CLR     A
   \   00009E   F0           MOVX    @DPTR,A
   2819          
   2820                // StartIndex field is only present if NumAssocDev field is non-zero.
   2821                if ( cnt > 0 )
   \   00009F   E5..         MOV     A,?V2
   \   0000A1   6045         JZ      ??ZDO_ParseAddrRsp_1
   2822                {
   2823                  uint16 *pList = &(rsp->devList[0]);
   \   0000A3   E5..         MOV     A,?V0
   \   0000A5   240D         ADD     A,#0xd
   \   0000A7   F8           MOV     R0,A
   \   0000A8   E4           CLR     A
   \   0000A9   35..         ADDC    A,?V1
   \   0000AB   F9           MOV     R1,A
   2824                  byte n = cnt;
   2825          
   2826                  rsp->numAssocDevs = *msg++;
   \   0000AC   8E82         MOV     DPL,R6
   \   0000AE   8F83         MOV     DPH,R7
   \   0000B0   12....       LCALL   ?Subroutine123 & 0xFFFF
   \                     ??CrossCallReturnLabel_222:
   \   0000B3   12....       LCALL   ?Subroutine10 & 0xFFFF
   2827                  rsp->startIndex = *msg++;
   \                     ??CrossCallReturnLabel_0:
   \   0000B6   C0E0         PUSH    A
   \   0000B8   E5..         MOV     A,?V0
   \   0000BA   240C         ADD     A,#0xc
   \   0000BC   12....       LCALL   ??Subroutine158_0 & 0xFFFF
   \                     ??CrossCallReturnLabel_364:
   \   0000BF   D0E0         POP     A
   \   0000C1   12....       LCALL   ?Subroutine34 & 0xFFFF
   \                     ??CrossCallReturnLabel_51:
   \   0000C4   85....       MOV     ?V3,?V2
   2828          
   2829                  while ( n != 0 )
   2830                  {
   2831                    *pList++ = BUILD_UINT16( msg[0], msg[1] );
   \                     ??ZDO_ParseAddrRsp_4:
   \   0000C7   8E82         MOV     DPL,R6
   \   0000C9   8F83         MOV     DPH,R7
   \   0000CB   E0           MOVX    A,@DPTR
   \   0000CC   FC           MOV     R4,A
   \   0000CD   A3           INC     DPTR
   \   0000CE   E0           MOVX    A,@DPTR
   \   0000CF   FB           MOV     R3,A
   \   0000D0   EC           MOV     A,R4
   \   0000D1   8882         MOV     DPL,R0
   \   0000D3   8983         MOV     DPH,R1
   \   0000D5   12....       LCALL   ?Subroutine38 & 0xFFFF
   \                     ??CrossCallReturnLabel_62:
   \   0000D8   5001         JNC     ??ZDO_ParseAddrRsp_5
   \   0000DA   09           INC     R1
   2832                    msg += sizeof( uint16 );
   \                     ??ZDO_ParseAddrRsp_5:
   \   0000DB   EE           MOV     A,R6
   \   0000DC   2402         ADD     A,#0x2
   \   0000DE   FE           MOV     R6,A
   \   0000DF   5001         JNC     ??ZDO_ParseAddrRsp_6
   \   0000E1   0F           INC     R7
   2833                    n--;
   2834                  }
   \                     ??ZDO_ParseAddrRsp_6:
   \   0000E2   15..         DEC     ?V3
   \   0000E4   E5..         MOV     A,?V3
   \   0000E6   70DF         JNZ     ??ZDO_ParseAddrRsp_4
   2835                }
   2836              }
   2837            }
   2838          
   2839            return ( rsp );
   \                     ??ZDO_ParseAddrRsp_1:
   \   0000E8   AA..         MOV     R2,?V0
   \   0000EA   AB..         MOV     R3,?V1
   \   0000EC                REQUIRE ?Subroutine4
   \   0000EC                ; // Fall through to label ?Subroutine4
   2840          }

   \                                 In  segment BANKED_CODE, align 1, keep-with-next
   \                     ?Subroutine63:
   \   000000   8E82         MOV     DPL,R6
   \   000002   8F83         MOV     DPH,R7
   \   000004                REQUIRE ??Subroutine160_0
   \   000004                ; // Fall through to label ??Subroutine160_0

   \                                 In  segment BANKED_CODE, align 1, keep-with-next
   \                     ?Subroutine38:
   \   000000   F0           MOVX    @DPTR,A
   \   000001   A3           INC     DPTR
   \   000002   EB           MOV     A,R3
   \   000003   F0           MOVX    @DPTR,A
   \   000004   E8           MOV     A,R0
   \   000005   2402         ADD     A,#0x2
   \   000007   F8           MOV     R0,A
   \   000008   22           RET

   \                                 In  segment BANKED_CODE, align 1, keep-with-next
   \                     ??Subroutine164_0:
   \   000000   12....       LCALL   ?Subroutine120 & 0xFFFF
   \                     ??CrossCallReturnLabel_399:
   \   000003   22           RET

   \                                 In  segment BANKED_CODE, align 1, keep-with-next
   \                     ?Subroutine120:
   \   000000   E0           MOVX    A,@DPTR
   \   000001   FE           MOV     R6,A
   \   000002   A3           INC     DPTR
   \   000003   E0           MOVX    A,@DPTR
   \   000004   FF           MOV     R7,A
   \   000005   8E82         MOV     DPL,R6
   \   000007   8F83         MOV     DPH,R7
   \   000009   E0           MOVX    A,@DPTR
   \   00000A   22           RET

   \                                 In  segment BANKED_CODE, align 1, keep-with-next
   \                     ?Subroutine10:
   \   000000   12....       LCALL   ?Subroutine108 & 0xFFFF
   \                     ??CrossCallReturnLabel_196:
   \   000003   E0           MOVX    A,@DPTR
   \   000004   22           RET

   \                                 In  segment BANKED_CODE, align 1, keep-with-next
   \                     ?Subroutine25:
   \   000000   12....       LCALL   ?Subroutine112 & 0xFFFF
   \                     ??CrossCallReturnLabel_205:
   \   000003   22           RET

   \                                 In  segment BANKED_CODE, align 1, keep-with-next
   \                     ?Subroutine34:
   \   000000   12....       LCALL   ?Subroutine108 & 0xFFFF
   \                     ??CrossCallReturnLabel_198:
   \   000003   22           RET
   2841          
   2842          /*********************************************************************
   2843           * @fn          ZDO_ParseNodeDescRsp
   2844           *
   2845           * @brief       This function parses the Node_Desc_rsp message.
   2846           *
   2847           * @param       inMsg - incoming message
   2848           * @param       pNDRsp - place to parse the message into
   2849           *
   2850           * @return      none
   2851           */

   \                                 In  segment BANKED_CODE, align 1, keep-with-next
   2852          void ZDO_ParseNodeDescRsp( zdoIncomingMsg_t *inMsg, ZDO_NodeDescRsp_t *pNDRsp )
   \                     ZDO_ParseNodeDescRsp:
   2853          {
   \   000000                REQUIRE ?V0
   \   000000                REQUIRE ?V1
   \   000000                REQUIRE ?V2
   \   000000   74F5         MOV     A,#-0xb
   \   000002   12....       LCALL   ?BANKED_ENTER_XDATA
   \   000005                ; Saved register size: 11
   \   000005                ; Auto size: 0
   2854            uint8 *msg;
   2855          
   2856            msg = inMsg->asdu;
   \   000005   12....       LCALL   ?Subroutine11 & 0xFFFF
   2857          
   2858            pNDRsp->status = *msg++;
   2859            pNDRsp->nwkAddr = BUILD_UINT16( msg[0], msg[1] );
   2860          
   2861            if ( pNDRsp->status == ZDP_SUCCESS )
   \                     ??CrossCallReturnLabel_5:
   \   000008   6003         JZ      $+5
   \   00000A   02....       LJMP    ??ZDO_ParseNodeDescRsp_0 & 0xFFFF
   2862            {
   2863              msg += 2;
   \   00000D   E8           MOV     A,R0
   \   00000E   2402         ADD     A,#0x2
   \   000010   F8           MOV     R0,A
   \   000011   5001         JNC     ??ZDO_ParseNodeDescRsp_1
   \   000013   09           INC     R1
   2864              pNDRsp->nodeDesc.LogicalType = *msg & 0x07;
   \                     ??ZDO_ParseNodeDescRsp_1:
   \   000014   EC           MOV     A,R4
   \   000015   2403         ADD     A,#0x3
   \   000017   FA           MOV     R2,A
   \   000018   E4           CLR     A
   \   000019   3D           ADDC    A,R5
   \   00001A   FB           MOV     R3,A
   \   00001B   8882         MOV     DPL,R0
   \   00001D   8983         MOV     DPH,R1
   \   00001F   E0           MOVX    A,@DPTR
   \   000020   5407         ANL     A,#0x7
   \   000022   FE           MOV     R6,A
   \   000023   8A82         MOV     DPL,R2
   \   000025   8B83         MOV     DPH,R3
   \   000027   E0           MOVX    A,@DPTR
   \   000028   54F8         ANL     A,#0xf8
   \   00002A   4E           ORL     A,R6
   \   00002B   12....       LCALL   ?Subroutine14 & 0xFFFF
   2865          
   2866              pNDRsp->nodeDesc.ComplexDescAvail = ( *msg & 0x08 ) >> 3;
   \                     ??CrossCallReturnLabel_13:
   \   00002E   A2E3         MOV     C,0xE0 /* A   */.3
   \   000030   E4           CLR     A
   \   000031   33           RLC     A
   \   000032   FE           MOV     R6,A
   \   000033   E0           MOVX    A,@DPTR
   \   000034   A2E3         MOV     C,0xE0 /* A   */.3
   \   000036   8B83         MOV     DPH,R3
   \   000038   8A82         MOV     DPL,R2
   \   00003A   E0           MOVX    A,@DPTR
   \   00003B   92E3         MOV     0xE0 /* A   */.3,C
   \   00003D   12....       LCALL   ?Subroutine14 & 0xFFFF
   2867              pNDRsp->nodeDesc.UserDescAvail = ( *msg & 0x10 ) >> 4;
   \                     ??CrossCallReturnLabel_14:
   \   000040   A2E4         MOV     C,0xE0 /* A   */.4
   \   000042   E4           CLR     A
   \   000043   33           RLC     A
   \   000044   FF           MOV     R7,A
   \   000045   E0           MOVX    A,@DPTR
   \   000046   A2E4         MOV     C,0xE0 /* A   */.4
   \   000048   8B83         MOV     DPH,R3
   \   00004A   8A82         MOV     DPL,R2
   \   00004C   E0           MOVX    A,@DPTR
   \   00004D   92E4         MOV     0xE0 /* A   */.4,C
   \   00004F   12....       LCALL   ?Subroutine36 & 0xFFFF
   2868          
   2869              msg++;  // Reserved bits.
   \                     ??CrossCallReturnLabel_57:
   \   000052   08           INC     R0
   \   000053   A983         MOV     R1,DPH
   2870              pNDRsp->nodeDesc.FrequencyBand = (*msg >> 3) & 0x1f;
   \   000055   EC           MOV     A,R4
   \   000056   2404         ADD     A,#0x4
   \   000058   0A           INC     R2
   \   000059   E4           CLR     A
   \   00005A   3D           ADDC    A,R5
   \   00005B   FB           MOV     R3,A
   \   00005C   E0           MOVX    A,@DPTR
   \   00005D   54F8         ANL     A,#0xf8
   \   00005F   F5..         MOV     ?V0,A
   \   000061   8A82         MOV     DPL,R2
   \   000063   8B83         MOV     DPH,R3
   \   000065   E0           MOVX    A,@DPTR
   \   000066   5407         ANL     A,#0x7
   \   000068   45..         ORL     A,?V0
   \   00006A   F5..         MOV     ?V1,A
   \   00006C   12....       LCALL   ?Subroutine14 & 0xFFFF
   2871              pNDRsp->nodeDesc.APSFlags = *msg++ & 0x07;
   \                     ??CrossCallReturnLabel_15:
   \   00006F   5407         ANL     A,#0x7
   \   000071   F5..         MOV     ?V0,A
   \   000073   A3           INC     DPTR
   \   000074   08           INC     R0
   \   000075   A983         MOV     R1,DPH
   \   000077   74F8         MOV     A,#-0x8
   \   000079   55..         ANL     A,?V1
   \   00007B   45..         ORL     A,?V0
   \   00007D   8A82         MOV     DPL,R2
   \   00007F   8B83         MOV     DPH,R3
   \   000081   12....       LCALL   ?Subroutine14 & 0xFFFF
   2872              pNDRsp->nodeDesc.CapabilityFlags = *msg++;
   \                     ??CrossCallReturnLabel_16:
   \   000084   8C82         MOV     DPL,R4
   \   000086   8D83         MOV     DPH,R5
   \   000088   A3           INC     DPTR
   \   000089   A3           INC     DPTR
   \   00008A   A3           INC     DPTR
   \   00008B   A3           INC     DPTR
   \   00008C   12....       LCALL   ?Subroutine22 & 0xFFFF
   2873              pNDRsp->nodeDesc.ManufacturerCode[0] = *msg++;
   \                     ??CrossCallReturnLabel_390:
   \   00008F   8C82         MOV     DPL,R4
   \   000091   8D83         MOV     DPH,R5
   \   000093   A3           INC     DPTR
   \   000094   A3           INC     DPTR
   \   000095   A3           INC     DPTR
   \   000096   A3           INC     DPTR
   \   000097   A3           INC     DPTR
   \   000098   A3           INC     DPTR
   \   000099   12....       LCALL   ?Subroutine18 & 0xFFFF
   2874              pNDRsp->nodeDesc.ManufacturerCode[1] = *msg++;
   \                     ??CrossCallReturnLabel_23:
   \   00009C   12....       LCALL   ?Subroutine18 & 0xFFFF
   2875              pNDRsp->nodeDesc.MaxBufferSize = *msg++;
   \                     ??CrossCallReturnLabel_24:
   \   00009F   A3           INC     DPTR
   \   0000A0   12....       LCALL   ?Subroutine16 & 0xFFFF
   2876              pNDRsp->nodeDesc.MaxInTransferSize[0] = *msg++;
   \                     ??CrossCallReturnLabel_18:
   \   0000A3   12....       LCALL   ?Subroutine16 & 0xFFFF
   2877              pNDRsp->nodeDesc.MaxInTransferSize[1] = *msg++;
   \                     ??CrossCallReturnLabel_19:
   \   0000A6   12....       LCALL   ?Subroutine22 & 0xFFFF
   2878              pNDRsp->nodeDesc.ServerMask = BUILD_UINT16( msg[0], msg[1] );
   \                     ??CrossCallReturnLabel_391:
   \   0000A9   F5..         MOV     ?V0,A
   \   0000AB   A3           INC     DPTR
   \   0000AC   E0           MOVX    A,@DPTR
   \   0000AD   FB           MOV     R3,A
   \   0000AE   EC           MOV     A,R4
   \   0000AF   240B         ADD     A,#0xb
   \   0000B1   F582         MOV     DPL,A
   \   0000B3   E4           CLR     A
   \   0000B4   3D           ADDC    A,R5
   \   0000B5   F583         MOV     DPH,A
   \   0000B7   E5..         MOV     A,?V0
   \   0000B9   12....       LCALL   ?Subroutine38 & 0xFFFF
   2879              msg += 2;
   \                     ??CrossCallReturnLabel_61:
   \   0000BC   5001         JNC     ??ZDO_ParseNodeDescRsp_2
   \   0000BE   09           INC     R1
   2880              pNDRsp->nodeDesc.MaxOutTransferSize[0] = *msg++;
   \                     ??ZDO_ParseNodeDescRsp_2:
   \   0000BF   8882         MOV     DPL,R0
   \   0000C1   8983         MOV     DPH,R1
   \   0000C3   E0           MOVX    A,@DPTR
   \   0000C4   C0E0         PUSH    A
   \   0000C6   EC           MOV     A,R4
   \   0000C7   240D         ADD     A,#0xd
   \   0000C9   F582         MOV     DPL,A
   \   0000CB   E4           CLR     A
   \   0000CC   3D           ADDC    A,R5
   \   0000CD   F583         MOV     DPH,A
   \   0000CF   D0E0         POP     A
   \   0000D1   12....       LCALL   ??Subroutine163_0 & 0xFFFF
   2881              pNDRsp->nodeDesc.MaxOutTransferSize[1] = *msg++;
   \                     ??CrossCallReturnLabel_392:
   \   0000D4   C0E0         PUSH    A
   \   0000D6   EC           MOV     A,R4
   \   0000D7   12....       LCALL   ?Subroutine94 & 0xFFFF
   \                     ??CrossCallReturnLabel_168:
   \   0000DA   3D           ADDC    A,R5
   \   0000DB   F583         MOV     DPH,A
   \   0000DD   D0E0         POP     A
   \   0000DF   12....       LCALL   ?Subroutine36 & 0xFFFF
   2882              pNDRsp->nodeDesc.DescriptorCapability = *msg;
   \                     ??CrossCallReturnLabel_58:
   \   0000E2   E0           MOVX    A,@DPTR
   \   0000E3   C0E0         PUSH    A
   \   0000E5   EC           MOV     A,R4
   \   0000E6   12....       LCALL   ?Subroutine96 & 0xFFFF
   2883            }
   \                     ??CrossCallReturnLabel_177:
   \   0000E9   3D           ADDC    A,R5
   \   0000EA   F583         MOV     DPH,A
   \   0000EC   D0E0         POP     A
   \   0000EE   F0           MOVX    @DPTR,A
   2884          }
   \                     ??ZDO_ParseNodeDescRsp_0:
   \   0000EF   7F03         MOV     R7,#0x3
   \   0000F1   02....       LJMP    ?BANKED_LEAVE_XDATA

   \                                 In  segment BANKED_CODE, align 1, keep-with-next
   \                     ?Subroutine22:
   \   000000   A3           INC     DPTR
   \   000001                REQUIRE ??Subroutine163_0
   \   000001                ; // Fall through to label ??Subroutine163_0

   \                                 In  segment BANKED_CODE, align 1, keep-with-next
   \                     ??Subroutine163_0:
   \   000000   12....       LCALL   ?Subroutine114 & 0xFFFF
   \                     ??CrossCallReturnLabel_395:
   \   000003   08           INC     R0
   \   000004   A983         MOV     R1,DPH
   \   000006   E0           MOVX    A,@DPTR
   \   000007   22           RET

   \                                 In  segment BANKED_CODE, align 1, keep-with-next
   \                     ?Subroutine18:
   \   000000   12....       LCALL   ?Subroutine107 & 0xFFFF
   \                     ??CrossCallReturnLabel_194:
   \   000003   22           RET

   \                                 In  segment BANKED_CODE, align 1, keep-with-next
   \                     ?Subroutine107:
   \   000000   F0           MOVX    @DPTR,A
   \   000001   8882         MOV     DPL,R0
   \   000003   8983         MOV     DPH,R1
   \   000005   A3           INC     DPTR
   \   000006   08           INC     R0
   \   000007   A983         MOV     R1,DPH
   \   000009   12....       LCALL   ?Subroutine135 & 0xFFFF
   \                     ??CrossCallReturnLabel_249:
   \   00000C   A3           INC     DPTR
   \   00000D   A3           INC     DPTR
   \   00000E   A3           INC     DPTR
   \   00000F   A3           INC     DPTR
   \   000010   A3           INC     DPTR
   \   000011   A3           INC     DPTR
   \   000012   A3           INC     DPTR
   \   000013   22           RET

   \                                 In  segment BANKED_CODE, align 1, keep-with-next
   \                     ?Subroutine16:
   \   000000   12....       LCALL   ?Subroutine107 & 0xFFFF
   \                     ??CrossCallReturnLabel_195:
   \   000003   A3           INC     DPTR
   \   000004   A3           INC     DPTR
   \   000005   22           RET

   \                                 In  segment BANKED_CODE, align 1, keep-with-next
   \                     ?Subroutine11:
   \   000000   12....       LCALL   ?Subroutine129 & 0xFFFF
   \                     ??CrossCallReturnLabel_332:
   \   000003   3B           ADDC    A,R3
   \   000004   12....       LCALL   ?Subroutine119 & 0xFFFF
   \                     ??CrossCallReturnLabel_217:
   \   000007   8C82         MOV     DPL,R4
   \   000009   8D83         MOV     DPH,R5
   \   00000B   12....       LCALL   ?Subroutine114 & 0xFFFF
   \                     ??CrossCallReturnLabel_394:
   \   00000E   A882         MOV     R0,DPL
   \   000010   A983         MOV     R1,DPH
   \   000012   E0           MOVX    A,@DPTR
   \   000013   FE           MOV     R6,A
   \   000014   A3           INC     DPTR
   \   000015   E0           MOVX    A,@DPTR
   \   000016   FB           MOV     R3,A
   \   000017   EE           MOV     A,R6
   \   000018   8C82         MOV     DPL,R4
   \   00001A   8D83         MOV     DPH,R5
   \   00001C   A3           INC     DPTR
   \   00001D   F0           MOVX    @DPTR,A
   \   00001E   A3           INC     DPTR
   \   00001F   EB           MOV     A,R3
   \   000020   F0           MOVX    @DPTR,A
   \   000021   8C82         MOV     DPL,R4
   \   000023   8D83         MOV     DPH,R5
   \   000025   E0           MOVX    A,@DPTR
   \   000026   22           RET

   \                                 In  segment BANKED_CODE, align 1, keep-with-next
   \                     ?Subroutine135:
   \   000000   E0           MOVX    A,@DPTR
   \   000001   8C82         MOV     DPL,R4
   \   000003   8D83         MOV     DPH,R5
   \   000005   22           RET
   2885          
   2886          /*********************************************************************
   2887           * @fn          ZDO_ParsePowerDescRsp
   2888           *
   2889           * @brief       This function parses the Power_Desc_rsp message.
   2890           *
   2891           * @param       inMsg  - incoming message
   2892           * @param       pNPRsp - place to parse the message into
   2893           *
   2894           * @return      none
   2895           */

   \                                 In  segment BANKED_CODE, align 1, keep-with-next
   \                     ?Subroutine27:
   \   000000   F9           MOV     R1,A
   \   000001   8C82         MOV     DPL,R4
   \   000003   8D83         MOV     DPH,R5
   \   000005                REQUIRE ??Subroutine143_0
   \   000005                ; // Fall through to label ??Subroutine143_0

   \                                 In  segment BANKED_CODE, align 1, keep-with-next
   2896          void ZDO_ParsePowerDescRsp( zdoIncomingMsg_t *inMsg, ZDO_PowerRsp_t *pNPRsp )
   \                     ZDO_ParsePowerDescRsp:
   2897          {
   \   000000                REQUIRE ?V0
   \   000000                REQUIRE ?V1
   \   000000   74F6         MOV     A,#-0xa
   \   000002   12....       LCALL   ?BANKED_ENTER_XDATA
   \   000005                ; Saved register size: 10
   \   000005                ; Auto size: 0
   2898            uint8 *msg;
   2899          
   2900            msg = inMsg->asdu;
   \   000005   12....       LCALL   ?Subroutine86 & 0xFFFF
   \                     ??CrossCallReturnLabel_149:
   \   000008   12....       LCALL   ?Subroutine72 & 0xFFFF
   2901            pNPRsp->status = *msg++;
   \                     ??CrossCallReturnLabel_122:
   \   00000B   12....       LCALL   ?Subroutine135 & 0xFFFF
   \                     ??CrossCallReturnLabel_246:
   \   00000E   12....       LCALL   ?Subroutine42 & 0xFFFF
   \                     ??CrossCallReturnLabel_83:
   \   000011   A3           INC     DPTR
   \   000012   AA82         MOV     R2,DPL
   \   000014   AB83         MOV     R3,DPH
   2902            pNPRsp->nwkAddr = BUILD_UINT16( msg[0], msg[1] );
   \   000016   E0           MOVX    A,@DPTR
   \   000017   FE           MOV     R6,A
   \   000018   A3           INC     DPTR
   \   000019   E0           MOVX    A,@DPTR
   \   00001A   F9           MOV     R1,A
   \   00001B   EE           MOV     A,R6
   \   00001C   8C82         MOV     DPL,R4
   \   00001E   8D83         MOV     DPH,R5
   \   000020   A3           INC     DPTR
   \   000021   12....       LCALL   ??Subroutine144_0 & 0xFFFF
   2903          
   2904            if ( pNPRsp->status == ZDP_SUCCESS )
   \                     ??CrossCallReturnLabel_263:
   \   000024   8C82         MOV     DPL,R4
   \   000026   8D83         MOV     DPH,R5
   \   000028   E0           MOVX    A,@DPTR
   \   000029   7077         JNZ     ??CrossCallReturnLabel_277
   2905            {
   2906              msg += 2;
   \   00002B   EA           MOV     A,R2
   \   00002C   2402         ADD     A,#0x2
   \   00002E   FA           MOV     R2,A
   \   00002F   5001         JNC     ??ZDO_ParsePowerDescRsp_0
   \   000031   0B           INC     R3
   2907              pNPRsp->pwrDesc.AvailablePowerSources = *msg >> 4;
   \                     ??ZDO_ParsePowerDescRsp_0:
   \   000032   EC           MOV     A,R4
   \   000033   2403         ADD     A,#0x3
   \   000035   E4           CLR     A
   \   000036   3D           ADDC    A,R5
   \   000037   0C           INC     R4
   \   000038   0C           INC     R4
   \   000039   0C           INC     R4
   \   00003A   FD           MOV     R5,A
   \   00003B   8C82         MOV     DPL,R4
   \   00003D   8D83         MOV     DPH,R5
   \   00003F   E0           MOVX    A,@DPTR
   \   000040   540F         ANL     A,#0xf
   \   000042   FE           MOV     R6,A
   \   000043   A3           INC     DPTR
   \   000044   E0           MOVX    A,@DPTR
   \   000045   FF           MOV     R7,A
   \   000046   8A82         MOV     DPL,R2
   \   000048   8B83         MOV     DPH,R3
   \   00004A   E0           MOVX    A,@DPTR
   \   00004B   C4           SWAP    A
   \   00004C   540F         ANL     A,#0xf
   \   00004E   F5..         MOV     ?V0,A
   \   000050   75..00       MOV     ?V1,#0x0
   \   000053   7404         MOV     A,#0x4
   \   000055   78..         MOV     R0,#?V0
   \   000057   12....       LCALL   ?S_SHL
   \   00005A   EE           MOV     A,R6
   \   00005B   45..         ORL     A,?V0
   \   00005D   FE           MOV     R6,A
   \   00005E   8C82         MOV     DPL,R4
   \   000060   8D83         MOV     DPH,R5
   \   000062   12....       LCALL   ?Subroutine29 & 0xFFFF
   2908              pNPRsp->pwrDesc.PowerMode = *msg++ & 0x0F;
   \                     ??CrossCallReturnLabel_43:
   \   000065   A3           INC     DPTR
   \   000066   0A           INC     R2
   \   000067   AB83         MOV     R3,DPH
   \   000069   EE           MOV     A,R6
   \   00006A   54F0         ANL     A,#0xf0
   \   00006C   48           ORL     A,R0
   \   00006D   F8           MOV     R0,A
   \   00006E   EF           MOV     A,R7
   \   00006F   12....       LCALL   ?Subroutine27 & 0xFFFF
   2909              pNPRsp->pwrDesc.CurrentPowerSourceLevel = *msg >> 4;
   \                     ??CrossCallReturnLabel_276:
   \   000072   E8           MOV     A,R0
   \   000073   FE           MOV     R6,A
   \   000074   E9           MOV     A,R1
   \   000075   540F         ANL     A,#0xf
   \   000077   FF           MOV     R7,A
   \   000078   8A82         MOV     DPL,R2
   \   00007A   8B83         MOV     DPH,R3
   \   00007C   E0           MOVX    A,@DPTR
   \   00007D   C4           SWAP    A
   \   00007E   540F         ANL     A,#0xf
   \   000080   F5..         MOV     ?V0,A
   \   000082   740C         MOV     A,#0xc
   \   000084   78..         MOV     R0,#?V0
   \   000086   12....       LCALL   ?S_SHL
   \   000089   EF           MOV     A,R7
   \   00008A   45..         ORL     A,?V1
   \   00008C   FF           MOV     R7,A
   \   00008D   8C82         MOV     DPL,R4
   \   00008F   8D83         MOV     DPH,R5
   \   000091   EE           MOV     A,R6
   \   000092   12....       LCALL   ?Subroutine29 & 0xFFFF
   2910              pNPRsp->pwrDesc.CurrentPowerSource = *msg++ & 0x0F;
   2911            }
   \                     ??CrossCallReturnLabel_44:
   \   000095   EF           MOV     A,R7
   \   000096   54F0         ANL     A,#0xf0
   \   000098   FF           MOV     R7,A
   \   000099   E8           MOV     A,R0
   \   00009A   F9           MOV     R1,A
   \   00009B   EE           MOV     A,R6
   \   00009C   F8           MOV     R0,A
   \   00009D   EF           MOV     A,R7
   \   00009E   49           ORL     A,R1
   \   00009F   12....       LCALL   ?Subroutine27 & 0xFFFF
   2912          }
   \                     ??CrossCallReturnLabel_277:
   \   0000A2   02....       LJMP    ??Subroutine141_0 & 0xFFFF

   \                                 In  segment BANKED_CODE, align 1, keep-with-next
   \                     ?Subroutine29:
   \   000000   F0           MOVX    @DPTR,A
   \   000001   A3           INC     DPTR
   \   000002   EF           MOV     A,R7
   \   000003   12....       LCALL   ?Subroutine113 & 0xFFFF
   \                     ??CrossCallReturnLabel_207:
   \   000006   E0           MOVX    A,@DPTR
   \   000007   540F         ANL     A,#0xf
   \   000009   F8           MOV     R0,A
   \   00000A   22           RET
   2913          
   2914          /*********************************************************************
   2915           * @fn          ZDO_ParseSimpleDescRsp
   2916           *
   2917           * @brief       This function parse the Simple_Desc_rsp message.
   2918           *
   2919           *   NOTE: The pAppInClusterList and pAppOutClusterList fields
   2920           *         in the SimpleDescriptionFormat_t structure are allocated
   2921           *         and the calling function needs to free [osal_msg_free()]
   2922           *         these buffers.
   2923           *
   2924           * @param       inMsg  - incoming message
   2925           * @param       pSimpleDescRsp - place to parse the message into
   2926           *
   2927           * @return      none
   2928           */

   \                                 In  segment BANKED_CODE, align 1, keep-with-next
   2929          void ZDO_ParseSimpleDescRsp( zdoIncomingMsg_t *inMsg, ZDO_SimpleDescRsp_t *pSimpleDescRsp )
   \                     ZDO_ParseSimpleDescRsp:
   2930          {
   \   000000   74F7         MOV     A,#-0x9
   \   000002   12....       LCALL   ?BANKED_ENTER_XDATA
   \   000005                ; Saved register size: 9
   \   000005                ; Auto size: 0
   2931            uint8 *msg;
   2932          
   2933            msg = inMsg->asdu;
   \   000005   12....       LCALL   ?Subroutine11 & 0xFFFF
   2934            pSimpleDescRsp->status = *msg++;
   2935            pSimpleDescRsp->nwkAddr = BUILD_UINT16( msg[0], msg[1] );
   2936            msg += sizeof ( uint16 );
   2937            msg++; // Skip past the length field.
   2938          
   2939            if ( pSimpleDescRsp->status == ZDP_SUCCESS )
   \                     ??CrossCallReturnLabel_6:
   \   000008   7011         JNZ     ??ZDO_ParseSimpleDescRsp_0
   2940            {
   2941              ZDO_ParseSimpleDescBuf( msg, &(pSimpleDescRsp->simpleDesc) );
   \   00000A                ; Setup parameters for call to function ZDO_ParseSimpleDescBuf
   \   00000A   EC           MOV     A,R4
   \   00000B   2403         ADD     A,#0x3
   \   00000D   FC           MOV     R4,A
   \   00000E   5001         JNC     ??ZDO_ParseSimpleDescRsp_1
   \   000010   0D           INC     R5
   \                     ??ZDO_ParseSimpleDescRsp_1:
   \   000011   E8           MOV     A,R0
   \   000012   2403         ADD     A,#0x3
   \   000014   FA           MOV     R2,A
   \   000015   E4           CLR     A
   \   000016   39           ADDC    A,R1
   \   000017   FB           MOV     R3,A
   \   000018   12....       LCALL   ??ZDO_ParseSimpleDescBuf?relay; Banked call to: ZDO_ParseSimpleDescBuf
   2942            }
   2943          }
   \                     ??ZDO_ParseSimpleDescRsp_0:
   \   00001B   02....       LJMP    ?Subroutine2 & 0xFFFF
   2944          
   2945          /*********************************************************************
   2946           * @fn          ZDO_ParseEPListRsp
   2947           *
   2948           * @brief       This parse the Active_EP_rsp or Match_Desc_rsp message.
   2949           *
   2950           * @param       inMsg  - incoming message
   2951           *
   2952           * @return      none
   2953           */

   \                                 In  segment BANKED_CODE, align 1, keep-with-next
   2954          ZDO_ActiveEndpointRsp_t *ZDO_ParseEPListRsp( zdoIncomingMsg_t *inMsg )
   \                     ZDO_ParseEPListRsp:
   2955          {
   \   000000                REQUIRE ?V0
   \   000000                REQUIRE ?V1
   \   000000                REQUIRE ?V2
   \   000000                REQUIRE ?V3
   \   000000                REQUIRE ?V4
   \   000000                REQUIRE ?V5
   \   000000                REQUIRE ?V6
   \   000000                REQUIRE ?V7
   \   000000   74F0         MOV     A,#-0x10
   \   000002   12....       LCALL   ?BANKED_ENTER_XDATA
   \   000005                ; Saved register size: 16
   \   000005                ; Auto size: 0
   2956            ZDO_ActiveEndpointRsp_t *pRsp;
   2957            uint8 *msg;
   2958            uint8 Status;
   2959            uint8 cnt;
   2960          
   2961            msg = inMsg->asdu;
   \   000005   12....       LCALL   ?Subroutine68 & 0xFFFF
   2962            Status = *msg++;
   \                     ??CrossCallReturnLabel_114:
   \   000008   F5..         MOV     ?V5,A
   \   00000A   A3           INC     DPTR
   \   00000B   8582..       MOV     ?V2,DPL
   \   00000E   8583..       MOV     ?V3,DPH
   2963            cnt = msg[2];
   \   000011   A3           INC     DPTR
   \   000012   A3           INC     DPTR
   \   000013   E0           MOVX    A,@DPTR
   \   000014   F5..         MOV     ?V4,A
   2964          
   2965            pRsp = (ZDO_ActiveEndpointRsp_t *)osal_mem_alloc( sizeof(  ZDO_ActiveEndpointRsp_t ) + cnt );
   \   000016   F5..         MOV     ?V0,A
   \   000018                ; Setup parameters for call to function osal_mem_alloc
   \   000018   12....       LCALL   ??Subroutine165_0 & 0xFFFF
   \                     ??CrossCallReturnLabel_401:
   \   00001B   3400         ADDC    A,#0x0
   \   00001D   FB           MOV     R3,A
   \   00001E   12....       LCALL   ??osal_mem_alloc?relay; Banked call to: osal_mem_alloc
   \   000021   8A..         MOV     ?V6,R2
   \   000023   8B..         MOV     ?V7,R3
   \   000025   AE..         MOV     R6,?V6
   \   000027   AF..         MOV     R7,?V7
   2966            if ( pRsp )
   \   000029   EE           MOV     A,R6
   \   00002A   4F           ORL     A,R7
   \   00002B   6043         JZ      ??ZDO_ParseEPListRsp_0
   2967            {
   2968              pRsp->status = Status;
   \   00002D   8E82         MOV     DPL,R6
   \   00002F   8F83         MOV     DPH,R7
   \   000031   E5..         MOV     A,?V5
   \   000033   12....       LCALL   ?Subroutine31 & 0xFFFF
   2969              pRsp->nwkAddr = BUILD_UINT16( msg[0], msg[1] );
   \                     ??CrossCallReturnLabel_48:
   \   000036   12....       LCALL   ??Subroutine168_0 & 0xFFFF
   \                     ??CrossCallReturnLabel_415:
   \   000039   EA           MOV     A,R2
   \   00003A   8E82         MOV     DPL,R6
   \   00003C   8F83         MOV     DPH,R7
   \   00003E   A3           INC     DPTR
   \   00003F   12....       LCALL   ??Subroutine144_0 & 0xFFFF
   2970              msg += sizeof( uint16 );
   2971              pRsp->cnt = cnt;
   \                     ??CrossCallReturnLabel_264:
   \   000042   8E82         MOV     DPL,R6
   \   000044   8F83         MOV     DPH,R7
   \   000046   A3           INC     DPTR
   \   000047   A3           INC     DPTR
   \   000048   A3           INC     DPTR
   \   000049   E5..         MOV     A,?V4
   \   00004B   12....       LCALL   ?Subroutine43 & 0xFFFF
   2972              msg++; // pass cnt
   2973              osal_memcpy( pRsp->epList, msg, cnt );
   2974            }
   \                     ??CrossCallReturnLabel_84:
   \   00004E   A3           INC     DPTR
   \   00004F   A3           INC     DPTR
   \   000050   A982         MOV     R1,DPL
   \   000052   AA83         MOV     R2,DPH
   \   000054   89..         MOV     ?V4,R1
   \   000056   8A..         MOV     ?V5,R2
   \   000058   88..         MOV     ?V6,R0
   \   00005A   78..         MOV     R0,#?V4
   \   00005C   12....       LCALL   ?PUSH_XSTACK_I_THREE
   \   00005F   AC..         MOV     R4,?V0
   \   000061   7D00         MOV     R5,#0x0
   \   000063   12....       LCALL   ?Subroutine130 & 0xFFFF
   \                     ??CrossCallReturnLabel_405:
   \   000066   3F           ADDC    A,R7
   \   000067   FB           MOV     R3,A
   \   000068   12....       LCALL   ??osal_memcpy?relay  ; Banked call to: osal_memcpy
   \   00006B   7403         MOV     A,#0x3
   \   00006D   12....       LCALL   ?DEALLOC_XSTACK8
   2975          
   2976            return ( pRsp );
   \                     ??ZDO_ParseEPListRsp_0:
   \   000070   EE           MOV     A,R6
   \   000071   FA           MOV     R2,A
   \   000072   EF           MOV     A,R7
   \   000073   FB           MOV     R3,A
   \   000074   02....       LJMP    ??Subroutine155_0 & 0xFFFF
   2977          }

   \                                 In  segment BANKED_CODE, align 1, keep-with-next
   \                     ?Subroutine130:
   \   000000   EE           MOV     A,R6
   \   000001                REQUIRE ??Subroutine165_0
   \   000001                ; // Fall through to label ??Subroutine165_0

   \                                 In  segment BANKED_CODE, align 1, keep-with-next
   \                     ??Subroutine165_0:
   \   000000   2404         ADD     A,#0x4
   \   000002   FA           MOV     R2,A
   \   000003   E4           CLR     A
   \   000004   22           RET

   \                                 In  segment BANKED_CODE, align 1, keep-with-next
   \                     ?Subroutine68:
   \   000000   12....       LCALL   ?Subroutine127 & 0xFFFF
   \                     ??CrossCallReturnLabel_232:
   \   000003   F5..         MOV     ?V2,A
   \   000005   A3           INC     DPTR
   \   000006   E0           MOVX    A,@DPTR
   \   000007   85..82       MOV     DPL,?V2
   \   00000A   F583         MOV     DPH,A
   \   00000C   E0           MOVX    A,@DPTR
   \   00000D   22           RET

   \                                 In  segment BANKED_CODE, align 1, keep-with-next
   \                     ?Subroutine43:
   \   000000   12....       LCALL   ?Subroutine132 & 0xFFFF
   \                     ??CrossCallReturnLabel_240:
   \   000003   22           RET
   2978          
   2979          /*********************************************************************
   2980           * @fn          ZDO_ParseServerDiscRsp
   2981           *
   2982           * @brief       Parse the Server_Discovery_rsp message.
   2983           *
   2984           * @param       inMsg - incoming message.
   2985           * @param       pRsp - place to put the parsed information.
   2986           *
   2987           * @return      none
   2988           */

   \                                 In  segment BANKED_CODE, align 1, keep-with-next
   2989          void ZDO_ParseServerDiscRsp( zdoIncomingMsg_t *inMsg, ZDO_ServerDiscRsp_t *pRsp )
   \                     ZDO_ParseServerDiscRsp:
   2990          {
   \   000000   74F7         MOV     A,#-0x9
   \   000002   12....       LCALL   ?BANKED_ENTER_XDATA
   \   000005                ; Saved register size: 9
   \   000005                ; Auto size: 0
   2991            pRsp->status = inMsg->asdu[0];
   \   000005   EA           MOV     A,R2
   \   000006   2413         ADD     A,#0x13
   \   000008   F8           MOV     R0,A
   \   000009   E4           CLR     A
   \   00000A   3B           ADDC    A,R3
   \   00000B   F9           MOV     R1,A
   \   00000C   8882         MOV     DPL,R0
   \   00000E   8983         MOV     DPH,R1
   \   000010   12....       LCALL   ?Subroutine136 & 0xFFFF
   \                     ??CrossCallReturnLabel_429:
   \   000013   F583         MOV     DPH,A
   \   000015   8A82         MOV     DPL,R2
   \   000017   12....       LCALL   ?Subroutine135 & 0xFFFF
   \                     ??CrossCallReturnLabel_247:
   \   00001A   12....       LCALL   ?Subroutine14 & 0xFFFF
   2992            pRsp->serverMask = BUILD_UINT16( inMsg->asdu[1], inMsg->asdu[2] );
   \                     ??CrossCallReturnLabel_17:
   \   00001D   12....       LCALL   ??Subroutine139_0 & 0xFFFF
   \                     ??CrossCallReturnLabel_252:
   \   000020   A3           INC     DPTR
   \   000021   E0           MOVX    A,@DPTR
   \   000022   FA           MOV     R2,A
   \   000023   8882         MOV     DPL,R0
   \   000025   8983         MOV     DPH,R1
   \   000027   A3           INC     DPTR
   \   000028   12....       LCALL   ??Subroutine170_0 & 0xFFFF
   \                     ??CrossCallReturnLabel_423:
   \   00002B   A3           INC     DPTR
   \   00002C   12....       LCALL   ??Subroutine144_0 & 0xFFFF
   2993          }
   \                     ??CrossCallReturnLabel_265:
   \   00002F   02....       LJMP    ?Subroutine2 & 0xFFFF

   \                                 In  segment BANKED_CODE, align 1, keep-with-next
   \                     ??Subroutine170_0:
   \   000000   A3           INC     DPTR
   \   000001   E0           MOVX    A,@DPTR
   \   000002   F9           MOV     R1,A
   \   000003   EA           MOV     A,R2
   \   000004   8C82         MOV     DPL,R4
   \   000006   8D83         MOV     DPH,R5
   \   000008   22           RET
   2994          
   2995          /*********************************************************************
   2996           * @fn          ZDO_ParseMgmtLqiRsp
   2997           *
   2998           * @brief       This function parses the incoming Management
   2999           *              LQI response
   3000           *
   3001           * @param       inMsg - incoming message
   3002           *
   3003           * @return      a pointer to parsed response structure (NULL if not allocated).
   3004           *          This structure was allocated using osal_mem_alloc, so it must be freed
   3005           *          by the calling function [osal_mem_free()].
   3006           */

   \                                 In  segment BANKED_CODE, align 1, keep-with-next
   \                     ?Subroutine97:
   \   000000   FC           MOV     R4,A
   \   000001   EF           MOV     A,R7
   \   000002   FD           MOV     R5,A
   \   000003   E5..         MOV     A,?V0
   \   000005                REQUIRE ??Subroutine152_0
   \   000005                ; // Fall through to label ??Subroutine152_0

   \                                 In  segment BANKED_CODE, align 1, keep-with-next
   \                     ?Subroutine6:
   \   000000   AA..         MOV     R2,?V2
   \   000002   AB..         MOV     R3,?V3
   \   000004                REQUIRE ??Subroutine155_0
   \   000004                ; // Fall through to label ??Subroutine155_0

   \                                 In  segment BANKED_CODE, align 1, keep-with-next
   3007          ZDO_MgmtLqiRsp_t *ZDO_ParseMgmtLqiRsp( zdoIncomingMsg_t *inMsg )
   \                     ZDO_ParseMgmtLqiRsp:
   3008          {
   \   000000                REQUIRE ?V0
   \   000000                REQUIRE ?V1
   \   000000                REQUIRE ?V2
   \   000000                REQUIRE ?V3
   \   000000                REQUIRE ?V4
   \   000000                REQUIRE ?V5
   \   000000                REQUIRE ?V6
   \   000000                REQUIRE ?V7
   \   000000   74F0         MOV     A,#-0x10
   \   000002   12....       LCALL   ?BANKED_ENTER_XDATA
   \   000005                ; Saved register size: 16
   \   000005                ; Auto size: 0
   3009            ZDO_MgmtLqiRsp_t *pRsp;
   3010            uint8 status;
   3011            uint8 startIndex = 0;
   \   000005   75..00       MOV     ?V5,#0x0
   3012            uint8 neighborLqiCount = 0;
   \   000008   75..00       MOV     ?V4,#0x0
   3013            uint8 neighborLqiEntries = 0;
   \   00000B   75..00       MOV     ?V6,#0x0
   3014            uint8 *msg;
   3015          
   3016            msg = inMsg->asdu;
   \   00000E   12....       LCALL   ?Subroutine51 & 0xFFFF
   3017          
   3018            status = *msg++;
   \                     ??CrossCallReturnLabel_396:
   \   000011   F5..         MOV     ?V7,A
   \   000013   A3           INC     DPTR
   \   000014   AE82         MOV     R6,DPL
   \   000016   AF83         MOV     R7,DPH
   3019            if ( status == ZSuccess )
   \   000018   7008         JNZ     ??ZDO_ParseMgmtLqiRsp_0
   3020            {
   3021              neighborLqiEntries = *msg++;
   \   00001A   12....       LCALL   ?Subroutine61 & 0xFFFF
   3022              startIndex = *msg++;
   3023              neighborLqiCount = *msg++;
   3024            }
   \                     ??CrossCallReturnLabel_108:
   \   00001D   0E           INC     R6
   \   00001E   0E           INC     R6
   \   00001F   0E           INC     R6
   \   000020   AF83         MOV     R7,DPH
   3025          
   3026            // Allocate a buffer big enough to handle the list.
   3027            pRsp = (ZDO_MgmtLqiRsp_t *)osal_mem_alloc(
   3028                      sizeof( ZDO_MgmtLqiRsp_t ) + (neighborLqiCount * sizeof( ZDP_MgmtLqiItem_t )) );
   \                     ??ZDO_ParseMgmtLqiRsp_0:
   \   000022                ; Setup parameters for call to function osal_mem_alloc
   \   000022   E5..         MOV     A,?V4
   \   000024   75F01A       MOV     B,#0x1a
   \   000027   12....       LCALL   ?Subroutine98 & 0xFFFF
   \                     ??CrossCallReturnLabel_178:
   \   00002A   12....       LCALL   ??osal_mem_alloc?relay; Banked call to: osal_mem_alloc
   \   00002D   8A..         MOV     ?V2,R2
   \   00002F   8B..         MOV     ?V3,R3
   3029            if ( pRsp )
   \   000031   EA           MOV     A,R2
   \   000032   45..         ORL     A,?V3
   \   000034   7003         JNZ     $+5
   \   000036   02....       LJMP    ??ZDO_ParseMgmtLqiRsp_1 & 0xFFFF
   3030            {
   3031              uint8 x;
   3032              ZDP_MgmtLqiItem_t *pList = pRsp->list;
   \   000039   12....       LCALL   ?Subroutine99 & 0xFFFF
   3033              pRsp->status = status;
   \                     ??CrossCallReturnLabel_181:
   \   00003C   12....       LCALL   ?Subroutine13 & 0xFFFF
   3034              pRsp->neighborLqiEntries = neighborLqiEntries;
   3035              pRsp->startIndex = startIndex;
   3036              pRsp->neighborLqiCount = neighborLqiCount;
   3037          
   3038              for ( x = 0; x < neighborLqiCount; x++ )
   \                     ??CrossCallReturnLabel_7:
   \   00003F   02....       LJMP    ??ZDO_ParseMgmtLqiRsp_2 & 0xFFFF
   3039              {
   3040                uint8 tmp;
   3041          
   3042                pList->panID = 0; // This isn't in the record, why is it in the structure?
   \                     ??ZDO_ParseMgmtLqiRsp_3:
   \   000042   85..82       MOV     DPL,?V0
   \   000045   85..83       MOV     DPH,?V1
   \   000048   E4           CLR     A
   \   000049   F0           MOVX    @DPTR,A
   \   00004A   A3           INC     DPTR
   \   00004B   F0           MOVX    @DPTR,A
   3043                osal_cpyExtAddr(pList->extPanID, msg);   //Copy extended PAN ID
   \   00004C                ; Setup parameters for call to function sAddrExtCpy
   \   00004C   EE           MOV     A,R6
   \   00004D   12....       LCALL   ?Subroutine97 & 0xFFFF
   \                     ??CrossCallReturnLabel_325:
   \   000050   35..         ADDC    A,?V1
   \   000052   FB           MOV     R3,A
   \   000053   12....       LCALL   ??sAddrExtCpy?relay  ; Banked call to: sAddrExtCpy
   3044                msg += Z_EXTADDR_LEN;
   \   000056   EE           MOV     A,R6
   \   000057   2408         ADD     A,#0x8
   \   000059   FE           MOV     R6,A
   \   00005A   5001         JNC     ??ZDO_ParseMgmtLqiRsp_4
   \   00005C   0F           INC     R7
   3045          
   3046                osal_cpyExtAddr(pList->extAddr, msg);   //Copy extended address
   \                     ??ZDO_ParseMgmtLqiRsp_4:
   \   00005D                ; Setup parameters for call to function sAddrExtCpy
   \   00005D   FC           MOV     R4,A
   \   00005E   EF           MOV     A,R7
   \   00005F   FD           MOV     R5,A
   \   000060   E5..         MOV     A,?V0
   \   000062   240A         ADD     A,#0xa
   \   000064   FA           MOV     R2,A
   \   000065   E4           CLR     A
   \   000066   35..         ADDC    A,?V1
   \   000068   FB           MOV     R3,A
   \   000069   12....       LCALL   ??sAddrExtCpy?relay  ; Banked call to: sAddrExtCpy
   3047                msg += Z_EXTADDR_LEN;
   \   00006C   EE           MOV     A,R6
   \   00006D   2408         ADD     A,#0x8
   \   00006F   FE           MOV     R6,A
   \   000070   5001         JNC     ??ZDO_ParseMgmtLqiRsp_5
   \   000072   0F           INC     R7
   3048          
   3049                pList->nwkAddr = BUILD_UINT16( msg[0], msg[1] );
   \                     ??ZDO_ParseMgmtLqiRsp_5:
   \   000073   12....       LCALL   ?Subroutine63 & 0xFFFF
   \                     ??CrossCallReturnLabel_379:
   \   000076   F8           MOV     R0,A
   \   000077   E5..         MOV     A,?V0
   \   000079   2412         ADD     A,#0x12
   \   00007B   12....       LCALL   ??Subroutine158_0 & 0xFFFF
   \                     ??CrossCallReturnLabel_365:
   \   00007E   E8           MOV     A,R0
   \   00007F   12....       LCALL   ??Subroutine162_0 & 0xFFFF
   3050                msg += 2;
   \                     ??CrossCallReturnLabel_388:
   \   000082   5001         JNC     ??ZDO_ParseMgmtLqiRsp_6
   \   000084   0F           INC     R7
   3051          
   3052                tmp = *msg++;
   \                     ??ZDO_ParseMgmtLqiRsp_6:
   \   000085   8E82         MOV     DPL,R6
   \   000087   8F83         MOV     DPH,R7
   \   000089   E0           MOVX    A,@DPTR
   \   00008A   F8           MOV     R0,A
   \   00008B   A3           INC     DPTR
   \   00008C   AE82         MOV     R6,DPL
   \   00008E   AF83         MOV     R7,DPH
   3053                pList->devType = tmp & 0x03;
   \   000090   7403         MOV     A,#0x3
   \   000092   58           ANL     A,R0
   \   000093   C0E0         PUSH    A
   \   000095   12....       LCALL   ?Subroutine102 & 0xFFFF
   \                     ??CrossCallReturnLabel_375:
   \   000098   D0E0         POP     A
   \   00009A   F0           MOVX    @DPTR,A
   3054                pList->rxOnIdle = (tmp >> 2) & 0x03;
   \   00009B   E8           MOV     A,R0
   \   00009C   13           RRC     A
   \   00009D   13           RRC     A
   \   00009E   543F         ANL     A,#0x3f
   \   0000A0   5403         ANL     A,#0x3
   \   0000A2   C0E0         PUSH    A
   \   0000A4   E5..         MOV     A,?V0
   \   0000A6   2415         ADD     A,#0x15
   \   0000A8   12....       LCALL   ??Subroutine158_0 & 0xFFFF
   \                     ??CrossCallReturnLabel_366:
   \   0000AB   D0E0         POP     A
   \   0000AD   F0           MOVX    @DPTR,A
   3055                pList->relation = (tmp >> 4) & 0x07;
   \   0000AE   E8           MOV     A,R0
   \   0000AF   C4           SWAP    A
   \   0000B0   540F         ANL     A,#0xf
   \   0000B2   5407         ANL     A,#0x7
   \   0000B4   C0E0         PUSH    A
   \   0000B6   E5..         MOV     A,?V0
   \   0000B8   2416         ADD     A,#0x16
   \   0000BA   12....       LCALL   ??Subroutine158_0 & 0xFFFF
   \                     ??CrossCallReturnLabel_367:
   \   0000BD   D0E0         POP     A
   \   0000BF   F0           MOVX    @DPTR,A
   3056          
   3057                pList->permit = (*msg++) & 0x03;
   \   0000C0   8E82         MOV     DPL,R6
   \   0000C2   8F83         MOV     DPH,R7
   \   0000C4   E0           MOVX    A,@DPTR
   \   0000C5   5403         ANL     A,#0x3
   \   0000C7   C0E0         PUSH    A
   \   0000C9   E5..         MOV     A,?V0
   \   0000CB   2417         ADD     A,#0x17
   \   0000CD   12....       LCALL   ??Subroutine158_0 & 0xFFFF
   3058          
   3059                pList->depth = *msg++;
   3060          
   3061                pList->lqi = *msg++;
   3062                pList++;
   3063              }
   \                     ??CrossCallReturnLabel_368:
   \   0000D0   D0E0         POP     A
   \   0000D2   12....       LCALL   ?Subroutine10 & 0xFFFF
   \                     ??CrossCallReturnLabel_1:
   \   0000D5   C0E0         PUSH    A
   \   0000D7   E5..         MOV     A,?V0
   \   0000D9   2418         ADD     A,#0x18
   \   0000DB   12....       LCALL   ??Subroutine158_0 & 0xFFFF
   \                     ??CrossCallReturnLabel_369:
   \   0000DE   D0E0         POP     A
   \   0000E0   12....       LCALL   ?Subroutine10 & 0xFFFF
   \                     ??CrossCallReturnLabel_2:
   \   0000E3   C0E0         PUSH    A
   \   0000E5   E5..         MOV     A,?V0
   \   0000E7   2419         ADD     A,#0x19
   \   0000E9   12....       LCALL   ??Subroutine158_0 & 0xFFFF
   \                     ??CrossCallReturnLabel_370:
   \   0000EC   D0E0         POP     A
   \   0000EE   12....       LCALL   ?Subroutine21 & 0xFFFF
   \                     ??CrossCallReturnLabel_30:
   \   0000F1   241A         ADD     A,#0x1a
   \   0000F3   F5..         MOV     ?V0,A
   \   0000F5   5002         JNC     ??ZDO_ParseMgmtLqiRsp_7
   \   0000F7   05..         INC     ?V1
   \                     ??ZDO_ParseMgmtLqiRsp_7:
   \   0000F9   05..         INC     ?V5
   \                     ??ZDO_ParseMgmtLqiRsp_2:
   \   0000FB   E5..         MOV     A,?V5
   \   0000FD   C3           CLR     C
   \   0000FE   95..         SUBB    A,?V4
   \   000100   5003         JNC     $+5
   \   000102   02....       LJMP    ??ZDO_ParseMgmtLqiRsp_3 & 0xFFFF
   3064            }
   3065          
   3066            return ( pRsp );
   \                     ??ZDO_ParseMgmtLqiRsp_1:
   \   000105   02....       LJMP    ?Subroutine6 & 0xFFFF
   3067          }

   \                                 In  segment BANKED_CODE, align 1, keep-with-next
   \                     ?Subroutine51:
   \   000000   12....       LCALL   ?Subroutine128 & 0xFFFF
   \                     ??CrossCallReturnLabel_235:
   \   000003                REQUIRE ??Subroutine164_0
   \   000003                ; // Fall through to label ??Subroutine164_0

   \                                 In  segment BANKED_CODE, align 1, keep-with-next
   \                     ?Subroutine99:
   \   000000   EA           MOV     A,R2
   \   000001   2404         ADD     A,#0x4
   \   000003   F5..         MOV     ?V0,A
   \   000005   E4           CLR     A
   \   000006   35..         ADDC    A,?V3
   \   000008   F5..         MOV     ?V1,A
   \   00000A   22           RET

   \                                 In  segment BANKED_CODE, align 1, keep-with-next
   \                     ?Subroutine98:
   \   000000   A4           MUL     AB
   \   000001   A9F0         MOV     R1,B
   \   000003   12....       LCALL   ??Subroutine165_0 & 0xFFFF
   \                     ??CrossCallReturnLabel_404:
   \   000006   39           ADDC    A,R1
   \   000007   FB           MOV     R3,A
   \   000008   22           RET

   \                                 In  segment BANKED_CODE, align 1, keep-with-next
   \                     ?Subroutine61:
   \   000000   E0           MOVX    A,@DPTR
   \   000001   F5..         MOV     ?V6,A
   \   000003   A3           INC     DPTR
   \   000004   E0           MOVX    A,@DPTR
   \   000005   F5..         MOV     ?V5,A
   \   000007   A3           INC     DPTR
   \   000008   E0           MOVX    A,@DPTR
   \   000009   F5..         MOV     ?V4,A
   \   00000B   A3           INC     DPTR
   \   00000C   22           RET

   \                                 In  segment BANKED_CODE, align 1, keep-with-next
   \                     ?Subroutine13:
   \   000000   8A82         MOV     DPL,R2
   \   000002   8B83         MOV     DPH,R3
   \   000004   E5..         MOV     A,?V7
   \   000006   F0           MOVX    @DPTR,A
   \   000007   A3           INC     DPTR
   \   000008   E5..         MOV     A,?V6
   \   00000A   12....       LCALL   ?Subroutine113 & 0xFFFF
   \                     ??CrossCallReturnLabel_209:
   \   00000D   A3           INC     DPTR
   \   00000E   A3           INC     DPTR
   \   00000F   E5..         MOV     A,?V5
   \   000011   12....       LCALL   ?Subroutine110 & 0xFFFF
   \                     ??CrossCallReturnLabel_202:
   \   000014   E5..         MOV     A,?V4
   \   000016   F0           MOVX    @DPTR,A
   \   000017   75..00       MOV     ?V5,#0x0
   \   00001A   22           RET
   3068          
   3069          /*********************************************************************
   3070           * @fn          ZDO_ParseMgmNwkDiscRsp
   3071           *
   3072           * @brief       This function parses the incoming Management
   3073           *              Network Discover response.
   3074           *
   3075           * @param       inMsg - incoming message
   3076           *
   3077           * @return      pointer to parsed response.  This structure was
   3078           *          allocated using osal_mem_alloc, so it must be freed
   3079           *          by the calling function [osal_mem_free()].
   3080           */

   \                                 In  segment BANKED_CODE, align 1, keep-with-next
   3081          ZDO_MgmNwkDiscRsp_t *ZDO_ParseMgmNwkDiscRsp( zdoIncomingMsg_t *inMsg )
   \                     ZDO_ParseMgmNwkDiscRsp:
   3082          {
   \   000000                REQUIRE ?V0
   \   000000                REQUIRE ?V1
   \   000000                REQUIRE ?V2
   \   000000                REQUIRE ?V3
   \   000000                REQUIRE ?V4
   \   000000                REQUIRE ?V5
   \   000000                REQUIRE ?V6
   \   000000                REQUIRE ?V7
   \   000000   74F0         MOV     A,#-0x10
   \   000002   12....       LCALL   ?BANKED_ENTER_XDATA
   \   000005                ; Saved register size: 16
   \   000005                ; Auto size: 0
   3083            ZDO_MgmNwkDiscRsp_t *pRsp;
   3084            uint8 status;
   3085            uint8 networkCount = 0;
   \   000005   75..00       MOV     ?V1,#0x0
   3086            uint8 startIndex = 0;
   \   000008   75..00       MOV     ?V0,#0x0
   3087            uint8 networkListCount = 0;
   \   00000B   75..00       MOV     ?V4,#0x0
   3088            uint8 *msg;
   3089          
   3090            msg = inMsg->asdu;
   \   00000E   12....       LCALL   ?Subroutine51 & 0xFFFF
   3091            status = *msg++;
   \                     ??CrossCallReturnLabel_397:
   \   000011   F5..         MOV     ?V5,A
   \   000013   A3           INC     DPTR
   \   000014   AE82         MOV     R6,DPL
   \   000016   AF83         MOV     R7,DPH
   3092          
   3093            if ( status == ZSuccess )
   \   000018   700C         JNZ     ??ZDO_ParseMgmNwkDiscRsp_0
   3094            {
   3095              networkCount = *msg++;
   \   00001A   12....       LCALL   ?Subroutine80 & 0xFFFF
   3096              startIndex = *msg++;
   3097              networkListCount = *msg++;
   \                     ??CrossCallReturnLabel_136:
   \   00001D   E0           MOVX    A,@DPTR
   \   00001E   F5..         MOV     ?V4,A
   \   000020   A3           INC     DPTR
   \   000021   0E           INC     R6
   \   000022   0E           INC     R6
   \   000023   0E           INC     R6
   \   000024   AF83         MOV     R7,DPH
   3098            }
   3099          
   3100            // Allocate a buffer big enough to handle the list.
   3101            pRsp = (ZDO_MgmNwkDiscRsp_t *)osal_mem_alloc( sizeof( ZDO_MgmNwkDiscRsp_t )
   3102                                            + (networkListCount * sizeof( mgmtNwkDiscItem_t )) );
   \                     ??ZDO_ParseMgmNwkDiscRsp_0:
   \   000026                ; Setup parameters for call to function osal_mem_alloc
   \   000026   85....       MOV     ?V2,?V4
   \   000029   75..00       MOV     ?V3,#0x0
   \   00002C   7404         MOV     A,#0x4
   \   00002E   78..         MOV     R0,#?V2
   \   000030   12....       LCALL   ?S_SHL
   \   000033   E5..         MOV     A,?V2
   \   000035   12....       LCALL   ??Subroutine165_0 & 0xFFFF
   \                     ??CrossCallReturnLabel_402:
   \   000038   35..         ADDC    A,?V3
   \   00003A   FB           MOV     R3,A
   \   00003B   12....       LCALL   ??osal_mem_alloc?relay; Banked call to: osal_mem_alloc
   \   00003E   8A..         MOV     ?V2,R2
   \   000040   8B..         MOV     ?V3,R3
   3103            if ( pRsp )
   \   000042   EA           MOV     A,R2
   \   000043   45..         ORL     A,?V3
   \   000045   7003         JNZ     $+5
   \   000047   02....       LJMP    ??ZDO_ParseMgmNwkDiscRsp_1 & 0xFFFF
   3104            {
   3105              uint8 x;
   3106              mgmtNwkDiscItem_t *pList;
   3107          
   3108              pRsp->status = status;
   \   00004A   8A82         MOV     DPL,R2
   \   00004C   8B83         MOV     DPH,R3
   \   00004E   E5..         MOV     A,?V5
   \   000050   F0           MOVX    @DPTR,A
   3109              pRsp->networkCount = networkCount;
   \   000051   A3           INC     DPTR
   \   000052   E5..         MOV     A,?V1
   \   000054   12....       LCALL   ?Subroutine41 & 0xFFFF
   3110              pRsp->startIndex = startIndex;
   \                     ??CrossCallReturnLabel_78:
   \   000057   E5..         MOV     A,?V0
   \   000059   12....       LCALL   ?Subroutine40 & 0xFFFF
   3111              pRsp->networkListCount = networkListCount;
   \                     ??CrossCallReturnLabel_75:
   \   00005C   E5..         MOV     A,?V4
   \   00005E   F0           MOVX    @DPTR,A
   3112              pList = pRsp->list;
   \   00005F   12....       LCALL   ?Subroutine99 & 0xFFFF
   3113          
   3114              for ( x = 0; x < networkListCount; x++ )
   \                     ??CrossCallReturnLabel_182:
   \   000062   75..00       MOV     ?V5,#0x0
   \   000065   8075         SJMP    ??ZDO_ParseMgmNwkDiscRsp_2
   3115              {
   3116                osal_cpyExtAddr(pList->extendedPANID, msg);   //Copy extended PAN ID
   \                     ??ZDO_ParseMgmNwkDiscRsp_3:
   \   000067                ; Setup parameters for call to function sAddrExtCpy
   \   000067   EE           MOV     A,R6
   \   000068   FC           MOV     R4,A
   \   000069   EF           MOV     A,R7
   \   00006A   FD           MOV     R5,A
   \   00006B   AA..         MOV     R2,?V0
   \   00006D   AB..         MOV     R3,?V1
   \   00006F   12....       LCALL   ??sAddrExtCpy?relay  ; Banked call to: sAddrExtCpy
   3117                pList->PANId = BUILD_UINT16( msg[0], msg[1] );
   \   000072   12....       LCALL   ?Subroutine48 & 0xFFFF
   \                     ??CrossCallReturnLabel_92:
   \   000075   A3           INC     DPTR
   \   000076   12....       LCALL   ??Subroutine144_0 & 0xFFFF
   3118                msg += Z_EXTADDR_LEN;
   \                     ??CrossCallReturnLabel_266:
   \   000079   EE           MOV     A,R6
   \   00007A   2408         ADD     A,#0x8
   \   00007C   FE           MOV     R6,A
   \   00007D   5001         JNC     ??ZDO_ParseMgmNwkDiscRsp_4
   \   00007F   0F           INC     R7
   3119          
   3120                pList->logicalChannel = *msg++;
   \                     ??ZDO_ParseMgmNwkDiscRsp_4:
   \   000080   8E82         MOV     DPL,R6
   \   000082   8F83         MOV     DPH,R7
   \   000084   12....       LCALL   ?Subroutine53 & 0xFFFF
   \                     ??CrossCallReturnLabel_96:
   \   000087   12....       LCALL   ?Subroutine25 & 0xFFFF
   3121                pList->stackProfile = (*msg) & 0x0F;
   \                     ??CrossCallReturnLabel_37:
   \   00008A   E0           MOVX    A,@DPTR
   \   00008B   540F         ANL     A,#0xf
   \   00008D   C0E0         PUSH    A
   \   00008F   E5..         MOV     A,?V0
   \   000091   240B         ADD     A,#0xb
   \   000093   12....       LCALL   ??Subroutine158_0 & 0xFFFF
   3122                pList->version = (*msg++ >> 4) & 0x0F;
   3123                pList->beaconOrder = (*msg) & 0x0F;
   3124                pList->superFrameOrder = (*msg++ >> 4) & 0x0F;
   3125                pList->permitJoining = *msg++;
   3126                pList++;
   3127              }
   \                     ??CrossCallReturnLabel_371:
   \   000096   D0E0         POP     A
   \   000098   12....       LCALL   ?Subroutine37 & 0xFFFF
   \                     ??CrossCallReturnLabel_59:
   \   00009B   C0E0         PUSH    A
   \   00009D   E5..         MOV     A,?V0
   \   00009F   240C         ADD     A,#0xc
   \   0000A1   12....       LCALL   ??Subroutine158_0 & 0xFFFF
   \                     ??CrossCallReturnLabel_372:
   \   0000A4   D0E0         POP     A
   \   0000A6   12....       LCALL   ?Subroutine10 & 0xFFFF
   \                     ??CrossCallReturnLabel_3:
   \   0000A9   540F         ANL     A,#0xf
   \   0000AB   C0E0         PUSH    A
   \   0000AD   E5..         MOV     A,?V0
   \   0000AF   240D         ADD     A,#0xd
   \   0000B1   12....       LCALL   ??Subroutine158_0 & 0xFFFF
   \                     ??CrossCallReturnLabel_373:
   \   0000B4   D0E0         POP     A
   \   0000B6   12....       LCALL   ?Subroutine37 & 0xFFFF
   \                     ??CrossCallReturnLabel_60:
   \   0000B9   C0E0         PUSH    A
   \   0000BB   E5..         MOV     A,?V0
   \   0000BD   12....       LCALL   ?Subroutine94 & 0xFFFF
   \                     ??CrossCallReturnLabel_169:
   \   0000C0   12....       LCALL   ??Subroutine159_0 & 0xFFFF
   \                     ??CrossCallReturnLabel_362:
   \   0000C3   D0E0         POP     A
   \   0000C5   12....       LCALL   ?Subroutine10 & 0xFFFF
   \                     ??CrossCallReturnLabel_4:
   \   0000C8   C0E0         PUSH    A
   \   0000CA   12....       LCALL   ?Subroutine95 & 0xFFFF
   \                     ??CrossCallReturnLabel_171:
   \   0000CD   D0E0         POP     A
   \   0000CF   12....       LCALL   ?Subroutine21 & 0xFFFF
   \                     ??CrossCallReturnLabel_31:
   \   0000D2   2410         ADD     A,#0x10
   \   0000D4   F5..         MOV     ?V0,A
   \   0000D6   5002         JNC     ??ZDO_ParseMgmNwkDiscRsp_5
   \   0000D8   05..         INC     ?V1
   \                     ??ZDO_ParseMgmNwkDiscRsp_5:
   \   0000DA   05..         INC     ?V5
   \                     ??ZDO_ParseMgmNwkDiscRsp_2:
   \   0000DC   E5..         MOV     A,?V5
   \   0000DE   C3           CLR     C
   \   0000DF   95..         SUBB    A,?V4
   \   0000E1   4084         JC      ??ZDO_ParseMgmNwkDiscRsp_3
   3128            }
   3129          
   3130            return ( pRsp );
   \                     ??ZDO_ParseMgmNwkDiscRsp_1:
   \   0000E3   02....       LJMP    ?Subroutine6 & 0xFFFF
   3131          }

   \                                 In  segment BANKED_CODE, align 1, keep-with-next
   \                     ?Subroutine37:
   \   000000   F0           MOVX    @DPTR,A
   \   000001   8E82         MOV     DPL,R6
   \   000003   8F83         MOV     DPH,R7
   \   000005   E0           MOVX    A,@DPTR
   \   000006   C4           SWAP    A
   \   000007   540F         ANL     A,#0xf
   \   000009   22           RET

   \                                 In  segment BANKED_CODE, align 1, keep-with-next
   \                     ?Subroutine80:
   \   000000   E0           MOVX    A,@DPTR
   \   000001   F5..         MOV     ?V1,A
   \   000003   A3           INC     DPTR
   \   000004   E0           MOVX    A,@DPTR
   \   000005   F5..         MOV     ?V0,A
   \   000007   A3           INC     DPTR
   \   000008   22           RET

   \                                 In  segment BANKED_CODE, align 1, keep-with-next
   \                     ?Subroutine40:
   \   000000   12....       LCALL   ?Subroutine110 & 0xFFFF
   \                     ??CrossCallReturnLabel_201:
   \   000003   22           RET

   \                                 In  segment BANKED_CODE, align 1, keep-with-next
   \                     ?Subroutine53:
   \   000000   12....       LCALL   ?Subroutine117 & 0xFFFF
   \                     ??CrossCallReturnLabel_214:
   \   000003   A3           INC     DPTR
   \   000004   A3           INC     DPTR
   \   000005   A3           INC     DPTR
   \   000006   A3           INC     DPTR
   \   000007   22           RET

   \                                 In  segment BANKED_CODE, align 1, keep-with-next
   \                     ?Subroutine48:
   \   000000   8E82         MOV     DPL,R6
   \   000002   8F83         MOV     DPH,R7
   \   000004   12....       LCALL   ?Subroutine118 & 0xFFFF
   \                     ??CrossCallReturnLabel_382:
   \   000007   85..82       MOV     DPL,?V0
   \   00000A   85..83       MOV     DPH,?V1
   \   00000D   A3           INC     DPTR
   \   00000E   A3           INC     DPTR
   \   00000F   A3           INC     DPTR
   \   000010   A3           INC     DPTR
   \   000011   A3           INC     DPTR
   \   000012   A3           INC     DPTR
   \   000013   A3           INC     DPTR
   \   000014   22           RET
   3132          
   3133          /*********************************************************************
   3134           * @fn          ZDO_ParseMgmtRtgRsp
   3135           *
   3136           * @brief       This function parses the incoming Management
   3137           *              Routing response.
   3138           *
   3139           * @param       inMsg - incoming message
   3140           *
   3141           * @return      a pointer to parsed response structure (NULL if not allocated).
   3142           *          This structure was allocated using osal_mem_alloc, so it must be freed
   3143           *          by the calling function [osal_mem_free()].
   3144           */

   \                                 In  segment BANKED_CODE, align 1, keep-with-next
   3145          ZDO_MgmtRtgRsp_t *ZDO_ParseMgmtRtgRsp( zdoIncomingMsg_t *inMsg )
   \                     ZDO_ParseMgmtRtgRsp:
   3146          {
   \   000000                REQUIRE ?V0
   \   000000                REQUIRE ?V1
   \   000000                REQUIRE ?V2
   \   000000                REQUIRE ?V3
   \   000000                REQUIRE ?V4
   \   000000                REQUIRE ?V5
   \   000000   74F2         MOV     A,#-0xe
   \   000002   12....       LCALL   ?BANKED_ENTER_XDATA
   \   000005                ; Saved register size: 14
   \   000005                ; Auto size: 0
   3147            ZDO_MgmtRtgRsp_t *pRsp;
   3148            uint8 status;
   3149            uint8 rtgCount = 0;
   \   000005   75..00       MOV     ?V2,#0x0
   3150            uint8 startIndex = 0;
   \   000008   75..00       MOV     ?V1,#0x0
   3151            uint8 rtgListCount = 0;
   \   00000B   75..00       MOV     ?V0,#0x0
   3152            uint8 *msg;
   3153          
   3154            msg = inMsg->asdu;
   \   00000E   12....       LCALL   ?Subroutine50 & 0xFFFF
   3155          
   3156            status = *msg++;
   3157            if ( status == ZSuccess )
   \                     ??CrossCallReturnLabel_94:
   \   000011   700C         JNZ     ??ZDO_ParseMgmtRtgRsp_0
   3158            {
   3159              rtgCount = *msg++;
   \   000013   E0           MOVX    A,@DPTR
   \   000014   F5..         MOV     ?V2,A
   \   000016   A3           INC     DPTR
   3160              startIndex = *msg++;
   \   000017   12....       LCALL   ?Subroutine80 & 0xFFFF
   3161              rtgListCount = *msg++;
   3162            }
   \                     ??CrossCallReturnLabel_137:
   \   00001A   0E           INC     R6
   \   00001B   0E           INC     R6
   \   00001C   0E           INC     R6
   \   00001D   AF83         MOV     R7,DPH
   3163          
   3164            // Allocate a buffer big enough to handle the list
   3165            pRsp = (ZDO_MgmtRtgRsp_t *)osal_mem_alloc(
   3166                    sizeof( ZDO_MgmtRtgRsp_t ) + (rtgListCount * sizeof( rtgItem_t )) );
   \                     ??ZDO_ParseMgmtRtgRsp_0:
   \   00001F                ; Setup parameters for call to function osal_mem_alloc
   \   00001F   E5..         MOV     A,?V0
   \   000021   75F007       MOV     B,#0x7
   \   000024   12....       LCALL   ?Subroutine98 & 0xFFFF
   \                     ??CrossCallReturnLabel_179:
   \   000027   12....       LCALL   ??osal_mem_alloc?relay; Banked call to: osal_mem_alloc
   3167            if ( pRsp )
   \   00002A   EA           MOV     A,R2
   \   00002B   4B           ORL     A,R3
   \   00002C   6070         JZ      ??ZDO_ParseMgmtRtgRsp_1
   3168            {
   3169              uint8 x;
   3170              rtgItem_t *pList = pRsp->list;
   \   00002E   EA           MOV     A,R2
   \   00002F   2404         ADD     A,#0x4
   \   000031   F8           MOV     R0,A
   \   000032   E4           CLR     A
   \   000033   3B           ADDC    A,R3
   \   000034   F9           MOV     R1,A
   3171              pRsp->status = status;
   \   000035   8A82         MOV     DPL,R2
   \   000037   8B83         MOV     DPH,R3
   \   000039   E5..         MOV     A,?V3
   \   00003B   F0           MOVX    @DPTR,A
   3172              pRsp->rtgCount = rtgCount;
   \   00003C   A3           INC     DPTR
   \   00003D   E5..         MOV     A,?V2
   \   00003F   12....       LCALL   ?Subroutine41 & 0xFFFF
   3173              pRsp->startIndex = startIndex;
   \                     ??CrossCallReturnLabel_79:
   \   000042   E5..         MOV     A,?V1
   \   000044   12....       LCALL   ?Subroutine40 & 0xFFFF
   3174              pRsp->rtgListCount = rtgListCount;
   \                     ??CrossCallReturnLabel_76:
   \   000047   E5..         MOV     A,?V0
   \   000049   F0           MOVX    @DPTR,A
   3175          
   3176              for ( x = 0; x < rtgListCount; x++ )
   \   00004A   75..00       MOV     ?V1,#0x0
   \   00004D   8048         SJMP    ??ZDO_ParseMgmtRtgRsp_2
   3177              {
   3178                uint8 statOpt;
   3179          
   3180                pList->dstAddress = BUILD_UINT16( msg[0], msg[1] );
   \                     ??ZDO_ParseMgmtRtgRsp_3:
   \   00004F   12....       LCALL   ?Subroutine60 & 0xFFFF
   \                     ??CrossCallReturnLabel_106:
   \   000052   12....       LCALL   ?Subroutine33 & 0xFFFF
   3181                msg += 2;
   \                     ??CrossCallReturnLabel_407:
   \   000055   5001         JNC     ??ZDO_ParseMgmtRtgRsp_4
   \   000057   0F           INC     R7
   3182                statOpt = *msg++;
   \                     ??ZDO_ParseMgmtRtgRsp_4:
   \   000058   8E82         MOV     DPL,R6
   \   00005A   8F83         MOV     DPH,R7
   \   00005C   E0           MOVX    A,@DPTR
   \   00005D   FC           MOV     R4,A
   \   00005E   A3           INC     DPTR
   \   00005F   AE82         MOV     R6,DPL
   \   000061   AF83         MOV     R7,DPH
   3183                pList->status = (statOpt & 0x07);
   \   000063   7407         MOV     A,#0x7
   \   000065   5C           ANL     A,R4
   \   000066   8882         MOV     DPL,R0
   \   000068   8983         MOV     DPH,R1
   \   00006A   A3           INC     DPTR
   \   00006B   A3           INC     DPTR
   \   00006C   A3           INC     DPTR
   \   00006D   A3           INC     DPTR
   \   00006E   A3           INC     DPTR
   \   00006F   F0           MOVX    @DPTR,A
   3184                pList->options = ((statOpt >> 3) & 0x07);
   \   000070   EC           MOV     A,R4
   \   000071   13           RRC     A
   \   000072   13           RRC     A
   \   000073   13           RRC     A
   \   000074   541F         ANL     A,#0x1f
   \   000076   5407         ANL     A,#0x7
   \   000078   8882         MOV     DPL,R0
   \   00007A   8983         MOV     DPH,R1
   \   00007C   A3           INC     DPTR
   \   00007D   A3           INC     DPTR
   \   00007E   A3           INC     DPTR
   \   00007F   A3           INC     DPTR
   \   000080   A3           INC     DPTR
   \   000081   A3           INC     DPTR
   \   000082   F0           MOVX    @DPTR,A
   3185                pList->nextHopAddress = BUILD_UINT16( msg[0], msg[1] );
   \   000083   12....       LCALL   ?Subroutine60 & 0xFFFF
   \                     ??CrossCallReturnLabel_107:
   \   000086   A3           INC     DPTR
   \   000087   A3           INC     DPTR
   \   000088   12....       LCALL   ?Subroutine33 & 0xFFFF
   3186                msg += 2;
   \                     ??CrossCallReturnLabel_408:
   \   00008B   5001         JNC     ??ZDO_ParseMgmtRtgRsp_5
   \   00008D   0F           INC     R7
   3187                pList++;
   \                     ??ZDO_ParseMgmtRtgRsp_5:
   \   00008E   E8           MOV     A,R0
   \   00008F   2407         ADD     A,#0x7
   \   000091   F8           MOV     R0,A
   \   000092   5001         JNC     ??ZDO_ParseMgmtRtgRsp_6
   \   000094   09           INC     R1
   3188              }
   \                     ??ZDO_ParseMgmtRtgRsp_6:
   \   000095   05..         INC     ?V1
   \                     ??ZDO_ParseMgmtRtgRsp_2:
   \   000097   E5..         MOV     A,?V1
   \   000099   C3           CLR     C
   \   00009A   95..         SUBB    A,?V0
   \   00009C   40B1         JC      ??ZDO_ParseMgmtRtgRsp_3
   3189            }
   3190          
   3191            return ( pRsp );
   \                     ??ZDO_ParseMgmtRtgRsp_1:
   \   00009E   02....       LJMP    ?Subroutine4 & 0xFFFF
   3192          }

   \                                 In  segment BANKED_CODE, align 1, keep-with-next
   \                     ?Subroutine60:
   \   000000   8E82         MOV     DPL,R6
   \   000002   8F83         MOV     DPH,R7
   \   000004   E0           MOVX    A,@DPTR
   \   000005   F5..         MOV     ?V2,A
   \   000007   A3           INC     DPTR
   \   000008   E0           MOVX    A,@DPTR
   \   000009   FD           MOV     R5,A
   \   00000A   E5..         MOV     A,?V2
   \   00000C   8882         MOV     DPL,R0
   \   00000E   8983         MOV     DPH,R1
   \   000010   22           RET

   \                                 In  segment BANKED_CODE, align 1, keep-with-next
   \                     ?Subroutine33:
   \   000000   F0           MOVX    @DPTR,A
   \   000001   A3           INC     DPTR
   \   000002   ED           MOV     A,R5
   \   000003                REQUIRE ??Subroutine166_0
   \   000003                ; // Fall through to label ??Subroutine166_0

   \                                 In  segment BANKED_CODE, align 1, keep-with-next
   \                     ??Subroutine166_0:
   \   000000   F0           MOVX    @DPTR,A
   \   000001   EE           MOV     A,R6
   \   000002   2402         ADD     A,#0x2
   \   000004   FE           MOV     R6,A
   \   000005   22           RET

   \                                 In  segment BANKED_CODE, align 1, keep-with-next
   \                     ?Subroutine50:
   \   000000   12....       LCALL   ?Subroutine128 & 0xFFFF
   \                     ??CrossCallReturnLabel_234:
   \   000003   12....       LCALL   ?Subroutine120 & 0xFFFF
   \                     ??CrossCallReturnLabel_400:
   \   000006   F5..         MOV     ?V3,A
   \   000008   A3           INC     DPTR
   \   000009   AE82         MOV     R6,DPL
   \   00000B   AF83         MOV     R7,DPH
   \   00000D   22           RET
   3193          
   3194          /*********************************************************************
   3195           * @fn          ZDO_ParseMgmtBindRsp
   3196           *
   3197           * @brief       This function parses the incoming Management
   3198           *              Binding response.
   3199           *
   3200           * @param       inMsg - pointer to message to parse
   3201           *
   3202           * @return      a pointer to parsed response structure (NULL if not allocated).
   3203           *          This structure was allocated using osal_mem_alloc, so it must be freed
   3204           *          by the calling function [osal_mem_free()].
   3205           */

   \                                 In  segment BANKED_CODE, align 1, keep-with-next
   3206          ZDO_MgmtBindRsp_t *ZDO_ParseMgmtBindRsp( zdoIncomingMsg_t *inMsg )
   \                     ZDO_ParseMgmtBindRsp:
   3207          {
   \   000000                REQUIRE ?V0
   \   000000                REQUIRE ?V1
   \   000000                REQUIRE ?V2
   \   000000                REQUIRE ?V3
   \   000000                REQUIRE ?V4
   \   000000                REQUIRE ?V5
   \   000000                REQUIRE ?V6
   \   000000                REQUIRE ?V7
   \   000000                REQUIRE ?V8
   \   000000                REQUIRE ?V9
   \   000000   74EE         MOV     A,#-0x12
   \   000002   12....       LCALL   ?BANKED_ENTER_XDATA
   \   000005                ; Saved register size: 18
   \   000005                ; Auto size: 0
   3208            ZDO_MgmtBindRsp_t *pRsp;
   3209            uint8 status;
   3210            uint8 bindingCount = 0;
   \   000005   75..00       MOV     ?V6,#0x0
   3211            uint8 startIndex = 0;
   \   000008   75..00       MOV     ?V5,#0x0
   3212            uint8 bindingListCount = 0;
   \   00000B   75..00       MOV     ?V4,#0x0
   3213            uint8 *msg;
   3214          
   3215            msg = inMsg->asdu;
   \   00000E   12....       LCALL   ?Subroutine68 & 0xFFFF
   3216          
   3217            status = *msg++;
   \                     ??CrossCallReturnLabel_115:
   \   000011   F5..         MOV     ?V7,A
   \   000013   A3           INC     DPTR
   \   000014   8582..       MOV     ?V2,DPL
   \   000017   8583..       MOV     ?V3,DPH
   3218            if ( status == ZSuccess )
   \   00001A   7009         JNZ     ??ZDO_ParseMgmtBindRsp_0
   3219            {
   3220              bindingCount = *msg++;
   \   00001C   12....       LCALL   ?Subroutine61 & 0xFFFF
   3221              startIndex = *msg++;
   3222              bindingListCount = *msg++;
   3223            }
   \                     ??CrossCallReturnLabel_109:
   \   00001F   8582..       MOV     ?V2,DPL
   \   000022   8583..       MOV     ?V3,DPH
   3224          
   3225            // Allocate a buffer big enough to handle the list
   3226            pRsp = (ZDO_MgmtBindRsp_t *)osal_mem_alloc(
   3227                    (sizeof ( ZDO_MgmtBindRsp_t ) + (bindingListCount * sizeof( apsBindingItem_t ))) );
   \                     ??ZDO_ParseMgmtBindRsp_0:
   \   000025                ; Setup parameters for call to function osal_mem_alloc
   \   000025   E5..         MOV     A,?V4
   \   000027   75F015       MOV     B,#0x15
   \   00002A   12....       LCALL   ?Subroutine98 & 0xFFFF
   \                     ??CrossCallReturnLabel_180:
   \   00002D   12....       LCALL   ??osal_mem_alloc?relay; Banked call to: osal_mem_alloc
   \   000030   8A..         MOV     ?V0,R2
   \   000032   8B..         MOV     ?V1,R3
   3228            if ( pRsp )
   \   000034   EA           MOV     A,R2
   \   000035   45..         ORL     A,?V1
   \   000037   7003         JNZ     $+5
   \   000039   02....       LJMP    ??ZDO_ParseMgmtBindRsp_1 & 0xFFFF
   3229            {
   3230              uint8 x;
   3231              apsBindingItem_t *pList = pRsp->list;
   \   00003C   EA           MOV     A,R2
   \   00003D   2404         ADD     A,#0x4
   \   00003F   FE           MOV     R6,A
   \   000040   E4           CLR     A
   \   000041   35..         ADDC    A,?V1
   \   000043   FF           MOV     R7,A
   3232              pRsp->status = status;
   \   000044   12....       LCALL   ?Subroutine13 & 0xFFFF
   3233              pRsp->bindingCount = bindingCount;
   3234              pRsp->startIndex = startIndex;
   3235              pRsp->bindingListCount = bindingListCount;
   3236          
   3237              for ( x = 0; x < bindingListCount; x++ )
   \                     ??CrossCallReturnLabel_8:
   \   000047   8013         SJMP    ??ZDO_ParseMgmtBindRsp_2
   3238              {
   3239                osal_cpyExtAddr( pList->srcAddr, msg );
   3240                msg += Z_EXTADDR_LEN;
   3241                pList->srcEP = *msg++;
   3242          
   3243                // Get the Cluster ID
   3244          
   3245                pList->clusterID = BUILD_UINT16( msg[0], msg[1] );
   3246                msg += 2;
   3247                pList->dstAddr.addrMode = *msg++;
   3248                if ( pList->dstAddr.addrMode == Addr64Bit )
   3249                {
   3250                  osal_cpyExtAddr( pList->dstAddr.addr.extAddr, msg );
   3251                  msg += Z_EXTADDR_LEN;
   3252                  pList->dstEP = *msg++;
   3253                }
   3254                else
   3255                {
   3256                  pList->dstAddr.addr.shortAddr = BUILD_UINT16( msg[0], msg[1] );
   \                     ??ZDO_ParseMgmtBindRsp_3:
   \   000049   12....       LCALL   ?Subroutine69 & 0xFFFF
   3257                  msg += 2;
   3258                }
   \                     ??CrossCallReturnLabel_117:
   \   00004C   12....       LCALL   ??Subroutine167_0 & 0xFFFF
   \                     ??CrossCallReturnLabel_414:
   \   00004F   5002         JNC     ??ZDO_ParseMgmtBindRsp_4
   \   000051   05..         INC     ?V3
   3259          
   3260                pList++;
   \                     ??ZDO_ParseMgmtBindRsp_4:
   \   000053   EE           MOV     A,R6
   \   000054   2415         ADD     A,#0x15
   \   000056   FE           MOV     R6,A
   \   000057   5001         JNC     ??ZDO_ParseMgmtBindRsp_5
   \   000059   0F           INC     R7
   \                     ??ZDO_ParseMgmtBindRsp_5:
   \   00005A   05..         INC     ?V5
   \                     ??ZDO_ParseMgmtBindRsp_2:
   \   00005C   E5..         MOV     A,?V5
   \   00005E   C3           CLR     C
   \   00005F   95..         SUBB    A,?V4
   \   000061   507E         JNC     ??ZDO_ParseMgmtBindRsp_1
   \   000063                ; Setup parameters for call to function sAddrExtCpy
   \   000063   AC..         MOV     R4,?V2
   \   000065   AD..         MOV     R5,?V3
   \   000067   EE           MOV     A,R6
   \   000068   FA           MOV     R2,A
   \   000069   EF           MOV     A,R7
   \   00006A   FB           MOV     R3,A
   \   00006B   12....       LCALL   ??sAddrExtCpy?relay  ; Banked call to: sAddrExtCpy
   \   00006E   E5..         MOV     A,?V2
   \   000070   2408         ADD     A,#0x8
   \   000072   F5..         MOV     ?V2,A
   \   000074   5002         JNC     ??ZDO_ParseMgmtBindRsp_6
   \   000076   05..         INC     ?V3
   \                     ??ZDO_ParseMgmtBindRsp_6:
   \   000078   F582         MOV     DPL,A
   \   00007A   85..83       MOV     DPH,?V3
   \   00007D   E0           MOVX    A,@DPTR
   \   00007E   8E82         MOV     DPL,R6
   \   000080   8F83         MOV     DPH,R7
   \   000082   A3           INC     DPTR
   \   000083   A3           INC     DPTR
   \   000084   A3           INC     DPTR
   \   000085   A3           INC     DPTR
   \   000086   A3           INC     DPTR
   \   000087   A3           INC     DPTR
   \   000088   A3           INC     DPTR
   \   000089   A3           INC     DPTR
   \   00008A   12....       LCALL   ?Subroutine19 & 0xFFFF
   \                     ??CrossCallReturnLabel_26:
   \   00008D   8E82         MOV     DPL,R6
   \   00008F   8F83         MOV     DPH,R7
   \   000091   A3           INC     DPTR
   \   000092   A3           INC     DPTR
   \   000093   A3           INC     DPTR
   \   000094   A3           INC     DPTR
   \   000095   A3           INC     DPTR
   \   000096   12....       LCALL   ?Subroutine15 & 0xFFFF
   \                     ??CrossCallReturnLabel_412:
   \   000099   5002         JNC     ??ZDO_ParseMgmtBindRsp_7
   \   00009B   05..         INC     ?V3
   \                     ??ZDO_ParseMgmtBindRsp_7:
   \   00009D   F582         MOV     DPL,A
   \   00009F   85..83       MOV     DPH,?V3
   \   0000A2   E0           MOVX    A,@DPTR
   \   0000A3   F8           MOV     R0,A
   \   0000A4   12....       LCALL   ?Subroutine88 & 0xFFFF
   \                     ??CrossCallReturnLabel_154:
   \   0000A7   E8           MOV     A,R0
   \   0000A8   12....       LCALL   ?Subroutine28 & 0xFFFF
   \                     ??CrossCallReturnLabel_41:
   \   0000AB   EE           MOV     A,R6
   \   0000AC   240B         ADD     A,#0xb
   \   0000AE   FA           MOV     R2,A
   \   0000AF   E4           CLR     A
   \   0000B0   3F           ADDC    A,R7
   \   0000B1   FB           MOV     R3,A
   \   0000B2   7403         MOV     A,#0x3
   \   0000B4   68           XRL     A,R0
   \   0000B5   7092         JNZ     ??ZDO_ParseMgmtBindRsp_3
   \   0000B7                ; Setup parameters for call to function sAddrExtCpy
   \   0000B7   AC..         MOV     R4,?V2
   \   0000B9   AD..         MOV     R5,?V3
   \   0000BB   12....       LCALL   ??sAddrExtCpy?relay  ; Banked call to: sAddrExtCpy
   \   0000BE   E5..         MOV     A,?V2
   \   0000C0   2408         ADD     A,#0x8
   \   0000C2   F5..         MOV     ?V2,A
   \   0000C4   5002         JNC     ??ZDO_ParseMgmtBindRsp_8
   \   0000C6   05..         INC     ?V3
   \                     ??ZDO_ParseMgmtBindRsp_8:
   \   0000C8   F582         MOV     DPL,A
   \   0000CA   85..83       MOV     DPH,?V3
   \   0000CD   E0           MOVX    A,@DPTR
   \   0000CE   C0E0         PUSH    A
   \   0000D0   EE           MOV     A,R6
   \   0000D1   2414         ADD     A,#0x14
   \   0000D3   F582         MOV     DPL,A
   \   0000D5   E4           CLR     A
   \   0000D6   3F           ADDC    A,R7
   \   0000D7   F583         MOV     DPH,A
   \   0000D9   D0E0         POP     A
   \   0000DB   12....       LCALL   ?Subroutine28 & 0xFFFF
   3261              }
   3262            }
   \                     ??CrossCallReturnLabel_42:
   \   0000DE   02....       LJMP    ??ZDO_ParseMgmtBindRsp_4 & 0xFFFF
   3263          
   3264            return ( pRsp );
   \                     ??ZDO_ParseMgmtBindRsp_1:
   \   0000E1   AA..         MOV     R2,?V0
   \   0000E3   AB..         MOV     R3,?V1
   \   0000E5   02....       LJMP    ?Subroutine7 & 0xFFFF
   3265          }

   \                                 In  segment BANKED_CODE, align 1, keep-with-next
   \                     ?Subroutine28:
   \   000000   12....       LCALL   ?Subroutine109 & 0xFFFF
   \                     ??CrossCallReturnLabel_200:
   \   000003   22           RET
   3266          
   3267          /*********************************************************************
   3268           * @fn          ZDO_ParseUserDescRsp
   3269           *
   3270           * @brief       This function parses the incoming User
   3271           *              Descriptor Response.
   3272           *
   3273           * @param       inMsg - incoming response message
   3274           *
   3275           * @return      a pointer to parsed response structure (NULL if not allocated).
   3276           *          This structure was allocated using osal_mem_alloc, so it must be freed
   3277           *          by the calling function [osal_mem_free()].
   3278           */

   \                                 In  segment BANKED_CODE, align 1, keep-with-next
   3279          ZDO_UserDescRsp_t *ZDO_ParseUserDescRsp( zdoIncomingMsg_t *inMsg )
   \                     ZDO_ParseUserDescRsp:
   3280          {
   \   000000                REQUIRE ?V0
   \   000000                REQUIRE ?V1
   \   000000                REQUIRE ?V2
   \   000000                REQUIRE ?V3
   \   000000                REQUIRE ?V4
   \   000000                REQUIRE ?V5
   \   000000                REQUIRE ?V6
   \   000000                REQUIRE ?V7
   \   000000   74F0         MOV     A,#-0x10
   \   000002   12....       LCALL   ?BANKED_ENTER_XDATA
   \   000005                ; Saved register size: 16
   \   000005                ; Auto size: 0
   3281            ZDO_UserDescRsp_t *pRsp;
   3282            uint8 *msg;
   3283            uint8 descLen = 0;
   \   000005   75..00       MOV     ?V4,#0x0
   3284          
   3285            msg = inMsg->asdu;
   \   000008   12....       LCALL   ?Subroutine85 & 0xFFFF
   \                     ??CrossCallReturnLabel_146:
   \   00000B   12....       LCALL   ??Subroutine156_0 & 0xFFFF
   \                     ??CrossCallReturnLabel_350:
   \   00000E   88..         MOV     ?V2,R0
   \   000010   89..         MOV     ?V3,R1
   3286          
   3287            if ( msg[0] == ZSuccess )
   \   000012   8882         MOV     DPL,R0
   \   000014   F583         MOV     DPH,A
   \   000016   E0           MOVX    A,@DPTR
   \   000017   7006         JNZ     ??ZDO_ParseUserDescRsp_0
   3288            {
   3289              descLen = msg[3];
   \   000019   A3           INC     DPTR
   \   00001A   A3           INC     DPTR
   \   00001B   A3           INC     DPTR
   \   00001C   E0           MOVX    A,@DPTR
   \   00001D   F5..         MOV     ?V4,A
   3290            }
   3291          
   3292            pRsp = (ZDO_UserDescRsp_t *)osal_mem_alloc( sizeof ( ZDO_UserDescRsp_t ) + descLen );
   \                     ??ZDO_ParseUserDescRsp_0:
   \   00001F   AE..         MOV     R6,?V4
   \   000021                ; Setup parameters for call to function osal_mem_alloc
   \   000021   12....       LCALL   ?Subroutine130 & 0xFFFF
   \                     ??CrossCallReturnLabel_406:
   \   000024   3400         ADDC    A,#0x0
   \   000026   FB           MOV     R3,A
   \   000027   12....       LCALL   ??osal_mem_alloc?relay; Banked call to: osal_mem_alloc
   \   00002A   8A..         MOV     ?V0,R2
   \   00002C   8B..         MOV     ?V1,R3
   3293            if ( pRsp )
   \   00002E   EA           MOV     A,R2
   \   00002F   45..         ORL     A,?V1
   \   000031   604E         JZ      ??ZDO_ParseUserDescRsp_1
   3294            {
   3295              pRsp->status = msg[0];
   \   000033   85..82       MOV     DPL,?V2
   \   000036   85..83       MOV     DPH,?V3
   \   000039   12....       LCALL   ?Subroutine123 & 0xFFFF
   \                     ??CrossCallReturnLabel_223:
   \   00003C   12....       LCALL   ?Subroutine43 & 0xFFFF
   3296              pRsp->nwkAddr = BUILD_UINT16( msg[1], msg[2] );
   \                     ??CrossCallReturnLabel_85:
   \   00003F   12....       LCALL   ?Subroutine74 & 0xFFFF
   \                     ??CrossCallReturnLabel_125:
   \   000042   12....       LCALL   ?Subroutine64 & 0xFFFF
   \                     ??CrossCallReturnLabel_417:
   \   000045   EA           MOV     A,R2
   \   000046   85..82       MOV     DPL,?V0
   \   000049   8B83         MOV     DPH,R3
   \   00004B   A3           INC     DPTR
   \   00004C   12....       LCALL   ??Subroutine144_0 & 0xFFFF
   3297              pRsp->length = descLen;
   \                     ??CrossCallReturnLabel_267:
   \   00004F   85..82       MOV     DPL,?V0
   \   000052   8B83         MOV     DPH,R3
   \   000054   A3           INC     DPTR
   \   000055   A3           INC     DPTR
   \   000056   A3           INC     DPTR
   \   000057   EE           MOV     A,R6
   \   000058   F0           MOVX    @DPTR,A
   3298              if ( descLen )
   \   000059   6026         JZ      ??ZDO_ParseUserDescRsp_1
   3299              {
   3300                osal_memcpy( pRsp->desc, &msg[4], descLen );
   \   00005B                ; Setup parameters for call to function osal_memcpy
   \   00005B   E5..         MOV     A,?V2
   \   00005D   2404         ADD     A,#0x4
   \   00005F   F5..         MOV     ?V4,A
   \   000061   E4           CLR     A
   \   000062   35..         ADDC    A,?V3
   \   000064   F5..         MOV     ?V5,A
   \   000066   88..         MOV     ?V6,R0
   \   000068   78..         MOV     R0,#?V4
   \   00006A   12....       LCALL   ?PUSH_XSTACK_I_THREE
   \   00006D   EE           MOV     A,R6
   \   00006E   FC           MOV     R4,A
   \   00006F   7D00         MOV     R5,#0x0
   \   000071   E5..         MOV     A,?V0
   \   000073   12....       LCALL   ??Subroutine165_0 & 0xFFFF
   3301              }
   3302            }
   \                     ??CrossCallReturnLabel_403:
   \   000076   35..         ADDC    A,?V1
   \   000078   FB           MOV     R3,A
   \   000079   12....       LCALL   ??osal_memcpy?relay  ; Banked call to: osal_memcpy
   \   00007C   7403         MOV     A,#0x3
   \   00007E   12....       LCALL   ?DEALLOC_XSTACK8
   3303          
   3304            return ( pRsp );
   \                     ??ZDO_ParseUserDescRsp_1:
   \   000081   AA..         MOV     R2,?V0
   \   000083   AB..         MOV     R3,?V1
   \   000085   02....       LJMP    ??Subroutine155_0 & 0xFFFF
   3305          }
   3306          
   3307          /*********************************************************************
   3308           * @fn          ZDO_ParseSimpleDescBuf
   3309           *
   3310           * @brief       Parse a byte sequence representation of a Simple Descriptor.
   3311           *
   3312           * @param       buf  - pointer to a byte array representing a Simple Desc.
   3313           * @param       desc - SimpleDescriptionFormat_t *
   3314           *
   3315           *              This routine allocates storage for the cluster IDs because
   3316           *              they are 16-bit and need to be aligned to be properly processed.
   3317           *              This routine returns non-zero if an allocation fails.
   3318           *
   3319           *              NOTE: This means that the caller or user of the input structure
   3320           *                    is responsible for freeing the memory
   3321           *
   3322           * @return      0: success
   3323           *              1: failure due to malloc failure.
   3324           */

   \                                 In  segment BANKED_CODE, align 1, keep-with-next
   3325          uint8 ZDO_ParseSimpleDescBuf( uint8 *buf, SimpleDescriptionFormat_t *desc )
   \                     ZDO_ParseSimpleDescBuf:
   3326          {
   \   000000                REQUIRE ?V0
   \   000000                REQUIRE ?V1
   \   000000                REQUIRE ?V2
   \   000000                REQUIRE ?V3
   \   000000                REQUIRE ?V4
   \   000000                REQUIRE ?V6
   \   000000                REQUIRE ?V7
   \   000000   74F0         MOV     A,#-0x10
   \   000002   12....       LCALL   ?BANKED_ENTER_XDATA
   \   000005                ; Saved register size: 16
   \   000005                ; Auto size: 0
   \   000005   EA           MOV     A,R2
   \   000006   FE           MOV     R6,A
   \   000007   EB           MOV     A,R3
   \   000008   FF           MOV     R7,A
   \   000009   8C..         MOV     ?V0,R4
   \   00000B   8D..         MOV     ?V1,R5
   3327            uint8 num, i;
   3328          
   3329            desc->EndPoint = *buf++;
   \   00000D   8E82         MOV     DPL,R6
   \   00000F   8F83         MOV     DPH,R7
   \   000011   12....       LCALL   ?Subroutine135 & 0xFFFF
   \                     ??CrossCallReturnLabel_248:
   \   000014   12....       LCALL   ?Subroutine24 & 0xFFFF
   3330            desc->AppProfId = BUILD_UINT16( buf[0], buf[1] );
   \                     ??CrossCallReturnLabel_35:
   \   000017   8C82         MOV     DPL,R4
   \   000019   8D83         MOV     DPH,R5
   \   00001B   12....       LCALL   ??Subroutine161_0 & 0xFFFF
   3331            buf += 2;
   \                     ??CrossCallReturnLabel_387:
   \   00001E   5001         JNC     ??ZDO_ParseSimpleDescBuf_0
   \   000020   0F           INC     R7
   3332            desc->AppDeviceId = BUILD_UINT16( buf[0], buf[1] );
   \                     ??ZDO_ParseSimpleDescBuf_0:
   \   000021   12....       LCALL   ?Subroutine62 & 0xFFFF
   \                     ??CrossCallReturnLabel_424:
   \   000024   12....       LCALL   ?Subroutine12 & 0xFFFF
   3333            buf += 2;
   \                     ??CrossCallReturnLabel_385:
   \   000027   5001         JNC     ??ZDO_ParseSimpleDescBuf_1
   \   000029   0F           INC     R7
   3334            desc->AppDevVer = *buf >> 4;
   \                     ??ZDO_ParseSimpleDescBuf_1:
   \   00002A   8E82         MOV     DPL,R6
   \   00002C   8F83         MOV     DPH,R7
   \   00002E   E0           MOVX    A,@DPTR
   \   00002F   C4           SWAP    A
   \   000030   540F         ANL     A,#0xf
   3335          
   3336            desc->Reserved = 0;
   \   000032   8C82         MOV     DPL,R4
   \   000034   8D83         MOV     DPH,R5
   \   000036   A3           INC     DPTR
   \   000037   A3           INC     DPTR
   \   000038   A3           INC     DPTR
   \   000039   A3           INC     DPTR
   \   00003A   A3           INC     DPTR
   \   00003B   12....       LCALL   ?Subroutine35 & 0xFFFF
   3337            buf++;
   3338          
   3339            // move in input cluster list (if any). allocate aligned memory.
   3340            num = desc->AppNumInClusters = *buf++;
   \                     ??CrossCallReturnLabel_54:
   \   00003E   E0           MOVX    A,@DPTR
   \   00003F   F5..         MOV     ?V4,A
   \   000041   A3           INC     DPTR
   \   000042   0E           INC     R6
   \   000043   0E           INC     R6
   \   000044   AF83         MOV     R7,DPH
   \   000046   8C82         MOV     DPL,R4
   \   000048   8D83         MOV     DPH,R5
   \   00004A   A3           INC     DPTR
   \   00004B   A3           INC     DPTR
   \   00004C   A3           INC     DPTR
   \   00004D   A3           INC     DPTR
   \   00004E   A3           INC     DPTR
   \   00004F   A3           INC     DPTR
   \   000050   F0           MOVX    @DPTR,A
   3341            if ( num )
   \   000051   EC           MOV     A,R4
   \   000052   2407         ADD     A,#0x7
   \   000054   F5..         MOV     ?V2,A
   \   000056   E4           CLR     A
   \   000057   35..         ADDC    A,?V1
   \   000059   F5..         MOV     ?V3,A
   \   00005B   E5..         MOV     A,?V4
   \   00005D   6048         JZ      ??ZDO_ParseSimpleDescBuf_2
   3342            {
   3343              if (!(desc->pAppInClusterList = (uint16 *)osal_mem_alloc(num*sizeof(uint16))))
   \   00005F                ; Setup parameters for call to function osal_mem_alloc
   \   00005F   12....       LCALL   ?Subroutine100 & 0xFFFF
   \                     ??CrossCallReturnLabel_185:
   \   000062   12....       LCALL   ??osal_mem_alloc?relay; Banked call to: osal_mem_alloc
   \   000065   85..82       MOV     DPL,?V2
   \   000068   85..83       MOV     DPH,?V3
   \   00006B   12....       LCALL   ?Subroutine39 & 0xFFFF
   \                     ??CrossCallReturnLabel_73:
   \   00006E   85..82       MOV     DPL,?V2
   \   000071   85..83       MOV     DPH,?V3
   \   000074   E0           MOVX    A,@DPTR
   \   000075   FA           MOV     R2,A
   \   000076   4B           ORL     A,R3
   \   000077   7003         JNZ     $+5
   \   000079   02....       LJMP    ??ZDO_ParseSimpleDescBuf_3 & 0xFFFF
   3344              {
   3345                // malloc failed. we're done.
   3346                return 1;
   3347              }
   3348              for (i=0; i<num; ++i)
   \   00007C   7C00         MOV     R4,#0x0
   \   00007E   8021         SJMP    ??ZDO_ParseSimpleDescBuf_4
   3349              {
   3350                desc->pAppInClusterList[i] = BUILD_UINT16( buf[0], buf[1] );
   \                     ??ZDO_ParseSimpleDescBuf_5:
   \   000080   8E82         MOV     DPL,R6
   \   000082   8F83         MOV     DPH,R7
   \   000084   E0           MOVX    A,@DPTR
   \   000085   F5..         MOV     ?V6,A
   \   000087   12....       LCALL   ?Subroutine64 & 0xFFFF
   3351                buf += 2;
   3352              }
   \                     ??CrossCallReturnLabel_418:
   \   00008A   E5..         MOV     A,?V6
   \   00008C   28           ADD     A,R0
   \   00008D   E4           CLR     A
   \   00008E   39           ADDC    A,R1
   \   00008F   F5..         MOV     ?V7,A
   \   000091   12....       LCALL   ?Subroutine82 & 0xFFFF
   \                     ??CrossCallReturnLabel_421:
   \   000094   E5..         MOV     A,?V6
   \   000096   F0           MOVX    @DPTR,A
   \   000097   A3           INC     DPTR
   \   000098   E5..         MOV     A,?V7
   \   00009A   12....       LCALL   ??Subroutine166_0 & 0xFFFF
   \                     ??CrossCallReturnLabel_409:
   \   00009D   5001         JNC     ??ZDO_ParseSimpleDescBuf_6
   \   00009F   0F           INC     R7
   \                     ??ZDO_ParseSimpleDescBuf_6:
   \   0000A0   0C           INC     R4
   \                     ??ZDO_ParseSimpleDescBuf_4:
   \   0000A1   EC           MOV     A,R4
   \   0000A2   C3           CLR     C
   \   0000A3   95..         SUBB    A,?V4
   \   0000A5   40D9         JC      ??ZDO_ParseSimpleDescBuf_5
   3353            }
   3354          
   3355            // move in output cluster list (if any). allocate aligned memory.
   3356            num = desc->AppNumOutClusters = *buf++;
   \                     ??ZDO_ParseSimpleDescBuf_2:
   \   0000A7   8E82         MOV     DPL,R6
   \   0000A9   8F83         MOV     DPH,R7
   \   0000AB   E0           MOVX    A,@DPTR
   \   0000AC   F5..         MOV     ?V4,A
   \   0000AE   A3           INC     DPTR
   \   0000AF   AE82         MOV     R6,DPL
   \   0000B1   AF83         MOV     R7,DPH
   \   0000B3   85..82       MOV     DPL,?V0
   \   0000B6   85..83       MOV     DPH,?V1
   \   0000B9   A3           INC     DPTR
   \   0000BA   A3           INC     DPTR
   \   0000BB   A3           INC     DPTR
   \   0000BC   A3           INC     DPTR
   \   0000BD   A3           INC     DPTR
   \   0000BE   A3           INC     DPTR
   \   0000BF   A3           INC     DPTR
   \   0000C0   A3           INC     DPTR
   \   0000C1   A3           INC     DPTR
   \   0000C2   F0           MOVX    @DPTR,A
   3357            if (num)
   \   0000C3   6073         JZ      ??ZDO_ParseSimpleDescBuf_7
   3358            {
   3359              if (!(desc->pAppOutClusterList = (uint16 *)osal_mem_alloc(num*sizeof(uint16))))
   \   0000C5   E5..         MOV     A,?V0
   \   0000C7   240A         ADD     A,#0xa
   \   0000C9   F8           MOV     R0,A
   \   0000CA   E4           CLR     A
   \   0000CB   35..         ADDC    A,?V1
   \   0000CD   F9           MOV     R1,A
   \   0000CE   88..         MOV     ?V0,R0
   \   0000D0   89..         MOV     ?V1,R1
   \   0000D2                ; Setup parameters for call to function osal_mem_alloc
   \   0000D2   AA..         MOV     R2,?V4
   \   0000D4   EA           MOV     A,R2
   \   0000D5   2A           ADD     A,R2
   \   0000D6   FA           MOV     R2,A
   \   0000D7   E4           CLR     A
   \   0000D8   33           RLC     A
   \   0000D9   FB           MOV     R3,A
   \   0000DA   12....       LCALL   ??osal_mem_alloc?relay; Banked call to: osal_mem_alloc
   \   0000DD   85..82       MOV     DPL,?V0
   \   0000E0   85..83       MOV     DPH,?V1
   \   0000E3   12....       LCALL   ?Subroutine39 & 0xFFFF
   \                     ??CrossCallReturnLabel_74:
   \   0000E6   85..82       MOV     DPL,?V0
   \   0000E9   85..83       MOV     DPH,?V1
   \   0000EC   E0           MOVX    A,@DPTR
   \   0000ED   FA           MOV     R2,A
   \   0000EE   4B           ORL     A,R3
   \   0000EF   701C         JNZ     ??ZDO_ParseSimpleDescBuf_8
   3360              {
   3361                // malloc failed. free input cluster list memory if there is any
   3362                if ( desc->pAppInClusterList != NULL )
   \   0000F1   85..82       MOV     DPL,?V2
   \   0000F4   85..83       MOV     DPH,?V3
   \   0000F7   12....       LCALL   ??Subroutine146_0 & 0xFFFF
   \                     ??CrossCallReturnLabel_285:
   \   0000FA   600D         JZ      ??ZDO_ParseSimpleDescBuf_3
   3363                {
   3364                  osal_mem_free(desc->pAppInClusterList);
   \   0000FC                ; Setup parameters for call to function osal_mem_free
   \   0000FC   12....       LCALL   ??osal_mem_free?relay; Banked call to: osal_mem_free
   3365          
   3366                  desc->pAppInClusterList = NULL;
   \   0000FF   85..82       MOV     DPL,?V2
   \   000102   85..83       MOV     DPH,?V3
   \   000105   E4           CLR     A
   \   000106   F0           MOVX    @DPTR,A
   \   000107   A3           INC     DPTR
   \   000108   F0           MOVX    @DPTR,A
   3367                }
   3368                return 1;
   \                     ??ZDO_ParseSimpleDescBuf_3:
   \   000109   7901         MOV     R1,#0x1
   \   00010B   802D         SJMP    ??ZDO_ParseSimpleDescBuf_9
   3369              }
   3370              for (i=0; i<num; ++i)
   \                     ??ZDO_ParseSimpleDescBuf_8:
   \   00010D   7C00         MOV     R4,#0x0
   \   00010F   8021         SJMP    ??ZDO_ParseSimpleDescBuf_10
   3371              {
   3372                desc->pAppOutClusterList[i] = BUILD_UINT16( buf[0], buf[1] );
   \                     ??ZDO_ParseSimpleDescBuf_11:
   \   000111   8E82         MOV     DPL,R6
   \   000113   8F83         MOV     DPH,R7
   \   000115   E0           MOVX    A,@DPTR
   \   000116   F5..         MOV     ?V0,A
   \   000118   12....       LCALL   ?Subroutine64 & 0xFFFF
   3373                buf += 2;
   3374              }
   \                     ??CrossCallReturnLabel_419:
   \   00011B   E5..         MOV     A,?V0
   \   00011D   28           ADD     A,R0
   \   00011E   E4           CLR     A
   \   00011F   39           ADDC    A,R1
   \   000120   F5..         MOV     ?V1,A
   \   000122   12....       LCALL   ?Subroutine82 & 0xFFFF
   \                     ??CrossCallReturnLabel_422:
   \   000125   E5..         MOV     A,?V0
   \   000127   F0           MOVX    @DPTR,A
   \   000128   A3           INC     DPTR
   \   000129   E5..         MOV     A,?V1
   \   00012B   12....       LCALL   ??Subroutine166_0 & 0xFFFF
   \                     ??CrossCallReturnLabel_410:
   \   00012E   5001         JNC     ??ZDO_ParseSimpleDescBuf_12
   \   000130   0F           INC     R7
   \                     ??ZDO_ParseSimpleDescBuf_12:
   \   000131   0C           INC     R4
   \                     ??ZDO_ParseSimpleDescBuf_10:
   \   000132   EC           MOV     A,R4
   \   000133   C3           CLR     C
   \   000134   95..         SUBB    A,?V4
   \   000136   40D9         JC      ??ZDO_ParseSimpleDescBuf_11
   3375            }
   3376            return 0;
   \                     ??ZDO_ParseSimpleDescBuf_7:
   \   000138   7900         MOV     R1,#0x0
   \                     ??ZDO_ParseSimpleDescBuf_9:
   \   00013A   02....       LJMP    ??Subroutine155_0 & 0xFFFF
   3377          }

   \                                 In  segment BANKED_CODE, align 1, keep-with-next
   \                     ?Subroutine82:
   \   000000   EC           MOV     A,R4
   \   000001   25E0         ADD     A,0xE0 /* A   */
   \   000003                REQUIRE ??Subroutine169_0
   \   000003                ; // Fall through to label ??Subroutine169_0

   \                                 In  segment BANKED_CODE, align 1, keep-with-next
   \                     ?Subroutine62:
   \   000000   8E82         MOV     DPL,R6
   \   000002   8F83         MOV     DPH,R7
   \   000004   E0           MOVX    A,@DPTR
   \   000005   FA           MOV     R2,A
   \   000006                REQUIRE ??Subroutine170_0
   \   000006                ; // Fall through to label ??Subroutine170_0
   3378          
   3379          /*********************************************************************
   3380           * @fn          ZDO_ParseDeviceAnnce
   3381           *
   3382           * @brief       Parse a Device Announce message.
   3383           *
   3384           * @param       inMsg - Incoming message
   3385           * @param       pAnnce - place to put the parsed information
   3386           *
   3387           * @return      none
   3388           */

   \                                 In  segment BANKED_CODE, align 1, keep-with-next
   3389          void ZDO_ParseDeviceAnnce( zdoIncomingMsg_t *inMsg, ZDO_DeviceAnnce_t *pAnnce )
   \                     ZDO_ParseDeviceAnnce:
   3390          {
   \   000000                REQUIRE ?V0
   \   000000                REQUIRE ?V1
   \   000000   74F6         MOV     A,#-0xa
   \   000002   12....       LCALL   ?BANKED_ENTER_XDATA
   \   000005                ; Saved register size: 10
   \   000005                ; Auto size: 0
   \   000005   8C..         MOV     ?V0,R4
   \   000007   8D..         MOV     ?V1,R5
   3391            uint8 *msg;
   3392          
   3393            // Parse incoming message
   3394            msg = inMsg->asdu;
   \   000009   12....       LCALL   ?Subroutine85 & 0xFFFF
   \                     ??CrossCallReturnLabel_147:
   \   00000C   12....       LCALL   ?Subroutine77 & 0xFFFF
   \                     ??CrossCallReturnLabel_133:
   \   00000F   FF           MOV     R7,A
   3395            pAnnce->nwkAddr = BUILD_UINT16( msg[0], msg[1] );
   \   000010   12....       LCALL   ?Subroutine62 & 0xFFFF
   \                     ??CrossCallReturnLabel_425:
   \   000013   12....       LCALL   ??Subroutine162_0 & 0xFFFF
   3396            msg += 2;
   \                     ??CrossCallReturnLabel_389:
   \   000016   5001         JNC     ??ZDO_ParseDeviceAnnce_0
   \   000018   0F           INC     R7
   3397            osal_cpyExtAddr( pAnnce->extAddr, msg );
   \                     ??ZDO_ParseDeviceAnnce_0:
   \   000019                ; Setup parameters for call to function sAddrExtCpy
   \   000019   12....       LCALL   ?Subroutine97 & 0xFFFF
   \                     ??CrossCallReturnLabel_326:
   \   00001C   35..         ADDC    A,?V1
   \   00001E   FB           MOV     R3,A
   \   00001F   12....       LCALL   ??sAddrExtCpy?relay  ; Banked call to: sAddrExtCpy
   3398            msg += Z_EXTADDR_LEN;
   3399            pAnnce->capabilities = *msg;
   \   000022   8E82         MOV     DPL,R6
   \   000024   8F83         MOV     DPH,R7
   \   000026   A3           INC     DPTR
   \   000027   A3           INC     DPTR
   \   000028   A3           INC     DPTR
   \   000029   A3           INC     DPTR
   \   00002A   A3           INC     DPTR
   \   00002B   A3           INC     DPTR
   \   00002C   A3           INC     DPTR
   \   00002D   A3           INC     DPTR
   \   00002E   12....       LCALL   ?Subroutine53 & 0xFFFF
   \                     ??CrossCallReturnLabel_97:
   \   000031   F0           MOVX    @DPTR,A
   3400          }
   \   000032   02....       LJMP    ??Subroutine141_0 & 0xFFFF
   3401          
   3402          /*********************************************************************
   3403           * @fn          ZDO_ParseParentAnnce
   3404           *
   3405           * @brief       Parse Parent Announce and Parent Announce Rsp messages,
   3406           *              both messages have the same payload.
   3407           *
   3408           * @param       inMsg - Incoming message
   3409           *
   3410           * @return      a pointer to parsed response structure (NULL if not allocated).
   3411           *          This structure was allocated using osal_mem_alloc, so it must be freed
   3412           *          by the calling function [osal_mem_free()].
   3413           */

   \                                 In  segment BANKED_CODE, align 1, keep-with-next
   3414          ZDO_ParentAnnce_t *ZDO_ParseParentAnnce( zdoIncomingMsg_t *inMsg )
   \                     ZDO_ParseParentAnnce:
   3415          {
   \   000000                REQUIRE ?V0
   \   000000                REQUIRE ?V1
   \   000000                REQUIRE ?V2
   \   000000                REQUIRE ?V3
   \   000000                REQUIRE ?V4
   \   000000                REQUIRE ?V5
   \   000000   74F2         MOV     A,#-0xe
   \   000002   12....       LCALL   ?BANKED_ENTER_XDATA
   \   000005                ; Saved register size: 14
   \   000005                ; Auto size: 0
   3416            ZDO_ParentAnnce_t *pRcvdMsg;
   3417            uint8 *msg;
   3418            uint8 numChildren;
   3419          
   3420            msg = inMsg->asdu;
   \   000005   12....       LCALL   ?Subroutine50 & 0xFFFF
   3421            numChildren = *msg++;
   3422          
   3423            // Allocate a buffer big enough to handle the list
   3424            pRcvdMsg = (ZDO_ParentAnnce_t *)osal_mem_alloc(
   3425                       (sizeof(ZDO_ParentAnnce_t) + (numChildren * sizeof(ZDO_ChildInfo_t))));
   \                     ??CrossCallReturnLabel_95:
   \   000008                ; Setup parameters for call to function osal_mem_alloc
   \   000008   75F00C       MOV     B,#0xc
   \   00000B   A4           MUL     AB
   \   00000C   A9F0         MOV     R1,B
   \   00000E   2401         ADD     A,#0x1
   \   000010   FA           MOV     R2,A
   \   000011   E4           CLR     A
   \   000012   39           ADDC    A,R1
   \   000013   FB           MOV     R3,A
   \   000014   12....       LCALL   ??osal_mem_alloc?relay; Banked call to: osal_mem_alloc
   \   000017   8A..         MOV     ?V4,R2
   \   000019   8B..         MOV     ?V5,R3
   3426          
   3427            if ( pRcvdMsg )
   \   00001B   EA           MOV     A,R2
   \   00001C   45..         ORL     A,?V5
   \   00001E   6064         JZ      ??ZDO_ParseParentAnnce_0
   3428            {
   3429              uint8 x;
   3430              ZDO_ChildInfo_t *pList = pRcvdMsg->childInfo;
   \   000020   8A82         MOV     DPL,R2
   \   000022   8B83         MOV     DPH,R3
   \   000024   A3           INC     DPTR
   \   000025   8582..       MOV     ?V0,DPL
   \   000028   8583..       MOV     ?V1,DPH
   3431          
   3432              pRcvdMsg->numOfChildren = numChildren;
   \   00002B   8A82         MOV     DPL,R2
   \   00002D   8B83         MOV     DPH,R3
   \   00002F   E5..         MOV     A,?V3
   \   000031   F0           MOVX    @DPTR,A
   3433          
   3434              for ( x = 0; x < numChildren; x++ )
   \   000032   75..00       MOV     ?V2,#0x0
   \   000035   8046         SJMP    ??ZDO_ParseParentAnnce_1
   3435              {
   3436                osal_cpyExtAddr( pList->extAddr, msg );
   \                     ??ZDO_ParseParentAnnce_2:
   \   000037                ; Setup parameters for call to function sAddrExtCpy
   \   000037   EE           MOV     A,R6
   \   000038   FC           MOV     R4,A
   \   000039   EF           MOV     A,R7
   \   00003A   FD           MOV     R5,A
   \   00003B   AA..         MOV     R2,?V0
   \   00003D   AB..         MOV     R3,?V1
   \   00003F   12....       LCALL   ??sAddrExtCpy?relay  ; Banked call to: sAddrExtCpy
   3437                msg += Z_EXTADDR_LEN;
   \   000042   EE           MOV     A,R6
   \   000043   2408         ADD     A,#0x8
   \   000045   FE           MOV     R6,A
   \   000046   5001         JNC     ??ZDO_ParseParentAnnce_3
   \   000048   0F           INC     R7
   3438          
   3439                pList->age = osal_build_uint32( msg, 4 );
   \                     ??ZDO_ParseParentAnnce_3:
   \   000049                ; Setup parameters for call to function osal_build_uint32
   \   000049   7904         MOV     R1,#0x4
   \   00004B   FA           MOV     R2,A
   \   00004C   EF           MOV     A,R7
   \   00004D   FB           MOV     R3,A
   \   00004E   12....       LCALL   ??osal_build_uint32?relay; Banked call to: osal_build_uint32
   \   000051   EA           MOV     A,R2
   \   000052   F8           MOV     R0,A
   \   000053   EB           MOV     A,R3
   \   000054   F9           MOV     R1,A
   \   000055   EC           MOV     A,R4
   \   000056   FA           MOV     R2,A
   \   000057   ED           MOV     A,R5
   \   000058   FB           MOV     R3,A
   \   000059   85..82       MOV     DPL,?V0
   \   00005C   85..83       MOV     DPH,?V1
   \   00005F   A3           INC     DPTR
   \   000060   A3           INC     DPTR
   \   000061   A3           INC     DPTR
   \   000062   A3           INC     DPTR
   \   000063   A3           INC     DPTR
   \   000064   A3           INC     DPTR
   \   000065   A3           INC     DPTR
   \   000066   A3           INC     DPTR
   \   000067   12....       LCALL   ?XSTORE_R0123
   3440                msg += 4;
   \   00006A   EE           MOV     A,R6
   \   00006B   2404         ADD     A,#0x4
   \   00006D   FE           MOV     R6,A
   \   00006E   5001         JNC     ??ZDO_ParseParentAnnce_4
   \   000070   0F           INC     R7
   3441          
   3442                pList++;
   \                     ??ZDO_ParseParentAnnce_4:
   \   000071   E5..         MOV     A,?V0
   \   000073   240C         ADD     A,#0xc
   \   000075   F5..         MOV     ?V0,A
   \   000077   5002         JNC     ??ZDO_ParseParentAnnce_5
   \   000079   05..         INC     ?V1
   3443              }
   \                     ??ZDO_ParseParentAnnce_5:
   \   00007B   05..         INC     ?V2
   \                     ??ZDO_ParseParentAnnce_1:
   \   00007D   E5..         MOV     A,?V2
   \   00007F   C3           CLR     C
   \   000080   95..         SUBB    A,?V3
   \   000082   40B3         JC      ??ZDO_ParseParentAnnce_2
   3444            }
   3445          
   3446            return ( pRcvdMsg );
   \                     ??ZDO_ParseParentAnnce_0:
   \   000084   AA..         MOV     R2,?V4
   \   000086   AB..         MOV     R3,?V5
   \   000088   02....       LJMP    ?Subroutine4 & 0xFFFF
   3447          }
   3448          
   3449          /*********************************************************************
   3450           * @fn          ZDO_ParseMgmtNwkUpdateNotify
   3451           *
   3452           * @brief       This function handles parsing of the incoming Management
   3453           *              Network Update notify.
   3454           *
   3455           * @param       inMsg - incoming message (request)
   3456           *
   3457           * @return      a pointer to parsed response structure (NULL if not allocated).
   3458           *          This structure was allocated using osal_mem_alloc, so it must be freed
   3459           *          by the calling function [osal_mem_free()].
   3460           */

   \                                 In  segment BANKED_CODE, align 1, keep-with-next
   3461          ZDO_MgmtNwkUpdateNotify_t *ZDO_ParseMgmtNwkUpdateNotify( zdoIncomingMsg_t *inMsg )
   \                     ZDO_ParseMgmtNwkUpdateNotify:
   3462          {
   \   000000                REQUIRE ?V0
   \   000000                REQUIRE ?V1
   \   000000                REQUIRE ?V2
   \   000000                REQUIRE ?V3
   \   000000                REQUIRE ?V4
   \   000000                REQUIRE ?V5
   \   000000                REQUIRE ?V6
   \   000000                REQUIRE ?V7
   \   000000                REQUIRE ?V8
   \   000000                REQUIRE ?V9
   \   000000                REQUIRE ?V10
   \   000000                REQUIRE ?V11
   \   000000                REQUIRE ?V12
   \   000000                REQUIRE ?V13
   \   000000                REQUIRE ?V14
   \   000000                REQUIRE ?V15
   \   000000   74E8         MOV     A,#-0x18
   \   000002   12....       LCALL   ?BANKED_ENTER_XDATA
   \   000005                ; Saved register size: 24
   \   000005                ; Auto size: 0
   3463            uint8 status;
   3464            uint32 scannedChannels = 0;
   \   000005   75..00       MOV     ?V4,#0x0
   \   000008   75..00       MOV     ?V5,#0x0
   \   00000B   75..00       MOV     ?V6,#0x0
   \   00000E   75..00       MOV     ?V7,#0x0
   3465            uint16 totalTransmissions = 0;
   \   000011   75..00       MOV     ?V0,#0x0
   \   000014   75..00       MOV     ?V1,#0x0
   3466            uint16 transmissionFailures = 0;
   \   000017   75..00       MOV     ?V2,#0x0
   \   00001A   75..00       MOV     ?V3,#0x0
   3467            uint8 listCount = 0;
   \   00001D   75..00       MOV     ?V10,#0x0
   3468            uint8 *msg = inMsg->asdu;
   \   000020   12....       LCALL   ?Subroutine84 & 0xFFFF
   \                     ??CrossCallReturnLabel_143:
   \   000023   F5..         MOV     ?V8,A
   \   000025   A3           INC     DPTR
   \   000026   E0           MOVX    A,@DPTR
   3469            ZDO_MgmtNwkUpdateNotify_t *pRsp;
   3470          
   3471            status = *msg++;
   \   000027   85..82       MOV     DPL,?V8
   \   00002A   F583         MOV     DPH,A
   \   00002C   E0           MOVX    A,@DPTR
   \   00002D   F5..         MOV     ?V11,A
   \   00002F   A3           INC     DPTR
   \   000030   8582..       MOV     ?V8,DPL
   \   000033   8583..       MOV     ?V9,DPH
   3472            if ( status == ZSuccess )
   \   000036   704E         JNZ     ??ZDO_ParseMgmtNwkUpdateNotify_0
   3473            {
   3474              scannedChannels = osal_build_uint32( msg, 4 );
   \   000038                ; Setup parameters for call to function osal_build_uint32
   \   000038   7904         MOV     R1,#0x4
   \   00003A   AA..         MOV     R2,?V8
   \   00003C   AB..         MOV     R3,?V9
   \   00003E   12....       LCALL   ??osal_build_uint32?relay; Banked call to: osal_build_uint32
   \   000041   8A..         MOV     ?V4,R2
   \   000043   8B..         MOV     ?V5,R3
   \   000045   8C..         MOV     ?V6,R4
   \   000047   8D..         MOV     ?V7,R5
   3475              msg += 4;
   \   000049   E5..         MOV     A,?V8
   \   00004B   2404         ADD     A,#0x4
   \   00004D   F5..         MOV     ?V8,A
   \   00004F   5002         JNC     ??ZDO_ParseMgmtNwkUpdateNotify_1
   \   000051   05..         INC     ?V9
   3476              totalTransmissions = BUILD_UINT16( msg[0], msg[1] );
   \                     ??ZDO_ParseMgmtNwkUpdateNotify_1:
   \   000053   12....       LCALL   ?Subroutine52 & 0xFFFF
   \                     ??CrossCallReturnLabel_427:
   \   000056   F5..         MOV     ?V0,A
   \   000058   E4           CLR     A
   \   000059   39           ADDC    A,R1
   \   00005A   F5..         MOV     ?V1,A
   3477              msg += 2;
   \   00005C   E5..         MOV     A,?V8
   \   00005E   2402         ADD     A,#0x2
   \   000060   F5..         MOV     ?V8,A
   \   000062   5002         JNC     ??ZDO_ParseMgmtNwkUpdateNotify_2
   \   000064   05..         INC     ?V9
   3478              transmissionFailures = BUILD_UINT16( msg[0], msg[1] );
   \                     ??ZDO_ParseMgmtNwkUpdateNotify_2:
   \   000066   12....       LCALL   ?Subroutine52 & 0xFFFF
   \                     ??CrossCallReturnLabel_428:
   \   000069   F5..         MOV     ?V2,A
   \   00006B   E4           CLR     A
   \   00006C   39           ADDC    A,R1
   \   00006D   F5..         MOV     ?V3,A
   3479              msg += 2;
   \   00006F   E5..         MOV     A,?V8
   \   000071   2402         ADD     A,#0x2
   \   000073   5002         JNC     ??ZDO_ParseMgmtNwkUpdateNotify_3
   \   000075   05..         INC     ?V9
   3480              listCount = *msg++;
   \                     ??ZDO_ParseMgmtNwkUpdateNotify_3:
   \   000077   F582         MOV     DPL,A
   \   000079   85..83       MOV     DPH,?V9
   \   00007C   E0           MOVX    A,@DPTR
   \   00007D   F5..         MOV     ?V10,A
   \   00007F   A3           INC     DPTR
   \   000080   8582..       MOV     ?V8,DPL
   \   000083   8583..       MOV     ?V9,DPH
   3481            }
   3482          
   3483            pRsp = (ZDO_MgmtNwkUpdateNotify_t *)osal_mem_alloc( sizeof ( ZDO_MgmtNwkUpdateNotify_t ) + listCount );
   \                     ??ZDO_ParseMgmtNwkUpdateNotify_0:
   \   000086   AE..         MOV     R6,?V10
   \   000088                ; Setup parameters for call to function osal_mem_alloc
   \   000088   EE           MOV     A,R6
   \   000089   240A         ADD     A,#0xa
   \   00008B   FA           MOV     R2,A
   \   00008C   E4           CLR     A
   \   00008D   3400         ADDC    A,#0x0
   \   00008F   FB           MOV     R3,A
   \   000090   12....       LCALL   ??osal_mem_alloc?relay; Banked call to: osal_mem_alloc
   \   000093   8A..         MOV     ?V14,R2
   \   000095   8B..         MOV     ?V15,R3
   3484          
   3485            if ( pRsp )
   \   000097   EA           MOV     A,R2
   \   000098   45..         ORL     A,?V15
   \   00009A   604A         JZ      ??ZDO_ParseMgmtNwkUpdateNotify_4
   3486            {
   3487              pRsp->status = status;
   \   00009C   8A82         MOV     DPL,R2
   \   00009E   8B83         MOV     DPH,R3
   \   0000A0   E5..         MOV     A,?V11
   \   0000A2   F0           MOVX    @DPTR,A
   3488              pRsp->scannedChannels = scannedChannels;
   \   0000A3   A3           INC     DPTR
   \   0000A4   78..         MOV     R0,#?V4
   \   0000A6   12....       LCALL   ?L_MOV_TO_X
   3489              pRsp->totalTransmissions = totalTransmissions;
   \   0000A9   8A82         MOV     DPL,R2
   \   0000AB   8B83         MOV     DPH,R3
   \   0000AD   A3           INC     DPTR
   \   0000AE   A3           INC     DPTR
   \   0000AF   A3           INC     DPTR
   \   0000B0   A3           INC     DPTR
   \   0000B1   A3           INC     DPTR
   \   0000B2   E5..         MOV     A,?V0
   \   0000B4   F0           MOVX    @DPTR,A
   \   0000B5   A3           INC     DPTR
   \   0000B6   E5..         MOV     A,?V1
   \   0000B8   12....       LCALL   ?Subroutine17 & 0xFFFF
   3490              pRsp->transmissionFailures = transmissionFailures;
   \                     ??CrossCallReturnLabel_21:
   \   0000BB   E5..         MOV     A,?V2
   \   0000BD   F0           MOVX    @DPTR,A
   \   0000BE   A3           INC     DPTR
   \   0000BF   E5..         MOV     A,?V3
   \   0000C1   12....       LCALL   ?Subroutine17 & 0xFFFF
   3491              pRsp->listCount = listCount;
   \                     ??CrossCallReturnLabel_22:
   \   0000C4   A3           INC     DPTR
   \   0000C5   A3           INC     DPTR
   \   0000C6   EE           MOV     A,R6
   \   0000C7   F0           MOVX    @DPTR,A
   3492          
   3493              // Allocate a buffer big enough to handle the list.
   3494              if ( listCount > 0 )
   \   0000C8   601C         JZ      ??ZDO_ParseMgmtNwkUpdateNotify_4
   3495              {
   3496                osal_memcpy( pRsp->energyValues, msg, listCount );
   \   0000CA                ; Setup parameters for call to function osal_memcpy
   \   0000CA   75..00       MOV     ?V10,#0x0
   \   0000CD   78..         MOV     R0,#?V8
   \   0000CF   12....       LCALL   ?PUSH_XSTACK_I_THREE
   \   0000D2   EE           MOV     A,R6
   \   0000D3   FC           MOV     R4,A
   \   0000D4   7D00         MOV     R5,#0x0
   \   0000D6   EA           MOV     A,R2
   \   0000D7   240A         ADD     A,#0xa
   \   0000D9   FA           MOV     R2,A
   \   0000DA   E4           CLR     A
   \   0000DB   35..         ADDC    A,?V15
   \   0000DD   FB           MOV     R3,A
   \   0000DE   12....       LCALL   ??osal_memcpy?relay  ; Banked call to: osal_memcpy
   \   0000E1   7403         MOV     A,#0x3
   \   0000E3   12....       LCALL   ?DEALLOC_XSTACK8
   3497              }
   3498            }
   3499          
   3500            return ( pRsp );
   \                     ??ZDO_ParseMgmtNwkUpdateNotify_4:
   \   0000E6   AA..         MOV     R2,?V14
   \   0000E8   AB..         MOV     R3,?V15
   \   0000EA   02....       LJMP    ??Subroutine147_0 & 0xFFFF
   3501          }

   \                                 In  segment BANKED_CODE, align 1, keep-with-next
   \                     ?Subroutine52:
   \   000000   F582         MOV     DPL,A
   \   000002   85..83       MOV     DPH,?V9
   \   000005                REQUIRE ??Subroutine171_0
   \   000005                ; // Fall through to label ??Subroutine171_0
   3502          
   3503          /*********************************************************************
   3504           * @fn          ZDO_ParseMgmtNwkUpdateReq
   3505           *
   3506           * @brief       This function handles parsing the incoming Management
   3507           *              Network Update request and starts the request (if needed).
   3508           *
   3509           * @param       inMsg - incoming message (request)
   3510           * @param       pReq - pointer to place to parse message to
   3511           *
   3512           * @return      none
   3513           */

   \                                 In  segment BANKED_CODE, align 1, keep-with-next
   3514          void ZDO_ParseMgmtNwkUpdateReq( zdoIncomingMsg_t *inMsg, ZDO_MgmtNwkUpdateReq_t *pReq )
   \                     ZDO_ParseMgmtNwkUpdateReq:
   3515          {
   \   000000                REQUIRE ?V0
   \   000000                REQUIRE ?V1
   \   000000   74F6         MOV     A,#-0xa
   \   000002   12....       LCALL   ?BANKED_ENTER_XDATA
   \   000005                ; Saved register size: 10
   \   000005                ; Auto size: 0
   \   000005   8C..         MOV     ?V0,R4
   \   000007   8D..         MOV     ?V1,R5
   3516            uint8 *msg = inMsg->asdu;
   \   000009   12....       LCALL   ?Subroutine86 & 0xFFFF
   \                     ??CrossCallReturnLabel_150:
   \   00000C   12....       LCALL   ?Subroutine65 & 0xFFFF
   3517          
   3518            pReq->channelMask = osal_build_uint32( msg, 4 );
   \                     ??CrossCallReturnLabel_111:
   \   00000F   12....       LCALL   ??osal_build_uint32?relay; Banked call to: osal_build_uint32
   \   000012   EA           MOV     A,R2
   \   000013   F8           MOV     R0,A
   \   000014   EB           MOV     A,R3
   \   000015   F9           MOV     R1,A
   \   000016   EC           MOV     A,R4
   \   000017   FA           MOV     R2,A
   \   000018   ED           MOV     A,R5
   \   000019   FB           MOV     R3,A
   \   00001A   85..82       MOV     DPL,?V0
   \   00001D   85..83       MOV     DPH,?V1
   \   000020   12....       LCALL   ?XSTORE_R0123
   3519            msg += 4;
   \   000023   EE           MOV     A,R6
   \   000024   2404         ADD     A,#0x4
   \   000026   FE           MOV     R6,A
   \   000027   5001         JNC     ??ZDO_ParseMgmtNwkUpdateReq_0
   \   000029   0F           INC     R7
   3520            pReq->scanDuration = *msg++;
   \                     ??ZDO_ParseMgmtNwkUpdateReq_0:
   \   00002A   8E82         MOV     DPL,R6
   \   00002C   8F83         MOV     DPH,R7
   \   00002E   E0           MOVX    A,@DPTR
   \   00002F   FA           MOV     R2,A
   \   000030   E5..         MOV     A,?V0
   \   000032   2404         ADD     A,#0x4
   \   000034   F8           MOV     R0,A
   \   000035   E4           CLR     A
   \   000036   35..         ADDC    A,?V1
   \   000038   F9           MOV     R1,A
   \   000039   EA           MOV     A,R2
   \   00003A   8882         MOV     DPL,R0
   \   00003C   8983         MOV     DPH,R1
   \   00003E   12....       LCALL   ?Subroutine25 & 0xFFFF
   3521          
   3522            if ( pReq->scanDuration <= 0x05 )
   \                     ??CrossCallReturnLabel_38:
   \   000041   C3           CLR     C
   \   000042   9406         SUBB    A,#0x6
   \   000044   5005         JNC     ??ZDO_ParseMgmtNwkUpdateReq_1
   3523            {
   3524              // Request is to scan over channelMask
   3525              pReq->scanCount = *msg;
   \   000046   12....       LCALL   ?Subroutine133 & 0xFFFF
   3526            }
   \                     ??CrossCallReturnLabel_242:
   \   000049   801E         SJMP    ??ZDO_ParseMgmtNwkUpdateReq_2
   3527            else if ( ( pReq->scanDuration == 0xFE ) || ( pReq->scanDuration == 0xFF ) )
   \                     ??ZDO_ParseMgmtNwkUpdateReq_1:
   \   00004B   74FE         MOV     A,#-0x2
   \   00004D   6A           XRL     A,R2
   \   00004E   6005         JZ      ??ZDO_ParseMgmtNwkUpdateReq_3
   \   000050   74FF         MOV     A,#-0x1
   \   000052   6A           XRL     A,R2
   \   000053   7015         JNZ     ??ZDO_ParseMgmtNwkUpdateReq_4
   3528            {
   3529              // Request is to change Channel (0xFE) or apsChannelMask and NwkManagerAddr (0xFF)
   3530              pReq->nwkUpdateId = *msg++;
   \                     ??ZDO_ParseMgmtNwkUpdateReq_3:
   \   000055   12....       LCALL   ?Subroutine56 & 0xFFFF
   \                     ??CrossCallReturnLabel_101:
   \   000058   12....       LCALL   ?Subroutine34 & 0xFFFF
   3531          
   3532              if ( pReq->scanDuration == 0xFF )
   \                     ??CrossCallReturnLabel_52:
   \   00005B   8882         MOV     DPL,R0
   \   00005D   8983         MOV     DPH,R1
   \   00005F   E0           MOVX    A,@DPTR
   \   000060   F4           CPL     A
   \   000061   7007         JNZ     ??ZDO_ParseMgmtNwkUpdateReq_4
   3533              {
   3534                pReq->nwkManagerAddr = BUILD_UINT16( msg[0], msg[1] );
   \   000063   12....       LCALL   ?Subroutine48 & 0xFFFF
   3535              }
   3536            }
   \                     ??CrossCallReturnLabel_93:
   \   000066   F0           MOVX    @DPTR,A
   \   000067   A3           INC     DPTR
   \   000068   E9           MOV     A,R1
   \                     ??ZDO_ParseMgmtNwkUpdateReq_2:
   \   000069   F0           MOVX    @DPTR,A
   3537          }
   \                     ??ZDO_ParseMgmtNwkUpdateReq_4:
   \   00006A   02....       LJMP    ??Subroutine141_0 & 0xFFFF

   \                                 In  segment XDATA_ID, align 1, keep-with-next
   \                     `?<Initializer for zdpExternalStateTaskID>`:
   \   000000   FFFF         DW -1

   \                                 In  segment XDATA_ROM_C, align 1
   \                     __Constant_3e8:
   \   000000   E8030000     DD 1000

   \                                 In  segment XDATA_ROM_C, align 1
   \                     __Constant_0:
   \   000000   00000000     DD 0

   \                                 In  segment BANK_RELAYS, align 1
   \                     ??ZDO_Init?relay:
   \   000000   12....       LCALL   ?BDISPATCH
   \   000003   ......       DC24    ZDO_Init

   \                                 In  segment BANK_RELAYS, align 1
   \                     ??ZDO_StartDevice?relay:
   \   000000   12....       LCALL   ?BDISPATCH
   \   000003   ......       DC24    ZDO_StartDevice

   \                                 In  segment BANK_RELAYS, align 1
   \                     ??zdoSendStateChangeMsg?relay:
   \   000000   12....       LCALL   ?BDISPATCH
   \   000003   ......       DC24    zdoSendStateChangeMsg

   \                                 In  segment BANK_RELAYS, align 1
   \                     ??ZDO_UpdateNwkStatus?relay:
   \   000000   12....       LCALL   ?BDISPATCH
   \   000003   ......       DC24    ZDO_UpdateNwkStatus

   \                                 In  segment BANK_RELAYS, align 1
   \                     ??ZDO_AnyClusterMatches?relay:
   \   000000   12....       LCALL   ?BDISPATCH
   \   000003   ......       DC24    ZDO_AnyClusterMatches

   \                                 In  segment BANK_RELAYS, align 1
   \                     ??ZDO_ProcessNodeDescReq?relay:
   \   000000   12....       LCALL   ?BDISPATCH
   \   000003   ......       DC24    ZDO_ProcessNodeDescReq

   \                                 In  segment BANK_RELAYS, align 1
   \                     ??ZDO_ProcessPowerDescReq?relay:
   \   000000   12....       LCALL   ?BDISPATCH
   \   000003   ......       DC24    ZDO_ProcessPowerDescReq

   \                                 In  segment BANK_RELAYS, align 1
   \                     ??ZDO_ProcessSimpleDescReq?relay:
   \   000000   12....       LCALL   ?BDISPATCH
   \   000003   ......       DC24    ZDO_ProcessSimpleDescReq

   \                                 In  segment BANK_RELAYS, align 1
   \                     ??ZDO_ProcessActiveEPReq?relay:
   \   000000   12....       LCALL   ?BDISPATCH
   \   000003   ......       DC24    ZDO_ProcessActiveEPReq

   \                                 In  segment BANK_RELAYS, align 1
   \                     ??ZDO_ConvertOTAClusters?relay:
   \   000000   12....       LCALL   ?BDISPATCH
   \   000003   ......       DC24    ZDO_ConvertOTAClusters

   \                                 In  segment BANK_RELAYS, align 1
   \                     ??ZDO_ProcessMatchDescReq?relay:
   \   000000   12....       LCALL   ?BDISPATCH
   \   000003   ......       DC24    ZDO_ProcessMatchDescReq

   \                                 In  segment BANK_RELAYS, align 1
   \                     ??ZDO_ProcessBindUnbindReq?relay:
   \   000000   12....       LCALL   ?BDISPATCH
   \   000003   ......       DC24    ZDO_ProcessBindUnbindReq

   \                                 In  segment BANK_RELAYS, align 1
   \                     ??ZDO_UpdateAddrManager?relay:
   \   000000   12....       LCALL   ?BDISPATCH
   \   000003   ......       DC24    ZDO_UpdateAddrManager

   \                                 In  segment BANK_RELAYS, align 1
   \                     ??ZDO_ProcessServerDiscReq?relay:
   \   000000   12....       LCALL   ?BDISPATCH
   \   000003   ......       DC24    ZDO_ProcessServerDiscReq

   \                                 In  segment BANK_RELAYS, align 1
   \                     ??ZDO_EndDeviceTimeoutCB?relay:
   \   000000   12....       LCALL   ?BDISPATCH
   \   000003   ......       DC24    ZDO_EndDeviceTimeoutCB

   \                                 In  segment BANK_RELAYS, align 1
   \                     ??ZDO_ProcessMgmtLqiReq?relay:
   \   000000   12....       LCALL   ?BDISPATCH
   \   000003   ......       DC24    ZDO_ProcessMgmtLqiReq

   \                                 In  segment BANK_RELAYS, align 1
   \                     ??ZDO_ProcessMgmtNwkDiscReq?relay:
   \   000000   12....       LCALL   ?BDISPATCH
   \   000003   ......       DC24    ZDO_ProcessMgmtNwkDiscReq

   \                                 In  segment BANK_RELAYS, align 1
   \                     ??ZDO_ProcessMgmtRtgReq?relay:
   \   000000   12....       LCALL   ?BDISPATCH
   \   000003   ......       DC24    ZDO_ProcessMgmtRtgReq

   \                                 In  segment BANK_RELAYS, align 1
   \                     ??ZDO_ProcessMgmtBindReq?relay:
   \   000000   12....       LCALL   ?BDISPATCH
   \   000003   ......       DC24    ZDO_ProcessMgmtBindReq

   \                                 In  segment BANK_RELAYS, align 1
   \                     ??ZDO_ProcessMgmtDirectJoinReq?relay:
   \   000000   12....       LCALL   ?BDISPATCH
   \   000003   ......       DC24    ZDO_ProcessMgmtDirectJoinReq

   \                                 In  segment BANK_RELAYS, align 1
   \                     ??ZDO_ProcessMgmtLeaveReq?relay:
   \   000000   12....       LCALL   ?BDISPATCH
   \   000003   ......       DC24    ZDO_ProcessMgmtLeaveReq

   \                                 In  segment BANK_RELAYS, align 1
   \                     ??ZDO_ProcessMgmtPermitJoinReq?relay:
   \   000000   12....       LCALL   ?BDISPATCH
   \   000003   ......       DC24    ZDO_ProcessMgmtPermitJoinReq

   \                                 In  segment BANK_RELAYS, align 1
   \                     ??NLME_PermitJoiningTimeout?relay:
   \   000000   12....       LCALL   ?BDISPATCH
   \   000003   ......       DC24    NLME_PermitJoiningTimeout

   \                                 In  segment BANK_RELAYS, align 1
   \                     ??ZDO_ProcessUserDescReq?relay:
   \   000000   12....       LCALL   ?BDISPATCH
   \   000003   ......       DC24    ZDO_ProcessUserDescReq

   \                                 In  segment BANK_RELAYS, align 1
   \                     ??ZDO_ProcessUserDescSet?relay:
   \   000000   12....       LCALL   ?BDISPATCH
   \   000003   ......       DC24    ZDO_ProcessUserDescSet

   \                                 In  segment BANK_RELAYS, align 1
   \                     ??ZDO_ProcessDeviceAnnce?relay:
   \   000000   12....       LCALL   ?BDISPATCH
   \   000003   ......       DC24    ZDO_ProcessDeviceAnnce

   \                                 In  segment BANK_RELAYS, align 1
   \                     ??ZDO_ProcessParentAnnce?relay:
   \   000000   12....       LCALL   ?BDISPATCH
   \   000003   ......       DC24    ZDO_ProcessParentAnnce

   \                                 In  segment BANK_RELAYS, align 1
   \                     ??ZDO_ProcessParentAnnceRsp?relay:
   \   000000   12....       LCALL   ?BDISPATCH
   \   000003   ......       DC24    ZDO_ProcessParentAnnceRsp

   \                                 In  segment BANK_RELAYS, align 1
   \                     ??ZDO_BuildSimpleDescBuf?relay:
   \   000000   12....       LCALL   ?BDISPATCH
   \   000003   ......       DC24    ZDO_BuildSimpleDescBuf

   \                                 In  segment BANK_RELAYS, align 1
   \                     ??ZDO_ParseEndDeviceBindReq?relay:
   \   000000   12....       LCALL   ?BDISPATCH
   \   000003   ......       DC24    ZDO_ParseEndDeviceBindReq

   \                                 In  segment BANK_RELAYS, align 1
   \                     ??ZDO_ParseBindUnbindReq?relay:
   \   000000   12....       LCALL   ?BDISPATCH
   \   000003   ......       DC24    ZDO_ParseBindUnbindReq

   \                                 In  segment BANK_RELAYS, align 1
   \                     ??ZDO_ParseAddrRsp?relay:
   \   000000   12....       LCALL   ?BDISPATCH
   \   000003   ......       DC24    ZDO_ParseAddrRsp

   \                                 In  segment BANK_RELAYS, align 1
   \                     ??ZDO_ParseNodeDescRsp?relay:
   \   000000   12....       LCALL   ?BDISPATCH
   \   000003   ......       DC24    ZDO_ParseNodeDescRsp

   \                                 In  segment BANK_RELAYS, align 1
   \                     ??ZDO_ParsePowerDescRsp?relay:
   \   000000   12....       LCALL   ?BDISPATCH
   \   000003   ......       DC24    ZDO_ParsePowerDescRsp

   \                                 In  segment BANK_RELAYS, align 1
   \                     ??ZDO_ParseSimpleDescRsp?relay:
   \   000000   12....       LCALL   ?BDISPATCH
   \   000003   ......       DC24    ZDO_ParseSimpleDescRsp

   \                                 In  segment BANK_RELAYS, align 1
   \                     ??ZDO_ParseEPListRsp?relay:
   \   000000   12....       LCALL   ?BDISPATCH
   \   000003   ......       DC24    ZDO_ParseEPListRsp

   \                                 In  segment BANK_RELAYS, align 1
   \                     ??ZDO_ParseServerDiscRsp?relay:
   \   000000   12....       LCALL   ?BDISPATCH
   \   000003   ......       DC24    ZDO_ParseServerDiscRsp

   \                                 In  segment BANK_RELAYS, align 1
   \                     ??ZDO_ParseMgmtLqiRsp?relay:
   \   000000   12....       LCALL   ?BDISPATCH
   \   000003   ......       DC24    ZDO_ParseMgmtLqiRsp

   \                                 In  segment BANK_RELAYS, align 1
   \                     ??ZDO_ParseMgmNwkDiscRsp?relay:
   \   000000   12....       LCALL   ?BDISPATCH
   \   000003   ......       DC24    ZDO_ParseMgmNwkDiscRsp

   \                                 In  segment BANK_RELAYS, align 1
   \                     ??ZDO_ParseMgmtRtgRsp?relay:
   \   000000   12....       LCALL   ?BDISPATCH
   \   000003   ......       DC24    ZDO_ParseMgmtRtgRsp

   \                                 In  segment BANK_RELAYS, align 1
   \                     ??ZDO_ParseMgmtBindRsp?relay:
   \   000000   12....       LCALL   ?BDISPATCH
   \   000003   ......       DC24    ZDO_ParseMgmtBindRsp

   \                                 In  segment BANK_RELAYS, align 1
   \                     ??ZDO_ParseUserDescRsp?relay:
   \   000000   12....       LCALL   ?BDISPATCH
   \   000003   ......       DC24    ZDO_ParseUserDescRsp

   \                                 In  segment BANK_RELAYS, align 1
   \                     ??ZDO_ParseSimpleDescBuf?relay:
   \   000000   12....       LCALL   ?BDISPATCH
   \   000003   ......       DC24    ZDO_ParseSimpleDescBuf

   \                                 In  segment BANK_RELAYS, align 1
   \                     ??ZDO_ParseDeviceAnnce?relay:
   \   000000   12....       LCALL   ?BDISPATCH
   \   000003   ......       DC24    ZDO_ParseDeviceAnnce

   \                                 In  segment BANK_RELAYS, align 1
   \                     ??ZDO_ParseParentAnnce?relay:
   \   000000   12....       LCALL   ?BDISPATCH
   \   000003   ......       DC24    ZDO_ParseParentAnnce

   \                                 In  segment BANK_RELAYS, align 1
   \                     ??ZDO_ParseMgmtNwkUpdateNotify?relay:
   \   000000   12....       LCALL   ?BDISPATCH
   \   000003   ......       DC24    ZDO_ParseMgmtNwkUpdateNotify

   \                                 In  segment BANK_RELAYS, align 1
   \                     ??ZDO_ParseMgmtNwkUpdateReq?relay:
   \   000000   12....       LCALL   ?BDISPATCH
   \   000003   ......       DC24    ZDO_ParseMgmtNwkUpdateReq
   3538          
   3539          /*********************************************************************
   3540          *********************************************************************/

   Maximum stack usage in bytes:

   ISTACK XSTACK Function
   ------ ------ --------
      0      0   NLME_PermitJoiningTimeout
      0     43   ZDO_AnyClusterMatches
      1     14   ZDO_BuildSimpleDescBuf
      0     39   ZDO_ConvertOTAClusters
      1     17   ZDO_EndDeviceTimeoutCB
        0     17   -> ZDP_SendData
        0     12   -> osal_mem_free
      2      0   ZDO_Init
        2      0   -> APS_ReflectorInit
        2      0   -> NLME_DeviceJoiningInit
        2      0   -> sAddrExtCpy
      1     14   ZDO_ParseAddrRsp
        0     14   -> osal_mem_alloc
        0     14   -> sAddrExtCpy
      1     10   ZDO_ParseBindUnbindReq
        0     10   -> sAddrExtCpy
      1     52   ZDO_ParseDeviceAnnce
        0     10   -> sAddrExtCpy
      1     19   ZDO_ParseEPListRsp
        0     16   -> osal_mem_alloc
        0     19   -> osal_memcpy
      1     18   ZDO_ParseEndDeviceBindReq
        0     18   -> ZDO_ConvertOTAClusters
        0     18   -> osal_mem_alloc
        0     18   -> sAddrExtCpy
      1     16   ZDO_ParseMgmNwkDiscRsp
        0     16   -> osal_mem_alloc
        0     16   -> sAddrExtCpy
      1     18   ZDO_ParseMgmtBindRsp
        0     18   -> osal_mem_alloc
        0     18   -> sAddrExtCpy
      1     16   ZDO_ParseMgmtLqiRsp
        0     16   -> osal_mem_alloc
        0     16   -> sAddrExtCpy
      1     27   ZDO_ParseMgmtNwkUpdateNotify
        0     24   -> osal_build_uint32
        0     24   -> osal_mem_alloc
        0     27   -> osal_memcpy
      1     10   ZDO_ParseMgmtNwkUpdateReq
        0     10   -> osal_build_uint32
      1     14   ZDO_ParseMgmtRtgRsp
        0     14   -> osal_mem_alloc
      2     11   ZDO_ParseNodeDescRsp
      1     49   ZDO_ParseParentAnnce
        0     14   -> osal_build_uint32
        0     14   -> osal_mem_alloc
        0     14   -> sAddrExtCpy
      1     10   ZDO_ParsePowerDescRsp
      1      9   ZDO_ParseServerDiscRsp
      1     25   ZDO_ParseSimpleDescBuf
        0     16   -> osal_mem_alloc
        0     16   -> osal_mem_free
      1      9   ZDO_ParseSimpleDescRsp
        0      9   -> ZDO_ParseSimpleDescBuf
      1     19   ZDO_ParseUserDescRsp
        0     16   -> osal_mem_alloc
        0     19   -> osal_memcpy
      0     21   ZDO_ProcessActiveEPReq
        0     14   -> NLME_GetShortAddr
        0     21   -> ZDP_EPRsp
        0     14   -> afEndPoints
        0     14   -> afNumEndPoints
      1     41   ZDO_ProcessBindUnbindReq
        0     37   -> APSME_BindRequest
        0     36   -> APSME_LookupNwkAddr
        0     37   -> APSME_UnBindRequest
        0     36   -> NLME_GetExtAddr
        0     36   -> ZDApp_GetEmptyPendingBindReq
        0     36   -> ZDApp_NVUpdate
        0     36   -> ZDP_NwkAddrReq
        0     41   -> ZDP_SendData
        0     36   -> bindAddrIndexGet
        0     39   -> osal_memcpy
        0     40   -> osal_start_timerEx
        0     36   -> sAddrExtCmp
        0     36   -> sAddrExtCpy
      0     42   ZDO_ProcessDeviceAnnce
        0     42   -> AddrMgrEntryLookupExt
        0     42   -> AddrMgrEntryLookupNwk
        0     42   -> AddrMgrEntryUpdate
        0     42   -> AddrMgrExtAddrSet
        0     42   -> NLME_CheckNewAddrSet
        0     42   -> NLME_GetCoordExtAddr
        0     42   -> NLME_GetCoordShortAddr
        0     42   -> NLME_GetExtAddr
        0     42   -> NLME_GetShortAddr
        0     42   -> RTG_RemoveRtgEntry
        0     42   -> ZDO_ParseDeviceAnnce
        0     42   -> ZMacSetReq
        0     42   -> nwkNeighborRemove
        0     42   -> nwkNeighborRemoveAllStranded
        0     42   -> osal_memset
        0     42   -> sAddrExtCmp
      1     36   ZDO_ProcessMatchDescReq
        0     29   -> NLME_IsAddressBroadcast
        0     31   -> ZDO_AnyClusterMatches
        0     29   -> ZDO_ConvertOTAClusters
        0     36   -> ZDP_EPRsp
        0     29   -> osal_mem_alloc
        0     29   -> osal_mem_free
        0     32   -> osal_memcpy
        0     29   -> osal_msg_allocate
        0     29   -> osal_msg_send
      0     25   ZDO_ProcessMgmtBindReq
        0     20   -> APSME_GetRequest
        0     25   -> ZDP_MgmtBindRsp
        0     20   -> osal_mem_alloc
        0     20   -> osal_mem_free
      1     16   ZDO_ProcessMgmtDirectJoinReq
        0     11   -> NLME_DirectJoinRequest
        0     16   -> ZDP_SendData
      1     23   ZDO_ProcessMgmtLeaveReq
        0     18   -> AddrMgrExtAddrValid
        0     18   -> NLME_GetExtAddr
        0     18   -> NLME_LeaveReq
        0     18   -> NLME_SetPollRate
        0     18   -> NLME_SetQueuedPollRate
        0     18   -> NLME_SetResponseRate
        0     23   -> ZDP_SendData
        0     18   -> sAddrExtCmp
      1     66   ZDO_ProcessMgmtLqiReq
        0     61   -> AddrMgrEntryLookupNwk
        0     61   -> AssocCount
        0     61   -> AssocFindDevice
        0     61   -> NLME_GetRequest
        0     66   -> ZDP_MgmtLqiRsp
        0     61   -> osal_mem_alloc
        0     61   -> osal_mem_free
        0     61   -> osal_memset
        0     61   -> sAddrExtCpy
      1     17   ZDO_ProcessMgmtNwkDiscReq
        0     17   -> NLME_NwkDiscReq2
        0     17   -> NLME_NwkDiscTerm
        0     17   -> osal_build_uint32
      1     16   ZDO_ProcessMgmtPermitJoinReq
        0     11   -> NLME_PermitJoiningRequest
        0     16   -> ZDP_SendData
      0     22   ZDO_ProcessMgmtRtgReq
        0     17   -> NLME_GetRequest
        0     22   -> ZDP_MgmtRtgRsp
        0     17   -> osal_mem_alloc
        0     17   -> osal_mem_free
      0     14   ZDO_ProcessNodeDescReq
        0     14   -> ZDP_GenericRsp
        0     12   -> ZDP_NodeDescMsg
      0     40   ZDO_ProcessParentAnnce
        0     35   -> AssocGetWithExt
        0     35   -> AssocRemove
        0     35   -> ZDO_ParseParentAnnce
        0     40   -> ZDP_ParentAnnce
        0     35   -> osal_mem_alloc
        0     35   -> osal_mem_free
        0     35   -> sAddrExtCpy
      0     20   ZDO_ProcessParentAnnceRsp
        0     20   -> AssocGetWithExt
        0     20   -> AssocRemove
        0     20   -> ZDO_ParseParentAnnce
        0     20   -> osal_mem_free
      0     14   ZDO_ProcessPowerDescReq
        0     14   -> ZDP_GenericRsp
        0     12   -> ZDP_PowerDescMsg
      0     14   ZDO_ProcessServerDiscReq
        0     14   -> ZDP_ServerDiscRsp
      0     12   ZDO_ProcessSimpleDescReq
        0     12   -> ZDP_SimpleDescMsg
        0     12   -> afFindSimpleDesc
        0     12   -> osal_mem_free
      0     37   ZDO_ProcessUserDescReq
        0     37   -> ZDP_GenericRsp
        0     36   -> ZDP_UserDescRsp
        0     37   -> osal_nv_read
      1     41   ZDO_ProcessUserDescSet
        0     41   -> ZDP_SendData
        0     39   -> osal_memcpy
        0     40   -> osal_nv_write
      0     25   ZDO_StartDevice
        0     21   -> NLME_NetworkDiscoveryRequest
        0     21   -> NLME_OrphanJoinRequest
        0     21   -> ZDApp_ChangeState
        0     21   -> nwk_ScanJoiningOrphan
        0     25   -> osal_start_timerEx
      2     13   ZDO_UpdateAddrManager
        2     13   -> AddrMgrEntryUpdate
        2     13   -> AddrMgrExtAddrSet
      0      9   ZDO_UpdateNwkStatus
        0      9   -> NLME_GetExtAddr
        0      9   -> NLME_GetShortAddr
        0      9   -> zdoSendStateChangeMsg
      1     19   zdoSendStateChangeMsg
        0     10   -> osal_msg_allocate
        0     10   -> osal_msg_find
        0     10   -> osal_msg_send
        0     10   -> osal_set_event


   Segment part sizes:

   Bytes  Function/Label
   -----  --------------
       2  ?<Initializer for zdpExternalStateTaskID>
       6  ??NLME_PermitJoiningTimeout?relay
       1  ??Subroutine138_0
       9  ??Subroutine139_0
       3  ??Subroutine140_0
       5  ??Subroutine141_0
       5  ??Subroutine142_0
       1  ??Subroutine143_0
       5  ??Subroutine144_0
       6  ??Subroutine145_0
       7  ??Subroutine146_0
       5  ??Subroutine147_0
       6  ??Subroutine148_0
       5  ??Subroutine149_0
       6  ??Subroutine150_0
       5  ??Subroutine151_0
       5  ??Subroutine152_0
       6  ??Subroutine153_0
       8  ??Subroutine154_0
       5  ??Subroutine155_0
       4  ??Subroutine156_0
      10  ??Subroutine157_0
       3  ??Subroutine158_0
       5  ??Subroutine159_0
       4  ??Subroutine160_0
       1  ??Subroutine161_0
       9  ??Subroutine162_0
       8  ??Subroutine163_0
       4  ??Subroutine164_0
       5  ??Subroutine165_0
       6  ??Subroutine166_0
      11  ??Subroutine167_0
       6  ??Subroutine168_0
      13  ??Subroutine169_0
       9  ??Subroutine170_0
      10  ??Subroutine171_0
       6  ??ZDO_AnyClusterMatches?relay
       6  ??ZDO_BuildSimpleDescBuf?relay
       6  ??ZDO_ConvertOTAClusters?relay
       6  ??ZDO_EndDeviceTimeoutCB?relay
       6  ??ZDO_Init?relay
       6  ??ZDO_ParseAddrRsp?relay
       6  ??ZDO_ParseBindUnbindReq?relay
       6  ??ZDO_ParseDeviceAnnce?relay
       6  ??ZDO_ParseEPListRsp?relay
       6  ??ZDO_ParseEndDeviceBindReq?relay
       6  ??ZDO_ParseMgmNwkDiscRsp?relay
       6  ??ZDO_ParseMgmtBindRsp?relay
       6  ??ZDO_ParseMgmtLqiRsp?relay
       6  ??ZDO_ParseMgmtNwkUpdateNotify?relay
       6  ??ZDO_ParseMgmtNwkUpdateReq?relay
       6  ??ZDO_ParseMgmtRtgRsp?relay
       6  ??ZDO_ParseNodeDescRsp?relay
       6  ??ZDO_ParseParentAnnce?relay
       6  ??ZDO_ParsePowerDescRsp?relay
       6  ??ZDO_ParseServerDiscRsp?relay
       6  ??ZDO_ParseSimpleDescBuf?relay
       6  ??ZDO_ParseSimpleDescRsp?relay
       6  ??ZDO_ParseUserDescRsp?relay
       6  ??ZDO_ProcessActiveEPReq?relay
       6  ??ZDO_ProcessBindUnbindReq?relay
       6  ??ZDO_ProcessDeviceAnnce?relay
       6  ??ZDO_ProcessMatchDescReq?relay
       6  ??ZDO_ProcessMgmtBindReq?relay
       6  ??ZDO_ProcessMgmtDirectJoinReq?relay
       6  ??ZDO_ProcessMgmtLeaveReq?relay
       6  ??ZDO_ProcessMgmtLqiReq?relay
       6  ??ZDO_ProcessMgmtNwkDiscReq?relay
       6  ??ZDO_ProcessMgmtPermitJoinReq?relay
       6  ??ZDO_ProcessMgmtRtgReq?relay
       6  ??ZDO_ProcessNodeDescReq?relay
       6  ??ZDO_ProcessParentAnnce?relay
       6  ??ZDO_ProcessParentAnnceRsp?relay
       6  ??ZDO_ProcessPowerDescReq?relay
       6  ??ZDO_ProcessServerDiscReq?relay
       6  ??ZDO_ProcessSimpleDescReq?relay
       6  ??ZDO_ProcessUserDescReq?relay
       6  ??ZDO_ProcessUserDescSet?relay
       6  ??ZDO_StartDevice?relay
       6  ??ZDO_UpdateAddrManager?relay
       6  ??ZDO_UpdateNwkStatus?relay
       6  ??zdoSendStateChangeMsg?relay
       7  ?Subroutine0
       2  ?Subroutine1
       5  ?Subroutine10
       7  ?Subroutine100
       3  ?Subroutine101
       4  ?Subroutine102
      10  ?Subroutine103
      10  ?Subroutine104
      13  ?Subroutine105
       9  ?Subroutine106
      20  ?Subroutine107
       7  ?Subroutine108
      10  ?Subroutine109
      39  ?Subroutine11
       9  ?Subroutine110
       1  ?Subroutine111
       8  ?Subroutine112
       6  ?Subroutine113
       7  ?Subroutine114
       9  ?Subroutine115
      20  ?Subroutine116
       5  ?Subroutine117
       6  ?Subroutine118
       4  ?Subroutine119
       2  ?Subroutine12
      11  ?Subroutine120
       6  ?Subroutine121
       6  ?Subroutine122
       6  ?Subroutine123
       9  ?Subroutine124
      11  ?Subroutine125
       6  ?Subroutine126
       5  ?Subroutine127
       4  ?Subroutine128
       1  ?Subroutine129
      27  ?Subroutine13
       1  ?Subroutine130
       7  ?Subroutine131
       9  ?Subroutine132
      13  ?Subroutine133
      13  ?Subroutine134
       6  ?Subroutine135
       5  ?Subroutine136
      10  ?Subroutine137
       7  ?Subroutine14
       4  ?Subroutine15
       6  ?Subroutine16
       8  ?Subroutine17
       4  ?Subroutine18
       7  ?Subroutine19
       5  ?Subroutine2
      12  ?Subroutine20
       6  ?Subroutine21
       1  ?Subroutine22
      17  ?Subroutine23
       7  ?Subroutine24
       4  ?Subroutine25
      24  ?Subroutine26
       5  ?Subroutine27
       4  ?Subroutine28
      11  ?Subroutine29
       5  ?Subroutine3
       7  ?Subroutine30
      11  ?Subroutine31
      12  ?Subroutine32
       3  ?Subroutine33
       4  ?Subroutine34
       4  ?Subroutine35
       4  ?Subroutine36
      10  ?Subroutine37
       9  ?Subroutine38
       6  ?Subroutine39
       5  ?Subroutine4
       4  ?Subroutine40
       6  ?Subroutine41
       4  ?Subroutine42
       4  ?Subroutine43
       6  ?Subroutine44
      17  ?Subroutine45
      30  ?Subroutine46
       4  ?Subroutine47
      21  ?Subroutine48
       2  ?Subroutine49
       3  ?Subroutine5
      14  ?Subroutine50
       3  ?Subroutine51
       5  ?Subroutine52
       8  ?Subroutine53
      11  ?Subroutine54
       7  ?Subroutine55
       4  ?Subroutine56
       2  ?Subroutine57
      13  ?Subroutine58
      15  ?Subroutine59
       4  ?Subroutine6
      17  ?Subroutine60
      13  ?Subroutine61
       6  ?Subroutine62
       4  ?Subroutine63
       1  ?Subroutine64
      12  ?Subroutine65
       6  ?Subroutine66
      10  ?Subroutine67
      14  ?Subroutine68
      11  ?Subroutine69
       5  ?Subroutine7
       9  ?Subroutine70
      16  ?Subroutine71
      11  ?Subroutine72
       6  ?Subroutine73
      10  ?Subroutine74
      10  ?Subroutine75
       6  ?Subroutine76
       7  ?Subroutine77
       6  ?Subroutine78
      14  ?Subroutine79
       5  ?Subroutine8
       9  ?Subroutine80
      15  ?Subroutine81
       3  ?Subroutine82
       8  ?Subroutine83
       4  ?Subroutine84
       4  ?Subroutine85
       5  ?Subroutine86
      10  ?Subroutine87
       8  ?Subroutine88
       4  ?Subroutine89
       6  ?Subroutine9
       4  ?Subroutine90
       3  ?Subroutine91
      12  ?Subroutine92
      25  ?Subroutine93
       6  ?Subroutine94
      10  ?Subroutine95
       4  ?Subroutine96
       5  ?Subroutine97
       9  ?Subroutine98
      11  ?Subroutine99
       3  NLME_PermitJoiningTimeout
      52  ZDOBuildBuf
      79  ZDO_AnyClusterMatches
     185  ZDO_BuildSimpleDescBuf
      55  ZDO_ConvertOTAClusters
       2  ZDO_EDBind
     196  ZDO_EndDeviceTimeoutCB
      28  ZDO_Init
     236  ZDO_ParseAddrRsp
     130  ZDO_ParseBindUnbindReq
      53  ZDO_ParseDeviceAnnce
     119  ZDO_ParseEPListRsp
     316  ZDO_ParseEndDeviceBindReq
     230  ZDO_ParseMgmNwkDiscRsp
     232  ZDO_ParseMgmtBindRsp
     264  ZDO_ParseMgmtLqiRsp
     237  ZDO_ParseMgmtNwkUpdateNotify
     109  ZDO_ParseMgmtNwkUpdateReq
     161  ZDO_ParseMgmtRtgRsp
     244  ZDO_ParseNodeDescRsp
     139  ZDO_ParseParentAnnce
     165  ZDO_ParsePowerDescRsp
      50  ZDO_ParseServerDiscRsp
     317  ZDO_ParseSimpleDescBuf
      30  ZDO_ParseSimpleDescRsp
     136  ZDO_ParseUserDescRsp
     120  ZDO_ProcessActiveEPReq
     596  ZDO_ProcessBindUnbindReq
     383  ZDO_ProcessDeviceAnnce
     980  ZDO_ProcessMatchDescReq
     260  ZDO_ProcessMgmtBindReq
      81  ZDO_ProcessMgmtDirectJoinReq
     224  ZDO_ProcessMgmtLeaveReq
     726  ZDO_ProcessMgmtLqiReq
     141  ZDO_ProcessMgmtNwkDiscReq
      83  ZDO_ProcessMgmtPermitJoinReq
     244  ZDO_ProcessMgmtRtgReq
      71  ZDO_ProcessNodeDescReq
     520  ZDO_ProcessParentAnnce
     179  ZDO_ProcessParentAnnceRsp
      71  ZDO_ProcessPowerDescReq
      78  ZDO_ProcessServerDiscReq
     130  ZDO_ProcessSimpleDescReq
     193  ZDO_ProcessUserDescReq
     303  ZDO_ProcessUserDescSet
     235  ZDO_StartDevice
      51  ZDO_UpdateAddrManager
      82  ZDO_UpdateNwkStatus
       4  __Constant_0
       4  __Constant_3e8
       4  apsChannelMask
       2  matchED
       1  scanCnt
      73  zdoSendStateChangeMsg
       2  zdpExternalStateTaskID

 
 10 881 bytes in segment BANKED_CODE
    282 bytes in segment BANK_RELAYS
      2 bytes in segment XDATA_I
      2 bytes in segment XDATA_ID
      8 bytes in segment XDATA_ROM_C
     61 bytes in segment XDATA_Z
 
 11 165 bytes of CODE  memory
      0 bytes of CONST memory (+ 8 bytes shared)
     63 bytes of XDATA memory

Errors: none
Warnings: none
